******************************************************************************
             TMS320C2000 Linker PC v22.6.0                     
******************************************************************************
>> Linked Mon Jan 23 06:56:04 2023

OUTPUT FILE NAME:   <../../../04_Output_Files/Motor28062/TEST_CSMON_C28xx.out>
ENTRY POINT SYMBOL: "_c_int00"  address: 003ecb2b


MEMORY CONFIGURATION

         name            origin    length      used     unused   attr    fill
----------------------  --------  ---------  --------  --------  ----  --------
PAGE 0:
  RAML0                 00008000   00000800  00000029  000007d7  RWIX
  RAML1                 00008800   00000400  00000000  00000400  RWIX
  OTP                   003d7800   00000400  00000000  00000400  RWIX
  FLASH_APP             003e8000   0000dff0  00008d95  0000525b  RWIX
  CSM_RSVD              003f7f80   00000076  00000076  00000000  RWIX
  BEGIN                 003f7ff6   00000002  00000002  00000000  RWIX
  CSM_PWL_P0            003f7ff8   00000008  00000008  00000000  RWIX
  FPUTABLES             003fd590   000006a0  00000000  000006a0  RWIX
  IQTABLES              003fdf00   00000b50  00000000  00000b50  RWIX
  IQTABLES2             003fea50   0000008c  00000000  0000008c  RWIX
  IQTABLES3             003feadc   000000aa  00000000  000000aa  RWIX
  ROM                   003ff3b0   00000c10  00000000  00000c10  RWIX
  RESET                 003fffc0   00000002  00000000  00000002  RWIX
  VECTORS               003fffc2   0000003e  00000000  0000003e  RWIX

PAGE 1:
  BOOT_RSVD             00000000   00000050  00000000  00000050  RWIX
  RAMM0                 00000050   000003b0  00000380  00000030  RWIX
  RAMM1                 00000400   00000400  00000000  00000400  RWIX
  DEV_EMU               00000880   00000105  00000004  00000101  RWIX
  SYS_PWR_CTL           00000985   00000003  00000003  00000000  RWIX
  FLASH_REGS            00000a80   00000060  00000008  00000058  RWIX
  CSM                   00000ae0   00000020  00000010  00000010  RWIX
  ADC_RESULT            00000b00   00000020  00000010  00000010  RWIX
  CPU_TIMER0            00000c00   00000008  00000008  00000000  RWIX
  CPU_TIMER1            00000c08   00000008  00000008  00000000  RWIX
  CPU_TIMER2            00000c10   00000008  00000008  00000000  RWIX
  PIE_CTRL              00000ce0   00000020  0000001a  00000006  RWIX
  PIE_VECT              00000d00   00000100  00000100  00000000  RWIX
  DMA                   00001000   00000200  000000e0  00000120  RWIX
  CLA1                  00001400   00000080  00000040  00000040  RWIX
  USB0                  00004000   00001000  00000454  00000bac  RWIX
  McBSPA                00005000   00000040  00000024  0000001c  RWIX
  ECANA                 00006000   00000040  00000034  0000000c  RWIX
  ECANA_LAM             00006040   00000040  00000040  00000000  RWIX
  ECANA_MOTS            00006080   00000040  00000040  00000000  RWIX
  ECANA_MOTO            000060c0   00000040  00000040  00000000  RWIX
  ECANA_MBOX            00006100   00000100  00000100  00000000  RWIX
  COMP1                 00006400   00000020  00000014  0000000c  RWIX
  COMP2                 00006420   00000020  00000014  0000000c  RWIX
  COMP3                 00006440   00000020  00000014  0000000c  RWIX
  EPWM1                 00006800   00000040  00000040  00000000  RWIX
  EPWM2                 00006840   00000040  00000040  00000000  RWIX
  EPWM3                 00006880   00000040  00000040  00000000  RWIX
  EPWM4                 000068c0   00000040  00000040  00000000  RWIX
  EPWM5                 00006900   00000040  00000040  00000000  RWIX
  EPWM6                 00006940   00000040  00000040  00000000  RWIX
  EPWM7                 00006980   00000040  00000040  00000000  RWIX
  EPWM8                 000069c0   00000040  00000040  00000000  RWIX
  ECAP1                 00006a00   00000020  00000020  00000000  RWIX
  ECAP2                 00006a20   00000020  00000020  00000000  RWIX
  ECAP3                 00006a40   00000020  00000020  00000000  RWIX
  HRCAP1                00006ac0   00000020  00000020  00000000  RWIX
  HRCAP2                00006ae0   00000020  00000020  00000000  RWIX
  EQEP1                 00006b00   00000040  00000022  0000001e  RWIX
  EQEP2                 00006b40   00000040  00000022  0000001e  RWIX
  HRCAP3                00006c80   00000020  00000020  00000000  RWIX
  HRCAP4                00006ca0   00000020  00000020  00000000  RWIX
  GPIOCTRL              00006f80   00000040  00000040  00000000  RWIX
  GPIODAT               00006fc0   00000020  00000020  00000000  RWIX
  GPIOINT               00006fe0   00000020  00000020  00000000  RWIX
  SYSTEM                00007010   00000030  00000030  00000000  RWIX
  SPIA                  00007040   00000010  00000010  00000000  RWIX
  SCIA                  00007050   00000010  00000010  00000000  RWIX
  NMIINTRUPT            00007060   00000010  00000010  00000000  RWIX
  XINTRUPT              00007070   00000010  00000010  00000000  RWIX
  ADC                   00007100   00000080  00000050  00000030  RWIX
  SPIB                  00007740   00000010  00000010  00000000  RWIX
  SCIB                  00007750   00000010  00000010  00000000  RWIX
  I2CA                  00007900   00000040  00000022  0000001e  RWIX
  RAML2                 00008c00   00000400  00000400  00000000  RWIX
  RAML34                00009000   00003000  00003000  00000000  RWIX
  RAML5                 0000c000   00002000  00000121  00001edf  RWIX
  RAML6                 0000e000   00002000  00000000  00002000  RWIX
  RAML7                 00010000   00002000  00000000  00002000  RWIX
  RAML8                 00012000   00002000  00000000  00002000  RWIX
  USB_RAM               00040000   00000800  00000000  00000800  RWIX
  PARTID                003d7e80   00000001  00000001  00000000  RWIX
  CSM_PWL               003f7ff8   00000008  00000008  00000000  RWIX


SECTION ALLOCATION MAP

 output                                  attributes/
section   page    origin      length       input sections
--------  ----  ----------  ----------   ----------------
.cinit     0    003f0536    00000860     
                  003f0536    00000216     CSMON_C28xx.lib : hmmodbus.obj (.cinit)
                  003f074c    0000017b     main.obj (.cinit)
                  003f08c7    00000105     CSMON_C28xx.lib : csmon.obj (.cinit)
                  003f09cc    0000009c                     : modbusreg.obj (.cinit)
                  003f0a68    00000030                     : csmon.obj (.cinit:_CSMON_au8FileRecorderConfigElementsSizeTable)
                  003f0a98    0000002b                     : csmon.obj (.cinit:_CSMON_au8FileScopeConfigurationElementsSizeTable)
                  003f0ac3    00000017                     : csmon.obj (.cinit:_CSMON_au8FileRecorderDataElementsSizeTable)
                  003f0ada    00000015                     : csmon.obj (.cinit:_CSMON_sFileAutorization)
                  003f0aef    00000014                     : hmdrv.obj (.cinit)
                  003f0b03    00000014                     : hmprotocol.obj (.cinit)
                  003f0b17    00000013                     : modbusreg.obj (.cinit:_MODBUSREG_au8DeviceIDUserApplicationName)
                  003f0b2a    00000013                     : modbusreg.obj (.cinit:_MODBUSREG_au8DeviceIDVendorUrl)
                  003f0b3d    00000013                     : modbusreg.obj (.cinit:_MODBUSREG_au8ServerIDData)
                  003f0b50    00000013                     : hmrecparam.obj (.cinit:_sRecStatusParam)
                  003f0b63    0000000f                     : csmon.obj (.cinit:_CSMON_sDateTime)
                  003f0b72    0000000f                     : csmon.obj (.cinit:_CSMON_sDateTimeApplication)
                  003f0b81    0000000f                     : csmon.obj (.cinit:_CSMON_sDateTimeDefault)
                  003f0b90    0000000f                     : modbusreg.obj (.cinit:_MODBUSREG_au8DeviceIDModelName)
                  003f0b9f    0000000f     device.obj (.cinit)
                  003f0bae    0000000e     rts2800_ml.lib : exit.c.obj (.cinit)
                  003f0bbc    0000000d     CSMON_C28xx.lib : tmr_drv.obj (.cinit)
                  003f0bc9    0000000d                     : csmon.obj (.cinit:_CSMON_au8FileParameterCountElementsSizeTable)
                  003f0bd6    0000000d                     : csmon.obj (.cinit:_CSMON_au8FileRTCElementsSizeTable)
                  003f0be3    0000000d                     : csmon.obj (.cinit:_sHashKey)
                  003f0bf0    0000000c                     : modbusreg.obj (.cinit:_MODBUSREG_au8DeviceIDProductName)
                  003f0bfc    0000000c                     : modbusreg.obj (.cinit:_MODBUSREG_au8DeviceIDUserReserve0)
                  003f0c08    0000000c                     : modbusreg.obj (.cinit:_MODBUSREG_au8DeviceIDUserReserve1)
                  003f0c14    0000000c                     : modbusreg.obj (.cinit:_MODBUSREG_au8DeviceIDUserReserve2)
                  003f0c20    0000000c                     : modbusreg.obj (.cinit:_MODBUSREG_au8DeviceIDVendorName)
                  003f0c2c    0000000b                     : hmrecparam.obj (.cinit:_HMRECPRM_sDateTime)
                  003f0c37    0000000b     main.obj (.cinit:_MAIN_sDateTimeGet)
                  003f0c42    0000000b     main.obj (.cinit:_MAIN_sDateTimeSet)
                  003f0c4d    0000000b     uart_driver.obj (.cinit:_UART_DRV_RXIntOverflowCounter)
                  003f0c58    0000000b     uart_driver.obj (.cinit:_UART_DRV_u32TimeDiffLast)
                  003f0c63    0000000b     uart_driver.obj (.cinit:_UART_DRV_u32TimeDiffNow)
                  003f0c6e    0000000b     CSMON_C28xx.lib : uart_drv.obj (.cinit:_UART_RXIntOverflowCounter)
                  003f0c79    0000000b                     : tmr_drv.obj (.cinit:_pfDelayedFunction)
                  003f0c84    0000000b                     : tmr_drv.obj (.cinit:_pfDelayedFunction_u8)
                  003f0c8f    0000000b                     : hmrecparam.obj (.cinit:_sRecStatusParamInternal)
                  003f0c9a    0000000b                     : uart_drv.obj (.cinit:_u32TimeDiffLast)
                  003f0ca5    0000000b                     : uart_drv.obj (.cinit:_u32TimeDiffNow)
                  003f0cb0    0000000b                     : uart_drv.obj (.cinit:_u32TimeDiffRead)
                  003f0cbb    00000009                     : hmserial.obj (.cinit)
                  003f0cc4    00000009                     : csmon.obj (.cinit:_CSMON_au32FileAutorization_FunctionAfterWriteFileRecord)
                  003f0ccd    00000009                     : csmon.obj (.cinit:_CSMON_sFileParameterCount)
                  003f0cd6    00000008                     : hmlib.obj (.cinit)
                  003f0cde    00000007                     : csmon.obj (.cinit:_CSMON_au8FileRecorderStatusElementsSizeTable)
                  003f0ce5    00000007                     : modbusreg.obj (.cinit:_MODBUSREG_au8DeviceIDMajorMinorRevision)
                  003f0cec    00000007                     : modbusreg.obj (.cinit:_MODBUSREG_au8DeviceIDProductCode)
                  003f0cf3    00000007                     : uart_drv.obj (.cinit:_UARTRxBufferRDCount)
                  003f0cfa    00000007                     : uart_drv.obj (.cinit:_UARTRxBufferRDIndex)
                  003f0d01    00000007                     : uart_drv.obj (.cinit:_UARTRxBufferWRCount)
                  003f0d08    00000007                     : uart_drv.obj (.cinit:_UARTRxBufferWRIndex)
                  003f0d0f    00000007     uart_driver.obj (.cinit:_UART_DRV_RxBufferRDCount)
                  003f0d16    00000007     uart_driver.obj (.cinit:_UART_DRV_RxBufferWRCount)
                  003f0d1d    00000007     uart_driver.obj (.cinit:_UART_DRV_RxBufferWRIndex)
                  003f0d24    00000006     CSMON_C28xx.lib : csmon.obj (.cinit:_CSMON_abFileAutorization_RecordReadOnly)
                  003f0d2a    00000006                     : csmon.obj (.cinit:_CSMON_abFileAutorization_RecordStringData)
                  003f0d30    00000006                     : csmon.obj (.cinit:_CSMON_au16FileAutorization_RecordOffsets)
                  003f0d36    00000006                     : csmon.obj (.cinit:_CSMON_sFileProtocolVersion)
                  003f0d3c    00000005     rts2800_ml.lib : _lock.c.obj (.cinit:__lock)
                  003f0d41    00000005                    : _lock.c.obj (.cinit:__unlock)
                  003f0d46    00000005     CSMON_C28xx.lib : hmscopeparam.obj (.cinit:_pBufferScope)
                  003f0d4b    00000005                     : csmon.obj (.cinit:_sFileParameterNumericOffsetDefault)
                  003f0d50    00000004                     : hmscopeparam.obj (.cinit)
                  003f0d54    00000004                     : uart_drv.obj (.cinit)
                  003f0d58    00000004                     : csmon.obj (.cinit:_CSMON_au8FileParameterListElementsSizeTablePart1_1)
                  003f0d5c    00000004                     : csmon.obj (.cinit:_CSMON_au8FileParameterListElementsSizeTablePart1_2)
                  003f0d60    00000004                     : csmon.obj (.cinit:_CSMON_au8FileParameterListElementsSizeTablePart1_3)
                  003f0d64    00000004                     : csmon.obj (.cinit:_CSMON_au8FileParameterListElementsSizeTablePart1_4)
                  003f0d68    00000004                     : csmon.obj (.cinit:_CSMON_au8FileParameterListElementsSizeTablePart2)
                  003f0d6c    00000004                     : csmon.obj (.cinit:_CSMON_au8FileParameterListElementsSizeTablePart3)
                  003f0d70    00000004                     : csmon.obj (.cinit:_CSMON_au8FileParameterNumbElementsSizeTablePart16Bits)
                  003f0d74    00000004                     : csmon.obj (.cinit:_CSMON_au8FileParameterNumbElementsSizeTablePart32Bits)
                  003f0d78    00000004                     : csmon.obj (.cinit:_CSMON_au8FileRecorderDataElementsSizeTableUsedLength)
                  003f0d7c    00000004                     : csmon.obj (.cinit:_CSMON_au8FileScopeStatusElementsSizeTable)
                  003f0d80    00000004                     : csmon.obj (.cinit:_CSMON_sFileParameterAccessList)
                  003f0d84    00000004                     : hmmodbus.obj (.cinit:_HMMODBUS_u32RegisterAddressDummyuSize)
                  003f0d88    00000004                     : modbusreg.obj (.cinit:_MODBUSREG_asFileTable)
                  003f0d8c    00000004                     : csmon.obj (.cinit:_sFileParameterNumericVisualTypeDefault)
                  003f0d90    00000004     rts2800_ml.lib : errno.c.obj (.cinit)
                  003f0d94    00000002     --HOLE-- [fill = 0]

.pinit     0    003e8000    00000000     UNINITIALIZED

.text      0    003e8000    00006700     
                  003e8000    000008a0     CSMON_C28xx.lib : hmmodbus.obj (.text:_HMMODBUS_ReadFileRecord)
                  003e88a0    00000893                     : hmmodbus.obj (.text:_HMMODBUS_bDecoder_OPT)
                  003e9133    0000077b                     : modbusreg.obj (.text:_MODBUSREG_AddressTablesInit)
                  003e98ae    00000698     rts2800_ml.lib : k_rem_pio2.c.obj (.text)
                  003e9f46    0000066f     CSMON_C28xx.lib : hmmodbus.obj (.text:_HMMODBUS_WriteFileRecord)
                  003ea5b5    000001ae     main.obj (.text:_main)
                  003ea763    0000017f     CSMON_C28xx.lib : csmon.obj (.text:_CSMON_eSetUpRecParam)
                  003ea8e2    0000016a                     : csmon.obj (.text:_CSMON_eProcess)
                  003eaa4c    00000146                     : hmmodbus.obj (.text:_HMMODBUS_Rx)
                  003eab92    0000011b                     : hmmodbus.obj (.text:_HMMODBUS_vSetFreeRunTimerPrescaller)
                  003eacad    00000114     rts2800_ml.lib : s_sinf.c.obj (.text)
                  003eadc1    00000107                    : ll_div28.asm.obj (.text)
                  003eaec8    000000f1     CSMON_C28xx.lib : csmon.obj (.text:_CSMON_vFileRecoderStatusFix)
                  003eafb9    000000ef                     : hmmodbus.obj (.text:_HMMODBUS_WriteHoldingRegister)
                  003eb0a8    000000e9                     : hmmodbus.obj (.text:_HMMODBUS_ReadHoldingRegister)
                  003eb191    000000e9                     : hmprotocol.obj (.text:_HMPROTOCOL_bDecoder)
                  003eb27a    000000e8                     : hmrecparam.obj (.text:_HMRECPRM_vProcess)
                  003eb362    000000e8     rts2800_ml.lib : s_floor.c.obj (.text)
                  003eb44a    000000e4     main.obj (.text:_ControlProcess)
                  003eb52e    000000d6     CSMON_C28xx.lib : csmon.obj (.text:_CSMON_vSetupHoldingRegistersAndCoilsAddressTableFromCSMONParameterList)
                  003eb604    000000c6                     : csmon.obj (.text:_CSMON_vInitParameterListRealAddressRecordTables)
                  003eb6ca    000000c2                     : hmdrv.obj (.text:_HMDRV_vInit)
                  003eb78c    000000bc                     : hmrecparam.obj (.text:_HMRECPRM_SetUpRec)
                  003eb848    000000ba                     : csmon.obj (.text:_CSMON_eInit)
                  003eb902    000000b8                     : hmrec.obj (.text:_HMREC_SetUpRec)
                  003eb9ba    000000aa                     : hmdrv.obj (.text:_HMDRV_CopyFromBufferInternalModbusBitField)
                  003eba64    000000aa     rts2800_ml.lib : s_scalbn.c.obj (.text)
                  003ebb0e    000000a7                    : e_rem_pio2f.c.obj (.text)
                  003ebbb5    000000a3     CSMON_C28xx.lib : tmr_drv.obj (.text:_TMR2_ISR)
                  003ebc58    0000009d                     : hmmodbus.obj (.text:_HMMODBUS_GetRealRegisterAddressAndSize)
                  003ebcf5    0000009c     rts2800_ml.lib : fd_add28.asm.obj (.text)
                  003ebd91    00000099     main.obj (.text:_RecordersInitialization)
                  003ebe2a    00000097     main.obj (.text:_ParameterInitialization)
                  003ebec1    00000092     CSMON_C28xx.lib : hmdrv.obj (.text:_HMDRV_CopyMemory)
                  003ebf53    00000092                     : hmdrv.obj (.text:_HMDRV_CopyToBufferInternalModbus)
                  003ebfe5    00000092     rts2800_ml.lib : k_sinf.c.obj (.text)
                  003ec077    00000090     CSMON_C28xx.lib : csmon.obj (.text:_CSMON_vSetDateTimeAutorization)
                  003ec107    0000008b     rts2800_ml.lib : fd_div28.asm.obj (.text)
                  003ec192    00000087     CSMON_C28xx.lib : hmrecparam.obj (.text:_HMRECPRM_SetUpRecParamStatusDateTime)
                  003ec219    00000087     rts2800_ml.lib : k_cosf.c.obj (.text)
                  003ec2a0    00000083     CSMON_C28xx.lib : hmdrv.obj (.text:_HMDRV_CopyFromBufferInternalModbus)
                  003ec323    00000083     rts2800_ml.lib : fd_mpy28.asm.obj (.text)
                  003ec3a6    00000083                    : fs_div28.asm.obj (.text)
                  003ec429    0000007f     CSMON_C28xx.lib : csmon.obj (.text:_CSMON_vPrepareFileParameterAccessList)
                  003ec4a8    0000007f                     : hmserial.obj (.text:_HMSERIAL_vProcessSCI)
                  003ec527    00000078     rts2800_ml.lib : fs_add28.asm.obj (.text)
                  003ec59f    0000006a     CSMON_C28xx.lib : hmserial.obj (.text:_HMSERIAL_Rx)
                  003ec609    00000068                     : hmmodbus.obj (.text:_HMMODBUS_vProcessSCI)
                  003ec671    00000068                     : hmprotocol.obj (.text:_HMPROTOCOL_GetBoardInfo)
                  003ec6d9    00000067                     : hmmodbus.obj (.text:_HMMODBUS_CopyFromBuffer)
                  003ec740    00000064                     : hmrec.obj (.text:_HMREC_vProcess)
                  003ec7a4    00000062                     : modbusreg.obj (.text:_MODBUSREG_vInit)
                  003ec806    0000005f     F2806x_SysCtrl.obj (.text:_InitPeripheralClocks)
                  003ec865    0000005d     CSMON_C28xx.lib : uart_drv.obj (.text:_UART_RXInterrupt)
                  003ec8c2    0000005a                     : gpio.obj (.text:_GPIO_setPinConfigOutput)
                  003ec91c    0000005a     rts2800_ml.lib : fs_mpy28.asm.obj (.text)
                  003ec976    00000059     CSMON_C28xx.lib : csmon.obj (.text:_CSMON_vUpdateDateTimeFromApplication)
                  003ec9cf    00000059                     : hmmodbus.obj (.text:_vSetElementsSize)
                  003eca28    00000057                     : csmon.obj (.text:_CSMON_bCheckValidDateTime)
                  003eca7f    00000057     uart_driver.obj (.text:_UART_DRV_RXInterrupt)
                  003ecad6    00000055     CSMON_C28xx.lib : modbusreg.obj (.text:_MODBUSREG_FileRecorderExternalUpdateInit)
                  003ecb2b    00000054     rts2800_ml.lib : boot28.asm.obj (.text)
                  003ecb7f    00000052     CSMON_C28xx.lib : csmon.obj (.text:_CSMON_eSetRecorderTriggerAtPosition)
                  003ecbd1    00000051     F2806x_SysCtrl.obj (.text:_InitPll)
                  003ecc22    0000004f     device.obj (.text:_Device_CsmUnlock)
                  003ecc71    0000004e     CSMON_C28xx.lib : hmmodbus.obj (.text:_HMMODBUS_GetRegisterFunction)
                  003eccbf    0000004e                     : hmrecparam.obj (.text:_HMRECPRM_StartRecParam)
                  003ecd0d    0000004c                     : hmmodbus.obj (.text:_HMMODBUS_vSendResponse)
                  003ecd59    0000004c                     : hmrecparam.obj (.text:_HMRECPRM_vTimeSync)
                  003ecda5    00000047                     : hmmodbus.obj (.text:_HMMODBUS_CopyToBuffer)
                  003ecdec    00000047                     : hmscopeparam.obj (.text:_HMSCOPEPRM_SetUpScope)
                  003ece33    00000045     main.obj (.text:_ExternalParametersInitialization)
                  003ece78    00000043     CSMON_C28xx.lib : hmscopeparam.obj (.text:_HMSCOPEPRM_ReadScope)
                  003ecebb    00000042     interrupt.obj (.text:_Interrupt_enable)
                  003ecefd    0000003f     CSMON_C28xx.lib : hmdrv.obj (.text:_HMDRV_CopyFromBufferInternal)
                  003ecf3c    0000003d                     : hmmodbus.obj (.text:_vSetStartSampleIndex)
                  003ecf79    0000003c                     : tmr_drv.obj (.text:_configCPUTimer)
                  003ecfb5    0000003b                     : hmscope.obj (.text:_HMSCOPE_SetUpScope)
                  003ecff0    00000039                     : csmon.obj (.text:_CSMON_u16FindIndexParameterTable)
                  003ed029    00000038                     : csmon.obj (.text:_CSMON_eSetRecorderConfigurationSkipSamples)
                  003ed061    00000038     device.obj (.text:_Device_init)
                  003ed099    00000038     CSMON_C28xx.lib : hmmodbus.obj (.text:_HMMODBUS_bDecoderInit_OPT)
                  003ed0d1    00000038                     : uart_drv.obj (.text:_UART_ReadDataRx)
                  003ed109    00000036                     : csmon.obj (.text:_CSMON_vRecorderParamStartStopProcess)
                  003ed13f    00000036                     : hmscope.obj (.text:_HMSCOPE_ReadScope)
                  003ed175    00000036                     : hmserial.obj (.text:_HMSERIAL_vSendResponse)
                  003ed1ab    00000035                     : csmon.obj (.text:_CSMON_u32GetRealAddressAndSizeOffsetFromParameter)
                  003ed1e0    00000035                     : hmdrv.obj (.text:_HMDRV_CopyToBufferInternal)
                  003ed215    00000033                     : hmmodbus.obj (.text:_HMMODBUS_Listen)
                  003ed248    0000002e                     : hmserial.obj (.text:_HMSERIAL_vProcessSCIFreemasterOnly)
                  003ed276    0000002d                     : csmon.obj (.text:_CSMON_eSetParameterInRecorderAtPosition)
                  003ed2a3    0000002d                     : csmon.obj (.text:_CSMON_eSetParameterInScopeAtPosition)
                  003ed2d0    0000002d                     : csmon.obj (.text:_CSMON_vInitRecorders)
                  003ed2fd    0000002d                     : csmon.obj (.text:_CSMON_vSetupHoldingRegistersAndCoilsAddressTableAccessAll)
                  003ed32a    0000002d                     : hmserial.obj (.text:_HMSERIAL_Listen)
                  003ed357    0000002d                     : hmrecparam.obj (.text:_RecorderTimeFromLocalDateTime)
                  003ed384    0000002b                     : hmrecparam.obj (.text:_FillTimeData)
                  003ed3af    0000002a     rts2800_ml.lib : fd_cmp28.asm.obj (.text)
                  003ed3d9    00000029                    : exit.c.obj (.text)
                  003ed402    00000029                    : fs_tol28.asm.obj (.text)
                  003ed42b    00000028     CSMON_C28xx.lib : csmon.obj (.text:_CSMON_bAutorizationPasswordCheck)
                  003ed453    00000028     main.obj (.text:_ScopesInitialization)
                  003ed47b    00000027     CSMON_C28xx.lib : hmserial.obj (.text:_HMSERIAL_vProcessSCITXISR)
                  003ed4a2    00000027                     : hmdrv.obj (.text:_sci_echoback_init)
                  003ed4c9    00000026                     : hmdrv.obj (.text:_HMDRV_CopyFromBufferInternalWithMaskModbus)
                  003ed4ef    00000026                     : modbusreg.obj (.text:_MODBUSREG_vInitHoldingRegistersTableChangesExternalList)
                  003ed515    00000025                     : hmserial.obj (.text:_HMSERIAL_Tx)
                  003ed53a    00000025     rts2800_ml.lib : fs_toi28.asm.obj (.text)
                  003ed55f    00000024     CSMON_C28xx.lib : csmon.obj (.text:_CSMON_vAutorizationReset)
                  003ed583    00000024                     : hmprotocol.obj (.text:_HMPROTOCOL_ReadMem)
                  003ed5a7    00000024                     : hmrecparam.obj (.text:_RecorderDateFromLocalDateTime)
                  003ed5cb    00000024     sci_driver.obj (.text:_SCIA_DRV_RXFIFOISR)
                  003ed5ef    00000024     sci_driver.obj (.text:_SCIA_DRV_TXFIFOISR)
                  003ed613    00000024     CSMON_C28xx.lib : sci_drv.obj (.text:_SCIA_RXFIFOISR)
                  003ed637    00000024                     : sci_drv.obj (.text:_SCIA_TXFIFOISR)
                  003ed65b    00000024     sci_driver.obj (.text:_SCIB_DRV_RXFIFOISR)
                  003ed67f    00000024     sci_driver.obj (.text:_SCIB_DRV_TXFIFOISR)
                  003ed6a3    00000024     CSMON_C28xx.lib : sci_drv.obj (.text:_SCIB_RXFIFOISR)
                  003ed6c7    00000024                     : sci_drv.obj (.text:_SCIB_TXFIFOISR)
                  003ed6eb    00000024                     : tmr_drv.obj (.text:_TMR_vInit)
                  003ed70f    00000024                     : hmmodbus.obj (.text:_vSetSampleCountAvailable)
                  003ed733    00000024     rts2800_ml.lib : cpy_tbl.c.obj (.text)
                  003ed757    00000023     CSMON_C28xx.lib : csmon.obj (.text:_CSMON_vRecorderParamSetupProcess)
                  003ed77a    00000023                     : hmlib.obj (.text:_HMLIB_vInit)
                  003ed79d    00000023                     : modbusreg.obj (.text:_MODBUSREG_FileRecorderElementSizeTableUsedSizeUpdateInit)
                  003ed7c0    00000023     rts2800_ml.lib : s_copysign.c.obj (.text)
                  003ed7e3    00000022                    : i_div28.asm.obj (.text)
                  003ed805    00000021     CSMON_C28xx.lib : csmon.obj (.text:_CSMON_eSetParameterListParameterID)
                  003ed826    00000021                     : hmdrv.obj (.text:_HMDRV_CopyFromBufferInternalWithMask)
                  003ed847    00000021     rts2800_ml.lib : fd_tofs28.asm.obj (.text)
                  003ed868    00000021                    : fs_toul28.asm.obj (.text)
                  003ed889    00000020     CSMON_C28xx.lib : hmdrv.obj (.text:_HMDRV_vProcess)
                  003ed8a9    00000020                     : tmr_drv.obj (.text:_TMR_vInitCPUTimers)
                  003ed8c9    00000020                     : hmmodbus.obj (.text:_vSetSampleCountBuffer)
                  003ed8e9    0000001f                     : hmmodbus.obj (.text:_HMMODBUS_vInit)
                  003ed908    0000001f     F2806x_PieCtrl.obj (.text:_InitPieCtrl)
                  003ed927    0000001f     CSMON_C28xx.lib : hmmodbus.obj (.text:_vSetSampleSize)
                  003ed946    0000001f     rts2800_ml.lib : fd_tol28.asm.obj (.text)
                  003ed965    0000001d     CSMON_C28xx.lib : csmon.obj (.text:_CSMON_eSetParameterListRealAddress)
                  003ed982    0000001d                     : hmmodbus.obj (.text:_HMMODBUS_Tx)
                  003ed99f    0000001d                     : hmrecparam.obj (.text:_HMRECPRM_GetRecBuffFreemaster)
                  003ed9bc    0000001d                     : hmrec.obj (.text:_HMREC_GetRecBuffFreemaster)
                  003ed9d9    0000001d     rts2800_ml.lib : fs_tou28.asm.obj (.text)
                  003ed9f6    0000001d                    : memcpy.c.obj (.text)
                  003eda13    0000001c     main.obj (.text:_CSMON_vGetDateTime)
                  003eda2f    0000001c     CSMON_C28xx.lib : csmon.obj (.text:_HMRECPRM_vGetDateTime)
                  003eda4b    0000001c                     : sci.obj (.text:_SCI_clearInterruptStatus)
                  003eda67    0000001c                     : hmmodbus.obj (.text:_vSetIndexFileTable)
                  003eda83    0000001c     rts2800_ml.lib : fs_tofd28.asm.obj (.text)
                  003eda9f    0000001c                    : l_tofd28.asm.obj (.text)
                  003edabb    0000001b     device.obj (.text:_Device_initGPIO)
                  003edad6    0000001b     CSMON_C28xx.lib : hmdrv.obj (.text:_HMDRV_AddressToBuffer)
                  003edaf1    0000001b     rts2800_ml.lib : fd_toul28.asm.obj (.text)
                  003edb0c    0000001a     CSMON_C28xx.lib : hmmodbus.obj (.text:_HMMODBUS_vProcessSCITXISR)
                  003edb26    0000001a                     : hmrecparam.obj (.text:_HMRECPRM_StartRec)
                  003edb40    0000001a                     : hmserial.obj (.text:_HMSERIAL_vProcessSCITXISRFreemasterOnly)
                  003edb5a    0000001a                     : sci.obj (.text:_SCI_disableInterrupt)
                  003edb74    0000001a                     : sci.obj (.text:_SCI_enableInterrupt)
                  003edb8e    0000001a     rts2800_ml.lib : l_tofs28.asm.obj (.text)
                  003edba8    00000019     CSMON_C28xx.lib : csmon.obj (.text:_CSMON_eSetParameterCountInRecorder)
                  003edbc1    00000019                     : hmdrv.obj (.text:_HMDRV_AddressFromBuffer)
                  003edbda    00000019                     : uart_drv.obj (.text:_UART_vInit)
                  003edbf3    00000019                     : hmmodbus.obj (.text:_bGetFileReadAccess)
                  003edc0c    00000019     rts2800_ml.lib : prolog28.asm.obj (.text)
                  003edc25    00000018     CSMON_C28xx.lib : csmon.obj (.text:_CSMON_u32GetFreeRunningTimerMicroseconds)
                  003edc3d    00000018                     : hmlib.obj (.text:_HMLIB_vProcessSCITXISRWithIndex)
                  003edc55    00000018     F2806x_SysCtrl.obj (.text:_InitSysCtrl)
                  003edc6d    00000018     rts2800_ml.lib : ll_aox28.asm.obj (.text)
                  003edc85    00000017     CSMON_C28xx.lib : csmon.obj (.text:_CSMON_vSaveRecorderConfig)
                  003edc9c    00000017                     : hmmodbus.obj (.text:_HMMODBUS_vProcessTxDelay)
                  003edcb3    00000017                     : hmprotocol.obj (.text:_HMPROTOCOL_WriteMem)
                  003edcca    00000017                     : hmprotocol.obj (.text:_HMPROTOCOL_WriteMemMask)
                  003edce1    00000017                     : hmmodbus.obj (.text:_vSetBufferAddressStart)
                  003edcf8    00000017     rts2800_ml.lib : fs_cmp28.asm.obj (.text)
                  003edd0f    00000017                    : u_tofd28.asm.obj (.text)
                  003edd26    00000016     CSMON_C28xx.lib : csmon.obj (.text:_CSMON_eSetParameterCountInScope)
                  003edd3c    00000016                     : hmdrv.obj (.text:_HMDRV_AddressFromBufferBigEndian)
                  003edd52    00000015                     : hmrecparam.obj (.text:_HMRECPRM_Comparefloat)
                  003edd67    00000015                     : hmrec.obj (.text:_HMREC_Comparefloat)
                  003edd7c    00000015                     : hmrec.obj (.text:_HMREC_StartRec)
                  003edd91    00000015     F2806x_Gpio.obj (.text:_InitGpio)
                  003edda6    00000014     CSMON_C28xx.lib : hmlib.obj (.text:_HMLIB_vProcessFastTD)
                  003eddba    00000014                     : hmmodbus.obj (.text:_HMMODBUS_DelayedTx)
                  003eddce    00000014                     : hmrecparam.obj (.text:_HMRECPRM_StopRecParam)
                  003edde2    00000014                     : hmserial.obj (.text:_HMSERIAL_DelayedTx)
                  003eddf6    00000013                     : csmon.obj (.text:_CSMON_eSetFlagProcessPassed)
                  003ede09    00000013     rts2800_ml.lib : ul_tofs28.asm.obj (.text)
                  003ede1c    00000012     CSMON_C28xx.lib : csmon.obj (.text:_CSMON_vFileParameterCountCheckSumUpdate)
                  003ede2e    00000012                     : hmdrv.obj (.text:_HMDRV_GetStringLengthFromWordInternal)
                  003ede40    00000012                     : hmmodbus.obj (.text:_HMMODBUS_vSetupRegisterDummy)
                  003ede52    00000012                     : hmrecparam.obj (.text:_HMRECPRM_CompareBOOL)
                  003ede64    00000012                     : modbusreg.obj (.text:_MODBUSREG_FileShortNameElementSizeandAddressUpdateInit)
                  003ede76    00000012                     : modbusreg.obj (.text:_MODBUSREG_vFileDenyAccess)
                  003ede88    00000012                     : uart_drv.obj (.text:_UART_TxIntDis)
                  003ede9a    00000012                     : uart_drv.obj (.text:_UART_TxIntEna)
                  003edeac    00000011     main.obj (.text:_CSMON_vSetDateTime)
                  003edebd    00000011     CSMON_C28xx.lib : hmserial.obj (.text:_HMSERIAL_vInit)
                  003edece    00000011     F2806x_PieVect.obj (.text:_InitPieVectTable)
                  003ededf    00000011     main.obj (.text:_vSetWatchdogPrescalerTimeDiv)
                  003edef0    00000011     rts2800_ml.lib : args_main.c.obj (.text)
                  003edf01    00000010     CSMON_C28xx.lib : csmon.obj (.text:_CSMON_eSetParameterListRegisterFlags)
                  003edf11    00000010     device.obj (.text:_Example_MemCopy)
                  003edf21    00000010     F2806x_SysCtrl.obj (.text:_IntOsc1Sel)
                  003edf31    00000010     CSMON_C28xx.lib : hmmodbus.obj (.text:_bIsValidEndAddressInBuffer)
                  003edf41    00000010                     : hmmodbus.obj (.text:_u32BytesMemoryToBytesModbus)
                  003edf51    00000010                     : hmmodbus.obj (.text:_u32BytesModbusToBytesMemory)
                  003edf61    00000010     main.obj (.text:_vGetWatchdogPrescaler)
                  003edf71    00000010     rts2800_ml.lib : u_tofs28.asm.obj (.text)
                  003edf81    0000000f     CSMON_C28xx.lib : hmmodbus.obj (.text:_HMMODBUS_CalcCRC)
                  003edf90    0000000f                     : uart_drv.obj (.text:_UART_IsTxEmpty)
                  003edf9f    0000000e                     : hmdrv.obj (.text:_HMDRV_GetStringLengthInternal)
                  003edfad    0000000e                     : hmrecparam.obj (.text:_HMRECPRM_Compare16S)
                  003edfbb    0000000e                     : hmrecparam.obj (.text:_HMRECPRM_Compare16U)
                  003edfc9    0000000e                     : hmrecparam.obj (.text:_HMRECPRM_Compare32S)
                  003edfd7    0000000e                     : hmrecparam.obj (.text:_HMRECPRM_Compare32U)
                  003edfe5    0000000e                     : hmrecparam.obj (.text:_HMRECPRM_Compare8S)
                  003edff3    0000000e                     : hmrecparam.obj (.text:_HMRECPRM_Compare8U)
                  003ee001    0000000e                     : hmrec.obj (.text:_HMREC_Compare16S)
                  003ee00f    0000000e                     : hmrec.obj (.text:_HMREC_Compare16U)
                  003ee01d    0000000e                     : hmrec.obj (.text:_HMREC_Compare32S)
                  003ee02b    0000000e                     : hmrec.obj (.text:_HMREC_Compare32U)
                  003ee039    0000000e                     : hmrec.obj (.text:_HMREC_Compare8S)
                  003ee047    0000000e                     : hmrec.obj (.text:_HMREC_Compare8U)
                  003ee055    0000000e                     : hmmodbus.obj (.text:_u32FitAddressCircleBufferInside)
                  003ee063    0000000e     rts2800_ml.lib : fd_sub28.asm.obj (.text)
                  003ee071    0000000d     CSMON_C28xx.lib : csmon.obj (.text:_CSMON_eResetParameterTable)
                  003ee07e    0000000d                     : csmon.obj (.text:_CSMON_vInitHoldingRegistersTableChanges)
                  003ee08b    0000000d                     : hmrecparam.obj (.text:_HMRECPRM_IsJustStopped)
                  003ee098    0000000d                     : hmrecparam.obj (.text:_HMRECPRM_StopRec)
                  003ee0a5    0000000d                     : hmrec.obj (.text:_HMREC_StopRec)
                  003ee0b2    0000000d                     : modbusreg.obj (.text:_MODBUSREG_vFileAllowAccess)
                  003ee0bf    0000000d                     : tmr_drv.obj (.text:_TIMER_vSetupTimerMainFunctionDelayCompare)
                  003ee0cc    0000000d                     : uart_drv.obj (.text:_UART_ReadDataRxAvailable)
                  003ee0d9    0000000c                     : hmlib.obj (.text:_HMLIB_vProcess)
                  003ee0e5    0000000c                     : hmrecparam.obj (.text:_HMRECPRM_GetBufferRecParamPtrAddress)
                  003ee0f1    0000000c                     : hmrecparam.obj (.text:_HMRECPRM_TriggerRec)
                  003ee0fd    0000000c                     : hmmodbus.obj (.text:_u32FixAddressCircleBufferOverflow)
                  003ee109    0000000c     rts2800_ml.lib : epilog28.asm.obj (.text)
                  003ee115    0000000b     CSMON_C28xx.lib : hmmodbus.obj (.text:_HMMODBUS_vProcessFastTD)
                  003ee120    0000000b                     : hmrecparam.obj (.text:_HMRECPRM_IsRunning)
                  003ee12b    0000000b                     : hmserial.obj (.text:_HMSERIAL_vProcessFastTD)
                  003ee136    0000000b                     : modbusreg.obj (.text:_MODBUSREG_vDataZero)
                  003ee141    0000000b     sci_driver.obj (.text:_SCI_DRV_eGetModuleIndexFromBase)
                  003ee14c    0000000b     CSMON_C28xx.lib : sci_drv.obj (.text:_SCI_eGetModuleIndexFromBase)
                  003ee157    0000000b                     : hmmodbus.obj (.text:_bIsValidIndexFileTable)
                  003ee162    0000000b     rts2800_ml.lib : u_div28.asm.obj (.text)
                  003ee16d    0000000a     CSMON_C28xx.lib : hmrecparam.obj (.text:_HMRECPRM_ClrLastStopDetectionToRecorderStopSamplesCounter)
                  003ee177    0000000a                     : hmrecparam.obj (.text:_HMRECPRM_GetRecStatus)
                  003ee181    0000000a                     : hmrec.obj (.text:_HMREC_GetRecStatus)
                  003ee18b    0000000a                     : hmdrv.obj (.text:_sci_fifo_init)
                  003ee195    00000009                     : csmon.obj (.text:_CSMON_eSetParameterListRegisterSize)
                  003ee19e    00000009                     : csmon.obj (.text:_CSMON_eSetParameterListShortNaming)
                  003ee1a7    00000009                     : csmon.obj (.text:_CSMON_eSetServerOnStatus)
                  003ee1b0    00000009                     : hmlib.obj (.text:_HMLIB_vInitRecParamBuff)
                  003ee1b9    00000009                     : hmmodbus.obj (.text:_HMMODBUS_vProcessFreeTimer)
                  003ee1c2    00000009                     : hmmodbus.obj (.text:_HMMODBUS_vProcessRxDelay)
                  003ee1cb    00000009                     : hmrecparam.obj (.text:_HMRECPRM_GetExternBufferRecParamLastPointedAddress)
                  003ee1d4    00000009                     : hmrecparam.obj (.text:_HMRECPRM_GetExternBufferRecParamPtrAddress)
                  003ee1dd    00000009                     : hmrec.obj (.text:_HMREC_TriggerRec)
                  003ee1e6    00000009                     : hmscopeparam.obj (.text:_HMSCOPEPRM_GetBufferScopeParamAddress)
                  003ee1ef    00000009                     : hmserial.obj (.text:_HMSERIAL_vProcessFreeTimer)
                  003ee1f8    00000009                     : tmr_drv.obj (.text:_TIMER_vResetTimerMainFunctionDelayCounter)
                  003ee201    00000009                     : tmr_drv.obj (.text:_TIMER_vSetupTimerMainDelayedFunctionSendData)
                  003ee20a    00000009                     : uart_drv.obj (.text:_UART_PutChar)
                  003ee213    00000009                     : uart_drv.obj (.text:_UART_ReadDataRxTimeDiff)
                  003ee21c    00000009     rts2800_ml.lib : _lock.c.obj (.text)
                  003ee225    00000009                    : fd_neg28.asm.obj (.text)
                  003ee22e    00000008     Example_Flash2806x_CsmKeys.obj (.text)
                  003ee236    00000008     F2806x_CodeStartBranch.obj (.text)
                  003ee23e    00000008     F2806x_SysCtrl.obj (.text:_DisableDog)
                  003ee246    00000008     CSMON_C28xx.lib : hmdrv.obj (.text:_HMDRV_CopyFromBufferWithMaskModbus)
                  003ee24e    00000008                     : hmmodbus.obj (.text:_HMMODBUS_vSetupHoldingRegistersProcessFuncTable)
                  003ee256    00000008                     : hmmodbus.obj (.text:_HMMODBUS_vSetupHoldingRegistersRealAddressTable)
                  003ee25e    00000008                     : hmmodbus.obj (.text:_HMMODBUS_vSetupHoldingRegistersRegisterFlagsTable)
                  003ee266    00000008                     : hmmodbus.obj (.text:_HMMODBUS_vSetupHoldingRegistersRegisterSizeTable)
                  003ee26e    00000008                     : hmmodbus.obj (.text:_HMMODBUS_vSetupHoldingRegistersVirtAddressTable)
                  003ee276    00000008                     : hmrecparam.obj (.text:_HMRECPRM_GetExternRecParamAddress)
                  003ee27e    00000008                     : hmrecparam.obj (.text:_HMRECPRM_GetExternRecParamPtrMaximumUsedSampleCount)
                  003ee286    00000008                     : hmrecparam.obj (.text:_HMRECPRM_GetExternRecParamPtrSampleSize)
                  003ee28e    00000008                     : hmrecparam.obj (.text:_HMRECPRM_GetRecParamPtrAvailableSampleCount)
                  003ee296    00000008                     : hmrecparam.obj (.text:_HMRECPRM_GetRecParamPtrLastSampleIndex)
                  003ee29e    00000008                     : hmrecparam.obj (.text:_HMRECPRM_GetRecParamPtrMaximumUsedSampleCount)
                  003ee2a6    00000008                     : hmrecparam.obj (.text:_HMRECPRM_GetRecParamPtrSampleSize)
                  003ee2ae    00000008                     : hmrecparam.obj (.text:_HMRECPRM_GetStatusRecParamAddress)
                  003ee2b6    00000008                     : hmrecparam.obj (.text:_HMRECPRM_vInit)
                  003ee2be    00000008                     : hmrec.obj (.text:_HMREC_vInit)
                  003ee2c6    00000007     F2806x_DisInt.obj (.text)
                  003ee2cd    00000007     CSMON_C28xx.lib : csmon.obj (.text:_CSMON_eSetParameterListAccessLevel)
                  003ee2d4    00000007                     : csmon.obj (.text:_CSMON_eSetParameterListBitsCount)
                  003ee2db    00000007                     : csmon.obj (.text:_CSMON_eSetParameterListDataDefault)
                  003ee2e2    00000007                     : csmon.obj (.text:_CSMON_eSetParameterListDataMaximum)
                  003ee2e9    00000007                     : csmon.obj (.text:_CSMON_eSetParameterListDataMinimum)
                  003ee2f0    00000007                     : csmon.obj (.text:_CSMON_eSetParameterListDataType)
                  003ee2f7    00000007                     : csmon.obj (.text:_CSMON_eSetParameterListFunctionCode)
                  003ee2fe    00000007                     : csmon.obj (.text:_CSMON_eSetParameterListValueFormat)
                  003ee305    00000007                     : hmlib.obj (.text:_HMLIB_vProcessDifferentPorts)
                  003ee30c    00000007                     : hmlib.obj (.text:_HMLIB_vProcessRecorders)
                  003ee313    00000007                     : hmrecparam.obj (.text:_HMRECPRM_vResetAllStopDetections)
                  003ee31a    00000007                     : hmscopeparam.obj (.text:_HMSCOPEPRM_GetStatusScopeParamAddress)
                  003ee321    00000007                     : modbusreg.obj (.text:_MODBUSREG_vInitHoldingRegistersTableChanges)
                  003ee328    00000007     sci_driver.obj (.text:_SCI_DRV_u32GetBaseFromModuleIndex)
                  003ee32f    00000007     CSMON_C28xx.lib : sci_drv.obj (.text:_SCI_u32GetBaseFromModuleIndex)
                  003ee336    00000006                     : cputimer.obj (.text:_CPUTimer_setEmulationMode)
                  003ee33c    00000006                     : hmrecparam.obj (.text:_HMRECPRM_SetUpRecBuff)
                  003ee342    00000006                     : hmrec.obj (.text:_HMREC_SetUpRecBuff)
                  003ee348    00000006                     : tmr_drv.obj (.text:_TIMER_u16ResetTimerMainPeriod)
                  003ee34e    00000006     uart_driver.obj (.text:_UART_DRV_GetChar)
                  003ee354    00000006     CSMON_C28xx.lib : uart_drv.obj (.text:_UART_GetChar)
                  003ee35a    00000005     F2806x_DefaultIsr.obj (.text:_ADCINT1_ISR)
                  003ee35f    00000005     F2806x_DefaultIsr.obj (.text:_ADCINT2_ISR)
                  003ee364    00000005     F2806x_DefaultIsr.obj (.text:_ADCINT3_ISR)
                  003ee369    00000005     F2806x_DefaultIsr.obj (.text:_ADCINT4_ISR)
                  003ee36e    00000005     F2806x_DefaultIsr.obj (.text:_ADCINT5_ISR)
                  003ee373    00000005     F2806x_DefaultIsr.obj (.text:_ADCINT6_ISR)
                  003ee378    00000005     F2806x_DefaultIsr.obj (.text:_ADCINT7_ISR)
                  003ee37d    00000005     F2806x_DefaultIsr.obj (.text:_ADCINT8_ISR)
                  003ee382    00000005     F2806x_DefaultIsr.obj (.text:_ADCINT9_ISR)
                  003ee387    00000005     F2806x_DefaultIsr.obj (.text:_CLA1_INT1_ISR)
                  003ee38c    00000005     F2806x_DefaultIsr.obj (.text:_CLA1_INT2_ISR)
                  003ee391    00000005     F2806x_DefaultIsr.obj (.text:_CLA1_INT3_ISR)
                  003ee396    00000005     F2806x_DefaultIsr.obj (.text:_CLA1_INT4_ISR)
                  003ee39b    00000005     F2806x_DefaultIsr.obj (.text:_CLA1_INT5_ISR)
                  003ee3a0    00000005     F2806x_DefaultIsr.obj (.text:_CLA1_INT6_ISR)
                  003ee3a5    00000005     F2806x_DefaultIsr.obj (.text:_CLA1_INT7_ISR)
                  003ee3aa    00000005     F2806x_DefaultIsr.obj (.text:_CLA1_INT8_ISR)
                  003ee3af    00000005     CSMON_C28xx.lib : csmon.obj (.text:_CSMON_eSetAutoServiceWatchdogInternalSlowCalculationsInMainLoop)
                  003ee3b4    00000005                     : csmon.obj (.text:_CSMON_eSetFirmwareApplicationVersion)
                  003ee3b9    00000005                     : csmon.obj (.text:_CSMON_eSetMaxTimeInISR)
                  003ee3be    00000005                     : csmon.obj (.text:_CSMON_eSetMinGuaranteedTimeBetweenTwoISRs)
                  003ee3c3    00000005                     : csmon.obj (.text:_CSMON_u16ParametersAccessListIndexGenerate)
                  003ee3c8    00000005                     : csmon.obj (.text:_CSMON_u32GetFreeRunningTimerTicks)
                  003ee3cd    00000005                     : csmon.obj (.text:_CSMON_u32GetParameterAuxCheckSum)
                  003ee3d2    00000005                     : csmon.obj (.text:_CSMON_u32GetParameterCheckSum)
                  003ee3d7    00000005                     : csmon.obj (.text:_CSMON_u32GetParameterListCheckSum)
                  003ee3dc    00000005                     : csmon.obj (.text:_CSMON_u32GetParameterNumbCheckSum)
                  003ee3e1    00000005                     : csmon.obj (.text:_CSMON_u32GetParameterShortNameCheckSum)
                  003ee3e6    00000005                     : csmon.obj (.text:_CSMON_u32GetParameterStringCheckSum)
                  003ee3eb    00000005                     : csmon.obj (.text:_CSMON_vSetDateTimeRequest)
                  003ee3f0    00000005     F2806x_DefaultIsr.obj (.text:_DATALOG_ISR)
                  003ee3f5    00000005     F2806x_DefaultIsr.obj (.text:_DINTCH1_ISR)
                  003ee3fa    00000005     F2806x_DefaultIsr.obj (.text:_DINTCH2_ISR)
                  003ee3ff    00000005     F2806x_DefaultIsr.obj (.text:_DINTCH3_ISR)
                  003ee404    00000005     F2806x_DefaultIsr.obj (.text:_DINTCH4_ISR)
                  003ee409    00000005     F2806x_DefaultIsr.obj (.text:_DINTCH5_ISR)
                  003ee40e    00000005     F2806x_DefaultIsr.obj (.text:_DINTCH6_ISR)
                  003ee413    00000005     F2806x_DefaultIsr.obj (.text:_ECAN0INTA_ISR)
                  003ee418    00000005     F2806x_DefaultIsr.obj (.text:_ECAN1INTA_ISR)
                  003ee41d    00000005     F2806x_DefaultIsr.obj (.text:_ECAP1_INT_ISR)
                  003ee422    00000005     F2806x_DefaultIsr.obj (.text:_ECAP2_INT_ISR)
                  003ee427    00000005     F2806x_DefaultIsr.obj (.text:_ECAP3_INT_ISR)
                  003ee42c    00000005     F2806x_DefaultIsr.obj (.text:_EMPTY_ISR)
                  003ee431    00000005     F2806x_DefaultIsr.obj (.text:_EMUINT_ISR)
                  003ee436    00000005     F2806x_DefaultIsr.obj (.text:_EPWM1_INT_ISR)
                  003ee43b    00000005     F2806x_DefaultIsr.obj (.text:_EPWM1_TZINT_ISR)
                  003ee440    00000005     F2806x_DefaultIsr.obj (.text:_EPWM2_INT_ISR)
                  003ee445    00000005     F2806x_DefaultIsr.obj (.text:_EPWM2_TZINT_ISR)
                  003ee44a    00000005     F2806x_DefaultIsr.obj (.text:_EPWM3_INT_ISR)
                  003ee44f    00000005     F2806x_DefaultIsr.obj (.text:_EPWM3_TZINT_ISR)
                  003ee454    00000005     F2806x_DefaultIsr.obj (.text:_EPWM4_INT_ISR)
                  003ee459    00000005     F2806x_DefaultIsr.obj (.text:_EPWM4_TZINT_ISR)
                  003ee45e    00000005     F2806x_DefaultIsr.obj (.text:_EPWM5_INT_ISR)
                  003ee463    00000005     F2806x_DefaultIsr.obj (.text:_EPWM5_TZINT_ISR)
                  003ee468    00000005     F2806x_DefaultIsr.obj (.text:_EPWM6_INT_ISR)
                  003ee46d    00000005     F2806x_DefaultIsr.obj (.text:_EPWM6_TZINT_ISR)
                  003ee472    00000005     F2806x_DefaultIsr.obj (.text:_EPWM7_INT_ISR)
                  003ee477    00000005     F2806x_DefaultIsr.obj (.text:_EPWM7_TZINT_ISR)
                  003ee47c    00000005     F2806x_DefaultIsr.obj (.text:_EPWM8_INT_ISR)
                  003ee481    00000005     F2806x_DefaultIsr.obj (.text:_EPWM8_TZINT_ISR)
                  003ee486    00000005     F2806x_DefaultIsr.obj (.text:_EQEP1_INT_ISR)
                  003ee48b    00000005     F2806x_DefaultIsr.obj (.text:_EQEP2_INT_ISR)
                  003ee490    00000005     CSMON_C28xx.lib : hmlib.obj (.text:_HMLIB_vProcessSamePort)
                  003ee495    00000005                     : hmlib.obj (.text:_HMLIB_vRecorder0)
                  003ee49a    00000005                     : hmmodbus.obj (.text:_HMMODBUS_bGetReceivedMessage)
                  003ee49f    00000005                     : hmmodbus.obj (.text:_HMMODBUS_vFileTable)
                  003ee4a4    00000005                     : hmrecparam.obj (.text:_HMRECPRM_vDisableAllStopDetections)
                  003ee4a9    00000005     F2806x_DefaultIsr.obj (.text:_HRCAP1_INT_ISR)
                  003ee4ae    00000005     F2806x_DefaultIsr.obj (.text:_HRCAP2_INT_ISR)
                  003ee4b3    00000005     F2806x_DefaultIsr.obj (.text:_HRCAP3_INT_ISR)
                  003ee4b8    00000005     F2806x_DefaultIsr.obj (.text:_HRCAP4_INT_ISR)
                  003ee4bd    00000005     F2806x_DefaultIsr.obj (.text:_I2CINT1A_ISR)
                  003ee4c2    00000005     F2806x_DefaultIsr.obj (.text:_I2CINT2A_ISR)
                  003ee4c7    00000005     F2806x_DefaultIsr.obj (.text:_ILLEGAL_ISR)
                  003ee4cc    00000005     F2806x_DefaultIsr.obj (.text:_INT13_ISR)
                  003ee4d1    00000005     F2806x_DefaultIsr.obj (.text:_INT14_ISR)
                  003ee4d6    00000005     interrupt.obj (.text:_IntDefaultHandler)
                  003ee4db    00000005     F2806x_DefaultIsr.obj (.text:_LUF_ISR)
                  003ee4e0    00000005     F2806x_DefaultIsr.obj (.text:_LVF_ISR)
                  003ee4e5    00000005     CSMON_C28xx.lib : modbusreg.obj (.text:_MODBUSREG_vSetTableNameAddress)
                  003ee4ea    00000005                     : modbusreg.obj (.text:_MODBUSREG_vSetTableRealAddressInRam)
                  003ee4ef    00000005                     : modbusreg.obj (.text:_MODBUSREG_vSetTableRegisterFlags)
                  003ee4f4    00000005                     : modbusreg.obj (.text:_MODBUSREG_vSetTableRegisterSize)
                  003ee4f9    00000005                     : modbusreg.obj (.text:_MODBUSREG_vSetTableVirtAddress)
                  003ee4fe    00000005     F2806x_DefaultIsr.obj (.text:_MRINTA_ISR)
                  003ee503    00000005     F2806x_DefaultIsr.obj (.text:_MXINTA_ISR)
                  003ee508    00000005     F2806x_DefaultIsr.obj (.text:_NMI_ISR)
                  003ee50d    00000005     F2806x_DefaultIsr.obj (.text:_PIE_RESERVED)
                  003ee512    00000005     F2806x_DefaultIsr.obj (.text:_RTOSINT_ISR)
                  003ee517    00000005     F2806x_DefaultIsr.obj (.text:_SCIRXINTA_ISR)
                  003ee51c    00000005     F2806x_DefaultIsr.obj (.text:_SCIRXINTB_ISR)
                  003ee521    00000005     F2806x_DefaultIsr.obj (.text:_SCITXINTA_ISR)
                  003ee526    00000005     F2806x_DefaultIsr.obj (.text:_SCITXINTB_ISR)
                  003ee52b    00000005     F2806x_DefaultIsr.obj (.text:_SPIRXINTA_ISR)
                  003ee530    00000005     F2806x_DefaultIsr.obj (.text:_SPIRXINTB_ISR)
                  003ee535    00000005     F2806x_DefaultIsr.obj (.text:_SPITXINTA_ISR)
                  003ee53a    00000005     F2806x_DefaultIsr.obj (.text:_SPITXINTB_ISR)
                  003ee53f    00000005     CSMON_C28xx.lib : tmr_drv.obj (.text:_TIMER_vSetupTimerMainDelayedData)
                  003ee544    00000005     F2806x_DefaultIsr.obj (.text:_TINT0_ISR)
                  003ee549    00000005     F2806x_DefaultIsr.obj (.text:_USB0_INT_ISR)
                  003ee54e    00000005     F2806x_DefaultIsr.obj (.text:_USER10_ISR)
                  003ee553    00000005     F2806x_DefaultIsr.obj (.text:_USER11_ISR)
                  003ee558    00000005     F2806x_DefaultIsr.obj (.text:_USER12_ISR)
                  003ee55d    00000005     F2806x_DefaultIsr.obj (.text:_USER1_ISR)
                  003ee562    00000005     F2806x_DefaultIsr.obj (.text:_USER2_ISR)
                  003ee567    00000005     F2806x_DefaultIsr.obj (.text:_USER3_ISR)
                  003ee56c    00000005     F2806x_DefaultIsr.obj (.text:_USER4_ISR)
                  003ee571    00000005     F2806x_DefaultIsr.obj (.text:_USER5_ISR)
                  003ee576    00000005     F2806x_DefaultIsr.obj (.text:_USER6_ISR)
                  003ee57b    00000005     F2806x_DefaultIsr.obj (.text:_USER7_ISR)
                  003ee580    00000005     F2806x_DefaultIsr.obj (.text:_USER8_ISR)
                  003ee585    00000005     F2806x_DefaultIsr.obj (.text:_USER9_ISR)
                  003ee58a    00000005     F2806x_DefaultIsr.obj (.text:_WAKEINT_ISR)
                  003ee58f    00000005     F2806x_DefaultIsr.obj (.text:_XINT1_ISR)
                  003ee594    00000005     F2806x_DefaultIsr.obj (.text:_XINT2_ISR)
                  003ee599    00000005     F2806x_DefaultIsr.obj (.text:_XINT3_ISR)
                  003ee59e    00000005     F2806x_DefaultIsr.obj (.text:_rsvd_ISR)
                  003ee5a3    00000005     rts2800_ml.lib : fs_neg28.asm.obj (.text)
                  003ee5a8    00000004     CSMON_C28xx.lib : csmon.obj (.text:_CSMON_eApplyParameterChanges)
                  003ee5ac    00000004                     : csmon.obj (.text:_CSMON_eRegisterWriteParElementCallbackFunction)
                  003ee5b0    00000004                     : csmon.obj (.text:_CSMON_eSetInternalTimerPeriod)
                  003ee5b4    00000004                     : csmon.obj (.text:_CSMON_eSetTimerPeriodISRFunctionRegister)
                  003ee5b8    00000004                     : csmon.obj (.text:_CSMON_u32GetBaudError_PPM)
                  003ee5bc    00000004                     : csmon.obj (.text:_CSMON_vAddSetupRecorderParameterMask)
                  003ee5c0    00000004                     : csmon.obj (.text:_CSMON_vInitScopes)
                  003ee5c4    00000004                     : csmon.obj (.text:_CSMON_vSetStartRecorderParameterMask)
                  003ee5c8    00000004                     : hmdrv.obj (.text:_HMDRV_SetExAddr)
                  003ee5cc    00000004                     : hmdrv.obj (.text:_HMDRV_u32GetDeviceSYSCLKFreq)
                  003ee5d0    00000004                     : hmdrv.obj (.text:_HMDRV_u32GetSCIErrorPPM)
                  003ee5d4    00000004                     : hmlib.obj (.text:_HMLIB_vRecorderParam0)
                  003ee5d8    00000004                     : hmmodbus.obj (.text:_HMMODBUS_u32GetAddressMessageCounterThisDevice)
                  003ee5dc    00000004                     : hmmodbus.obj (.text:_HMMODBUS_vSetAddressMessageCounterThisDevice)
                  003ee5e0    00000004                     : hmmodbus.obj (.text:_HMMODBUS_vSetDeviceIDMajorMinorRevision)
                  003ee5e4    00000004                     : hmmodbus.obj (.text:_HMMODBUS_vSetDeviceIDMajorMinorRevisionLength)
                  003ee5e8    00000004                     : hmmodbus.obj (.text:_HMMODBUS_vSetDeviceIDModelName)
                  003ee5ec    00000004                     : hmmodbus.obj (.text:_HMMODBUS_vSetDeviceIDModelNameLength)
                  003ee5f0    00000004                     : hmmodbus.obj (.text:_HMMODBUS_vSetDeviceIDProductCode)
                  003ee5f4    00000004                     : hmmodbus.obj (.text:_HMMODBUS_vSetDeviceIDProductCodeLength)
                  003ee5f8    00000004                     : hmmodbus.obj (.text:_HMMODBUS_vSetDeviceIDProductName)
                  003ee5fc    00000004                     : hmmodbus.obj (.text:_HMMODBUS_vSetDeviceIDProductNameLength)
                  003ee600    00000004                     : hmmodbus.obj (.text:_HMMODBUS_vSetDeviceIDUserApplicationName)
                  003ee604    00000004                     : hmmodbus.obj (.text:_HMMODBUS_vSetDeviceIDUserApplicationNameLength)
                  003ee608    00000004                     : hmmodbus.obj (.text:_HMMODBUS_vSetDeviceIDUserReserve0)
                  003ee60c    00000004                     : hmmodbus.obj (.text:_HMMODBUS_vSetDeviceIDUserReserve0Length)
                  003ee610    00000004                     : hmmodbus.obj (.text:_HMMODBUS_vSetDeviceIDUserReserve1)
                  003ee614    00000004                     : hmmodbus.obj (.text:_HMMODBUS_vSetDeviceIDUserReserve1Length)
                  003ee618    00000004                     : hmmodbus.obj (.text:_HMMODBUS_vSetDeviceIDUserReserve2)
                  003ee61c    00000004                     : hmmodbus.obj (.text:_HMMODBUS_vSetDeviceIDUserReserve2Length)
                  003ee620    00000004                     : hmmodbus.obj (.text:_HMMODBUS_vSetDeviceIDVendorName)
                  003ee624    00000004                     : hmmodbus.obj (.text:_HMMODBUS_vSetDeviceIDVendorNameLength)
                  003ee628    00000004                     : hmmodbus.obj (.text:_HMMODBUS_vSetDeviceIDVendorUrl)
                  003ee62c    00000004                     : hmmodbus.obj (.text:_HMMODBUS_vSetDeviceIDVendorUrlLength)
                  003ee630    00000004                     : hmmodbus.obj (.text:_HMMODBUS_vSetServerIDDataAddress)
                  003ee634    00000004                     : hmmodbus.obj (.text:_HMMODBUS_vSetServerIDLength)
                  003ee638    00000004                     : hmmodbus.obj (.text:_HMMODBUS_vSetServerIDNumber)
                  003ee63c    00000004                     : hmmodbus.obj (.text:_HMMODBUS_vSetServerOnStatus)
                  003ee640    00000004                     : hmmodbus.obj (.text:_HMMODBUS_vSetupHoldingRegistersAccessTableInRam)
                  003ee644    00000004                     : hmmodbus.obj (.text:_HMMODBUS_vSetupWriteParElementCallbackFunction)
                  003ee648    00000004     interrupt.obj (.text:_IntMasterDisable)
                  003ee64c    00000004     interrupt.obj (.text:_IntMasterEnable)
                  003ee650    00000004     CSMON_C28xx.lib : modbusreg.obj (.text:_MODBUSREG_u16GetHoldRegFillCount)
                  003ee654    00000004                     : modbusreg.obj (.text:_MODBUSREG_u16GetTableRegisterFlagsElementOffset)
                  003ee658    00000004                     : modbusreg.obj (.text:_MODBUSREG_u16GetTableRegisterSizeElementOffset)
                  003ee65c    00000004                     : modbusreg.obj (.text:_MODBUSREG_u16GetTableVirtAddressElementOffset)
                  003ee660    00000004                     : modbusreg.obj (.text:_MODBUSREG_u32GetRegisterAccessTableInRam)
                  003ee664    00000004                     : modbusreg.obj (.text:_MODBUSREG_u32GetTableRegisterFlags)
                  003ee668    00000004                     : modbusreg.obj (.text:_MODBUSREG_u32GetTableRegisterSize)
                  003ee66c    00000004                     : modbusreg.obj (.text:_MODBUSREG_u32GetTableVirtAddress)
                  003ee670    00000004                     : modbusreg.obj (.text:_MODBUSREG_vSetFileAutorization_FunctionAfterWriteFileRecordTable)
                  003ee674    00000004                     : modbusreg.obj (.text:_MODBUSREG_vSetFileParamCount_FunctionBeforeReadFileRecord)
                  003ee678    00000004                     : modbusreg.obj (.text:_MODBUSREG_vSetFileRTC_FunctionAfterReadFileRecord)
                  003ee67c    00000004                     : modbusreg.obj (.text:_MODBUSREG_vSetFileRTC_FunctionAfterWriteFileRecord)
                  003ee680    00000004                     : modbusreg.obj (.text:_MODBUSREG_vSetFileRecConfig_FunctionAfterWriteFileRecord)
                  003ee684    00000004                     : modbusreg.obj (.text:_MODBUSREG_vSetFileRecStatus_FunctionIndexGenerationFileRecord)
                  003ee688    00000004                     : modbusreg.obj (.text:_MODBUSREG_vSetHoldRegFillCount)
                  003ee68c    00000004                     : modbusreg.obj (.text:_MODBUSREG_vSetParamCount)
                  003ee690    00000004                     : modbusreg.obj (.text:_MODBUSREG_vSetParamListAddress)
                  003ee694    00000004                     : modbusreg.obj (.text:_MODBUSREG_vSetParamNumbAddress)
                  003ee698    00000004                     : modbusreg.obj (.text:_MODBUSREG_vSetParamRecorderConfigAddress)
                  003ee69c    00000004                     : modbusreg.obj (.text:_MODBUSREG_vSetParamScopeConfigAddress)
                  003ee6a0    00000004                     : tmr_drv.obj (.text:_TIMER_vGetTimerMainRollingCounter)
                  003ee6a4    00000004                     : tmr_drv.obj (.text:_TIMER_vSetupTimerMainCSMONFunction)
                  003ee6a8    00000004                     : tmr_drv.obj (.text:_TMR_u16GetFreeRunTimerPrescaller)
                  003ee6ac    00000004                     : hmmodbus.obj (.text:_bGetElementsDifference)
                  003ee6b0    00000004                     : hmmodbus.obj (.text:_u16GetIndexFileTable)
                  003ee6b4    00000004                     : hmmodbus.obj (.text:_u32GetBufferAddressStart)
                  003ee6b8    00000004                     : hmmodbus.obj (.text:_u32GetBufferSize)
                  003ee6bc    00000004                     : hmmodbus.obj (.text:_u32GetSampleCountAvailable)
                  003ee6c0    00000004                     : hmmodbus.obj (.text:_u32GetSampleCountBuffer)
                  003ee6c4    00000004                     : hmmodbus.obj (.text:_u32GetStartSampleIndex)
                  003ee6c8    00000004                     : hmmodbus.obj (.text:_u8GetSampleSize)
                  003ee6cc    00000004                     : hmmodbus.obj (.text:_vSetBufferAddressStartFromFunction)
                  003ee6d0    00000004                     : hmmodbus.obj (.text:_vSetBufferSize)
                  003ee6d4    00000003     F2806x_DBGIER.obj (.text)
                  003ee6d7    00000003     CSMON_C28xx.lib : csmon.obj (.text:_CSMON_eSetParameter)
                  003ee6da    00000003                     : csmon.obj (.text:_CSMON_u32GetModbusMessageCounterRegisterRealAddress)
                  003ee6dd    00000003                     : csmon.obj (.text:_CSMON_vSetModbusMessageCounterRegisterRealAddress)
                  003ee6e0    00000003                     : hmlib.obj (.text:_HMLIB_vRecorderParamTimeSync)
                  003ee6e3    00000003                     : hmrecparam.obj (.text:_HMRECPRM_GetTimeBase)
                  003ee6e6    00000003                     : modbusreg.obj (.text:_MODBUSREG_u32GetAddressMessageCounterThisDevice)
                  003ee6e9    00000003                     : modbusreg.obj (.text:_MODBUSREG_vSetAddressMessageCounterThisDevice)
                  003ee6ec    00000003                     : uart_drv.obj (.text:_UART_TXInterrupt)
                  003ee6ef    00000002                     : hmrecparam.obj (.text:_HMRECPRM_AbortRec)
                  003ee6f1    00000002                     : hmrecparam.obj (.text:_HMRECPRM_GetRecBuffSize)
                  003ee6f3    00000002                     : hmrec.obj (.text:_HMREC_AbortRec)
                  003ee6f5    00000002                     : hmrec.obj (.text:_HMREC_GetRecBuffSize)
                  003ee6f7    00000002     main.obj (.text:_eWriteParElement)
                  003ee6f9    00000002     rts2800_ml.lib : pre_init.c.obj (.text)
                  003ee6fb    00000001     CSMON_C28xx.lib : hmprotocol.obj (.text:_HMPROTOCOL_vInit)
                  003ee6fc    00000001     uart_driver.obj (.text:_UART_DRV_TXInterrupt)
                  003ee6fd    00000001     CSMON_C28xx.lib : uart_drv.obj (.text:_UART_TxDis)
                  003ee6fe    00000001                     : uart_drv.obj (.text:_UART_TxEna)
                  003ee6ff    00000001     rts2800_ml.lib : startup.c.obj (.text)

ramfuncs   0    003ee700    00000029     RUN ADDR = 00008000
                  003ee700    0000001d     F2806x_SysCtrl.obj (ramfuncs:_InitFlash)
                  003ee71d    00000008     device.obj (ramfuncs:_MyCallbackFunction)
                  003ee725    00000004     F2806x_usDelay.obj (ramfuncs)

csm_rsvd   0    003f7f80    00000076     
                  003f7f80    00000076     F2806x_CSMPasswords.obj (csm_rsvd)

codestart 
*          0    003f7ff6    00000002     
                  003f7ff6    00000002     F2806x_CodeStartBranch.obj (codestart)

csmpasswds 
*          0    003f7ff8    00000008     
                  003f7ff8    00000008     F2806x_CSMPasswords.obj (csmpasswds)

.stack     1    00000050    00000380     UNINITIALIZED
                  00000050    00000380     --HOLE--

.econst    0    003ee72a    00001e0c     
                  003ee72a    00001900     csmon_config.obj (.econst:_asParameterList)
                  003f002a    00000100     CSMON_C28xx.lib : hmmodbus.obj (.econst:.string:_auchCRCHi)
                  003f012a    00000100                     : hmmodbus.obj (.econst:.string:_auchCRCLo)
                  003f022a    00000100     F2806x_PieVect.obj (.econst:_PieVectTableInit)
                  003f032a    00000084     rts2800_ml.lib : k_rem_pio2.c.obj (.econst:_ipio2)
                  003f03ae    00000050     CSMON_C28xx.lib : csmon.obj (.econst:_CSMON_asAccessLevelPasswords)
                  003f03fe    0000002c     rts2800_ml.lib : k_rem_pio2.c.obj (.econst)
                  003f042a    00000028                    : k_cosf.c.obj (.econst)
                  003f0452    00000020                    : k_rem_pio2.c.obj (.econst:_PIo2)
                  003f0472    00000020                    : k_sinf.c.obj (.econst)
                  003f0492    0000001c                    : e_rem_pio2f.c.obj (.econst)
                  003f04ae    0000001c                    : s_scalbn.c.obj (.econst)
                  003f04ca    00000018                    : s_sinf.c.obj (.econst)
                  003f04e2    00000014     CSMON_C28xx.lib : csmon.obj (.econst:_CSMON_au8FileImplementedFunctionCodes)
                  003f04f6    00000010     main.obj (.econst)
                  003f0506    0000000e     CSMON_C28xx.lib : csmon.obj (.econst:_CSMON_au8FileParameterNumbElementsCountInPartTable)
                  003f0514    0000000c                     : hmprotocol.obj (.econst:.string)
                  003f0520    0000000c     rts2800_ml.lib : s_floor.c.obj (.econst)
                  003f052c    00000006     CSMON_C28xx.lib : csmon.obj (.econst:_CSMON_au8FileParameterListElementsCountInPartTable)
                  003f0532    00000004     rts2800_ml.lib : k_rem_pio2.c.obj (.econst:_init_jk)

.reset     0    003fffc0    00000002     DSECT
                  003fffc0    00000002     rts2800_ml.lib : boot28.asm.obj (.reset)

vectors    0    003fffc2    00000000     DSECT

DevEmuRegsFile 
*          1    00000880    00000004     UNINITIALIZED
                  00000880    00000004     F2806x_GlobalVariableDefs.obj (DevEmuRegsFile)

SysPwrCtrlRegsFile 
*          1    00000985    00000003     UNINITIALIZED
                  00000985    00000003     F2806x_GlobalVariableDefs.obj (SysPwrCtrlRegsFile)

FlashRegsFile 
*          1    00000a80    00000008     UNINITIALIZED
                  00000a80    00000008     F2806x_GlobalVariableDefs.obj (FlashRegsFile)

CsmRegsFile 
*          1    00000ae0    00000010     UNINITIALIZED
                  00000ae0    00000010     F2806x_GlobalVariableDefs.obj (CsmRegsFile)

AdcResultFile 
*          1    00000b00    00000010     UNINITIALIZED
                  00000b00    00000010     F2806x_GlobalVariableDefs.obj (AdcResultFile)

CpuTimer0RegsFile 
*          1    00000c00    00000008     UNINITIALIZED
                  00000c00    00000008     F2806x_GlobalVariableDefs.obj (CpuTimer0RegsFile)

CpuTimer1RegsFile 
*          1    00000c08    00000008     UNINITIALIZED
                  00000c08    00000008     F2806x_GlobalVariableDefs.obj (CpuTimer1RegsFile)

CpuTimer2RegsFile 
*          1    00000c10    00000008     UNINITIALIZED
                  00000c10    00000008     F2806x_GlobalVariableDefs.obj (CpuTimer2RegsFile)

PieCtrlRegsFile 
*          1    00000ce0    0000001a     UNINITIALIZED
                  00000ce0    0000001a     F2806x_GlobalVariableDefs.obj (PieCtrlRegsFile)

PieVectTableFile 
*          1    00000d00    00000100     UNINITIALIZED
                  00000d00    00000100     F2806x_GlobalVariableDefs.obj (PieVectTableFile)

EmuKeyVar 
*          1    00000d00    00000001     UNINITIALIZED
                  00000d00    00000001     F2806x_GlobalVariableDefs.obj (EmuKeyVar)

EmuBModeVar 
*          1    00000d01    00000001     UNINITIALIZED
                  00000d01    00000001     F2806x_GlobalVariableDefs.obj (EmuBModeVar)

FlashCallbackVar 
*          1    00000d02    00000002     UNINITIALIZED
                  00000d02    00000002     F2806x_GlobalVariableDefs.obj (FlashCallbackVar)

FlashScalingVar 
*          1    00000d04    00000002     UNINITIALIZED
                  00000d04    00000002     F2806x_GlobalVariableDefs.obj (FlashScalingVar)

DmaRegsFile 
*          1    00001000    000000e0     UNINITIALIZED
                  00001000    000000e0     F2806x_GlobalVariableDefs.obj (DmaRegsFile)

Cla1RegsFile 
*          1    00001400    00000040     UNINITIALIZED
                  00001400    00000040     F2806x_GlobalVariableDefs.obj (Cla1RegsFile)

Usb0RegsFile 
*          1    00004000    00000454     UNINITIALIZED
                  00004000    00000454     F2806x_GlobalVariableDefs.obj (Usb0RegsFile)

McbspaRegsFile 
*          1    00005000    00000024     UNINITIALIZED
                  00005000    00000024     F2806x_GlobalVariableDefs.obj (McbspaRegsFile)

ECanaRegsFile 
*          1    00006000    00000034     UNINITIALIZED
                  00006000    00000034     F2806x_GlobalVariableDefs.obj (ECanaRegsFile)

ECanaLAMRegsFile 
*          1    00006040    00000040     UNINITIALIZED
                  00006040    00000040     F2806x_GlobalVariableDefs.obj (ECanaLAMRegsFile)

ECanaMOTSRegsFile 
*          1    00006080    00000040     UNINITIALIZED
                  00006080    00000040     F2806x_GlobalVariableDefs.obj (ECanaMOTSRegsFile)

ECanaMOTORegsFile 
*          1    000060c0    00000040     UNINITIALIZED
                  000060c0    00000040     F2806x_GlobalVariableDefs.obj (ECanaMOTORegsFile)

ECanaMboxesFile 
*          1    00006100    00000100     UNINITIALIZED
                  00006100    00000100     F2806x_GlobalVariableDefs.obj (ECanaMboxesFile)

Comp1RegsFile 
*          1    00006400    00000014     UNINITIALIZED
                  00006400    00000014     F2806x_GlobalVariableDefs.obj (Comp1RegsFile)

Comp2RegsFile 
*          1    00006420    00000014     UNINITIALIZED
                  00006420    00000014     F2806x_GlobalVariableDefs.obj (Comp2RegsFile)

Comp3RegsFile 
*          1    00006440    00000014     UNINITIALIZED
                  00006440    00000014     F2806x_GlobalVariableDefs.obj (Comp3RegsFile)

EPwm1RegsFile 
*          1    00006800    00000040     UNINITIALIZED
                  00006800    00000040     F2806x_GlobalVariableDefs.obj (EPwm1RegsFile)

EPwm2RegsFile 
*          1    00006840    00000040     UNINITIALIZED
                  00006840    00000040     F2806x_GlobalVariableDefs.obj (EPwm2RegsFile)

EPwm3RegsFile 
*          1    00006880    00000040     UNINITIALIZED
                  00006880    00000040     F2806x_GlobalVariableDefs.obj (EPwm3RegsFile)

EPwm4RegsFile 
*          1    000068c0    00000040     UNINITIALIZED
                  000068c0    00000040     F2806x_GlobalVariableDefs.obj (EPwm4RegsFile)

EPwm5RegsFile 
*          1    00006900    00000040     UNINITIALIZED
                  00006900    00000040     F2806x_GlobalVariableDefs.obj (EPwm5RegsFile)

EPwm6RegsFile 
*          1    00006940    00000040     UNINITIALIZED
                  00006940    00000040     F2806x_GlobalVariableDefs.obj (EPwm6RegsFile)

EPwm7RegsFile 
*          1    00006980    00000040     UNINITIALIZED
                  00006980    00000040     F2806x_GlobalVariableDefs.obj (EPwm7RegsFile)

EPwm8RegsFile 
*          1    000069c0    00000040     UNINITIALIZED
                  000069c0    00000040     F2806x_GlobalVariableDefs.obj (EPwm8RegsFile)

ECap1RegsFile 
*          1    00006a00    00000020     UNINITIALIZED
                  00006a00    00000020     F2806x_GlobalVariableDefs.obj (ECap1RegsFile)

ECap2RegsFile 
*          1    00006a20    00000020     UNINITIALIZED
                  00006a20    00000020     F2806x_GlobalVariableDefs.obj (ECap2RegsFile)

ECap3RegsFile 
*          1    00006a40    00000020     UNINITIALIZED
                  00006a40    00000020     F2806x_GlobalVariableDefs.obj (ECap3RegsFile)

HRCap1RegsFile 
*          1    00006ac0    00000020     UNINITIALIZED
                  00006ac0    00000020     F2806x_GlobalVariableDefs.obj (HRCap1RegsFile)

HRCap2RegsFile 
*          1    00006ae0    00000020     UNINITIALIZED
                  00006ae0    00000020     F2806x_GlobalVariableDefs.obj (HRCap2RegsFile)

EQep1RegsFile 
*          1    00006b00    00000022     UNINITIALIZED
                  00006b00    00000022     F2806x_GlobalVariableDefs.obj (EQep1RegsFile)

EQep2RegsFile 
*          1    00006b40    00000022     UNINITIALIZED
                  00006b40    00000022     F2806x_GlobalVariableDefs.obj (EQep2RegsFile)

HRCap3RegsFile 
*          1    00006c80    00000020     UNINITIALIZED
                  00006c80    00000020     F2806x_GlobalVariableDefs.obj (HRCap3RegsFile)

HRCap4RegsFile 
*          1    00006ca0    00000020     UNINITIALIZED
                  00006ca0    00000020     F2806x_GlobalVariableDefs.obj (HRCap4RegsFile)

GpioCtrlRegsFile 
*          1    00006f80    00000040     UNINITIALIZED
                  00006f80    00000040     F2806x_GlobalVariableDefs.obj (GpioCtrlRegsFile)

GpioDataRegsFile 
*          1    00006fc0    00000020     UNINITIALIZED
                  00006fc0    00000020     F2806x_GlobalVariableDefs.obj (GpioDataRegsFile)

GpioIntRegsFile 
*          1    00006fe0    00000020     UNINITIALIZED
                  00006fe0    00000020     F2806x_GlobalVariableDefs.obj (GpioIntRegsFile)

SysCtrlRegsFile 
*          1    00007010    00000030     UNINITIALIZED
                  00007010    00000030     F2806x_GlobalVariableDefs.obj (SysCtrlRegsFile)

SpiaRegsFile 
*          1    00007040    00000010     UNINITIALIZED
                  00007040    00000010     F2806x_GlobalVariableDefs.obj (SpiaRegsFile)

SciaRegsFile 
*          1    00007050    00000010     UNINITIALIZED
                  00007050    00000010     F2806x_GlobalVariableDefs.obj (SciaRegsFile)

NmiIntruptRegsFile 
*          1    00007060    00000010     UNINITIALIZED
                  00007060    00000010     F2806x_GlobalVariableDefs.obj (NmiIntruptRegsFile)

XIntruptRegsFile 
*          1    00007070    00000010     UNINITIALIZED
                  00007070    00000010     F2806x_GlobalVariableDefs.obj (XIntruptRegsFile)

AdcRegsFile 
*          1    00007100    00000050     UNINITIALIZED
                  00007100    00000050     F2806x_GlobalVariableDefs.obj (AdcRegsFile)

SpibRegsFile 
*          1    00007740    00000010     UNINITIALIZED
                  00007740    00000010     F2806x_GlobalVariableDefs.obj (SpibRegsFile)

ScibRegsFile 
*          1    00007750    00000010     UNINITIALIZED
                  00007750    00000010     F2806x_GlobalVariableDefs.obj (ScibRegsFile)

I2caRegsFile 
*          1    00007900    00000022     UNINITIALIZED
                  00007900    00000022     F2806x_GlobalVariableDefs.obj (I2caRegsFile)

PartIdRegsFile 
*          1    003d7e80    00000001     UNINITIALIZED
                  003d7e80    00000001     F2806x_GlobalVariableDefs.obj (PartIdRegsFile)

CsmPwlFile 
*          1    003f7ff8    00000008     UNINITIALIZED
                  003f7ff8    00000008     F2806x_GlobalVariableDefs.obj (CsmPwlFile)

.ebss.1    1    00008c00    00000400     UNINITIALIZED
                  00008c00    00000400     CSMON_C28xx.lib : modbusreg.obj (.ebss:_MODBUSREG_u32RegisterAccessTableInRam)

.ebss.2    1    00009000    00003000     UNINITIALIZED
                  00009000    00000800     CSMON_C28xx.lib : uart_drv.obj (.ebss:_UARTRxBufferTimeDiff)
                  00009800    00000800                     : hmrec.obj (.ebss:_au8RecBuffer0)
                  0000a000    00000800                     : hmrecparam.obj (.ebss:_au8RecParamBuffer0)
                  0000a800    00000400                     : uart_drv.obj (.ebss:_UARTRxBuffer)
                  0000ac00    000003de                     : modbusreg.obj (.ebss:_MODBUSREG_asFileTable)
                  0000afde    0000001c                     : csmon.obj (.ebss:_CSMON_au32FileParameterNumericFileRecordElementsRealAddressTable)
                  0000affa    00000006                     : hmprotocol.obj (.ebss)
                  0000b000    00000200     uart_driver.obj (.ebss:_UART_DRV_RxBufferTimeDiff)
                  0000b200    00000200     CSMON_C28xx.lib : hmmodbus.obj (.ebss:_u32ModbusTimeoutBuffer)
                  0000b400    0000011a                     : hmmodbus.obj (.ebss)
                  0000b51a    0000001c                     : csmon.obj (.ebss:_CSMON_au32FileParameterNumericFileRecordElementsSizeTable)
                  0000b536    0000000a                     : hmdrv.obj (.ebss)
                  0000b540    00000100                     : hmmodbus.obj (.ebss:_HMMODBUS_anTxCheckSum)
                  0000b640    00000100                     : hmmodbus.obj (.ebss:_HMMODBUS_pCommBufferRx)
                  0000b740    00000100                     : hmmodbus.obj (.ebss:_HMMODBUS_pCommBufferTx)
                  0000b840    00000100     uart_driver.obj (.ebss:_UART_DRV_RxBuffer)
                  0000b940    000000c8     CSMON_C28xx.lib : csmon.obj (.ebss:_CSMON_asFileParameterDefinitionsFromAccessLevel)
                  0000ba08    00000034                     : modbusreg.obj (.ebss)
                  0000ba3c    00000004                     : csmon.obj (.ebss:_CSMON_au8FileRecorderStatusElementsSizeTable)
                  0000ba40    000000c8                     : csmon.obj (.ebss:_CSMON_sFileParameterAccessList)
                  0000bb08    0000002d                     : csmon.obj (.ebss:_CSMON_au8FileRecorderConfigElementsSizeTable)
                  0000bb35    0000000a                     : csmon.obj (.ebss:_CSMON_au8FileParameterCountElementsSizeTable)
                  0000bb3f    00000001                     : hmrec.obj (.ebss)
                  0000bb40    0000009e                     : csmon.obj (.ebss)
                  0000bbde    0000001c                     : hmrecparam.obj (.ebss:_sRecExternParam)
                  0000bbfa    00000006                     : csmon.obj (.ebss:_CSMON_au32FileAutorization_FunctionAfterWriteFileRecord)
                  0000bc00    00000079                     : hmserial.obj (.ebss:_pcm_pCommBuffer)
                  0000bc79    00000006                     : csmon.obj (.ebss:_CSMON_au32FileParameterDefinitionsFileRecordElementsRecordToRecordOffsetSizeBytesTable)
                  0000bc7f    00000001                     : hmscope.obj (.ebss)
                  0000bc80    00000078     main.obj (.ebss)
                  0000bcf8    00000008     CSMON_C28xx.lib : hmrecparam.obj (.ebss:_HMRECPRM_sDateTime)
                  0000bd00    00000062                     : hmrecparam.obj (.ebss:_sRecHandleParam)
                  0000bd62    00000014                     : csmon.obj (.ebss:_CSMON_au8FileRecorderDataElementsSizeTable)
                  0000bd76    0000000a                     : csmon.obj (.ebss:_CSMON_au8FileRTCElementsSizeTable)
                  0000bd80    00000058                     : hmrec.obj (.ebss:_sRecHandle)
                  0000bdd8    00000012                     : csmon.obj (.ebss:_CSMON_sFileAutorization)
                  0000bdea    00000010                     : csmon.obj (.ebss:_CSMON_sFileParameterCount)
                  0000bdfa    00000006     rts2800_ml.lib : exit.c.obj (.ebss)
                  0000be00    00000040     CSMON_C28xx.lib : csmon.obj (.ebss:_sRecConfigParam)
                  0000be40    0000003e                     : hmscope.obj (.ebss:_sScopeHandle)
                  0000be7e    00000002                     : hmlib.obj (.ebss)
                  0000be80    0000003e                     : hmscopeparam.obj (.ebss:_sScopeHandlePrm)
                  0000bebe    00000002                     : hmrecparam.obj (.ebss)
                  0000bec0    0000002a                     : csmon.obj (.ebss:_CSMON_au8FileScopeConfigurationElementsSizeTable)
                  0000beea    00000010                     : modbusreg.obj (.ebss:_MODBUSREG_au8DeviceIDMajorMinorRevision)
                  0000befa    00000004                     : uart_drv.obj (.ebss:_UARTRxBufferRDCount)
                  0000befe    00000002                     : hmscopeparam.obj (.ebss)
                  0000bf00    0000002a                     : csmon.obj (.ebss:_sScopeConfigParam)
                  0000bf2a    00000010                     : modbusreg.obj (.ebss:_MODBUSREG_au8DeviceIDModelName)
                  0000bf3a    00000004                     : uart_drv.obj (.ebss:_UARTRxBufferRDIndex)
                  0000bf3e    00000002                     : csmon.obj (.ebss:_CSMON_abFlagProcessPassed)
                  0000bf40    00000010                     : modbusreg.obj (.ebss:_MODBUSREG_au8DeviceIDProductCode)
                  0000bf50    00000010                     : modbusreg.obj (.ebss:_MODBUSREG_au8DeviceIDProductName)
                  0000bf60    00000010                     : modbusreg.obj (.ebss:_MODBUSREG_au8DeviceIDUserApplicationName)
                  0000bf70    00000010                     : modbusreg.obj (.ebss:_MODBUSREG_au8DeviceIDUserReserve0)
                  0000bf80    00000010                     : modbusreg.obj (.ebss:_MODBUSREG_au8DeviceIDUserReserve1)
                  0000bf90    00000010                     : modbusreg.obj (.ebss:_MODBUSREG_au8DeviceIDUserReserve2)
                  0000bfa0    00000010                     : modbusreg.obj (.ebss:_MODBUSREG_au8DeviceIDVendorName)
                  0000bfb0    00000010                     : modbusreg.obj (.ebss:_MODBUSREG_au8DeviceIDVendorUrl)
                  0000bfc0    00000010                     : modbusreg.obj (.ebss:_MODBUSREG_au8ServerIDData)
                  0000bfd0    00000010                     : hmrecparam.obj (.ebss:_sRecStatusParam)
                  0000bfe0    0000000e                     : tmr_drv.obj (.ebss)
                  0000bfee    0000000e                     : csmon.obj (.ebss:_CSMON_au32FileParameterNumericFileRecordElementsRecordToRecordOffsetSizeBytesTable)
                  0000bffc    00000004                     : uart_drv.obj (.ebss:_UARTRxBufferWRCount)

.ebss.3    1    0000c000    00000121     UNINITIALIZED
                  0000c000    0000000c     CSMON_C28xx.lib : hmserial.obj (.ebss)
                  0000c00c    0000000c                     : csmon.obj (.ebss:_CSMON_au32FileParameterDefinitionsFileRecordElementsRealAddressTable)
                  0000c018    0000000c                     : csmon.obj (.ebss:_CSMON_au32FileParameterDefinitionsFileRecordElementsSizeTable)
                  0000c024    0000000c                     : csmon.obj (.ebss:_CSMON_sDateTime)
                  0000c030    0000000c                     : csmon.obj (.ebss:_CSMON_sDateTimeApplication)
                  0000c03c    00000004                     : uart_drv.obj (.ebss:_UARTRxBufferWRIndex)
                  0000c040    0000000c                     : csmon.obj (.ebss:_CSMON_sDateTimeDefault)
                  0000c04c    0000000a                     : hmmodbus.obj (.ebss:_HMMODBUS_nFilePrimaryAddrWriteLast)
                  0000c056    0000000a                     : hmmodbus.obj (.ebss:_HMMOSBUS_nFileWriteAddrReadLast)
                  0000c060    0000000a                     : csmon.obj (.ebss:_sHashKey)
                  0000c06a    0000000a                     : hmrecparam.obj (.ebss:_sRecStatusParamInternal)
                  0000c074    00000008     main.obj (.ebss:_MAIN_sDateTimeGet)
                  0000c07c    00000004     uart_driver.obj (.ebss:_UART_DRV_RxBufferRDCount)
                  0000c080    00000008     main.obj (.ebss:_MAIN_sDateTimeSet)
                  0000c088    00000008     uart_driver.obj (.ebss:_UART_DRV_RXIntOverflowCounter)
                  0000c090    00000008     uart_driver.obj (.ebss:_UART_DRV_u32TimeDiffLast)
                  0000c098    00000008     uart_driver.obj (.ebss:_UART_DRV_u32TimeDiffNow)
                  0000c0a0    00000008     CSMON_C28xx.lib : uart_drv.obj (.ebss:_UART_RXIntOverflowCounter)
                  0000c0a8    00000008                     : tmr_drv.obj (.ebss:_pfDelayedFunction)
                  0000c0b0    00000008                     : tmr_drv.obj (.ebss:_pfDelayedFunction_u8)
                  0000c0b8    00000008                     : uart_drv.obj (.ebss:_u32TimeDiffLast)
                  0000c0c0    00000008                     : uart_drv.obj (.ebss:_u32TimeDiffNow)
                  0000c0c8    00000008                     : uart_drv.obj (.ebss:_u32TimeDiffRead)
                  0000c0d0    00000008     device.obj (.ebss)
                  0000c0d8    00000004     uart_driver.obj (.ebss:_UART_DRV_RxBufferWRCount)
                  0000c0dc    00000004     uart_driver.obj (.ebss:_UART_DRV_RxBufferWRIndex)
                  0000c0e0    00000004     CSMON_C28xx.lib : tmr_drv.obj (.ebss:_u16TimerMainDelayedData)
                  0000c0e4    00000004                     : tmr_drv.obj (.ebss:_u16TimerMainFunctionDelay)
                  0000c0e8    00000004                     : tmr_drv.obj (.ebss:_u16TimerMainFunctionDelayCompare)
                  0000c0ec    00000004                     : tmr_drv.obj (.ebss:_u16TimerMainFunctionDelayCounter)
                  0000c0f0    00000003                     : csmon.obj (.ebss:_CSMON_abFileAutorization_RecordReadOnly)
                  0000c0f3    00000003                     : csmon.obj (.ebss:_CSMON_abFileAutorization_RecordStringData)
                  0000c0f6    00000003                     : csmon.obj (.ebss:_CSMON_au16FileAutorization_RecordOffsets)
                  0000c0f9    00000003                     : csmon.obj (.ebss:_CSMON_sFileProtocolVersion)
                  0000c0fc    00000002                     : hmrecparam.obj (.ebss:_MAIN_sDate)
                  0000c0fe    00000002                     : hmrecparam.obj (.ebss:_MAIN_sTime)
                  0000c100    00000002     rts2800_ml.lib : _lock.c.obj (.ebss:__lock)
                  0000c102    00000002                    : _lock.c.obj (.ebss:__unlock)
                  0000c104    00000002     CSMON_C28xx.lib : hmscopeparam.obj (.ebss:_pBufferScope)
                  0000c106    00000002                     : csmon.obj (.ebss:_sFileParameterNumericOffsetDefault)
                  0000c108    00000002                     : hmrecparam.obj (.ebss:_u32RecorderLastFreeCounter)
                  0000c10a    00000002                     : hmrecparam.obj (.ebss:_u32RecorderMicroSec)
                  0000c10c    00000001                     : uart_drv.obj (.ebss)
                  0000c10d    00000001                     : csmon.obj (.ebss:_CSMON_au8FileParameterListElementsSizeTablePart1_1)
                  0000c10e    00000001                     : csmon.obj (.ebss:_CSMON_au8FileParameterListElementsSizeTablePart1_2)
                  0000c10f    00000001                     : csmon.obj (.ebss:_CSMON_au8FileParameterListElementsSizeTablePart1_3)
                  0000c110    00000001                     : csmon.obj (.ebss:_CSMON_au8FileParameterListElementsSizeTablePart1_4)
                  0000c111    00000001                     : csmon.obj (.ebss:_CSMON_au8FileParameterListElementsSizeTablePart2)
                  0000c112    00000001                     : csmon.obj (.ebss:_CSMON_au8FileParameterListElementsSizeTablePart3)
                  0000c113    00000001                     : csmon.obj (.ebss:_CSMON_au8FileParameterNumbElementsSizeTablePart16Bits)
                  0000c114    00000001                     : csmon.obj (.ebss:_CSMON_au8FileParameterNumbElementsSizeTablePart32Bits)
                  0000c115    00000001                     : csmon.obj (.ebss:_CSMON_au8FileRecorderDataElementsSizeTableUsedLength)
                  0000c116    00000001                     : csmon.obj (.ebss:_CSMON_au8FileScopeStatusElementsSizeTable)
                  0000c117    00000001                     : hmmodbus.obj (.ebss:_HMMODBUS_u32RegisterAddressDummyuSize)
                  0000c118    00000001                     : hmmodbus.obj (.ebss:_HMMODBUS_wFlags)
                  0000c119    00000001                     : hmmodbus.obj (.ebss:_HMMODBUS_wFlagsRxTx)
                  0000c11a    00000001                     : hmrecparam.obj (.ebss:_abRecorderJustStopped)
                  0000c11b    00000001                     : hmrecparam.obj (.ebss:_abRecorderRunning)
                  0000c11c    00000001                     : hmserial.obj (.ebss:_pcm_wFlags)
                  0000c11d    00000001                     : hmserial.obj (.ebss:_pcm_wFlagsRxTx)
                  0000c11e    00000001                     : csmon.obj (.ebss:_sFileParameterNumericVisualTypeDefault)
                  0000c11f    00000001                     : hmscopeparam.obj (.ebss:_sScopeStatusParam)
                  0000c120    00000001     rts2800_ml.lib : errno.c.obj (.ebss)

MODULE SUMMARY

       Module                           code    initialized data   uninitialized data
       ------                           ----    ----------------   ------------------
    .\01_Source_Test\
       main.obj                         1151    417                136               
    +--+--------------------------------+-------+------------------+--------------------+
       Total:                           1151    417                136               
                                                                                     
    .\01_Source_Test\peripheral_driver\
       uart_driver.obj                  94      54                 804               
       sci_driver.obj                   162     0                  0                 
    +--+--------------------------------+-------+------------------+--------------------+
       Total:                           256     54                 804               
                                                                                     
    .\C2806x_Device\
       device.obj                       194     15                 8                 
       Example_Flash2806x_CsmKeys.obj   0       8                  0                 
    +--+--------------------------------+-------+------------------+--------------------+
       Total:                           194     23                 8                 
                                                                                     
    .\C2806x_LIB\common\source\
       F2806x_DefaultIsr.obj            460     0                  0                 
       F2806x_SysCtrl.obj               282     0                  0                 
       F2806x_PieVect.obj               17      256                0                 
       F2806x_CSMPasswords.obj          0       126                0                 
       F2806x_PieCtrl.obj               31      0                  0                 
       F2806x_Gpio.obj                  21      0                  0                 
       F2806x_CodeStartBranch.obj       10      0                  0                 
       F2806x_usDelay.obj               8       0                  0                 
       F2806x_DisInt.obj                7       0                  0                 
       F2806x_DBGIER.obj                3       0                  0                 
    +--+--------------------------------+-------+------------------+--------------------+
       Total:                           839     382                0                 
                                                                                     
    .\C2806x_LIB\driverlib\
       interrupt.obj                    79      0                  0                 
    +--+--------------------------------+-------+------------------+--------------------+
       Total:                           79      0                  0                 
                                                                                     
    .\C2806x_LIB\headers\source\
       F2806x_GlobalVariableDefs.obj    0       0                  3550              
    +--+--------------------------------+-------+------------------+--------------------+
       Total:                           0       0                  3550              
                                                                                     
    .\MotorParam\Generated\
       csmon_config.obj                 0       6400               0                 
    +--+--------------------------------+-------+------------------+--------------------+
       Total:                           0       6400               0                 
                                                                                     
    C:/repo_github/fw_BasicAFE/02_Libraries/LIB_CSMON/04_Output_Files/Motor28062/CSMON_C28xx.lib
       hmmodbus.obj                     8630    1050               1585              
       modbusreg.obj                    2349    306                2242              
       csmon.obj                        3076    702                1008              
       hmrecparam.obj                   1227    41                 2220              
       uart_drv.obj                     267     76                 3121              
       hmrec.obj                        489     0                  2137              
       hmdrv.obj                        1181    20                 10                
       hmserial.obj                     537     9                  135               
       hmprotocol.obj                   420     32                 6                 
       tmr_drv.obj                      345     35                 46                
       hmscopeparam.obj                 154     9                  67                
       hmscope.obj                      113     0                  63                
       sci_drv.obj                      162     0                  0                 
       hmlib.obj                        131     8                  2                 
       gpio.obj                         90      0                  0                 
       sci.obj                          80      0                  0                 
       cputimer.obj                     6       0                  0                 
    +--+--------------------------------+-------+------------------+--------------------+
       Total:                           19257   2288               12642             
                                                                                     
    C:\ti\ccs1210\ccs\tools\compiler\ti-cgt-c2000_22.6.0.LTS\lib\rts2800_ml.lib
       k_rem_pio2.c.obj                 1688    212                0                 
       s_sinf.c.obj                     276     24                 0                 
       ll_div28.asm.obj                 263     0                  0                 
       s_floor.c.obj                    232     12                 0                 
       s_scalbn.c.obj                   170     28                 0                 
       e_rem_pio2f.c.obj                167     28                 0                 
       k_sinf.c.obj                     146     32                 0                 
       k_cosf.c.obj                     135     40                 0                 
       fd_add28.asm.obj                 156     0                  0                 
       fd_div28.asm.obj                 139     0                  0                 
       fd_mpy28.asm.obj                 131     0                  0                 
       fs_div28.asm.obj                 131     0                  0                 
       fs_add28.asm.obj                 120     0                  0                 
       fs_mpy28.asm.obj                 90      0                  0                 
       boot28.asm.obj                   84      0                  0                 
       exit.c.obj                       41      14                 6                 
       fd_cmp28.asm.obj                 42      0                  0                 
       fs_tol28.asm.obj                 41      0                  0                 
       fs_toi28.asm.obj                 37      0                  0                 
       cpy_tbl.c.obj                    36      0                  0                 
       s_copysign.c.obj                 35      0                  0                 
       i_div28.asm.obj                  34      0                  0                 
       fd_tofs28.asm.obj                33      0                  0                 
       fs_toul28.asm.obj                33      0                  0                 
       fd_tol28.asm.obj                 31      0                  0                 
       fs_tou28.asm.obj                 29      0                  0                 
       memcpy.c.obj                     29      0                  0                 
       fs_tofd28.asm.obj                28      0                  0                 
       l_tofd28.asm.obj                 28      0                  0                 
       fd_toul28.asm.obj                27      0                  0                 
       l_tofs28.asm.obj                 26      0                  0                 
       prolog28.asm.obj                 25      0                  0                 
       ll_aox28.asm.obj                 24      0                  0                 
       _lock.c.obj                      9       10                 4                 
       fs_cmp28.asm.obj                 23      0                  0                 
       u_tofd28.asm.obj                 23      0                  0                 
       ul_tofs28.asm.obj                19      0                  0                 
       args_main.c.obj                  17      0                  0                 
       u_tofs28.asm.obj                 16      0                  0                 
       fd_sub28.asm.obj                 14      0                  0                 
       epilog28.asm.obj                 12      0                  0                 
       u_div28.asm.obj                  11      0                  0                 
       fd_neg28.asm.obj                 9       0                  0                 
       errno.c.obj                      0       4                  1                 
       fs_neg28.asm.obj                 5       0                  0                 
       pre_init.c.obj                   2       0                  0                 
       startup.c.obj                    1       0                  0                 
    +--+--------------------------------+-------+------------------+--------------------+
       Total:                           4668    404                11                
                                                                                     
       Stack:                           0       0                  896               
    +--+--------------------------------+-------+------------------+--------------------+
       Grand Total:                     26444   9968               18047             


GLOBAL DATA SYMBOLS: SORTED BY DATA PAGE

address     data page           name
--------    ----------------    ----
00000050       1 (00000040)     __stack

00000880      22 (00000880)     _DevEmuRegs

00000985      26 (00000980)     _SysPwrCtrlRegs

00000a80      2a (00000a80)     _FlashRegs

00000ae0      2b (00000ac0)     _CsmRegs

00000b00      2c (00000b00)     _AdcResult

00000c00      30 (00000c00)     _CpuTimer0Regs
00000c08      30 (00000c00)     _CpuTimer1Regs
00000c10      30 (00000c00)     _CpuTimer2Regs

00000ce0      33 (00000cc0)     _PieCtrlRegs

00000d00      34 (00000d00)     _EmuKey
00000d00      34 (00000d00)     _PieVectTable
00000d01      34 (00000d00)     _EmuBMode
00000d02      34 (00000d00)     _Flash_CallbackPtr
00000d04      34 (00000d00)     _Flash_CPUScaleFactor

00001000      40 (00001000)     _DmaRegs

00001400      50 (00001400)     _Cla1Regs

00004000     100 (00004000)     _Usb0Regs

00005000     140 (00005000)     _McbspaRegs

00006000     180 (00006000)     _ECanaRegs

00006040     181 (00006040)     _ECanaLAMRegs

00006080     182 (00006080)     _ECanaMOTSRegs

000060c0     183 (000060c0)     _ECanaMOTORegs

00006100     184 (00006100)     _ECanaMboxes

00006400     190 (00006400)     _Comp1Regs
00006420     190 (00006400)     _Comp2Regs

00006440     191 (00006440)     _Comp3Regs

00006800     1a0 (00006800)     _EPwm1Regs

00006840     1a1 (00006840)     _EPwm2Regs

00006880     1a2 (00006880)     _EPwm3Regs

000068c0     1a3 (000068c0)     _EPwm4Regs

00006900     1a4 (00006900)     _EPwm5Regs

00006940     1a5 (00006940)     _EPwm6Regs

00006980     1a6 (00006980)     _EPwm7Regs

000069c0     1a7 (000069c0)     _EPwm8Regs

00006a00     1a8 (00006a00)     _ECap1Regs
00006a20     1a8 (00006a00)     _ECap2Regs

00006a40     1a9 (00006a40)     _ECap3Regs

00006ac0     1ab (00006ac0)     _HRCap1Regs
00006ae0     1ab (00006ac0)     _HRCap2Regs

00006b00     1ac (00006b00)     _EQep1Regs

00006b40     1ad (00006b40)     _EQep2Regs

00006c80     1b2 (00006c80)     _HRCap3Regs
00006ca0     1b2 (00006c80)     _HRCap4Regs

00006f80     1be (00006f80)     _GpioCtrlRegs

00006fc0     1bf (00006fc0)     _GpioDataRegs
00006fe0     1bf (00006fc0)     _GpioIntRegs

00007010     1c0 (00007000)     _SysCtrlRegs

00007040     1c1 (00007040)     _SpiaRegs
00007050     1c1 (00007040)     _SciaRegs
00007060     1c1 (00007040)     _NmiIntruptRegs
00007070     1c1 (00007040)     _XIntruptRegs

00007100     1c4 (00007100)     _AdcRegs

00007740     1dd (00007740)     _SpibRegs
00007750     1dd (00007740)     _ScibRegs

00007900     1e4 (00007900)     _I2caRegs

00008c00     230 (00008c00)     _MODBUSREG_u32RegisterAccessTableInRam

00009000     240 (00009000)     _UARTRxBufferTimeDiff

00009800     260 (00009800)     _au8RecBuffer0

0000a000     280 (0000a000)     _au8RecParamBuffer0

0000a800     2a0 (0000a800)     _UARTRxBuffer

0000ac00     2b0 (0000ac00)     _MODBUSREG_asFileTable

0000afde     2bf (0000afc0)     _CSMON_au32FileParameterNumericFileRecordElementsRealAddressTable
0000affa     2bf (0000afc0)     _nRecorderFreemasterIndex
0000affb     2bf (0000afc0)     _nScopePrmFreemasterIndex
0000affc     2bf (0000afc0)     _bRecorderParameterUsage
0000affd     2bf (0000afc0)     _bScopeParameterUsage
0000affe     2bf (0000afc0)     _u16TimeBase
0000afff     2bf (0000afc0)     _breakData

0000b000     2c0 (0000b000)     _UART_DRV_RxBufferTimeDiff

0000b200     2c8 (0000b200)     _u32ModbusTimeoutBuffer

0000b400     2d0 (0000b400)     _HMMODBUS_nTxTodo
0000b401     2d0 (0000b400)     _HMMODBUS_nRxTodoEcho
0000b402     2d0 (0000b400)     _HMMODBUS_nLastResponseCmd
0000b403     2d0 (0000b400)     _HMMODBUS_nLastResponseCode
0000b404     2d0 (0000b400)     _HMMODBUS_nRxTodo
0000b405     2d0 (0000b400)     _HMMODBUS_nRxCheckSum
0000b406     2d0 (0000b400)     _HMMODBUS_nTxCheckSum
0000b407     2d0 (0000b400)     _HMMODBUS_bOverflowReached
0000b408     2d0 (0000b400)     _u8UartModBusIndex
0000b409     2d0 (0000b400)     _HMMODBUS_u8DeviceAddress
0000b40a     2d0 (0000b400)     _HMMODBUS_u16HoldingRegisterVirtAddressTableOffset
0000b40b     2d0 (0000b400)     _HMMODBUS_u16HoldingRegisterVirtAddressTableSize
0000b40c     2d0 (0000b400)     _HMMODBUS_u16HoldingRegisterRegisterSizeTableOffset
0000b40d     2d0 (0000b400)     _HMMODBUS_u16HoldingRegisterRegisterSizeTableSize
0000b40e     2d0 (0000b400)     _HMMODBUS_u16HoldingRegisterRegisterFlagsTableOffset
0000b40f     2d0 (0000b400)     _HMMODBUS_u16HoldingRegisterRegisterFlagsTableSize
0000b410     2d0 (0000b400)     _HMMODBUS_u16HoldingRegisterRealAddressTableOffset
0000b411     2d0 (0000b400)     _HMMODBUS_u16HoldingRegisterRealAddressTableSize
0000b412     2d0 (0000b400)     _HMMODBUS_u16HoldingRegisterProcessFuncTableOffset
0000b413     2d0 (0000b400)     _HMMODBUS_u16HoldingRegisterProcessFuncTableSize
0000b414     2d0 (0000b400)     _u16RegisterAddressDummyValue
0000b415     2d0 (0000b400)     _HMMODBUS_u32RegisterAddressDummyVirtAddress
0000b416     2d0 (0000b400)     _HMMODBUS_bReceivedMessage
0000b417     2d0 (0000b400)     _bInputRegsGlobal
0000b418     2d0 (0000b400)     _bBareRamTable
0000b419     2d0 (0000b400)     _bUsedDummyDataAddressInResponseData
0000b41a     2d0 (0000b400)     _bLengthException
0000b41b     2d0 (0000b400)     _bHoldingRegTableSorted
0000b41c     2d0 (0000b400)     _bHoldingRegTableBareRam
0000b41d     2d0 (0000b400)     _u16FreeRunTimerPrescaller
0000b41e     2d0 (0000b400)     _u16ModbusMinMessToMess_usec
0000b41f     2d0 (0000b400)     _HMMODBUS_u8ReadServerIDLength
0000b420     2d0 (0000b400)     _HMMODBUS_u8ReadServerIDNumber
0000b421     2d0 (0000b400)     _HMMODBUS_u8ReadServerOnStatus
0000b422     2d0 (0000b400)     _HMMODBUS_u8ReadDeviceIDConfLvlMask
0000b423     2d0 (0000b400)     _HMMODBUS_u8ReadDeviceIDConfLvl
0000b424     2d0 (0000b400)     _HMMODBUS_u8ReadDeviceIDVendorNameLength
0000b425     2d0 (0000b400)     _HMMODBUS_u8ReadDeviceIDProductCodeLength
0000b426     2d0 (0000b400)     _HMMODBUS_u8ReadDeviceIDMajorMinorRevisionLength
0000b427     2d0 (0000b400)     _HMMODBUS_u8ReadDeviceIDVendorUrlLength
0000b428     2d0 (0000b400)     _HMMODBUS_u8ReadDeviceIDProductNameLength
0000b429     2d0 (0000b400)     _HMMODBUS_u8ReadDeviceIDModelNameLength
0000b42a     2d0 (0000b400)     _HMMODBUS_u8ReadDeviceIDUserApplicationNameLength
0000b42b     2d0 (0000b400)     _HMMODBUS_u8ReadDeviceIDUserReserve0Length
0000b42c     2d0 (0000b400)     _HMMODBUS_u8ReadDeviceIDUserReserve1Length
0000b42d     2d0 (0000b400)     _HMMODBUS_u8ReadDeviceIDUserReserve2Length
0000b42e     2d0 (0000b400)     _eElementFixedArgument
0000b42f     2d0 (0000b400)     _u16NoStoreFixedArgument
0000b430     2d0 (0000b400)     _u16DataModeFixedArgument
0000b431     2d0 (0000b400)     _u16PasswordFixedArgument
0000b432     2d0 (0000b400)     _bNeedResetBackup
0000b433     2d0 (0000b400)     _realRxByteDelayLastFailBytesReceived
0000b434     2d0 (0000b400)     _u16ModbusStartedReceiveMessageCounter
0000b435     2d0 (0000b400)     _u16ModbusCompleteReceiveMessageCounter
0000b436     2d0 (0000b400)     _u16ModbusCompleteReceiveMessageCounterThisDevice
0000b437     2d0 (0000b400)     _u16ModbusBufferOverflowReceiveMessageCounter
0000b438     2d0 (0000b400)     _u16ModbusBadCSReceiveMessageCounter
0000b439     2d0 (0000b400)     _u16ModbusBadTimeoutReceiveMessageCounter
0000b43a     2d0 (0000b400)     _u16IndexFileTable
0000b43b     2d0 (0000b400)     _u8SampleSize
0000b43c     2d0 (0000b400)     _bElementsDifference
0000b43d     2d0 (0000b400)     _bBadSizeCalculation
0000b43e     2d0 (0000b400)     _bStringNullTerminationPossible
0000b43f     2d0 (0000b400)     _bStringDataExpected

0000b440     2d1 (0000b440)     _bException
0000b441     2d1 (0000b440)     _bResult
0000b442     2d1 (0000b440)     _bParameterTroughFile
0000b443     2d1 (0000b440)     _nDeviceAddress
0000b444     2d1 (0000b440)     _nAddrQueue
0000b445     2d1 (0000b440)     _nFileNumber
0000b446     2d1 (0000b440)     _nSizeReadBits
0000b447     2d1 (0000b440)     _u16ElementSize
0000b448     2d1 (0000b440)     _u8ElementSize
0000b449     2d1 (0000b440)     _nLoopIndex
0000b44a     2d1 (0000b440)     _nLoopIndex2
0000b44b     2d1 (0000b440)     _nLoopCount
0000b44c     2d1 (0000b440)     _nSizeWriteBits
0000b44d     2d1 (0000b440)     _bReadOnlyFile
0000b44e     2d1 (0000b440)     _nResponseBytes
0000b44f     2d1 (0000b440)     _nRecordNumber
0000b450     2d1 (0000b440)     _nSizeRead
0000b451     2d1 (0000b440)     _nBytesRead
0000b452     2d1 (0000b440)     _nSizeReadCheck
0000b453     2d1 (0000b440)     _nSizeReadRequest
0000b454     2d1 (0000b440)     _nSizeReadCheckMemory
0000b455     2d1 (0000b440)     _nSizeBytes
0000b456     2d1 (0000b440)     _nBytesResponseTotal
0000b457     2d1 (0000b440)     _nSizeCurrentRecord
0000b458     2d1 (0000b440)     _nSizeWrite
0000b459     2d1 (0000b440)     _nSizeWriteBytesAllParts
0000b45a     2d1 (0000b440)     _nReferenceType
0000b45b     2d1 (0000b440)     _nSizeWriteBytes
0000b45c     2d1 (0000b440)     _nSizeReadBytes
0000b45d     2d1 (0000b440)     _nCmd
0000b45e     2d1 (0000b440)     _nSubCmd
0000b45f     2d1 (0000b440)     _nSubCmdDiag
0000b460     2d1 (0000b440)     _nIDCode
0000b461     2d1 (0000b440)     _eException
0000b462     2d1 (0000b440)     _u16LastFileNumberRequest
0000b463     2d1 (0000b440)     _bFileFirstRequest
0000b464     2d1 (0000b440)     _nRecordNumberRequest
0000b465     2d1 (0000b440)     _nSizeReadRequestLoop
0000b466     2d1 (0000b440)     _nLoopIndexedRequest
0000b468     2d1 (0000b440)     _u32Dummy
0000b46a     2d1 (0000b440)     _HMMODBUS_pTxBuff
0000b46c     2d1 (0000b440)     _HMMODBUS_pRxBuff
0000b46e     2d1 (0000b440)     _HMMODBUS_pu32HoldingRegisterAccessTableInRam
0000b470     2d1 (0000b440)     _HMMODBUS_u32HoldingRegisterAddressTableSize
0000b472     2d1 (0000b440)     _HMMODBUS_u32HoldingRegisterAddressTableInRamSize
0000b474     2d1 (0000b440)     _HMMODBUS_u32HoldingRegisterVirtAddressTable
0000b476     2d1 (0000b440)     _HMMODBUS_u32HoldingRegisterRegisterSizeTable
0000b478     2d1 (0000b440)     _HMMODBUS_u32HoldingRegisterRegisterFlagsTable
0000b47a     2d1 (0000b440)     _HMMODBUS_u32HoldingRegisterRealAddressTable
0000b47c     2d1 (0000b440)     _HMMODBUS_u32HoldingRegisterProcessFuncTable
0000b47e     2d1 (0000b440)     _HMMODBUS_u32TxDelayCounter

0000b480     2d2 (0000b480)     _HMMOSBUS_nFileWritePrimaryAddrReadLast
0000b482     2d2 (0000b480)     _HMMOSBUS_nDummy
0000b484     2d2 (0000b480)     _HMMODBUS_u32RegisterAddressInRamDummyRealAddress
0000b486     2d2 (0000b480)     _HMMODBUS_u32RegisterAddressInRamDummyProcessFunc
0000b488     2d2 (0000b480)     _HMMODBUS_u32FreeRunTimerReceivedMessage
0000b48a     2d2 (0000b480)     _HMMODBUS_pasFileAddressTable
0000b48c     2d2 (0000b480)     _HMMODBUS_u32FileCount
0000b48e     2d2 (0000b480)     _HMMODBUS_u32DeviceSYSCLKFreq
0000b490     2d2 (0000b480)     _u32ModbusMaxByteToByte
0000b492     2d2 (0000b480)     _u32ModbusMaxMessToMess
0000b494     2d2 (0000b480)     _u32ModbusMinMessToMess
0000b496     2d2 (0000b480)     _u32ModbusMaxByteToByteExact
0000b498     2d2 (0000b480)     _u32ModbusMaxMessToMessExact
0000b49a     2d2 (0000b480)     _u32ModbusTimeout
0000b49c     2d2 (0000b480)     _u32WrongElementSizeTable
0000b49e     2d2 (0000b480)     _u32ElementSizeTableD384_0
0000b4a0     2d2 (0000b480)     _u32ElementSizeTableB326_0
0000b4a2     2d2 (0000b480)     _u32ElementSizeTableD384_1
0000b4a4     2d2 (0000b480)     _u32ElementSizeTableB326_1
0000b4a6     2d2 (0000b480)     _u32ElementSizeTableD384_2
0000b4a8     2d2 (0000b480)     _u32ElementSizeTableB326_2
0000b4aa     2d2 (0000b480)     _HMMODBUS_pu8ReadServerIDDatAdr
0000b4ac     2d2 (0000b480)     _HMMODBUS_pu8ReadDeviceIDVendorName
0000b4ae     2d2 (0000b480)     _HMMODBUS_pu8ReadDeviceIDProductCode
0000b4b0     2d2 (0000b480)     _HMMODBUS_pu8ReadDeviceIDMajorMinorRevision
0000b4b2     2d2 (0000b480)     _HMMODBUS_pu8ReadDeviceIDVendorUrl
0000b4b4     2d2 (0000b480)     _HMMODBUS_pu8ReadDeviceIDProductName
0000b4b6     2d2 (0000b480)     _HMMODBUS_pu8ReadDeviceIDModelName
0000b4b8     2d2 (0000b480)     _HMMODBUS_pu8ReadDeviceIDUserApplicationName
0000b4ba     2d2 (0000b480)     _HMMODBUS_pu8ReadDeviceIDUserReserve0
0000b4bc     2d2 (0000b480)     _HMMODBUS_pu8ReadDeviceIDUserReserve1
0000b4be     2d2 (0000b480)     _HMMODBUS_pu8ReadDeviceIDUserReserve2

0000b4c0     2d3 (0000b4c0)     _pfWriteParElementCallbackFunction
0000b4c2     2d3 (0000b4c0)     _u32ModbusTimeoutBufferIndex
0000b4c4     2d3 (0000b4c0)     _u32RxTimeout
0000b4c6     2d3 (0000b4c0)     _realRxByteDelay
0000b4c8     2d3 (0000b4c0)     _realRxByteDelayLastFail
0000b4ca     2d3 (0000b4c0)     _u32RxTimeoutLastFail
0000b4cc     2d3 (0000b4c0)     _pu16ModbusCompleteReceiveMessageCounterThisDevice
0000b4ce     2d3 (0000b4c0)     _HMMODBUS_u32DebugAddrReadFileReal
0000b4d0     2d3 (0000b4c0)     _HMMODBUS_u32DebugAddrReadFileFromIndex
0000b4d2     2d3 (0000b4c0)     _HMMODBUS_u32DebugAddrReadFileFromAddress
0000b4d4     2d3 (0000b4c0)     _HMMODBUS_u32DebugAddrReadPlusOffset
0000b4d6     2d3 (0000b4c0)     _HMMODBUS_u32DebugAddrReadFileCircleTooFarAddress
0000b4d8     2d3 (0000b4c0)     _HMMODBUS_u32DebugAddrReadFileCircle
0000b4da     2d3 (0000b4c0)     _HMMODBUS_u32DebugAddrReadFileForRead
0000b4dc     2d3 (0000b4c0)     _HMMODBUS_u32DebugAddrReadFileForReadLooped
0000b4de     2d3 (0000b4c0)     _HMMODBUS_nSizeReadRequestLoopLeft
0000b4e0     2d3 (0000b4c0)     _u32BufferAddressStart
0000b4e2     2d3 (0000b4c0)     _u32BufferSize
0000b4e4     2d3 (0000b4c0)     _u32SampleCountBuffer
0000b4e6     2d3 (0000b4c0)     _u32SampleCountAvailable
0000b4e8     2d3 (0000b4c0)     _u32StartSampleIndex
0000b4ea     2d3 (0000b4c0)     _u32ElementsSizeModbus
0000b4ec     2d3 (0000b4c0)     _u32ElementsSizeMemory
0000b4ee     2d3 (0000b4c0)     _nAddrWrite
0000b4f0     2d3 (0000b4c0)     _pu8ElementSizeTable
0000b4f2     2d3 (0000b4c0)     _pu8ElementSizeTablePtr
0000b4f4     2d3 (0000b4c0)     _nAddrFuncExecute
0000b4f6     2d3 (0000b4c0)     _nSizeOffset
0000b4f8     2d3 (0000b4c0)     _nSizeAllRecords
0000b4fa     2d3 (0000b4c0)     _nSizeOffsetCurrentRecord
0000b4fc     2d3 (0000b4c0)     _nCurrentElementTableIndex
0000b4fe     2d3 (0000b4c0)     _nSizeOffsetAdd

0000b500     2d4 (0000b500)     _pfIndexGeneration
0000b502     2d4 (0000b500)     _nAddrRead
0000b504     2d4 (0000b500)     _pResponseStart
0000b506     2d4 (0000b500)     _pResponseEnd
0000b508     2d4 (0000b500)     _pMessageIn
0000b50a     2d4 (0000b500)     _pMessageOut
0000b50c     2d4 (0000b500)     _pMessageInCopy
0000b50e     2d4 (0000b500)     _nSizeOffsetMultiplier
0000b510     2d4 (0000b500)     _nSizeOffsetRequestMultMode
0000b512     2d4 (0000b500)     _nTimeTickDelayModbus
0000b514     2d4 (0000b500)     _nTimeTickDelayModbusMin
0000b516     2d4 (0000b500)     _nTimeTickDelayModbusMax
0000b51a     2d4 (0000b500)     _CSMON_au32FileParameterNumericFileRecordElementsSizeTable
0000b538     2d4 (0000b500)     _u32DeviceLSPCLKFreq
0000b53a     2d4 (0000b500)     _u32DeviceLSPCLKFreqRoundAndMinErrorBaud
0000b53c     2d4 (0000b500)     _HMDRV_u32SCIErrorPPM
0000b53e     2d4 (0000b500)     _u32DeviceSYSCLKFreq

0000b540     2d5 (0000b540)     _HMMODBUS_anTxCheckSum

0000b640     2d9 (0000b640)     _HMMODBUS_pCommBufferRx

0000b740     2dd (0000b740)     _HMMODBUS_pCommBufferTx

0000b840     2e1 (0000b840)     _UART_DRV_RxBuffer

0000b940     2e5 (0000b940)     _CSMON_asFileParameterDefinitionsFromAccessLevel

0000ba08     2e8 (0000ba00)     _MODBUSREG_u16ModbusParamCount
0000ba09     2e8 (0000ba00)     _MODBUSREG_u16ParamCount
0000ba0a     2e8 (0000ba00)     _MODBUSREG_u16TableNameAddressOffset
0000ba0b     2e8 (0000ba00)     _InputRegisterDummy
0000ba0c     2e8 (0000ba00)     _InputCoilDummy
0000ba0d     2e8 (0000ba00)     _CoilTest
0000ba0e     2e8 (0000ba00)     _HMMODBUS_u16RegisterAddressTableControlParametersStartIndex
0000ba0f     2e8 (0000ba00)     _MODBUSREG_u16HoldRegFillCount
0000ba10     2e8 (0000ba00)     _MODBUSREG_u16HoldRegUsedCount
0000ba11     2e8 (0000ba00)     _MODBUSREG_u16HoldRegListCount
0000ba12     2e8 (0000ba00)     _MODBUSREG_u16TableVirtAddressOffset
0000ba13     2e8 (0000ba00)     _MODBUSREG_u16TableRegisterSizeOffset
0000ba14     2e8 (0000ba00)     _MODBUSREG_u16TableRegisterFlagsOffset
0000ba15     2e8 (0000ba00)     _MODBUSREG_u16TableRealAddressOffset
0000ba16     2e8 (0000ba00)     _MODBUSREG_u16TableProcessFuncOffset
0000ba17     2e8 (0000ba00)     _MODBUSREG_u16FileTableRecorderIndex
0000ba18     2e8 (0000ba00)     _MODBUSREG_u16FileTableShortNameIndex
0000ba19     2e8 (0000ba00)     _MODBUSREG_u16FileTableParameterListIndex
0000ba1a     2e8 (0000ba00)     _MODBUSREG_u16FileTableParameterNumbIndex
0000ba1c     2e8 (0000ba00)     _MODBUSREG_u32ParamRecorderConfigAddress
0000ba1e     2e8 (0000ba00)     _MODBUSREG_u32ParamScopeConfigAddress
0000ba20     2e8 (0000ba00)     _MODBUSREG_u32ParamListAddress
0000ba22     2e8 (0000ba00)     _MODBUSREG_pu32TableNameAddress
0000ba24     2e8 (0000ba00)     _MODBUSREG_u32ParamNumbAddress
0000ba26     2e8 (0000ba00)     _MODBUSREG_u32FileRTC_FunctionAfterWriteFileRecord
0000ba28     2e8 (0000ba00)     _MODBUSREG_u32FileRTC_FunctionAfterReadFileRecord
0000ba2a     2e8 (0000ba00)     _MODBUSREG_u32FileParamCount_FunctionBeforeReadFileRecord
0000ba2c     2e8 (0000ba00)     _MODBUSREG_u32FileAutorization_FunctionAfterWriteFileRecordTable
0000ba2e     2e8 (0000ba00)     _MODBUSREG_u32FileRecStatus_FunctionIndexGenerationFileRecord
0000ba30     2e8 (0000ba00)     _MODBUSREG_u32FileRecConfig_FunctionAfterWriteFileRecord
0000ba32     2e8 (0000ba00)     _MODBUSREG_pu32TableVirtAddress
0000ba34     2e8 (0000ba00)     _MODBUSREG_pu32TableRegisterSize
0000ba36     2e8 (0000ba00)     _MODBUSREG_pu32TableRegisterFlags
0000ba38     2e8 (0000ba00)     _MODBUSREG_pu32TableRealAddress
0000ba3a     2e8 (0000ba00)     _MODBUSREG_pu32TableProcessFunc
0000ba3c     2e8 (0000ba00)     _CSMON_au8FileRecorderStatusElementsSizeTable

0000ba40     2e9 (0000ba40)     _CSMON_sFileParameterAccessList

0000bb08     2ec (0000bb00)     _CSMON_au8FileRecorderConfigElementsSizeTable
0000bb35     2ec (0000bb00)     _CSMON_au8FileParameterCountElementsSizeTable
0000bb3f     2ec (0000bb00)     _HMREC_u16FailSnapshotWrite

0000bb40     2ed (0000bb40)     _CSMON_u16MaskSetupRecorderParam
0000bb41     2ed (0000bb40)     _CSMON_u16MaskStartRecorderParam
0000bb42     2ed (0000bb40)     _CSMON_u16MaskStopRecorderParam
0000bb43     2ed (0000bb40)     _eResponseCodeStartRecParam0
0000bb44     2ed (0000bb40)     _eResponseCodeStartRecParam1
0000bb45     2ed (0000bb40)     _eResponseCodeStartRecParam2
0000bb46     2ed (0000bb40)     _CSMON_bGetDateTimeAutorization
0000bb47     2ed (0000bb40)     _CSMON_bSetDateTimeRequest
0000bb48     2ed (0000bb40)     _CSMON_bGetDateTimeRequest
0000bb49     2ed (0000bb40)     _CSMON_u16SCIErrorPercent
0000bb4a     2ed (0000bb40)     _bServiceWatchdog
0000bb4b     2ed (0000bb40)     _CSMON_bResetMaxMeasure
0000bb4c     2ed (0000bb40)     _bRunOnceGetSavedRecorderState
0000bb4d     2ed (0000bb40)     _CSMON_bWatchdogCalcNeeded
0000bb4e     2ed (0000bb40)     _CSMON_u16WatchdogPrescaler
0000bb4f     2ed (0000bb40)     _CSMON_u16MaxTimeInISR_usec
0000bb50     2ed (0000bb40)     _CSMON_u16MinTimeProcessExit_usec
0000bb51     2ed (0000bb40)     _CSMON_u16MaxTimeTillWdtClear_usec
0000bb52     2ed (0000bb40)     _CSMON_u16MinTimeProcessAllowedNeeded_usec
0000bb53     2ed (0000bb40)     _u16SkipProcessCounter
0000bb54     2ed (0000bb40)     _u16SkipProcessTag
0000bb55     2ed (0000bb40)     _bSkipProcessFlag
0000bb56     2ed (0000bb40)     _CSMON_bUseAccessLevelForHoldingRegistersAndCoils
0000bb57     2ed (0000bb40)     _CSMON_bUseAccessLevelForInputRegistersAndCoils
0000bb58     2ed (0000bb40)     _CSMON_u16CurrentAccessLevelPrev
0000bb59     2ed (0000bb40)     _CSMON_u16FileParameterFillCount
0000bb5a     2ed (0000bb40)     _CSMON_u16FileParameterUseMaxCnt
0000bb5b     2ed (0000bb40)     _CSMON_u16FileParameterListCount
0000bb5c     2ed (0000bb40)     _CSMON_u16FileParameterNameCount
0000bb5d     2ed (0000bb40)     _CSMON_u16FileParameterNumeric
0000bb5e     2ed (0000bb40)     _CSMON_sFileParameterDefinitionsElementOffset
0000bb5f     2ed (0000bb40)     _CSMON_bUseDisconnectOnTimeout
0000bb60     2ed (0000bb40)     _CSMON_u16NoMessageTimeout_msec
0000bb61     2ed (0000bb40)     _CSMON_u16NoMessageTimeoutOld_msec
0000bb62     2ed (0000bb40)     _CSMON_bRunningInitialization
0000bb63     2ed (0000bb40)     _eModbusDefaultCommandRead
0000bb64     2ed (0000bb40)     _eModbusDefaultCommandWrite
0000bb65     2ed (0000bb40)     _eModbusDefaultCommandReadArray
0000bb66     2ed (0000bb40)     _eModbusDefaultCommandWriteArray
0000bb67     2ed (0000bb40)     _u16ArrayReadAsHolding
0000bb68     2ed (0000bb40)     _u32FreeRunTimerSysClkMHz
0000bb6a     2ed (0000bb40)     _u32FreeRunTimerSysClkDiv
0000bb6c     2ed (0000bb40)     _CSMON_u32SCIErrorPPM
0000bb6e     2ed (0000bb40)     _CSMON_u32ServiceWatchdogTimes
0000bb70     2ed (0000bb40)     _CSMON_u32FreeRunTimerCheckSumListBegin
0000bb72     2ed (0000bb40)     _CSMON_u32FreeRunTimerCheckSumListEnd
0000bb74     2ed (0000bb40)     _CSMON_u32FreeRunTimerCheckSumListMax
0000bb76     2ed (0000bb40)     _CSMON_u32FreeRunTimerCheckSumNameBegin
0000bb78     2ed (0000bb40)     _CSMON_u32FreeRunTimerCheckSumNameEnd
0000bb7a     2ed (0000bb40)     _CSMON_u32FreeRunTimerCheckSumNameMax
0000bb7c     2ed (0000bb40)     _CSMON_u32FreeRunTimerCheckSumNumbBegin
0000bb7e     2ed (0000bb40)     _CSMON_u32FreeRunTimerCheckSumNumbEnd

0000bb80     2ee (0000bb80)     _CSMON_u32FreeRunTimerCheckSumNumbMax
0000bb82     2ee (0000bb80)     _CSMON_u32FreeRunTimerCheckSumStrgBegin
0000bb84     2ee (0000bb80)     _CSMON_u32FreeRunTimerCheckSumStrgEnd
0000bb86     2ee (0000bb80)     _CSMON_u32FreeRunTimerCheckSumStrgMax
0000bb88     2ee (0000bb80)     _CSMON_u32FreeRunTimerAccessChangeBegin
0000bb8a     2ee (0000bb80)     _CSMON_u32FreeRunTimerAccessChangeEnd
0000bb8c     2ee (0000bb80)     _CSMON_u32FreeRunTimerAccessChangeMax
0000bb8e     2ee (0000bb80)     _CSMON_u32FreeRunTimerPrepareFileParameterAccessListEnd
0000bb90     2ee (0000bb80)     _CSMON_u32FreeRunTimerPrepareFileParameterAccessListMax
0000bb92     2ee (0000bb80)     _CSMON_u32FreeRunTimerPasswordHashBegin
0000bb94     2ee (0000bb80)     _CSMON_u32FreeRunTimerPasswordHashEnd
0000bb96     2ee (0000bb80)     _CSMON_u32FreeRunTimerPasswordHashMax
0000bb98     2ee (0000bb80)     _CSMON_u32FreeRunTimerProcessBegin
0000bb9a     2ee (0000bb80)     _CSMON_u32FreeRunTimerProcessNow
0000bb9c     2ee (0000bb80)     _CSMON_u32FreeRunTimerProcessEnd
0000bb9e     2ee (0000bb80)     _CSMON_u32FreeRunTimerProcessMax
0000bba0     2ee (0000bb80)     _CSMON_u32WatchdogPeriod_usec
0000bba2     2ee (0000bb80)     _CSMON_u32WatchdogPeriod_Ticks
0000bba4     2ee (0000bb80)     _CSMON_u32MaxTimeInISR_Ticks
0000bba6     2ee (0000bb80)     _CSMON_u32MaxTimeProcess_Ticks
0000bba8     2ee (0000bb80)     _CSMON_u32MaxTimeTillWdtClearISRs
0000bbaa     2ee (0000bb80)     _CSMON_u32MinTimeProcessExit_Ticks
0000bbac     2ee (0000bb80)     _CSMON_u32MaxTimeTillWdtClear_Ticks
0000bbae     2ee (0000bb80)     _CSMON_u32MinTimeProcessAllowedNeeded_Ticks
0000bbb0     2ee (0000bb80)     _CSMON_s32MaxTimeProcessAllowedCalc_Ticks
0000bbb2     2ee (0000bb80)     _CSMON_u32MaxTimeProcessAllowed_Ticks
0000bbb4     2ee (0000bb80)     _u32NumericDummy
0000bbb6     2ee (0000bb80)     _CSMON_pasFileParameterListValueAccessKeyID
0000bbb8     2ee (0000bb80)     _CSMON_pasFileParameterListValueAccessKeyFl
0000bbba     2ee (0000bb80)     _CSMON_pasFileParameterListModbusAddress
0000bbbc     2ee (0000bb80)     _CSMON_pasFileParameterListFunctionCode
0000bbbe     2ee (0000bb80)     _CSMON_pasFileParameterListAccessLevel

0000bbc0     2ef (0000bbc0)     _CSMON_pasFileParameterListBitsCount
0000bbc2     2ef (0000bbc0)     _CSMON_pu32HoldingRegistersAddressTable
0000bbc4     2ef (0000bbc0)     _CSMON_pu32HoldingRegistersAccessTableInRam
0000bbc6     2ef (0000bbc0)     _CSMON_pasFileParameterNumbDataType
0000bbc8     2ef (0000bbc0)     _CSMON_pasFileParameterNumbVisualType
0000bbca     2ef (0000bbc0)     _CSMON_pasFileParameterNumbDefault
0000bbcc     2ef (0000bbc0)     _CSMON_pasFileParameterNumbMinimum
0000bbce     2ef (0000bbc0)     _CSMON_pasFileParameterNumbMaximum
0000bbd0     2ef (0000bbc0)     _CSMON_pasFileParameterNumbMultply
0000bbd2     2ef (0000bbc0)     _CSMON_pasFileParameterNumbOffset
0000bbd4     2ef (0000bbc0)     _CSMON_u32FreeRunTimerNow
0000bbd6     2ef (0000bbc0)     _CSMON_u32FreeRunTimerPrev
0000bbd8     2ef (0000bbc0)     _CSMON_u32FreeRunTimerDiff
0000bbda     2ef (0000bbc0)     _CSMON_u32NoMessageTime
0000bbdc     2ef (0000bbc0)     _CSMON_u32NoMessageTimeout_Ticks
0000bbde     2ef (0000bbc0)     _sRecExternParam
0000bbfa     2ef (0000bbc0)     _CSMON_au32FileAutorization_FunctionAfterWriteFileRecord

0000bc00     2f0 (0000bc00)     _pcm_pCommBuffer

0000bc79     2f1 (0000bc40)     _CSMON_au32FileParameterDefinitionsFileRecordElementsRecordToRecordOffsetSizeBytesTable
0000bc7f     2f1 (0000bc40)     _DataChangedFlag

0000bc80     2f2 (0000bc80)     _MAIN_bDateTimeSet
0000bc81     2f2 (0000bc80)     _bDummyStatsDevRunning
0000bc82     2f2 (0000bc80)     _bDummyReqstDevRunning
0000bc83     2f2 (0000bc80)     _s16DummyCurrentPhaseAStartup
0000bc84     2f2 (0000bc80)     _s16DummyCurrentPhaseBStartup
0000bc85     2f2 (0000bc80)     _s16DummyCurrentPhaseCStartup
0000bc86     2f2 (0000bc80)     _s16DummyVoltageDCLinkStartup
0000bc87     2f2 (0000bc80)     _s16DummyCurrentPhaseAStop
0000bc88     2f2 (0000bc80)     _s16DummyCurrentPhaseBStop
0000bc89     2f2 (0000bc80)     _s16DummyCurrentPhaseCStop
0000bc8a     2f2 (0000bc80)     _s16DummyVoltageDCLinkStop
0000bc8b     2f2 (0000bc80)     _s16DummyCurrentPhaseAIdle
0000bc8c     2f2 (0000bc80)     _s16DummyCurrentPhaseBIdle
0000bc8d     2f2 (0000bc80)     _s16DummyCurrentPhaseCIdle
0000bc8e     2f2 (0000bc80)     _s16DummyVoltageDCLinkIdle
0000bc8f     2f2 (0000bc80)     _s16DummyIncrementLoopCDiff
0000bc90     2f2 (0000bc80)     _s16DummyIncrementLoopA
0000bc91     2f2 (0000bc80)     _s16DummyIncrementLoopB
0000bc92     2f2 (0000bc80)     _s16DummyIncrementLoopC
0000bc93     2f2 (0000bc80)     _s16DummyIncrementLoopV
0000bc94     2f2 (0000bc80)     _s16DummyCurrentPhaseA
0000bc95     2f2 (0000bc80)     _s16DummyCurrentPhaseB
0000bc96     2f2 (0000bc80)     _s16DummyCurrentPhaseC
0000bc97     2f2 (0000bc80)     _s16DummyVoltageDCLink
0000bc98     2f2 (0000bc80)     _s16DummyIncrementLoop
0000bc99     2f2 (0000bc80)     _u16DummyDataCnt
0000bc9a     2f2 (0000bc80)     _s16DummyDataTst
0000bc9b     2f2 (0000bc80)     _s16ScaleDataTst
0000bc9c     2f2 (0000bc80)     _u16TestData0
0000bc9d     2f2 (0000bc80)     _u16TestData1
0000bc9e     2f2 (0000bc80)     _u16TestData2
0000bc9f     2f2 (0000bc80)     _u16TestData3
0000bca0     2f2 (0000bc80)     _u16TestData4
0000bca1     2f2 (0000bc80)     _u16TestData5
0000bca2     2f2 (0000bc80)     _u16TestData6
0000bca3     2f2 (0000bc80)     _u16TestData7
0000bca4     2f2 (0000bc80)     _u16TestData8
0000bca5     2f2 (0000bc80)     _u16TestData9
0000bca6     2f2 (0000bc80)     _s16DummyData
0000bca7     2f2 (0000bc80)     _u16WatchdogPrescaler
0000bca8     2f2 (0000bc80)     _u16WatchdogPrescalerOld
0000bca9     2f2 (0000bc80)     _u16WatchdogPrescalerTime
0000bcaa     2f2 (0000bc80)     _u16WatchdogPrescalerTimeOld
0000bcab     2f2 (0000bc80)     _u16DelayCtrlLoop_100nsec
0000bcac     2f2 (0000bc80)     _u16DelayCtrlLoopOld_100nsec
0000bcad     2f2 (0000bc80)     _u16DelayMainLoop_usec
0000bcae     2f2 (0000bc80)     _u16DelayMainLoopOld_usec
0000bcaf     2f2 (0000bc80)     _u16PeriodControl_usec
0000bcb0     2f2 (0000bc80)     _u16PeriodControlOld_usec
0000bcb1     2f2 (0000bc80)     _u16CountSetParameterFree
0000bcb2     2f2 (0000bc80)     _u16CountSetParameterFail
0000bcb3     2f2 (0000bc80)     _u16CountMaxParameterTest
0000bcb4     2f2 (0000bc80)     _bResetAllTimeMeasures
0000bcb5     2f2 (0000bc80)     _eResponseCode_CSMON_eInit
0000bcb6     2f2 (0000bc80)     _eResponseCode_CSMON_eProcess
0000bcb7     2f2 (0000bc80)     _eResponseCode_CSMON_eSetServerOnStatus
0000bcb8     2f2 (0000bc80)     _eResponseCode_CSMON_eSetParameter
0000bcb9     2f2 (0000bc80)     _eResponseCode_CSMON_eSetRecorder
0000bcba     2f2 (0000bc80)     _eResponseCode_CSMON_eSetScope
0000bcbb     2f2 (0000bc80)     _eResponseCode_CSMON_eSetTimerPeriodISRFunctionRegister
0000bcbc     2f2 (0000bc80)     _eResponseCode_CSMON_eSetFlagProcessPassed
0000bcbd     2f2 (0000bc80)     _limit_count_params
0000bcbe     2f2 (0000bc80)     _maximum_count_params
0000bcbf     2f2 (0000bc80)     _u16FreeRunningTimerTicksPerMicroSecond

0000bcc0     2f3 (0000bcc0)     _u16FreeRunningTimerPrescaller
0000bcc2     2f3 (0000bcc0)     _s32DummyCurrentPhaseA
0000bcc4     2f3 (0000bcc0)     _s32DummyCurrentPhaseB
0000bcc6     2f3 (0000bcc0)     _s32DummyCurrentPhaseC
0000bcc8     2f3 (0000bcc0)     _s32DummyVoltageDCLink
0000bcca     2f3 (0000bcc0)     _s32DummyIncrementLoop
0000bccc     2f3 (0000bcc0)     _u32DummyDataCnt
0000bcce     2f3 (0000bcc0)     _pu16ModbusMessageCounter
0000bcd0     2f3 (0000bcc0)     _aDummyDataTable
0000bcd2     2f3 (0000bcc0)     _u32DelayCtrlLoop_Ticks
0000bcd4     2f3 (0000bcc0)     _u32DelayMainLoop_Ticks
0000bcd6     2f3 (0000bcc0)     _u32TimeMainLoopProcessCSMON_Bgn_Ticks
0000bcd8     2f3 (0000bcc0)     _u32TimeMainLoopProcessCSMON_End_Ticks
0000bcda     2f3 (0000bcc0)     _u32TimeMainLoopProcessCSMON_Now_Ticks
0000bcdc     2f3 (0000bcc0)     _u32TimeMainLoopProcessCSMON_Max_Ticks
0000bcde     2f3 (0000bcc0)     _u32TimeMainLoopCycle_Bgn_Ticks
0000bce0     2f3 (0000bcc0)     _u32TimeMainLoopCycle_End_Ticks
0000bce2     2f3 (0000bcc0)     _u32TimeMainLoopCycle_Now_Ticks
0000bce4     2f3 (0000bcc0)     _u32TimeMainLoopCycle_Max_Ticks
0000bce6     2f3 (0000bcc0)     _u32TimeCSMON_ISR_Ticks
0000bce8     2f3 (0000bcc0)     _u32TimeCSMON_ISR_Max_Ticks
0000bcea     2f3 (0000bcc0)     _u32TimeCtrlLoop_Ticks
0000bcec     2f3 (0000bcc0)     _u32TimeCtrlLoopMax_Ticks
0000bcee     2f3 (0000bcc0)     _u32ParamTime_Ticks
0000bcf0     2f3 (0000bcc0)     _u32GetBaudError_PPM
0000bcf4     2f3 (0000bcc0)     _u64DummyDataCnt
0000bcf8     2f3 (0000bcc0)     _HMRECPRM_sDateTime

0000bd00     2f4 (0000bd00)     _sRecHandleParam

0000bd62     2f5 (0000bd40)     _CSMON_au8FileRecorderDataElementsSizeTable
0000bd76     2f5 (0000bd40)     _CSMON_au8FileRTCElementsSizeTable

0000bd80     2f6 (0000bd80)     _sRecHandle

0000bdd8     2f7 (0000bdc0)     _CSMON_sFileAutorization
0000bdea     2f7 (0000bdc0)     _CSMON_sFileParameterCount
0000bdfa     2f7 (0000bdc0)     ___TI_enable_exit_profile_output
0000bdfc     2f7 (0000bdc0)     ___TI_cleanup_ptr
0000bdfe     2f7 (0000bdc0)     ___TI_dtors_ptr

0000be00     2f8 (0000be00)     _sRecConfigParam

0000be80     2fa (0000be80)     _sScopeHandlePrm
0000bebe     2fa (0000be80)     _MAIN_u32FreeCounter

0000bec0     2fb (0000bec0)     _CSMON_au8FileScopeConfigurationElementsSizeTable
0000beea     2fb (0000bec0)     _MODBUSREG_au8DeviceIDMajorMinorRevision
0000befa     2fb (0000bec0)     _UARTRxBufferRDCount
0000befe     2fb (0000bec0)     _DataChangedParamFlag
0000beff     2fb (0000bec0)     _nScopeIndexFreemaster

0000bf00     2fc (0000bf00)     _sScopeConfigParam
0000bf2a     2fc (0000bf00)     _MODBUSREG_au8DeviceIDModelName
0000bf3a     2fc (0000bf00)     _UARTRxBufferRDIndex
0000bf3e     2fc (0000bf00)     _CSMON_abFlagProcessPassed

0000bf40     2fd (0000bf40)     _MODBUSREG_au8DeviceIDProductCode
0000bf50     2fd (0000bf40)     _MODBUSREG_au8DeviceIDProductName
0000bf60     2fd (0000bf40)     _MODBUSREG_au8DeviceIDUserApplicationName
0000bf70     2fd (0000bf40)     _MODBUSREG_au8DeviceIDUserReserve0

0000bf80     2fe (0000bf80)     _MODBUSREG_au8DeviceIDUserReserve1
0000bf90     2fe (0000bf80)     _MODBUSREG_au8DeviceIDUserReserve2
0000bfa0     2fe (0000bf80)     _MODBUSREG_au8DeviceIDVendorName
0000bfb0     2fe (0000bf80)     _MODBUSREG_au8DeviceIDVendorUrl

0000bfc0     2ff (0000bfc0)     _MODBUSREG_au8ServerIDData
0000bfd0     2ff (0000bfc0)     _sRecStatusParam
0000bfe0     2ff (0000bfc0)     _cpuTimer0IntCount
0000bfe1     2ff (0000bfc0)     _cpuTimer1IntCount
0000bfe2     2ff (0000bfc0)     _cpuTimer2IntCount
0000bfe3     2ff (0000bfc0)     _u16TimerMainPeriod
0000bfe4     2ff (0000bfc0)     _u16SecondPeriod
0000bfe5     2ff (0000bfc0)     _u16SecondCounter
0000bfe6     2ff (0000bfc0)     _u16TimerMainISRCounter
0000bfe7     2ff (0000bfc0)     _TMR_u16FreeRunTimerPrescaller
0000bfe8     2ff (0000bfc0)     _hours
0000bfe9     2ff (0000bfc0)     _minutes
0000bfea     2ff (0000bfc0)     _seconds
0000bfeb     2ff (0000bfc0)     _second_Passed
0000bfec     2ff (0000bfc0)     _pfCSMONFunction
0000bfee     2ff (0000bfc0)     _CSMON_au32FileParameterNumericFileRecordElementsRecordToRecordOffsetSizeBytesTable
0000bffc     2ff (0000bfc0)     _UARTRxBufferWRCount

0000c000     300 (0000c000)     _pcm_nTxTodo
0000c001     300 (0000c000)     _pcm_nRxTodoEcho
0000c002     300 (0000c000)     _pcm_nRxTodo
0000c003     300 (0000c000)     _pcm_nRxCheckSum
0000c004     300 (0000c000)     _u8UartIndex
0000c006     300 (0000c000)     _pcm_pTxBuff
0000c008     300 (0000c000)     _pcm_pRxBuff
0000c00c     300 (0000c000)     _CSMON_au32FileParameterDefinitionsFileRecordElementsRealAddressTable
0000c018     300 (0000c000)     _CSMON_au32FileParameterDefinitionsFileRecordElementsSizeTable
0000c024     300 (0000c000)     _CSMON_sDateTime
0000c030     300 (0000c000)     _CSMON_sDateTimeApplication
0000c03c     300 (0000c000)     _UARTRxBufferWRIndex

0000c040     301 (0000c040)     _CSMON_sDateTimeDefault
0000c04c     301 (0000c040)     _HMMODBUS_nFilePrimaryAddrWriteLast
0000c056     301 (0000c040)     _HMMOSBUS_nFileWriteAddrReadLast
0000c060     301 (0000c040)     _sHashKey
0000c06a     301 (0000c040)     _sRecStatusParamInternal
0000c074     301 (0000c040)     _MAIN_sDateTimeGet
0000c07c     301 (0000c040)     _UART_DRV_RxBufferRDCount

0000c080     302 (0000c080)     _MAIN_sDateTimeSet
0000c088     302 (0000c080)     _UART_DRV_RXIntOverflowCounter
0000c090     302 (0000c080)     _UART_DRV_u32TimeDiffLast
0000c098     302 (0000c080)     _UART_DRV_u32TimeDiffNow
0000c0a0     302 (0000c080)     _UART_RXIntOverflowCounter
0000c0a8     302 (0000c080)     _pfDelayedFunction
0000c0b0     302 (0000c080)     _pfDelayedFunction_u8
0000c0b8     302 (0000c080)     _u32TimeDiffLast

0000c0c0     303 (0000c0c0)     _u32TimeDiffNow
0000c0c8     303 (0000c0c0)     _u32TimeDiffRead
0000c0d0     303 (0000c0c0)     _Example_Result
0000c0d2     303 (0000c0c0)     _Example_PassCount
0000c0d4     303 (0000c0c0)     _Example_Fail
0000c0d6     303 (0000c0c0)     _MyCallbackCounter
0000c0d8     303 (0000c0c0)     _UART_DRV_RxBufferWRCount
0000c0dc     303 (0000c0c0)     _UART_DRV_RxBufferWRIndex
0000c0e0     303 (0000c0c0)     _u16TimerMainDelayedData
0000c0e4     303 (0000c0c0)     _u16TimerMainFunctionDelay
0000c0e8     303 (0000c0c0)     _u16TimerMainFunctionDelayCompare
0000c0ec     303 (0000c0c0)     _u16TimerMainFunctionDelayCounter
0000c0f0     303 (0000c0c0)     _CSMON_abFileAutorization_RecordReadOnly
0000c0f3     303 (0000c0c0)     _CSMON_abFileAutorization_RecordStringData
0000c0f6     303 (0000c0c0)     _CSMON_au16FileAutorization_RecordOffsets
0000c0f9     303 (0000c0c0)     _CSMON_sFileProtocolVersion
0000c0fc     303 (0000c0c0)     _MAIN_sDate
0000c0fe     303 (0000c0c0)     _MAIN_sTime

0000c100     304 (0000c100)     __lock
0000c102     304 (0000c100)     __unlock
0000c104     304 (0000c100)     _pBufferScope
0000c106     304 (0000c100)     _sFileParameterNumericOffsetDefault
0000c108     304 (0000c100)     _u32RecorderLastFreeCounter
0000c10a     304 (0000c100)     _u32RecorderMicroSec
0000c10c     304 (0000c100)     _bUseSCIA_On_USB
0000c10d     304 (0000c100)     _CSMON_au8FileParameterListElementsSizeTablePart1_1
0000c10e     304 (0000c100)     _CSMON_au8FileParameterListElementsSizeTablePart1_2
0000c10f     304 (0000c100)     _CSMON_au8FileParameterListElementsSizeTablePart1_3
0000c110     304 (0000c100)     _CSMON_au8FileParameterListElementsSizeTablePart1_4
0000c111     304 (0000c100)     _CSMON_au8FileParameterListElementsSizeTablePart2
0000c112     304 (0000c100)     _CSMON_au8FileParameterListElementsSizeTablePart3
0000c113     304 (0000c100)     _CSMON_au8FileParameterNumbElementsSizeTablePart16Bits
0000c114     304 (0000c100)     _CSMON_au8FileParameterNumbElementsSizeTablePart32Bits
0000c115     304 (0000c100)     _CSMON_au8FileRecorderDataElementsSizeTableUsedLength
0000c116     304 (0000c100)     _CSMON_au8FileScopeStatusElementsSizeTable
0000c117     304 (0000c100)     _HMMODBUS_u32RegisterAddressDummyuSize
0000c118     304 (0000c100)     _HMMODBUS_wFlags
0000c119     304 (0000c100)     _HMMODBUS_wFlagsRxTx
0000c11a     304 (0000c100)     _abRecorderJustStopped
0000c11b     304 (0000c100)     _abRecorderRunning
0000c11c     304 (0000c100)     _pcm_wFlags
0000c11d     304 (0000c100)     _pcm_wFlagsRxTx
0000c11e     304 (0000c100)     _sFileParameterNumericVisualTypeDefault
0000c11f     304 (0000c100)     _sScopeStatusParam
0000c120     304 (0000c100)     _errno

003d7e80    f5fa (003d7e80)     _PartIdRegs

003e8000    fa00 (003e8000)     _HMMODBUS_ReadFileRecord

003e88a0    fa22 (003e8880)     _HMMODBUS_bDecoder_OPT

003e9133    fa44 (003e9100)     _MODBUSREG_AddressTablesInit

003e98ae    fa62 (003e9880)     ___kernel_rem_pio2

003e9f46    fa7d (003e9f40)     _HMMODBUS_WriteFileRecord

003ea5b5    fa96 (003ea580)     _main

003ea763    fa9d (003ea740)     _CSMON_eSetUpRecParam

003ea8e2    faa3 (003ea8c0)     _CSMON_eProcess

003eaa4c    faa9 (003eaa40)     _HMMODBUS_Rx

003eab92    faae (003eab80)     _HMMODBUS_vSetFreeRunTimerPrescaller

003eacad    fab2 (003eac80)     _sin
003eacad    fab2 (003eac80)     _sinf

003eadc1    fab7 (003eadc0)     LL$$DIV
003eadfd    fab7 (003eadc0)     LL$$MOD

003eae37    fab8 (003eae00)     ULL$$DIV

003eae66    fab9 (003eae40)     ULL$$MOD

003eaec8    fabb (003eaec0)     _CSMON_vFileRecoderStatusFix

003eafb9    fabe (003eaf80)     _HMMODBUS_WriteHoldingRegister

003eb0a8    fac2 (003eb080)     _HMMODBUS_ReadHoldingRegister

003eb191    fac6 (003eb180)     _HMPROTOCOL_bDecoder

003eb27a    fac9 (003eb240)     _HMRECPRM_vProcess

003eb362    facd (003eb340)     _floorl

003eb44a    fad1 (003eb440)     _ControlProcess

003eb52e    fad4 (003eb500)     _CSMON_vSetupHoldingRegistersAndCoilsAddressTableFromCSMONParameterList

003eb604    fad8 (003eb600)     _CSMON_vInitParameterListRealAddressRecordTables

003eb6ca    fadb (003eb6c0)     _HMDRV_vInit

003eb78c    fade (003eb780)     _HMRECPRM_SetUpRec

003eb848    fae1 (003eb840)     _CSMON_eInit

003eb902    fae4 (003eb900)     _HMREC_SetUpRec

003eb9ba    fae6 (003eb980)     _HMDRV_CopyFromBufferInternalModbusBitField

003eba64    fae9 (003eba40)     _ldexpl
003eba64    fae9 (003eba40)     _scalbnl

003ebb0e    faec (003ebb00)     ___rem_pio2f

003ebbb5    faee (003ebb80)     _TMR2_ISR

003ebc58    faf1 (003ebc40)     _HMMODBUS_GetRealRegisterAddressAndSize

003ebcf5    faf3 (003ebcc0)     FD$$ADD

003ebd91    faf6 (003ebd80)     _RecordersInitialization

003ebe2a    faf8 (003ebe00)     _ParameterInitialization

003ebec1    fafb (003ebec0)     _HMDRV_CopyMemory

003ebf53    fafd (003ebf40)     _HMDRV_CopyToBufferInternalModbus

003ebfe5    faff (003ebfc0)     ___kernel_sindf

003ec077    fb01 (003ec040)     _CSMON_vSetDateTimeAutorization

003ec107    fb04 (003ec100)     FD$$DIV

003ec192    fb06 (003ec180)     _HMRECPRM_SetUpRecParamStatusDateTime

003ec219    fb08 (003ec200)     ___kernel_cosdf

003ec2a0    fb0a (003ec280)     _HMDRV_CopyFromBufferInternalModbus

003ec323    fb0c (003ec300)     FD$$MPY

003ec3a6    fb0e (003ec380)     FS$$DIV

003ec429    fb10 (003ec400)     _CSMON_vPrepareFileParameterAccessList

003ec4a8    fb12 (003ec480)     _HMSERIAL_vProcessSCI

003ec527    fb14 (003ec500)     FS$$SUB
003ec52c    fb14 (003ec500)     FS$$ADD

003ec59f    fb16 (003ec580)     _HMSERIAL_Rx

003ec609    fb18 (003ec600)     _HMMODBUS_vProcessSCI

003ec671    fb19 (003ec640)     _HMPROTOCOL_GetBoardInfo

003ec6d9    fb1b (003ec6c0)     _HMMODBUS_CopyFromBuffer

003ec740    fb1d (003ec740)     _HMREC_vProcess

003ec7a4    fb1e (003ec780)     _MODBUSREG_vInit

003ec806    fb20 (003ec800)     _InitPeripheralClocks

003ec865    fb21 (003ec840)     _UART_RXInterrupt

003ec8c2    fb23 (003ec8c0)     _GPIO_setPinConfigOutput

003ec91c    fb24 (003ec900)     FS$$MPY

003ec976    fb25 (003ec940)     _CSMON_vUpdateDateTimeFromApplication

003ec9cf    fb27 (003ec9c0)     _vSetElementsSize

003eca28    fb28 (003eca00)     _CSMON_bCheckValidDateTime

003eca7f    fb29 (003eca40)     _UART_DRV_RXInterrupt

003ecad6    fb2b (003ecac0)     _MODBUSREG_FileRecorderExternalUpdateInit

003ecb2b    fb2c (003ecb00)     _c_int00

003ecb7f    fb2d (003ecb40)     _CSMON_eSetRecorderTriggerAtPosition

003ecbd1    fb2f (003ecbc0)     _InitPll

003ecc22    fb30 (003ecc00)     _Device_CsmUnlock

003ecc71    fb31 (003ecc40)     _HMMODBUS_GetRegisterFunction

003eccbf    fb32 (003ecc80)     _HMRECPRM_StartRecParam

003ecd0d    fb34 (003ecd00)     _HMMODBUS_vSendResponse

003ecd59    fb35 (003ecd40)     _HMRECPRM_vTimeSync

003ecda5    fb36 (003ecd80)     _HMMODBUS_CopyToBuffer

003ecdec    fb37 (003ecdc0)     _HMSCOPEPRM_SetUpScope

003ece33    fb38 (003ece00)     _ExternalParametersInitialization

003ece78    fb39 (003ece40)     _HMSCOPEPRM_ReadScope

003ecebb    fb3a (003ece80)     _Interrupt_enable

003ecefd    fb3b (003ecec0)     _HMDRV_CopyFromBufferInternal

003ecf3c    fb3c (003ecf00)     _vSetStartSampleIndex

003ecf79    fb3d (003ecf40)     _configCPUTimer

003ecfb5    fb3e (003ecf80)     _HMSCOPE_SetUpScope

003ecff0    fb3f (003ecfc0)     _CSMON_u16FindIndexParameterTable

003ed029    fb40 (003ed000)     _CSMON_eSetRecorderConfigurationSkipSamples

003ed061    fb41 (003ed040)     _Device_init

003ed099    fb42 (003ed080)     _HMMODBUS_bDecoderInit_OPT

003ed0d1    fb43 (003ed0c0)     _UART_ReadDataRx

003ed109    fb44 (003ed100)     _CSMON_vRecorderParamStartStopProcess
003ed13f    fb44 (003ed100)     _HMSCOPE_ReadScope

003ed175    fb45 (003ed140)     _HMSERIAL_vSendResponse

003ed1ab    fb46 (003ed180)     _CSMON_u32GetRealAddressAndSizeOffsetFromParameter

003ed1e0    fb47 (003ed1c0)     _HMDRV_CopyToBufferInternal

003ed215    fb48 (003ed200)     _HMMODBUS_Listen

003ed248    fb49 (003ed240)     _HMSERIAL_vProcessSCIFreemasterOnly
003ed276    fb49 (003ed240)     _CSMON_eSetParameterInRecorderAtPosition

003ed2a3    fb4a (003ed280)     _CSMON_eSetParameterInScopeAtPosition

003ed2d0    fb4b (003ed2c0)     _CSMON_vInitRecorders
003ed2fd    fb4b (003ed2c0)     _CSMON_vSetupHoldingRegistersAndCoilsAddressTableAccessAll

003ed357    fb4d (003ed340)     _RecorderTimeFromLocalDateTime

003ed384    fb4e (003ed380)     _FillTimeData
003ed3af    fb4e (003ed380)     FD$$CMP

003ed3d9    fb4f (003ed3c0)     C$$EXIT
003ed3d9    fb4f (003ed3c0)     _abort
003ed3db    fb4f (003ed3c0)     _exit

003ed402    fb50 (003ed400)     FS$$TOL
003ed42b    fb50 (003ed400)     _CSMON_bAutorizationPasswordCheck

003ed453    fb51 (003ed440)     _ScopesInitialization
003ed47b    fb51 (003ed440)     _HMSERIAL_vProcessSCITXISR

003ed4a2    fb52 (003ed480)     _sci_echoback_init

003ed4c9    fb53 (003ed4c0)     _HMDRV_CopyFromBufferInternalWithMaskModbus
003ed4ef    fb53 (003ed4c0)     _MODBUSREG_vInitHoldingRegistersTableChangesExternalList

003ed515    fb54 (003ed500)     _HMSERIAL_Tx
003ed53a    fb54 (003ed500)     FS$$TOI

003ed55f    fb55 (003ed540)     _CSMON_vAutorizationReset

003ed583    fb56 (003ed580)     _HMPROTOCOL_ReadMem
003ed5a7    fb56 (003ed580)     _RecorderDateFromLocalDateTime

003ed5cb    fb57 (003ed5c0)     _SCIA_DRV_RXFIFOISR
003ed5ef    fb57 (003ed5c0)     _SCIA_DRV_TXFIFOISR

003ed613    fb58 (003ed600)     _SCIA_RXFIFOISR
003ed637    fb58 (003ed600)     _SCIA_TXFIFOISR

003ed65b    fb59 (003ed640)     _SCIB_DRV_RXFIFOISR
003ed67f    fb59 (003ed640)     _SCIB_DRV_TXFIFOISR

003ed6a3    fb5a (003ed680)     _SCIB_RXFIFOISR

003ed6c7    fb5b (003ed6c0)     _SCIB_TXFIFOISR
003ed6eb    fb5b (003ed6c0)     _TMR_vInit

003ed70f    fb5c (003ed700)     _vSetSampleCountAvailable
003ed733    fb5c (003ed700)     _copy_in

003ed757    fb5d (003ed740)     _CSMON_vRecorderParamSetupProcess
003ed77a    fb5d (003ed740)     _HMLIB_vInit

003ed79d    fb5e (003ed780)     _MODBUSREG_FileRecorderElementSizeTableUsedSizeUpdateInit

003ed7c0    fb5f (003ed7c0)     _copysignl
003ed7e3    fb5f (003ed7c0)     I$$DIV
003ed7f4    fb5f (003ed7c0)     I$$MOD

003ed805    fb60 (003ed800)     _CSMON_eSetParameterListParameterID
003ed826    fb60 (003ed800)     _HMDRV_CopyFromBufferInternalWithMask

003ed847    fb61 (003ed840)     FD$$TOFS
003ed868    fb61 (003ed840)     FS$$TOUL

003ed889    fb62 (003ed880)     _HMDRV_vProcess
003ed8a9    fb62 (003ed880)     _TMR_vInitCPUTimers

003ed8c9    fb63 (003ed8c0)     _vSetSampleCountBuffer
003ed8e9    fb63 (003ed8c0)     _HMMODBUS_vInit

003ed908    fb64 (003ed900)     _InitPieCtrl
003ed927    fb64 (003ed900)     _vSetSampleSize

003ed946    fb65 (003ed940)     FD$$TOL
003ed965    fb65 (003ed940)     _CSMON_eSetParameterListRealAddress

003ed982    fb66 (003ed980)     _HMMODBUS_Tx
003ed99f    fb66 (003ed980)     _HMRECPRM_GetRecBuffFreemaster
003ed9bc    fb66 (003ed980)     _HMREC_GetRecBuffFreemaster

003ed9d9    fb67 (003ed9c0)     FS$$TOU
003ed9f6    fb67 (003ed9c0)     _memcpy

003eda13    fb68 (003eda00)     _CSMON_vGetDateTime
003eda2f    fb68 (003eda00)     _HMRECPRM_vGetDateTime

003eda4b    fb69 (003eda40)     _SCI_clearInterruptStatus
003eda67    fb69 (003eda40)     _vSetIndexFileTable

003eda83    fb6a (003eda80)     FS$$TOFD
003eda9f    fb6a (003eda80)     L$$TOFD
003edabb    fb6a (003eda80)     _Device_initGPIO

003edad6    fb6b (003edac0)     _HMDRV_AddressToBuffer
003edaf1    fb6b (003edac0)     FD$$TOUL

003edb0c    fb6c (003edb00)     _HMMODBUS_vProcessSCITXISR
003edb26    fb6c (003edb00)     _HMRECPRM_StartRec

003edb40    fb6d (003edb40)     _HMSERIAL_vProcessSCITXISRFreemasterOnly
003edb5a    fb6d (003edb40)     _SCI_disableInterrupt
003edb74    fb6d (003edb40)     _SCI_enableInterrupt

003edb8e    fb6e (003edb80)     L$$TOFS
003edba8    fb6e (003edb80)     _CSMON_eSetParameterCountInRecorder

003edbc1    fb6f (003edbc0)     _HMDRV_AddressFromBuffer
003edbda    fb6f (003edbc0)     _UART_vInit
003edbf3    fb6f (003edbc0)     _bGetFileReadAccess

003edc0c    fb70 (003edc00)     _prolog_c28x_1
003edc10    fb70 (003edc00)     _prolog_c28x_2
003edc18    fb70 (003edc00)     _prolog_c28x_3
003edc25    fb70 (003edc00)     _CSMON_u32GetFreeRunningTimerMicroseconds
003edc3d    fb70 (003edc00)     _HMLIB_vProcessSCITXISRWithIndex

003edc55    fb71 (003edc40)     _InitSysCtrl
003edc6d    fb71 (003edc40)     LL$$AND
003edc75    fb71 (003edc40)     LL$$OR
003edc7d    fb71 (003edc40)     LL$$XOR

003edc85    fb72 (003edc80)     _CSMON_vSaveRecorderConfig
003edc9c    fb72 (003edc80)     _HMMODBUS_vProcessTxDelay
003edcb3    fb72 (003edc80)     _HMPROTOCOL_WriteMem

003edcca    fb73 (003edcc0)     _HMPROTOCOL_WriteMemMask
003edce1    fb73 (003edcc0)     _vSetBufferAddressStart
003edcf8    fb73 (003edcc0)     FS$$CMP

003edd0f    fb74 (003edd00)     U$$TOFD
003edd26    fb74 (003edd00)     _CSMON_eSetParameterCountInScope
003edd3c    fb74 (003edd00)     _HMDRV_AddressFromBufferBigEndian

003edd52    fb75 (003edd40)     _HMRECPRM_Comparefloat
003edd7c    fb75 (003edd40)     _HMREC_StartRec

003edd91    fb76 (003edd80)     _InitGpio
003edda6    fb76 (003edd80)     _HMLIB_vProcessFastTD
003eddba    fb76 (003edd80)     _HMMODBUS_DelayedTx

003eddce    fb77 (003eddc0)     _HMRECPRM_StopRecParam
003edde2    fb77 (003eddc0)     _HMSERIAL_DelayedTx
003eddf6    fb77 (003eddc0)     _CSMON_eSetFlagProcessPassed

003ede09    fb78 (003ede00)     UL$$TOFS
003ede1c    fb78 (003ede00)     _CSMON_vFileParameterCountCheckSumUpdate
003ede2e    fb78 (003ede00)     _HMDRV_GetStringLengthFromWordInternal

003ede40    fb79 (003ede40)     _HMMODBUS_vSetupRegisterDummy
003ede52    fb79 (003ede40)     _HMRECPRM_CompareBOOL
003ede64    fb79 (003ede40)     _MODBUSREG_FileShortNameElementSizeandAddressUpdateInit
003ede76    fb79 (003ede40)     _MODBUSREG_vFileDenyAccess

003ede88    fb7a (003ede80)     _UART_TxIntDis
003ede9a    fb7a (003ede80)     _UART_TxIntEna
003edeac    fb7a (003ede80)     _CSMON_vSetDateTime
003edebd    fb7a (003ede80)     _HMSERIAL_vInit

003edece    fb7b (003edec0)     _InitPieVectTable
003ededf    fb7b (003edec0)     _vSetWatchdogPrescalerTimeDiv
003edef0    fb7b (003edec0)     __args_main

003edf01    fb7c (003edf00)     _CSMON_eSetParameterListRegisterFlags
003edf11    fb7c (003edf00)     _Example_MemCopy
003edf21    fb7c (003edf00)     _IntOsc1Sel
003edf31    fb7c (003edf00)     _bIsValidEndAddressInBuffer

003edf41    fb7d (003edf40)     _u32BytesMemoryToBytesModbus
003edf51    fb7d (003edf40)     _u32BytesModbusToBytesMemory
003edf61    fb7d (003edf40)     _vGetWatchdogPrescaler
003edf71    fb7d (003edf40)     U$$TOFS

003edf81    fb7e (003edf80)     _HMMODBUS_CalcCRC
003edf90    fb7e (003edf80)     _UART_IsTxEmpty
003edf9f    fb7e (003edf80)     _HMDRV_GetStringLengthInternal
003edfad    fb7e (003edf80)     _HMRECPRM_Compare16S
003edfbb    fb7e (003edf80)     _HMRECPRM_Compare16U

003edfc9    fb7f (003edfc0)     _HMRECPRM_Compare32S
003edfd7    fb7f (003edfc0)     _HMRECPRM_Compare32U
003edfe5    fb7f (003edfc0)     _HMRECPRM_Compare8S
003edff3    fb7f (003edfc0)     _HMRECPRM_Compare8U

003ee055    fb81 (003ee040)     _u32FitAddressCircleBufferInside
003ee063    fb81 (003ee040)     FD$$SUB
003ee071    fb81 (003ee040)     _CSMON_eResetParameterTable
003ee07e    fb81 (003ee040)     _CSMON_vInitHoldingRegistersTableChanges

003ee08b    fb82 (003ee080)     _HMRECPRM_IsJustStopped
003ee098    fb82 (003ee080)     _HMRECPRM_StopRec
003ee0a5    fb82 (003ee080)     _HMREC_StopRec
003ee0b2    fb82 (003ee080)     _MODBUSREG_vFileAllowAccess
003ee0bf    fb82 (003ee080)     _TIMER_vSetupTimerMainFunctionDelayCompare

003ee0cc    fb83 (003ee0c0)     _UART_ReadDataRxAvailable
003ee0d9    fb83 (003ee0c0)     _HMLIB_vProcess
003ee0e5    fb83 (003ee0c0)     _HMRECPRM_GetBufferRecParamPtrAddress
003ee0f1    fb83 (003ee0c0)     _HMRECPRM_TriggerRec
003ee0fd    fb83 (003ee0c0)     _u32FixAddressCircleBufferOverflow

003ee109    fb84 (003ee100)     _epilog_c28x_1
003ee10d    fb84 (003ee100)     _epilog_c28x_2
003ee115    fb84 (003ee100)     _HMMODBUS_vProcessFastTD
003ee120    fb84 (003ee100)     _HMRECPRM_IsRunning
003ee12b    fb84 (003ee100)     _HMSERIAL_vProcessFastTD
003ee136    fb84 (003ee100)     _MODBUSREG_vDataZero

003ee141    fb85 (003ee140)     _SCI_DRV_eGetModuleIndexFromBase
003ee14c    fb85 (003ee140)     _SCI_eGetModuleIndexFromBase
003ee157    fb85 (003ee140)     _bIsValidIndexFileTable
003ee162    fb85 (003ee140)     U$$DIV
003ee167    fb85 (003ee140)     U$$MOD
003ee16d    fb85 (003ee140)     _HMRECPRM_ClrLastStopDetectionToRecorderStopSamplesCounter
003ee177    fb85 (003ee140)     _HMRECPRM_GetRecStatus

003ee181    fb86 (003ee180)     _HMREC_GetRecStatus
003ee18b    fb86 (003ee180)     _sci_fifo_init
003ee195    fb86 (003ee180)     _CSMON_eSetParameterListRegisterSize
003ee19e    fb86 (003ee180)     _CSMON_eSetParameterListShortNaming
003ee1a7    fb86 (003ee180)     _CSMON_eSetServerOnStatus
003ee1b0    fb86 (003ee180)     _HMLIB_vInitRecParamBuff
003ee1b9    fb86 (003ee180)     _HMMODBUS_vProcessFreeTimer

003ee1c2    fb87 (003ee1c0)     _HMMODBUS_vProcessRxDelay
003ee1cb    fb87 (003ee1c0)     _HMRECPRM_GetExternBufferRecParamLastPointedAddress
003ee1d4    fb87 (003ee1c0)     _HMRECPRM_GetExternBufferRecParamPtrAddress
003ee1dd    fb87 (003ee1c0)     _HMREC_TriggerRec
003ee1e6    fb87 (003ee1c0)     _HMSCOPEPRM_GetBufferScopeParamAddress
003ee1ef    fb87 (003ee1c0)     _HMSERIAL_vProcessFreeTimer
003ee1f8    fb87 (003ee1c0)     _TIMER_vResetTimerMainFunctionDelayCounter

003ee201    fb88 (003ee200)     _TIMER_vSetupTimerMainDelayedFunctionSendData
003ee20a    fb88 (003ee200)     _UART_PutChar
003ee213    fb88 (003ee200)     _UART_ReadDataRxTimeDiff
003ee21c    fb88 (003ee200)     __register_unlock
003ee220    fb88 (003ee200)     __register_lock
003ee224    fb88 (003ee200)     __nop
003ee225    fb88 (003ee200)     FD$$NEG
003ee22e    fb88 (003ee200)     _PRG_key0
003ee22f    fb88 (003ee200)     _PRG_key1
003ee230    fb88 (003ee200)     _PRG_key2
003ee231    fb88 (003ee200)     _PRG_key3
003ee232    fb88 (003ee200)     _PRG_key4
003ee233    fb88 (003ee200)     _PRG_key5
003ee234    fb88 (003ee200)     _PRG_key6
003ee235    fb88 (003ee200)     _PRG_key7
003ee23e    fb88 (003ee200)     _DisableDog

003ee246    fb89 (003ee240)     _HMDRV_CopyFromBufferWithMaskModbus
003ee24e    fb89 (003ee240)     _HMMODBUS_vSetupHoldingRegistersProcessFuncTable
003ee256    fb89 (003ee240)     _HMMODBUS_vSetupHoldingRegistersRealAddressTable
003ee25e    fb89 (003ee240)     _HMMODBUS_vSetupHoldingRegistersRegisterFlagsTable
003ee266    fb89 (003ee240)     _HMMODBUS_vSetupHoldingRegistersRegisterSizeTable
003ee26e    fb89 (003ee240)     _HMMODBUS_vSetupHoldingRegistersVirtAddressTable
003ee276    fb89 (003ee240)     _HMRECPRM_GetExternRecParamAddress
003ee27e    fb89 (003ee240)     _HMRECPRM_GetExternRecParamPtrMaximumUsedSampleCount

003ee286    fb8a (003ee280)     _HMRECPRM_GetExternRecParamPtrSampleSize
003ee28e    fb8a (003ee280)     _HMRECPRM_GetRecParamPtrAvailableSampleCount
003ee296    fb8a (003ee280)     _HMRECPRM_GetRecParamPtrLastSampleIndex
003ee29e    fb8a (003ee280)     _HMRECPRM_GetRecParamPtrMaximumUsedSampleCount
003ee2a6    fb8a (003ee280)     _HMRECPRM_GetRecParamPtrSampleSize
003ee2ae    fb8a (003ee280)     _HMRECPRM_GetStatusRecParamAddress
003ee2b6    fb8a (003ee280)     _HMRECPRM_vInit
003ee2be    fb8a (003ee280)     _HMREC_vInit

003ee2c6    fb8b (003ee2c0)     _DSP28x_DisableInt
003ee2ca    fb8b (003ee2c0)     _DSP28x_RestoreInt
003ee2cd    fb8b (003ee2c0)     _CSMON_eSetParameterListAccessLevel
003ee2d4    fb8b (003ee2c0)     _CSMON_eSetParameterListBitsCount
003ee2db    fb8b (003ee2c0)     _CSMON_eSetParameterListDataDefault
003ee2e2    fb8b (003ee2c0)     _CSMON_eSetParameterListDataMaximum
003ee2e9    fb8b (003ee2c0)     _CSMON_eSetParameterListDataMinimum
003ee2f0    fb8b (003ee2c0)     _CSMON_eSetParameterListDataType
003ee2f7    fb8b (003ee2c0)     _CSMON_eSetParameterListFunctionCode
003ee2fe    fb8b (003ee2c0)     _CSMON_eSetParameterListValueFormat

003ee305    fb8c (003ee300)     _HMLIB_vProcessDifferentPorts
003ee30c    fb8c (003ee300)     _HMLIB_vProcessRecorders
003ee313    fb8c (003ee300)     _HMRECPRM_vResetAllStopDetections
003ee31a    fb8c (003ee300)     _HMSCOPEPRM_GetStatusScopeParamAddress
003ee321    fb8c (003ee300)     _MODBUSREG_vInitHoldingRegistersTableChanges
003ee328    fb8c (003ee300)     _SCI_DRV_u32GetBaseFromModuleIndex
003ee32f    fb8c (003ee300)     _SCI_u32GetBaseFromModuleIndex
003ee336    fb8c (003ee300)     _CPUTimer_setEmulationMode
003ee33c    fb8c (003ee300)     _HMRECPRM_SetUpRecBuff

003ee342    fb8d (003ee340)     _HMREC_SetUpRecBuff
003ee348    fb8d (003ee340)     _TIMER_u16ResetTimerMainPeriod
003ee34e    fb8d (003ee340)     _UART_DRV_GetChar
003ee354    fb8d (003ee340)     _UART_GetChar
003ee35a    fb8d (003ee340)     _ADCINT1_ISR
003ee35f    fb8d (003ee340)     _ADCINT2_ISR
003ee364    fb8d (003ee340)     _ADCINT3_ISR
003ee369    fb8d (003ee340)     _ADCINT4_ISR
003ee36e    fb8d (003ee340)     _ADCINT5_ISR
003ee373    fb8d (003ee340)     _ADCINT6_ISR
003ee378    fb8d (003ee340)     _ADCINT7_ISR
003ee37d    fb8d (003ee340)     _ADCINT8_ISR

003ee382    fb8e (003ee380)     _ADCINT9_ISR
003ee387    fb8e (003ee380)     _CLA1_INT1_ISR
003ee38c    fb8e (003ee380)     _CLA1_INT2_ISR
003ee391    fb8e (003ee380)     _CLA1_INT3_ISR
003ee396    fb8e (003ee380)     _CLA1_INT4_ISR
003ee39b    fb8e (003ee380)     _CLA1_INT5_ISR
003ee3a0    fb8e (003ee380)     _CLA1_INT6_ISR
003ee3a5    fb8e (003ee380)     _CLA1_INT7_ISR
003ee3aa    fb8e (003ee380)     _CLA1_INT8_ISR
003ee3af    fb8e (003ee380)     _CSMON_eSetAutoServiceWatchdogInternalSlowCalculationsInMainLoop
003ee3b4    fb8e (003ee380)     _CSMON_eSetFirmwareApplicationVersion
003ee3b9    fb8e (003ee380)     _CSMON_eSetMaxTimeInISR
003ee3be    fb8e (003ee380)     _CSMON_eSetMinGuaranteedTimeBetweenTwoISRs

003ee3c3    fb8f (003ee3c0)     _CSMON_u16ParametersAccessListIndexGenerate
003ee3c8    fb8f (003ee3c0)     _CSMON_u32GetFreeRunningTimerTicks
003ee3cd    fb8f (003ee3c0)     _CSMON_u32GetParameterAuxCheckSum
003ee3d2    fb8f (003ee3c0)     _CSMON_u32GetParameterCheckSum
003ee3d7    fb8f (003ee3c0)     _CSMON_u32GetParameterListCheckSum
003ee3dc    fb8f (003ee3c0)     _CSMON_u32GetParameterNumbCheckSum
003ee3e1    fb8f (003ee3c0)     _CSMON_u32GetParameterShortNameCheckSum
003ee3e6    fb8f (003ee3c0)     _CSMON_u32GetParameterStringCheckSum
003ee3eb    fb8f (003ee3c0)     _CSMON_vSetDateTimeRequest
003ee3f0    fb8f (003ee3c0)     _DATALOG_ISR
003ee3f5    fb8f (003ee3c0)     _DINTCH1_ISR
003ee3fa    fb8f (003ee3c0)     _DINTCH2_ISR
003ee3ff    fb8f (003ee3c0)     _DINTCH3_ISR

003ee404    fb90 (003ee400)     _DINTCH4_ISR
003ee409    fb90 (003ee400)     _DINTCH5_ISR
003ee40e    fb90 (003ee400)     _DINTCH6_ISR
003ee413    fb90 (003ee400)     _ECAN0INTA_ISR
003ee418    fb90 (003ee400)     _ECAN1INTA_ISR
003ee41d    fb90 (003ee400)     _ECAP1_INT_ISR
003ee422    fb90 (003ee400)     _ECAP2_INT_ISR
003ee427    fb90 (003ee400)     _ECAP3_INT_ISR
003ee42c    fb90 (003ee400)     _EMPTY_ISR
003ee431    fb90 (003ee400)     _EMUINT_ISR
003ee436    fb90 (003ee400)     _EPWM1_INT_ISR
003ee43b    fb90 (003ee400)     _EPWM1_TZINT_ISR

003ee440    fb91 (003ee440)     _EPWM2_INT_ISR
003ee445    fb91 (003ee440)     _EPWM2_TZINT_ISR
003ee44a    fb91 (003ee440)     _EPWM3_INT_ISR
003ee44f    fb91 (003ee440)     _EPWM3_TZINT_ISR
003ee454    fb91 (003ee440)     _EPWM4_INT_ISR
003ee459    fb91 (003ee440)     _EPWM4_TZINT_ISR
003ee45e    fb91 (003ee440)     _EPWM5_INT_ISR
003ee463    fb91 (003ee440)     _EPWM5_TZINT_ISR
003ee468    fb91 (003ee440)     _EPWM6_INT_ISR
003ee46d    fb91 (003ee440)     _EPWM6_TZINT_ISR
003ee472    fb91 (003ee440)     _EPWM7_INT_ISR
003ee477    fb91 (003ee440)     _EPWM7_TZINT_ISR
003ee47c    fb91 (003ee440)     _EPWM8_INT_ISR

003ee481    fb92 (003ee480)     _EPWM8_TZINT_ISR
003ee486    fb92 (003ee480)     _EQEP1_INT_ISR
003ee48b    fb92 (003ee480)     _EQEP2_INT_ISR
003ee490    fb92 (003ee480)     _HMLIB_vProcessSamePort
003ee495    fb92 (003ee480)     _HMLIB_vRecorder0
003ee49a    fb92 (003ee480)     _HMMODBUS_bGetReceivedMessage
003ee49f    fb92 (003ee480)     _HMMODBUS_vFileTable
003ee4a4    fb92 (003ee480)     _HMRECPRM_vDisableAllStopDetections
003ee4a9    fb92 (003ee480)     _HRCAP1_INT_ISR
003ee4ae    fb92 (003ee480)     _HRCAP2_INT_ISR
003ee4b3    fb92 (003ee480)     _HRCAP3_INT_ISR
003ee4b8    fb92 (003ee480)     _HRCAP4_INT_ISR
003ee4bd    fb92 (003ee480)     _I2CINT1A_ISR

003ee4c2    fb93 (003ee4c0)     _I2CINT2A_ISR
003ee4c7    fb93 (003ee4c0)     _ILLEGAL_ISR
003ee4cc    fb93 (003ee4c0)     _INT13_ISR
003ee4d1    fb93 (003ee4c0)     _INT14_ISR
003ee4d6    fb93 (003ee4c0)     _IntDefaultHandler
003ee4db    fb93 (003ee4c0)     _LUF_ISR
003ee4e0    fb93 (003ee4c0)     _LVF_ISR
003ee4e5    fb93 (003ee4c0)     _MODBUSREG_vSetTableNameAddress
003ee4ea    fb93 (003ee4c0)     _MODBUSREG_vSetTableRealAddressInRam
003ee4ef    fb93 (003ee4c0)     _MODBUSREG_vSetTableRegisterFlags
003ee4f4    fb93 (003ee4c0)     _MODBUSREG_vSetTableRegisterSize
003ee4f9    fb93 (003ee4c0)     _MODBUSREG_vSetTableVirtAddress
003ee4fe    fb93 (003ee4c0)     _MRINTA_ISR

003ee503    fb94 (003ee500)     _MXINTA_ISR
003ee508    fb94 (003ee500)     _NMI_ISR
003ee50d    fb94 (003ee500)     _PIE_RESERVED
003ee512    fb94 (003ee500)     _RTOSINT_ISR
003ee517    fb94 (003ee500)     _SCIRXINTA_ISR
003ee51c    fb94 (003ee500)     _SCIRXINTB_ISR
003ee521    fb94 (003ee500)     _SCITXINTA_ISR
003ee526    fb94 (003ee500)     _SCITXINTB_ISR
003ee52b    fb94 (003ee500)     _SPIRXINTA_ISR
003ee530    fb94 (003ee500)     _SPIRXINTB_ISR
003ee535    fb94 (003ee500)     _SPITXINTA_ISR
003ee53a    fb94 (003ee500)     _SPITXINTB_ISR
003ee53f    fb94 (003ee500)     _TIMER_vSetupTimerMainDelayedData

003ee544    fb95 (003ee540)     _TINT0_ISR
003ee549    fb95 (003ee540)     _USB0_INT_ISR
003ee54e    fb95 (003ee540)     _USER10_ISR
003ee553    fb95 (003ee540)     _USER11_ISR
003ee558    fb95 (003ee540)     _USER12_ISR
003ee55d    fb95 (003ee540)     _USER1_ISR
003ee562    fb95 (003ee540)     _USER2_ISR
003ee567    fb95 (003ee540)     _USER3_ISR
003ee56c    fb95 (003ee540)     _USER4_ISR
003ee571    fb95 (003ee540)     _USER5_ISR
003ee576    fb95 (003ee540)     _USER6_ISR
003ee57b    fb95 (003ee540)     _USER7_ISR

003ee580    fb96 (003ee580)     _USER8_ISR
003ee585    fb96 (003ee580)     _USER9_ISR
003ee58a    fb96 (003ee580)     _WAKEINT_ISR
003ee58f    fb96 (003ee580)     _XINT1_ISR
003ee594    fb96 (003ee580)     _XINT2_ISR
003ee599    fb96 (003ee580)     _XINT3_ISR
003ee59e    fb96 (003ee580)     _rsvd_ISR
003ee5a3    fb96 (003ee580)     FS$$NEG
003ee5a8    fb96 (003ee580)     _CSMON_eApplyParameterChanges
003ee5ac    fb96 (003ee580)     _CSMON_eRegisterWriteParElementCallbackFunction
003ee5b0    fb96 (003ee580)     _CSMON_eSetInternalTimerPeriod
003ee5b4    fb96 (003ee580)     _CSMON_eSetTimerPeriodISRFunctionRegister
003ee5b8    fb96 (003ee580)     _CSMON_u32GetBaudError_PPM
003ee5bc    fb96 (003ee580)     _CSMON_vAddSetupRecorderParameterMask

003ee5c0    fb97 (003ee5c0)     _CSMON_vInitScopes
003ee5c4    fb97 (003ee5c0)     _CSMON_vSetStartRecorderParameterMask
003ee5c8    fb97 (003ee5c0)     _HMDRV_SetExAddr
003ee5cc    fb97 (003ee5c0)     _HMDRV_u32GetDeviceSYSCLKFreq
003ee5d0    fb97 (003ee5c0)     _HMDRV_u32GetSCIErrorPPM
003ee5d4    fb97 (003ee5c0)     _HMLIB_vRecorderParam0
003ee5d8    fb97 (003ee5c0)     _HMMODBUS_u32GetAddressMessageCounterThisDevice
003ee5dc    fb97 (003ee5c0)     _HMMODBUS_vSetAddressMessageCounterThisDevice
003ee5e0    fb97 (003ee5c0)     _HMMODBUS_vSetDeviceIDMajorMinorRevision
003ee5e4    fb97 (003ee5c0)     _HMMODBUS_vSetDeviceIDMajorMinorRevisionLength
003ee5e8    fb97 (003ee5c0)     _HMMODBUS_vSetDeviceIDModelName
003ee5ec    fb97 (003ee5c0)     _HMMODBUS_vSetDeviceIDModelNameLength
003ee5f0    fb97 (003ee5c0)     _HMMODBUS_vSetDeviceIDProductCode
003ee5f4    fb97 (003ee5c0)     _HMMODBUS_vSetDeviceIDProductCodeLength
003ee5f8    fb97 (003ee5c0)     _HMMODBUS_vSetDeviceIDProductName
003ee5fc    fb97 (003ee5c0)     _HMMODBUS_vSetDeviceIDProductNameLength

003ee600    fb98 (003ee600)     _HMMODBUS_vSetDeviceIDUserApplicationName
003ee604    fb98 (003ee600)     _HMMODBUS_vSetDeviceIDUserApplicationNameLength
003ee608    fb98 (003ee600)     _HMMODBUS_vSetDeviceIDUserReserve0
003ee60c    fb98 (003ee600)     _HMMODBUS_vSetDeviceIDUserReserve0Length
003ee610    fb98 (003ee600)     _HMMODBUS_vSetDeviceIDUserReserve1
003ee614    fb98 (003ee600)     _HMMODBUS_vSetDeviceIDUserReserve1Length
003ee618    fb98 (003ee600)     _HMMODBUS_vSetDeviceIDUserReserve2
003ee61c    fb98 (003ee600)     _HMMODBUS_vSetDeviceIDUserReserve2Length
003ee620    fb98 (003ee600)     _HMMODBUS_vSetDeviceIDVendorName
003ee624    fb98 (003ee600)     _HMMODBUS_vSetDeviceIDVendorNameLength
003ee628    fb98 (003ee600)     _HMMODBUS_vSetDeviceIDVendorUrl
003ee62c    fb98 (003ee600)     _HMMODBUS_vSetDeviceIDVendorUrlLength
003ee630    fb98 (003ee600)     _HMMODBUS_vSetServerIDDataAddress
003ee634    fb98 (003ee600)     _HMMODBUS_vSetServerIDLength
003ee638    fb98 (003ee600)     _HMMODBUS_vSetServerIDNumber
003ee63c    fb98 (003ee600)     _HMMODBUS_vSetServerOnStatus

003ee640    fb99 (003ee640)     _HMMODBUS_vSetupHoldingRegistersAccessTableInRam
003ee644    fb99 (003ee640)     _HMMODBUS_vSetupWriteParElementCallbackFunction
003ee648    fb99 (003ee640)     _IntMasterDisable
003ee64c    fb99 (003ee640)     _IntMasterEnable
003ee650    fb99 (003ee640)     _MODBUSREG_u16GetHoldRegFillCount
003ee654    fb99 (003ee640)     _MODBUSREG_u16GetTableRegisterFlagsElementOffset
003ee658    fb99 (003ee640)     _MODBUSREG_u16GetTableRegisterSizeElementOffset
003ee65c    fb99 (003ee640)     _MODBUSREG_u16GetTableVirtAddressElementOffset
003ee660    fb99 (003ee640)     _MODBUSREG_u32GetRegisterAccessTableInRam
003ee664    fb99 (003ee640)     _MODBUSREG_u32GetTableRegisterFlags
003ee668    fb99 (003ee640)     _MODBUSREG_u32GetTableRegisterSize
003ee66c    fb99 (003ee640)     _MODBUSREG_u32GetTableVirtAddress
003ee670    fb99 (003ee640)     _MODBUSREG_vSetFileAutorization_FunctionAfterWriteFileRecordTable
003ee674    fb99 (003ee640)     _MODBUSREG_vSetFileParamCount_FunctionBeforeReadFileRecord
003ee678    fb99 (003ee640)     _MODBUSREG_vSetFileRTC_FunctionAfterReadFileRecord
003ee67c    fb99 (003ee640)     _MODBUSREG_vSetFileRTC_FunctionAfterWriteFileRecord

003ee680    fb9a (003ee680)     _MODBUSREG_vSetFileRecConfig_FunctionAfterWriteFileRecord
003ee684    fb9a (003ee680)     _MODBUSREG_vSetFileRecStatus_FunctionIndexGenerationFileRecord
003ee688    fb9a (003ee680)     _MODBUSREG_vSetHoldRegFillCount
003ee68c    fb9a (003ee680)     _MODBUSREG_vSetParamCount
003ee690    fb9a (003ee680)     _MODBUSREG_vSetParamListAddress
003ee694    fb9a (003ee680)     _MODBUSREG_vSetParamNumbAddress
003ee698    fb9a (003ee680)     _MODBUSREG_vSetParamRecorderConfigAddress
003ee69c    fb9a (003ee680)     _MODBUSREG_vSetParamScopeConfigAddress
003ee6a0    fb9a (003ee680)     _TIMER_vGetTimerMainRollingCounter
003ee6a4    fb9a (003ee680)     _TIMER_vSetupTimerMainCSMONFunction
003ee6a8    fb9a (003ee680)     _TMR_u16GetFreeRunTimerPrescaller
003ee6ac    fb9a (003ee680)     _bGetElementsDifference
003ee6b0    fb9a (003ee680)     _u16GetIndexFileTable
003ee6b4    fb9a (003ee680)     _u32GetBufferAddressStart
003ee6b8    fb9a (003ee680)     _u32GetBufferSize
003ee6bc    fb9a (003ee680)     _u32GetSampleCountAvailable

003ee6c0    fb9b (003ee6c0)     _u32GetSampleCountBuffer
003ee6c4    fb9b (003ee6c0)     _u32GetStartSampleIndex
003ee6c8    fb9b (003ee6c0)     _u8GetSampleSize
003ee6cc    fb9b (003ee6c0)     _vSetBufferAddressStartFromFunction
003ee6d0    fb9b (003ee6c0)     _vSetBufferSize
003ee6d4    fb9b (003ee6c0)     _SetDBGIER
003ee6d7    fb9b (003ee6c0)     _CSMON_eSetParameter
003ee6da    fb9b (003ee6c0)     _CSMON_u32GetModbusMessageCounterRegisterRealAddress
003ee6dd    fb9b (003ee6c0)     _CSMON_vSetModbusMessageCounterRegisterRealAddress
003ee6e0    fb9b (003ee6c0)     _HMLIB_vRecorderParamTimeSync
003ee6e3    fb9b (003ee6c0)     _HMRECPRM_GetTimeBase
003ee6e6    fb9b (003ee6c0)     _MODBUSREG_u32GetAddressMessageCounterThisDevice
003ee6e9    fb9b (003ee6c0)     _MODBUSREG_vSetAddressMessageCounterThisDevice
003ee6ec    fb9b (003ee6c0)     _UART_TXInterrupt
003ee6ef    fb9b (003ee6c0)     _HMRECPRM_AbortRec
003ee6f1    fb9b (003ee6c0)     _HMRECPRM_GetRecBuffSize
003ee6f3    fb9b (003ee6c0)     _HMREC_AbortRec
003ee6f5    fb9b (003ee6c0)     _HMREC_GetRecBuffSize
003ee6f7    fb9b (003ee6c0)     _eWriteParElement
003ee6f9    fb9b (003ee6c0)     __system_pre_init
003ee6fb    fb9b (003ee6c0)     _HMPROTOCOL_vInit
003ee6fc    fb9b (003ee6c0)     _UART_DRV_TXInterrupt
003ee6fd    fb9b (003ee6c0)     _UART_TxDis
003ee6fe    fb9b (003ee6c0)     _UART_TxEna
003ee6ff    fb9b (003ee6c0)     __system_post_cinit

003ee72a    fb9c (003ee700)     _asParameterList

003f002a    fc00 (003f0000)     _auchCRCHi

003f012a    fc04 (003f0100)     _auchCRCLo

003f022a    fc08 (003f0200)     _PieVectTableInit

003f03ae    fc0e (003f0380)     _CSMON_asAccessLevelPasswords

003f04e2    fc13 (003f04c0)     _CSMON_au8FileImplementedFunctionCodes

003f0506    fc14 (003f0500)     _CSMON_au8FileParameterNumbElementsCountInPartTable
003f052c    fc14 (003f0500)     _CSMON_au8FileParameterListElementsCountInPartTable

003f7ff8    fdff (003f7fc0)     _CsmPwl


GLOBAL SYMBOLS: SORTED ALPHABETICALLY BY Name 

page  address   name                                                                                             
----  -------   ----                                                                                             
0     003e8000  .text                                                                                            
0     003ed3d9  C$$EXIT                                                                                          
0     003ebcf5  FD$$ADD                                                                                          
0     003ed3af  FD$$CMP                                                                                          
0     003ec107  FD$$DIV                                                                                          
0     003ec323  FD$$MPY                                                                                          
0     003ee225  FD$$NEG                                                                                          
0     003ee063  FD$$SUB                                                                                          
0     003ed847  FD$$TOFS                                                                                         
0     003ed946  FD$$TOL                                                                                          
0     003edaf1  FD$$TOUL                                                                                         
0     003ec52c  FS$$ADD                                                                                          
0     003edcf8  FS$$CMP                                                                                          
0     003ec3a6  FS$$DIV                                                                                          
0     003ec91c  FS$$MPY                                                                                          
0     003ee5a3  FS$$NEG                                                                                          
0     003ec527  FS$$SUB                                                                                          
0     003eda83  FS$$TOFD                                                                                         
0     003ed53a  FS$$TOI                                                                                          
0     003ed402  FS$$TOL                                                                                          
0     003ed9d9  FS$$TOU                                                                                          
0     003ed868  FS$$TOUL                                                                                         
0     003ed7e3  I$$DIV                                                                                           
0     003ed7f4  I$$MOD                                                                                           
0     003eda9f  L$$TOFD                                                                                          
0     003edb8e  L$$TOFS                                                                                          
0     003edc6d  LL$$AND                                                                                          
0     003eadc1  LL$$DIV                                                                                          
0     003eadfd  LL$$MOD                                                                                          
0     003edc75  LL$$OR                                                                                           
0     003edc7d  LL$$XOR                                                                                          
0     003ee162  U$$DIV                                                                                           
0     003ee167  U$$MOD                                                                                           
0     003edd0f  U$$TOFD                                                                                          
0     003edf71  U$$TOFS                                                                                          
0     003ede09  UL$$TOFS                                                                                         
0     003eae37  ULL$$DIV                                                                                         
0     003eae66  ULL$$MOD                                                                                         
0     003ee35a  _ADCINT1_ISR                                                                                     
0     003ee35f  _ADCINT2_ISR                                                                                     
0     003ee364  _ADCINT3_ISR                                                                                     
0     003ee369  _ADCINT4_ISR                                                                                     
0     003ee36e  _ADCINT5_ISR                                                                                     
0     003ee373  _ADCINT6_ISR                                                                                     
0     003ee378  _ADCINT7_ISR                                                                                     
0     003ee37d  _ADCINT8_ISR                                                                                     
0     003ee382  _ADCINT9_ISR                                                                                     
1     00007100  _AdcRegs                                                                                         
1     00000b00  _AdcResult                                                                                       
0     003ee387  _CLA1_INT1_ISR                                                                                   
0     003ee38c  _CLA1_INT2_ISR                                                                                   
0     003ee391  _CLA1_INT3_ISR                                                                                   
0     003ee396  _CLA1_INT4_ISR                                                                                   
0     003ee39b  _CLA1_INT5_ISR                                                                                   
0     003ee3a0  _CLA1_INT6_ISR                                                                                   
0     003ee3a5  _CLA1_INT7_ISR                                                                                   
0     003ee3aa  _CLA1_INT8_ISR                                                                                   
0     003ee336  _CPUTimer_setEmulationMode                                                                       
1     0000c0f0  _CSMON_abFileAutorization_RecordReadOnly                                                         
1     0000c0f3  _CSMON_abFileAutorization_RecordStringData                                                       
1     0000bf3e  _CSMON_abFlagProcessPassed                                                                       
0     003f03ae  _CSMON_asAccessLevelPasswords                                                                    
1     0000b940  _CSMON_asFileParameterDefinitionsFromAccessLevel                                                 
1     0000c0f6  _CSMON_au16FileAutorization_RecordOffsets                                                        
1     0000bbfa  _CSMON_au32FileAutorization_FunctionAfterWriteFileRecord                                         
1     0000c00c  _CSMON_au32FileParameterDefinitionsFileRecordElementsRealAddressTable                            
1     0000bc79  _CSMON_au32FileParameterDefinitionsFileRecordElementsRecordToRecordOffsetSizeBytesTable          
1     0000c018  _CSMON_au32FileParameterDefinitionsFileRecordElementsSizeTable                                   
1     0000afde  _CSMON_au32FileParameterNumericFileRecordElementsRealAddressTable                                
1     0000bfee  _CSMON_au32FileParameterNumericFileRecordElementsRecordToRecordOffsetSizeBytesTable              
1     0000b51a  _CSMON_au32FileParameterNumericFileRecordElementsSizeTable                                       
0     003f04e2  _CSMON_au8FileImplementedFunctionCodes                                                           
1     0000bb35  _CSMON_au8FileParameterCountElementsSizeTable                                                    
0     003f052c  _CSMON_au8FileParameterListElementsCountInPartTable                                              
1     0000c10d  _CSMON_au8FileParameterListElementsSizeTablePart1_1                                              
1     0000c10e  _CSMON_au8FileParameterListElementsSizeTablePart1_2                                              
1     0000c10f  _CSMON_au8FileParameterListElementsSizeTablePart1_3                                              
1     0000c110  _CSMON_au8FileParameterListElementsSizeTablePart1_4                                              
1     0000c111  _CSMON_au8FileParameterListElementsSizeTablePart2                                                
1     0000c112  _CSMON_au8FileParameterListElementsSizeTablePart3                                                
0     003f0506  _CSMON_au8FileParameterNumbElementsCountInPartTable                                              
1     0000c113  _CSMON_au8FileParameterNumbElementsSizeTablePart16Bits                                           
1     0000c114  _CSMON_au8FileParameterNumbElementsSizeTablePart32Bits                                           
1     0000bd76  _CSMON_au8FileRTCElementsSizeTable                                                               
1     0000bb08  _CSMON_au8FileRecorderConfigElementsSizeTable                                                    
1     0000bd62  _CSMON_au8FileRecorderDataElementsSizeTable                                                      
1     0000c115  _CSMON_au8FileRecorderDataElementsSizeTableUsedLength                                            
1     0000ba3c  _CSMON_au8FileRecorderStatusElementsSizeTable                                                    
1     0000bec0  _CSMON_au8FileScopeConfigurationElementsSizeTable                                                
1     0000c116  _CSMON_au8FileScopeStatusElementsSizeTable                                                       
0     003ed42b  _CSMON_bAutorizationPasswordCheck                                                                
0     003eca28  _CSMON_bCheckValidDateTime                                                                       
1     0000bb46  _CSMON_bGetDateTimeAutorization                                                                  
1     0000bb48  _CSMON_bGetDateTimeRequest                                                                       
1     0000bb4b  _CSMON_bResetMaxMeasure                                                                          
1     0000bb62  _CSMON_bRunningInitialization                                                                    
1     0000bb47  _CSMON_bSetDateTimeRequest                                                                       
1     0000bb56  _CSMON_bUseAccessLevelForHoldingRegistersAndCoils                                                
1     0000bb57  _CSMON_bUseAccessLevelForInputRegistersAndCoils                                                  
1     0000bb5f  _CSMON_bUseDisconnectOnTimeout                                                                   
1     0000bb4d  _CSMON_bWatchdogCalcNeeded                                                                       
0     003ee5a8  _CSMON_eApplyParameterChanges                                                                    
0     003eb848  _CSMON_eInit                                                                                     
0     003ea8e2  _CSMON_eProcess                                                                                  
0     003ee5ac  _CSMON_eRegisterWriteParElementCallbackFunction                                                  
0     003ee071  _CSMON_eResetParameterTable                                                                      
0     003ee3af  _CSMON_eSetAutoServiceWatchdogInternalSlowCalculationsInMainLoop                                 
0     003ee3b4  _CSMON_eSetFirmwareApplicationVersion                                                            
0     003eddf6  _CSMON_eSetFlagProcessPassed                                                                     
0     003ee5b0  _CSMON_eSetInternalTimerPeriod                                                                   
0     003ee3b9  _CSMON_eSetMaxTimeInISR                                                                          
0     003ee3be  _CSMON_eSetMinGuaranteedTimeBetweenTwoISRs                                                       
0     003ee6d7  _CSMON_eSetParameter                                                                             
0     003edba8  _CSMON_eSetParameterCountInRecorder                                                              
0     003edd26  _CSMON_eSetParameterCountInScope                                                                 
0     003ed276  _CSMON_eSetParameterInRecorderAtPosition                                                         
0     003ed2a3  _CSMON_eSetParameterInScopeAtPosition                                                            
0     003ee2cd  _CSMON_eSetParameterListAccessLevel                                                              
0     003ee2d4  _CSMON_eSetParameterListBitsCount                                                                
0     003ee2db  _CSMON_eSetParameterListDataDefault                                                              
0     003ee2e2  _CSMON_eSetParameterListDataMaximum                                                              
0     003ee2e9  _CSMON_eSetParameterListDataMinimum                                                              
0     003ee2f0  _CSMON_eSetParameterListDataType                                                                 
0     003ee2f7  _CSMON_eSetParameterListFunctionCode                                                             
0     003ed805  _CSMON_eSetParameterListParameterID                                                              
0     003ed965  _CSMON_eSetParameterListRealAddress                                                              
0     003edf01  _CSMON_eSetParameterListRegisterFlags                                                            
0     003ee195  _CSMON_eSetParameterListRegisterSize                                                             
0     003ee19e  _CSMON_eSetParameterListShortNaming                                                              
0     003ee2fe  _CSMON_eSetParameterListValueFormat                                                              
0     003ed029  _CSMON_eSetRecorderConfigurationSkipSamples                                                      
0     003ecb7f  _CSMON_eSetRecorderTriggerAtPosition                                                             
0     003ee1a7  _CSMON_eSetServerOnStatus                                                                        
0     003ee5b4  _CSMON_eSetTimerPeriodISRFunctionRegister                                                        
0     003ea763  _CSMON_eSetUpRecParam                                                                            
1     0000bbbe  _CSMON_pasFileParameterListAccessLevel                                                           
1     0000bbc0  _CSMON_pasFileParameterListBitsCount                                                             
1     0000bbbc  _CSMON_pasFileParameterListFunctionCode                                                          
1     0000bbba  _CSMON_pasFileParameterListModbusAddress                                                         
1     0000bbb8  _CSMON_pasFileParameterListValueAccessKeyFl                                                      
1     0000bbb6  _CSMON_pasFileParameterListValueAccessKeyID                                                      
1     0000bbc6  _CSMON_pasFileParameterNumbDataType                                                              
1     0000bbca  _CSMON_pasFileParameterNumbDefault                                                               
1     0000bbce  _CSMON_pasFileParameterNumbMaximum                                                               
1     0000bbcc  _CSMON_pasFileParameterNumbMinimum                                                               
1     0000bbd0  _CSMON_pasFileParameterNumbMultply                                                               
1     0000bbd2  _CSMON_pasFileParameterNumbOffset                                                                
1     0000bbc8  _CSMON_pasFileParameterNumbVisualType                                                            
1     0000bbc4  _CSMON_pu32HoldingRegistersAccessTableInRam                                                      
1     0000bbc2  _CSMON_pu32HoldingRegistersAddressTable                                                          
1     0000bbb0  _CSMON_s32MaxTimeProcessAllowedCalc_Ticks                                                        
1     0000c024  _CSMON_sDateTime                                                                                 
1     0000c030  _CSMON_sDateTimeApplication                                                                      
1     0000c040  _CSMON_sDateTimeDefault                                                                          
1     0000bdd8  _CSMON_sFileAutorization                                                                         
1     0000ba40  _CSMON_sFileParameterAccessList                                                                  
1     0000bdea  _CSMON_sFileParameterCount                                                                       
1     0000bb5e  _CSMON_sFileParameterDefinitionsElementOffset                                                    
1     0000c0f9  _CSMON_sFileProtocolVersion                                                                      
1     0000bb58  _CSMON_u16CurrentAccessLevelPrev                                                                 
1     0000bb59  _CSMON_u16FileParameterFillCount                                                                 
1     0000bb5b  _CSMON_u16FileParameterListCount                                                                 
1     0000bb5c  _CSMON_u16FileParameterNameCount                                                                 
1     0000bb5d  _CSMON_u16FileParameterNumeric                                                                   
1     0000bb5a  _CSMON_u16FileParameterUseMaxCnt                                                                 
0     003ecff0  _CSMON_u16FindIndexParameterTable                                                                
1     0000bb40  _CSMON_u16MaskSetupRecorderParam                                                                 
1     0000bb41  _CSMON_u16MaskStartRecorderParam                                                                 
1     0000bb42  _CSMON_u16MaskStopRecorderParam                                                                  
1     0000bb4f  _CSMON_u16MaxTimeInISR_usec                                                                      
1     0000bb51  _CSMON_u16MaxTimeTillWdtClear_usec                                                               
1     0000bb52  _CSMON_u16MinTimeProcessAllowedNeeded_usec                                                       
1     0000bb50  _CSMON_u16MinTimeProcessExit_usec                                                                
1     0000bb61  _CSMON_u16NoMessageTimeoutOld_msec                                                               
1     0000bb60  _CSMON_u16NoMessageTimeout_msec                                                                  
0     003ee3c3  _CSMON_u16ParametersAccessListIndexGenerate                                                      
1     0000bb49  _CSMON_u16SCIErrorPercent                                                                        
1     0000bb4e  _CSMON_u16WatchdogPrescaler                                                                      
1     0000bb88  _CSMON_u32FreeRunTimerAccessChangeBegin                                                          
1     0000bb8a  _CSMON_u32FreeRunTimerAccessChangeEnd                                                            
1     0000bb8c  _CSMON_u32FreeRunTimerAccessChangeMax                                                            
1     0000bb70  _CSMON_u32FreeRunTimerCheckSumListBegin                                                          
1     0000bb72  _CSMON_u32FreeRunTimerCheckSumListEnd                                                            
1     0000bb74  _CSMON_u32FreeRunTimerCheckSumListMax                                                            
1     0000bb76  _CSMON_u32FreeRunTimerCheckSumNameBegin                                                          
1     0000bb78  _CSMON_u32FreeRunTimerCheckSumNameEnd                                                            
1     0000bb7a  _CSMON_u32FreeRunTimerCheckSumNameMax                                                            
1     0000bb7c  _CSMON_u32FreeRunTimerCheckSumNumbBegin                                                          
1     0000bb7e  _CSMON_u32FreeRunTimerCheckSumNumbEnd                                                            
1     0000bb80  _CSMON_u32FreeRunTimerCheckSumNumbMax                                                            
1     0000bb82  _CSMON_u32FreeRunTimerCheckSumStrgBegin                                                          
1     0000bb84  _CSMON_u32FreeRunTimerCheckSumStrgEnd                                                            
1     0000bb86  _CSMON_u32FreeRunTimerCheckSumStrgMax                                                            
1     0000bbd8  _CSMON_u32FreeRunTimerDiff                                                                       
1     0000bbd4  _CSMON_u32FreeRunTimerNow                                                                        
1     0000bb92  _CSMON_u32FreeRunTimerPasswordHashBegin                                                          
1     0000bb94  _CSMON_u32FreeRunTimerPasswordHashEnd                                                            
1     0000bb96  _CSMON_u32FreeRunTimerPasswordHashMax                                                            
1     0000bb8e  _CSMON_u32FreeRunTimerPrepareFileParameterAccessListEnd                                          
1     0000bb90  _CSMON_u32FreeRunTimerPrepareFileParameterAccessListMax                                          
1     0000bbd6  _CSMON_u32FreeRunTimerPrev                                                                       
1     0000bb98  _CSMON_u32FreeRunTimerProcessBegin                                                               
1     0000bb9c  _CSMON_u32FreeRunTimerProcessEnd                                                                 
1     0000bb9e  _CSMON_u32FreeRunTimerProcessMax                                                                 
1     0000bb9a  _CSMON_u32FreeRunTimerProcessNow                                                                 
0     003ee5b8  _CSMON_u32GetBaudError_PPM                                                                       
0     003edc25  _CSMON_u32GetFreeRunningTimerMicroseconds                                                        
0     003ee3c8  _CSMON_u32GetFreeRunningTimerTicks                                                               
0     003ee6da  _CSMON_u32GetModbusMessageCounterRegisterRealAddress                                             
0     003ee3cd  _CSMON_u32GetParameterAuxCheckSum                                                                
0     003ee3d2  _CSMON_u32GetParameterCheckSum                                                                   
0     003ee3d7  _CSMON_u32GetParameterListCheckSum                                                               
0     003ee3dc  _CSMON_u32GetParameterNumbCheckSum                                                               
0     003ee3e1  _CSMON_u32GetParameterShortNameCheckSum                                                          
0     003ee3e6  _CSMON_u32GetParameterStringCheckSum                                                             
0     003ed1ab  _CSMON_u32GetRealAddressAndSizeOffsetFromParameter                                               
1     0000bba4  _CSMON_u32MaxTimeInISR_Ticks                                                                     
1     0000bbb2  _CSMON_u32MaxTimeProcessAllowed_Ticks                                                            
1     0000bba6  _CSMON_u32MaxTimeProcess_Ticks                                                                   
1     0000bba8  _CSMON_u32MaxTimeTillWdtClearISRs                                                                
1     0000bbac  _CSMON_u32MaxTimeTillWdtClear_Ticks                                                              
1     0000bbae  _CSMON_u32MinTimeProcessAllowedNeeded_Ticks                                                      
1     0000bbaa  _CSMON_u32MinTimeProcessExit_Ticks                                                               
1     0000bbda  _CSMON_u32NoMessageTime                                                                          
1     0000bbdc  _CSMON_u32NoMessageTimeout_Ticks                                                                 
1     0000bb6c  _CSMON_u32SCIErrorPPM                                                                            
1     0000bb6e  _CSMON_u32ServiceWatchdogTimes                                                                   
1     0000bba2  _CSMON_u32WatchdogPeriod_Ticks                                                                   
1     0000bba0  _CSMON_u32WatchdogPeriod_usec                                                                    
0     003ee5bc  _CSMON_vAddSetupRecorderParameterMask                                                            
0     003ed55f  _CSMON_vAutorizationReset                                                                        
0     003ede1c  _CSMON_vFileParameterCountCheckSumUpdate                                                         
0     003eaec8  _CSMON_vFileRecoderStatusFix                                                                     
0     003eda13  _CSMON_vGetDateTime                                                                              
0     003ee07e  _CSMON_vInitHoldingRegistersTableChanges                                                         
0     003eb604  _CSMON_vInitParameterListRealAddressRecordTables                                                 
0     003ed2d0  _CSMON_vInitRecorders                                                                            
0     003ee5c0  _CSMON_vInitScopes                                                                               
0     003ec429  _CSMON_vPrepareFileParameterAccessList                                                           
0     003ed757  _CSMON_vRecorderParamSetupProcess                                                                
0     003ed109  _CSMON_vRecorderParamStartStopProcess                                                            
0     003edc85  _CSMON_vSaveRecorderConfig                                                                       
0     003edeac  _CSMON_vSetDateTime                                                                              
0     003ec077  _CSMON_vSetDateTimeAutorization                                                                  
0     003ee3eb  _CSMON_vSetDateTimeRequest                                                                       
0     003ee6dd  _CSMON_vSetModbusMessageCounterRegisterRealAddress                                               
0     003ee5c4  _CSMON_vSetStartRecorderParameterMask                                                            
0     003ed2fd  _CSMON_vSetupHoldingRegistersAndCoilsAddressTableAccessAll                                       
0     003eb52e  _CSMON_vSetupHoldingRegistersAndCoilsAddressTableFromCSMONParameterList                          
0     003ec976  _CSMON_vUpdateDateTimeFromApplication                                                            
1     00001400  _Cla1Regs                                                                                        
1     0000ba0d  _CoilTest                                                                                        
1     00006400  _Comp1Regs                                                                                       
1     00006420  _Comp2Regs                                                                                       
1     00006440  _Comp3Regs                                                                                       
0     003eb44a  _ControlProcess                                                                                  
1     00000c00  _CpuTimer0Regs                                                                                   
1     00000c08  _CpuTimer1Regs                                                                                   
1     00000c10  _CpuTimer2Regs                                                                                   
1     003f7ff8  _CsmPwl                                                                                          
1     00000ae0  _CsmRegs                                                                                         
0     003ee3f0  _DATALOG_ISR                                                                                     
0     003ee3f5  _DINTCH1_ISR                                                                                     
0     003ee3fa  _DINTCH2_ISR                                                                                     
0     003ee3ff  _DINTCH3_ISR                                                                                     
0     003ee404  _DINTCH4_ISR                                                                                     
0     003ee409  _DINTCH5_ISR                                                                                     
0     003ee40e  _DINTCH6_ISR                                                                                     
0     003ee2c6  _DSP28x_DisableInt                                                                               
0     003ee2ca  _DSP28x_RestoreInt                                                                               
0     00008025  _DSP28x_usDelay                                                                          003ee725
1     0000bc7f  _DataChangedFlag                                                                                 
1     0000befe  _DataChangedParamFlag                                                                            
1     00000880  _DevEmuRegs                                                                                      
0     003ecc22  _Device_CsmUnlock                                                                                
0     003ed061  _Device_init                                                                                     
0     003edabb  _Device_initGPIO                                                                                 
0     003ee23e  _DisableDog                                                                                      
1     00001000  _DmaRegs                                                                                         
0     003ee413  _ECAN0INTA_ISR                                                                                   
0     003ee418  _ECAN1INTA_ISR                                                                                   
0     003ee41d  _ECAP1_INT_ISR                                                                                   
0     003ee422  _ECAP2_INT_ISR                                                                                   
0     003ee427  _ECAP3_INT_ISR                                                                                   
1     00006040  _ECanaLAMRegs                                                                                    
1     000060c0  _ECanaMOTORegs                                                                                   
1     00006080  _ECanaMOTSRegs                                                                                   
1     00006100  _ECanaMboxes                                                                                     
1     00006000  _ECanaRegs                                                                                       
1     00006a00  _ECap1Regs                                                                                       
1     00006a20  _ECap2Regs                                                                                       
1     00006a40  _ECap3Regs                                                                                       
0     003ee42c  _EMPTY_ISR                                                                                       
0     003ee431  _EMUINT_ISR                                                                                      
0     003ee436  _EPWM1_INT_ISR                                                                                   
0     003ee43b  _EPWM1_TZINT_ISR                                                                                 
0     003ee440  _EPWM2_INT_ISR                                                                                   
0     003ee445  _EPWM2_TZINT_ISR                                                                                 
0     003ee44a  _EPWM3_INT_ISR                                                                                   
0     003ee44f  _EPWM3_TZINT_ISR                                                                                 
0     003ee454  _EPWM4_INT_ISR                                                                                   
0     003ee459  _EPWM4_TZINT_ISR                                                                                 
0     003ee45e  _EPWM5_INT_ISR                                                                                   
0     003ee463  _EPWM5_TZINT_ISR                                                                                 
0     003ee468  _EPWM6_INT_ISR                                                                                   
0     003ee46d  _EPWM6_TZINT_ISR                                                                                 
0     003ee472  _EPWM7_INT_ISR                                                                                   
0     003ee477  _EPWM7_TZINT_ISR                                                                                 
0     003ee47c  _EPWM8_INT_ISR                                                                                   
0     003ee481  _EPWM8_TZINT_ISR                                                                                 
1     00006800  _EPwm1Regs                                                                                       
1     00006840  _EPwm2Regs                                                                                       
1     00006880  _EPwm3Regs                                                                                       
1     000068c0  _EPwm4Regs                                                                                       
1     00006900  _EPwm5Regs                                                                                       
1     00006940  _EPwm6Regs                                                                                       
1     00006980  _EPwm7Regs                                                                                       
1     000069c0  _EPwm8Regs                                                                                       
0     003ee486  _EQEP1_INT_ISR                                                                                   
0     003ee48b  _EQEP2_INT_ISR                                                                                   
1     00006b00  _EQep1Regs                                                                                       
1     00006b40  _EQep2Regs                                                                                       
1     00000d01  _EmuBMode                                                                                        
1     00000d00  _EmuKey                                                                                          
1     0000c0d4  _Example_Fail                                                                                    
0     003edf11  _Example_MemCopy                                                                                 
1     0000c0d2  _Example_PassCount                                                                               
1     0000c0d0  _Example_Result                                                                                  
0     003ece33  _ExternalParametersInitialization                                                                
0     003ed384  _FillTimeData                                                                                    
1     00000a80  _FlashRegs                                                                                       
1     00000d04  _Flash_CPUScaleFactor                                                                            
1     00000d02  _Flash_CallbackPtr                                                                               
0     003ec8c2  _GPIO_setPinConfigOutput                                                                         
1     00006f80  _GpioCtrlRegs                                                                                    
1     00006fc0  _GpioDataRegs                                                                                    
1     00006fe0  _GpioIntRegs                                                                                     
0     003edbc1  _HMDRV_AddressFromBuffer                                                                         
0     003edd3c  _HMDRV_AddressFromBufferBigEndian                                                                
0     003edad6  _HMDRV_AddressToBuffer                                                                           
0     003ecefd  _HMDRV_CopyFromBufferInternal                                                                    
0     003ec2a0  _HMDRV_CopyFromBufferInternalModbus                                                              
0     003eb9ba  _HMDRV_CopyFromBufferInternalModbusBitField                                                      
0     003ed826  _HMDRV_CopyFromBufferInternalWithMask                                                            
0     003ed4c9  _HMDRV_CopyFromBufferInternalWithMaskModbus                                                      
0     003ee246  _HMDRV_CopyFromBufferWithMaskModbus                                                              
0     003ebec1  _HMDRV_CopyMemory                                                                                
0     003ed1e0  _HMDRV_CopyToBufferInternal                                                                      
0     003ebf53  _HMDRV_CopyToBufferInternalModbus                                                                
0     003ede2e  _HMDRV_GetStringLengthFromWordInternal                                                           
0     003edf9f  _HMDRV_GetStringLengthInternal                                                                   
0     003ee5c8  _HMDRV_SetExAddr                                                                                 
0     003ee5cc  _HMDRV_u32GetDeviceSYSCLKFreq                                                                    
0     003ee5d0  _HMDRV_u32GetSCIErrorPPM                                                                         
1     0000b53c  _HMDRV_u32SCIErrorPPM                                                                            
0     003eb6ca  _HMDRV_vInit                                                                                     
0     003ed889  _HMDRV_vProcess                                                                                  
0     003ed77a  _HMLIB_vInit                                                                                     
0     003ee1b0  _HMLIB_vInitRecParamBuff                                                                         
0     003ee0d9  _HMLIB_vProcess                                                                                  
0     003ee305  _HMLIB_vProcessDifferentPorts                                                                    
0     003edda6  _HMLIB_vProcessFastTD                                                                            
0     003ee30c  _HMLIB_vProcessRecorders                                                                         
0     003edc3d  _HMLIB_vProcessSCITXISRWithIndex                                                                 
0     003ee490  _HMLIB_vProcessSamePort                                                                          
0     003ee495  _HMLIB_vRecorder0                                                                                
0     003ee5d4  _HMLIB_vRecorderParam0                                                                           
0     003ee6e0  _HMLIB_vRecorderParamTimeSync                                                                    
0     003edf81  _HMMODBUS_CalcCRC                                                                                
0     003ec6d9  _HMMODBUS_CopyFromBuffer                                                                         
0     003ecda5  _HMMODBUS_CopyToBuffer                                                                           
0     003eddba  _HMMODBUS_DelayedTx                                                                              
0     003ebc58  _HMMODBUS_GetRealRegisterAddressAndSize                                                          
0     003ecc71  _HMMODBUS_GetRegisterFunction                                                                    
0     003ed215  _HMMODBUS_Listen                                                                                 
0     003e8000  _HMMODBUS_ReadFileRecord                                                                         
0     003eb0a8  _HMMODBUS_ReadHoldingRegister                                                                    
0     003eaa4c  _HMMODBUS_Rx                                                                                     
0     003ed982  _HMMODBUS_Tx                                                                                     
0     003e9f46  _HMMODBUS_WriteFileRecord                                                                        
0     003eafb9  _HMMODBUS_WriteHoldingRegister                                                                   
1     0000b540  _HMMODBUS_anTxCheckSum                                                                           
0     003ed099  _HMMODBUS_bDecoderInit_OPT                                                                       
0     003e88a0  _HMMODBUS_bDecoder_OPT                                                                           
0     003ee49a  _HMMODBUS_bGetReceivedMessage                                                                    
1     0000b407  _HMMODBUS_bOverflowReached                                                                       
1     0000b416  _HMMODBUS_bReceivedMessage                                                                       
1     0000c04c  _HMMODBUS_nFilePrimaryAddrWriteLast                                                              
1     0000b402  _HMMODBUS_nLastResponseCmd                                                                       
1     0000b403  _HMMODBUS_nLastResponseCode                                                                      
1     0000b405  _HMMODBUS_nRxCheckSum                                                                            
1     0000b404  _HMMODBUS_nRxTodo                                                                                
1     0000b401  _HMMODBUS_nRxTodoEcho                                                                            
1     0000b4de  _HMMODBUS_nSizeReadRequestLoopLeft                                                               
1     0000b406  _HMMODBUS_nTxCheckSum                                                                            
1     0000b400  _HMMODBUS_nTxTodo                                                                                
1     0000b640  _HMMODBUS_pCommBufferRx                                                                          
1     0000b740  _HMMODBUS_pCommBufferTx                                                                          
1     0000b46c  _HMMODBUS_pRxBuff                                                                                
1     0000b46a  _HMMODBUS_pTxBuff                                                                                
1     0000b48a  _HMMODBUS_pasFileAddressTable                                                                    
1     0000b46e  _HMMODBUS_pu32HoldingRegisterAccessTableInRam                                                    
1     0000b4b0  _HMMODBUS_pu8ReadDeviceIDMajorMinorRevision                                                      
1     0000b4b6  _HMMODBUS_pu8ReadDeviceIDModelName                                                               
1     0000b4ae  _HMMODBUS_pu8ReadDeviceIDProductCode                                                             
1     0000b4b4  _HMMODBUS_pu8ReadDeviceIDProductName                                                             
1     0000b4b8  _HMMODBUS_pu8ReadDeviceIDUserApplicationName                                                     
1     0000b4ba  _HMMODBUS_pu8ReadDeviceIDUserReserve0                                                            
1     0000b4bc  _HMMODBUS_pu8ReadDeviceIDUserReserve1                                                            
1     0000b4be  _HMMODBUS_pu8ReadDeviceIDUserReserve2                                                            
1     0000b4ac  _HMMODBUS_pu8ReadDeviceIDVendorName                                                              
1     0000b4b2  _HMMODBUS_pu8ReadDeviceIDVendorUrl                                                               
1     0000b4aa  _HMMODBUS_pu8ReadServerIDDatAdr                                                                  
1     0000b412  _HMMODBUS_u16HoldingRegisterProcessFuncTableOffset                                               
1     0000b413  _HMMODBUS_u16HoldingRegisterProcessFuncTableSize                                                 
1     0000b410  _HMMODBUS_u16HoldingRegisterRealAddressTableOffset                                               
1     0000b411  _HMMODBUS_u16HoldingRegisterRealAddressTableSize                                                 
1     0000b40e  _HMMODBUS_u16HoldingRegisterRegisterFlagsTableOffset                                             
1     0000b40f  _HMMODBUS_u16HoldingRegisterRegisterFlagsTableSize                                               
1     0000b40c  _HMMODBUS_u16HoldingRegisterRegisterSizeTableOffset                                              
1     0000b40d  _HMMODBUS_u16HoldingRegisterRegisterSizeTableSize                                                
1     0000b40a  _HMMODBUS_u16HoldingRegisterVirtAddressTableOffset                                               
1     0000b40b  _HMMODBUS_u16HoldingRegisterVirtAddressTableSize                                                 
1     0000ba0e  _HMMODBUS_u16RegisterAddressTableControlParametersStartIndex                                     
1     0000b4d8  _HMMODBUS_u32DebugAddrReadFileCircle                                                             
1     0000b4d6  _HMMODBUS_u32DebugAddrReadFileCircleTooFarAddress                                                
1     0000b4da  _HMMODBUS_u32DebugAddrReadFileForRead                                                            
1     0000b4dc  _HMMODBUS_u32DebugAddrReadFileForReadLooped                                                      
1     0000b4d2  _HMMODBUS_u32DebugAddrReadFileFromAddress                                                        
1     0000b4d0  _HMMODBUS_u32DebugAddrReadFileFromIndex                                                          
1     0000b4ce  _HMMODBUS_u32DebugAddrReadFileReal                                                               
1     0000b4d4  _HMMODBUS_u32DebugAddrReadPlusOffset                                                             
1     0000b48e  _HMMODBUS_u32DeviceSYSCLKFreq                                                                    
1     0000b48c  _HMMODBUS_u32FileCount                                                                           
1     0000b488  _HMMODBUS_u32FreeRunTimerReceivedMessage                                                         
0     003ee5d8  _HMMODBUS_u32GetAddressMessageCounterThisDevice                                                  
1     0000b472  _HMMODBUS_u32HoldingRegisterAddressTableInRamSize                                                
1     0000b470  _HMMODBUS_u32HoldingRegisterAddressTableSize                                                     
1     0000b47c  _HMMODBUS_u32HoldingRegisterProcessFuncTable                                                     
1     0000b47a  _HMMODBUS_u32HoldingRegisterRealAddressTable                                                     
1     0000b478  _HMMODBUS_u32HoldingRegisterRegisterFlagsTable                                                   
1     0000b476  _HMMODBUS_u32HoldingRegisterRegisterSizeTable                                                    
1     0000b474  _HMMODBUS_u32HoldingRegisterVirtAddressTable                                                     
1     0000b415  _HMMODBUS_u32RegisterAddressDummyVirtAddress                                                     
1     0000c117  _HMMODBUS_u32RegisterAddressDummyuSize                                                           
1     0000b486  _HMMODBUS_u32RegisterAddressInRamDummyProcessFunc                                                
1     0000b484  _HMMODBUS_u32RegisterAddressInRamDummyRealAddress                                                
1     0000b47e  _HMMODBUS_u32TxDelayCounter                                                                      
1     0000b409  _HMMODBUS_u8DeviceAddress                                                                        
1     0000b423  _HMMODBUS_u8ReadDeviceIDConfLvl                                                                  
1     0000b422  _HMMODBUS_u8ReadDeviceIDConfLvlMask                                                              
1     0000b426  _HMMODBUS_u8ReadDeviceIDMajorMinorRevisionLength                                                 
1     0000b429  _HMMODBUS_u8ReadDeviceIDModelNameLength                                                          
1     0000b425  _HMMODBUS_u8ReadDeviceIDProductCodeLength                                                        
1     0000b428  _HMMODBUS_u8ReadDeviceIDProductNameLength                                                        
1     0000b42a  _HMMODBUS_u8ReadDeviceIDUserApplicationNameLength                                                
1     0000b42b  _HMMODBUS_u8ReadDeviceIDUserReserve0Length                                                       
1     0000b42c  _HMMODBUS_u8ReadDeviceIDUserReserve1Length                                                       
1     0000b42d  _HMMODBUS_u8ReadDeviceIDUserReserve2Length                                                       
1     0000b424  _HMMODBUS_u8ReadDeviceIDVendorNameLength                                                         
1     0000b427  _HMMODBUS_u8ReadDeviceIDVendorUrlLength                                                          
1     0000b41f  _HMMODBUS_u8ReadServerIDLength                                                                   
1     0000b420  _HMMODBUS_u8ReadServerIDNumber                                                                   
1     0000b421  _HMMODBUS_u8ReadServerOnStatus                                                                   
0     003ee49f  _HMMODBUS_vFileTable                                                                             
0     003ed8e9  _HMMODBUS_vInit                                                                                  
0     003ee115  _HMMODBUS_vProcessFastTD                                                                         
0     003ee1b9  _HMMODBUS_vProcessFreeTimer                                                                      
0     003ee1c2  _HMMODBUS_vProcessRxDelay                                                                        
0     003ec609  _HMMODBUS_vProcessSCI                                                                            
0     003edb0c  _HMMODBUS_vProcessSCITXISR                                                                       
0     003edc9c  _HMMODBUS_vProcessTxDelay                                                                        
0     003ecd0d  _HMMODBUS_vSendResponse                                                                          
0     003ee5dc  _HMMODBUS_vSetAddressMessageCounterThisDevice                                                    
0     003ee5e0  _HMMODBUS_vSetDeviceIDMajorMinorRevision                                                         
0     003ee5e4  _HMMODBUS_vSetDeviceIDMajorMinorRevisionLength                                                   
0     003ee5e8  _HMMODBUS_vSetDeviceIDModelName                                                                  
0     003ee5ec  _HMMODBUS_vSetDeviceIDModelNameLength                                                            
0     003ee5f0  _HMMODBUS_vSetDeviceIDProductCode                                                                
0     003ee5f4  _HMMODBUS_vSetDeviceIDProductCodeLength                                                          
0     003ee5f8  _HMMODBUS_vSetDeviceIDProductName                                                                
0     003ee5fc  _HMMODBUS_vSetDeviceIDProductNameLength                                                          
0     003ee600  _HMMODBUS_vSetDeviceIDUserApplicationName                                                        
0     003ee604  _HMMODBUS_vSetDeviceIDUserApplicationNameLength                                                  
0     003ee608  _HMMODBUS_vSetDeviceIDUserReserve0                                                               
0     003ee60c  _HMMODBUS_vSetDeviceIDUserReserve0Length                                                         
0     003ee610  _HMMODBUS_vSetDeviceIDUserReserve1                                                               
0     003ee614  _HMMODBUS_vSetDeviceIDUserReserve1Length                                                         
0     003ee618  _HMMODBUS_vSetDeviceIDUserReserve2                                                               
0     003ee61c  _HMMODBUS_vSetDeviceIDUserReserve2Length                                                         
0     003ee620  _HMMODBUS_vSetDeviceIDVendorName                                                                 
0     003ee624  _HMMODBUS_vSetDeviceIDVendorNameLength                                                           
0     003ee628  _HMMODBUS_vSetDeviceIDVendorUrl                                                                  
0     003ee62c  _HMMODBUS_vSetDeviceIDVendorUrlLength                                                            
0     003eab92  _HMMODBUS_vSetFreeRunTimerPrescaller                                                             
0     003ee630  _HMMODBUS_vSetServerIDDataAddress                                                                
0     003ee634  _HMMODBUS_vSetServerIDLength                                                                     
0     003ee638  _HMMODBUS_vSetServerIDNumber                                                                     
0     003ee63c  _HMMODBUS_vSetServerOnStatus                                                                     
0     003ee640  _HMMODBUS_vSetupHoldingRegistersAccessTableInRam                                                 
0     003ee24e  _HMMODBUS_vSetupHoldingRegistersProcessFuncTable                                                 
0     003ee256  _HMMODBUS_vSetupHoldingRegistersRealAddressTable                                                 
0     003ee25e  _HMMODBUS_vSetupHoldingRegistersRegisterFlagsTable                                               
0     003ee266  _HMMODBUS_vSetupHoldingRegistersRegisterSizeTable                                                
0     003ee26e  _HMMODBUS_vSetupHoldingRegistersVirtAddressTable                                                 
0     003ede40  _HMMODBUS_vSetupRegisterDummy                                                                    
0     003ee644  _HMMODBUS_vSetupWriteParElementCallbackFunction                                                  
1     0000c118  _HMMODBUS_wFlags                                                                                 
1     0000c119  _HMMODBUS_wFlagsRxTx                                                                             
1     0000b482  _HMMOSBUS_nDummy                                                                                 
1     0000c056  _HMMOSBUS_nFileWriteAddrReadLast                                                                 
1     0000b480  _HMMOSBUS_nFileWritePrimaryAddrReadLast                                                          
0     003ec671  _HMPROTOCOL_GetBoardInfo                                                                         
0     003ed583  _HMPROTOCOL_ReadMem                                                                              
0     003edcb3  _HMPROTOCOL_WriteMem                                                                             
0     003edcca  _HMPROTOCOL_WriteMemMask                                                                         
0     003eb191  _HMPROTOCOL_bDecoder                                                                             
0     003ee6fb  _HMPROTOCOL_vInit                                                                                
0     003ee6ef  _HMRECPRM_AbortRec                                                                               
0     003ee16d  _HMRECPRM_ClrLastStopDetectionToRecorderStopSamplesCounter                                       
0     003edfad  _HMRECPRM_Compare16S                                                                             
0     003edfbb  _HMRECPRM_Compare16U                                                                             
0     003edfc9  _HMRECPRM_Compare32S                                                                             
0     003edfd7  _HMRECPRM_Compare32U                                                                             
0     003edfe5  _HMRECPRM_Compare8S                                                                              
0     003edff3  _HMRECPRM_Compare8U                                                                              
0     003ede52  _HMRECPRM_CompareBOOL                                                                            
0     003edd52  _HMRECPRM_Comparefloat                                                                           
0     003ee0e5  _HMRECPRM_GetBufferRecParamPtrAddress                                                            
0     003ee1cb  _HMRECPRM_GetExternBufferRecParamLastPointedAddress                                              
0     003ee1d4  _HMRECPRM_GetExternBufferRecParamPtrAddress                                                      
0     003ee276  _HMRECPRM_GetExternRecParamAddress                                                               
0     003ee27e  _HMRECPRM_GetExternRecParamPtrMaximumUsedSampleCount                                             
0     003ee286  _HMRECPRM_GetExternRecParamPtrSampleSize                                                         
0     003ed99f  _HMRECPRM_GetRecBuffFreemaster                                                                   
0     003ee6f1  _HMRECPRM_GetRecBuffSize                                                                         
0     003ee28e  _HMRECPRM_GetRecParamPtrAvailableSampleCount                                                     
0     003ee296  _HMRECPRM_GetRecParamPtrLastSampleIndex                                                          
0     003ee29e  _HMRECPRM_GetRecParamPtrMaximumUsedSampleCount                                                   
0     003ee2a6  _HMRECPRM_GetRecParamPtrSampleSize                                                               
0     003ee177  _HMRECPRM_GetRecStatus                                                                           
0     003ee2ae  _HMRECPRM_GetStatusRecParamAddress                                                               
0     003ee6e3  _HMRECPRM_GetTimeBase                                                                            
0     003ee08b  _HMRECPRM_IsJustStopped                                                                          
0     003ee120  _HMRECPRM_IsRunning                                                                              
0     003eb78c  _HMRECPRM_SetUpRec                                                                               
0     003ee33c  _HMRECPRM_SetUpRecBuff                                                                           
0     003ec192  _HMRECPRM_SetUpRecParamStatusDateTime                                                            
0     003edb26  _HMRECPRM_StartRec                                                                               
0     003eccbf  _HMRECPRM_StartRecParam                                                                          
0     003ee098  _HMRECPRM_StopRec                                                                                
0     003eddce  _HMRECPRM_StopRecParam                                                                           
0     003ee0f1  _HMRECPRM_TriggerRec                                                                             
1     0000bcf8  _HMRECPRM_sDateTime                                                                              
0     003ee4a4  _HMRECPRM_vDisableAllStopDetections                                                              
0     003eda2f  _HMRECPRM_vGetDateTime                                                                           
0     003ee2b6  _HMRECPRM_vInit                                                                                  
0     003eb27a  _HMRECPRM_vProcess                                                                               
0     003ee313  _HMRECPRM_vResetAllStopDetections                                                                
0     003ecd59  _HMRECPRM_vTimeSync                                                                              
0     003ee6f3  _HMREC_AbortRec                                                                                  
0     003ed9bc  _HMREC_GetRecBuffFreemaster                                                                      
0     003ee6f5  _HMREC_GetRecBuffSize                                                                            
0     003ee181  _HMREC_GetRecStatus                                                                              
0     003eb902  _HMREC_SetUpRec                                                                                  
0     003ee342  _HMREC_SetUpRecBuff                                                                              
0     003edd7c  _HMREC_StartRec                                                                                  
0     003ee0a5  _HMREC_StopRec                                                                                   
0     003ee1dd  _HMREC_TriggerRec                                                                                
1     0000bb3f  _HMREC_u16FailSnapshotWrite                                                                      
0     003ee2be  _HMREC_vInit                                                                                     
0     003ec740  _HMREC_vProcess                                                                                  
0     003ee1e6  _HMSCOPEPRM_GetBufferScopeParamAddress                                                           
0     003ee31a  _HMSCOPEPRM_GetStatusScopeParamAddress                                                           
0     003ece78  _HMSCOPEPRM_ReadScope                                                                            
0     003ecdec  _HMSCOPEPRM_SetUpScope                                                                           
0     003ed13f  _HMSCOPE_ReadScope                                                                               
0     003ecfb5  _HMSCOPE_SetUpScope                                                                              
0     003edde2  _HMSERIAL_DelayedTx                                                                              
0     003ec59f  _HMSERIAL_Rx                                                                                     
0     003ed515  _HMSERIAL_Tx                                                                                     
0     003edebd  _HMSERIAL_vInit                                                                                  
0     003ee12b  _HMSERIAL_vProcessFastTD                                                                         
0     003ee1ef  _HMSERIAL_vProcessFreeTimer                                                                      
0     003ec4a8  _HMSERIAL_vProcessSCI                                                                            
0     003ed248  _HMSERIAL_vProcessSCIFreemasterOnly                                                              
0     003ed47b  _HMSERIAL_vProcessSCITXISR                                                                       
0     003edb40  _HMSERIAL_vProcessSCITXISRFreemasterOnly                                                         
0     003ed175  _HMSERIAL_vSendResponse                                                                          
0     003ee4a9  _HRCAP1_INT_ISR                                                                                  
0     003ee4ae  _HRCAP2_INT_ISR                                                                                  
0     003ee4b3  _HRCAP3_INT_ISR                                                                                  
0     003ee4b8  _HRCAP4_INT_ISR                                                                                  
1     00006ac0  _HRCap1Regs                                                                                      
1     00006ae0  _HRCap2Regs                                                                                      
1     00006c80  _HRCap3Regs                                                                                      
1     00006ca0  _HRCap4Regs                                                                                      
0     003ee4bd  _I2CINT1A_ISR                                                                                    
0     003ee4c2  _I2CINT2A_ISR                                                                                    
1     00007900  _I2caRegs                                                                                        
0     003ee4c7  _ILLEGAL_ISR                                                                                     
0     003ee4cc  _INT13_ISR                                                                                       
0     003ee4d1  _INT14_ISR                                                                                       
0     00008000  _InitFlash                                                                               003ee700
0     003edd91  _InitGpio                                                                                        
0     003ec806  _InitPeripheralClocks                                                                            
0     003ed908  _InitPieCtrl                                                                                     
0     003edece  _InitPieVectTable                                                                                
0     003ecbd1  _InitPll                                                                                         
0     003edc55  _InitSysCtrl                                                                                     
1     0000ba0c  _InputCoilDummy                                                                                  
1     0000ba0b  _InputRegisterDummy                                                                              
0     003ee4d6  _IntDefaultHandler                                                                               
0     003ee648  _IntMasterDisable                                                                                
0     003ee64c  _IntMasterEnable                                                                                 
0     003edf21  _IntOsc1Sel                                                                                      
0     003ecebb  _Interrupt_enable                                                                                
0     003ee4db  _LUF_ISR                                                                                         
0     003ee4e0  _LVF_ISR                                                                                         
1     0000bc80  _MAIN_bDateTimeSet                                                                               
1     0000c0fc  _MAIN_sDate                                                                                      
1     0000c074  _MAIN_sDateTimeGet                                                                               
1     0000c080  _MAIN_sDateTimeSet                                                                               
1     0000c0fe  _MAIN_sTime                                                                                      
1     0000bebe  _MAIN_u32FreeCounter                                                                             
0     003e9133  _MODBUSREG_AddressTablesInit                                                                     
0     003ed79d  _MODBUSREG_FileRecorderElementSizeTableUsedSizeUpdateInit                                        
0     003ecad6  _MODBUSREG_FileRecorderExternalUpdateInit                                                        
0     003ede64  _MODBUSREG_FileShortNameElementSizeandAddressUpdateInit                                          
1     0000ac00  _MODBUSREG_asFileTable                                                                           
1     0000beea  _MODBUSREG_au8DeviceIDMajorMinorRevision                                                         
1     0000bf2a  _MODBUSREG_au8DeviceIDModelName                                                                  
1     0000bf40  _MODBUSREG_au8DeviceIDProductCode                                                                
1     0000bf50  _MODBUSREG_au8DeviceIDProductName                                                                
1     0000bf60  _MODBUSREG_au8DeviceIDUserApplicationName                                                        
1     0000bf70  _MODBUSREG_au8DeviceIDUserReserve0                                                               
1     0000bf80  _MODBUSREG_au8DeviceIDUserReserve1                                                               
1     0000bf90  _MODBUSREG_au8DeviceIDUserReserve2                                                               
1     0000bfa0  _MODBUSREG_au8DeviceIDVendorName                                                                 
1     0000bfb0  _MODBUSREG_au8DeviceIDVendorUrl                                                                  
1     0000bfc0  _MODBUSREG_au8ServerIDData                                                                       
1     0000ba22  _MODBUSREG_pu32TableNameAddress                                                                  
1     0000ba3a  _MODBUSREG_pu32TableProcessFunc                                                                  
1     0000ba38  _MODBUSREG_pu32TableRealAddress                                                                  
1     0000ba36  _MODBUSREG_pu32TableRegisterFlags                                                                
1     0000ba34  _MODBUSREG_pu32TableRegisterSize                                                                 
1     0000ba32  _MODBUSREG_pu32TableVirtAddress                                                                  
1     0000ba19  _MODBUSREG_u16FileTableParameterListIndex                                                        
1     0000ba1a  _MODBUSREG_u16FileTableParameterNumbIndex                                                        
1     0000ba17  _MODBUSREG_u16FileTableRecorderIndex                                                             
1     0000ba18  _MODBUSREG_u16FileTableShortNameIndex                                                            
0     003ee650  _MODBUSREG_u16GetHoldRegFillCount                                                                
0     003ee654  _MODBUSREG_u16GetTableRegisterFlagsElementOffset                                                 
0     003ee658  _MODBUSREG_u16GetTableRegisterSizeElementOffset                                                  
0     003ee65c  _MODBUSREG_u16GetTableVirtAddressElementOffset                                                   
1     0000ba0f  _MODBUSREG_u16HoldRegFillCount                                                                   
1     0000ba11  _MODBUSREG_u16HoldRegListCount                                                                   
1     0000ba10  _MODBUSREG_u16HoldRegUsedCount                                                                   
1     0000ba08  _MODBUSREG_u16ModbusParamCount                                                                   
1     0000ba09  _MODBUSREG_u16ParamCount                                                                         
1     0000ba0a  _MODBUSREG_u16TableNameAddressOffset                                                             
1     0000ba16  _MODBUSREG_u16TableProcessFuncOffset                                                             
1     0000ba15  _MODBUSREG_u16TableRealAddressOffset                                                             
1     0000ba14  _MODBUSREG_u16TableRegisterFlagsOffset                                                           
1     0000ba13  _MODBUSREG_u16TableRegisterSizeOffset                                                            
1     0000ba12  _MODBUSREG_u16TableVirtAddressOffset                                                             
1     0000ba2c  _MODBUSREG_u32FileAutorization_FunctionAfterWriteFileRecordTable                                 
1     0000ba2a  _MODBUSREG_u32FileParamCount_FunctionBeforeReadFileRecord                                        
1     0000ba28  _MODBUSREG_u32FileRTC_FunctionAfterReadFileRecord                                                
1     0000ba26  _MODBUSREG_u32FileRTC_FunctionAfterWriteFileRecord                                               
1     0000ba30  _MODBUSREG_u32FileRecConfig_FunctionAfterWriteFileRecord                                         
1     0000ba2e  _MODBUSREG_u32FileRecStatus_FunctionIndexGenerationFileRecord                                    
0     003ee6e6  _MODBUSREG_u32GetAddressMessageCounterThisDevice                                                 
0     003ee660  _MODBUSREG_u32GetRegisterAccessTableInRam                                                        
0     003ee664  _MODBUSREG_u32GetTableRegisterFlags                                                              
0     003ee668  _MODBUSREG_u32GetTableRegisterSize                                                               
0     003ee66c  _MODBUSREG_u32GetTableVirtAddress                                                                
1     0000ba20  _MODBUSREG_u32ParamListAddress                                                                   
1     0000ba24  _MODBUSREG_u32ParamNumbAddress                                                                   
1     0000ba1c  _MODBUSREG_u32ParamRecorderConfigAddress                                                         
1     0000ba1e  _MODBUSREG_u32ParamScopeConfigAddress                                                            
1     00008c00  _MODBUSREG_u32RegisterAccessTableInRam                                                           
0     003ee136  _MODBUSREG_vDataZero                                                                             
0     003ee0b2  _MODBUSREG_vFileAllowAccess                                                                      
0     003ede76  _MODBUSREG_vFileDenyAccess                                                                       
0     003ec7a4  _MODBUSREG_vInit                                                                                 
0     003ee321  _MODBUSREG_vInitHoldingRegistersTableChanges                                                     
0     003ed4ef  _MODBUSREG_vInitHoldingRegistersTableChangesExternalList                                         
0     003ee6e9  _MODBUSREG_vSetAddressMessageCounterThisDevice                                                   
0     003ee670  _MODBUSREG_vSetFileAutorization_FunctionAfterWriteFileRecordTable                                
0     003ee674  _MODBUSREG_vSetFileParamCount_FunctionBeforeReadFileRecord                                       
0     003ee678  _MODBUSREG_vSetFileRTC_FunctionAfterReadFileRecord                                               
0     003ee67c  _MODBUSREG_vSetFileRTC_FunctionAfterWriteFileRecord                                              
0     003ee680  _MODBUSREG_vSetFileRecConfig_FunctionAfterWriteFileRecord                                        
0     003ee684  _MODBUSREG_vSetFileRecStatus_FunctionIndexGenerationFileRecord                                   
0     003ee688  _MODBUSREG_vSetHoldRegFillCount                                                                  
0     003ee68c  _MODBUSREG_vSetParamCount                                                                        
0     003ee690  _MODBUSREG_vSetParamListAddress                                                                  
0     003ee694  _MODBUSREG_vSetParamNumbAddress                                                                  
0     003ee698  _MODBUSREG_vSetParamRecorderConfigAddress                                                        
0     003ee69c  _MODBUSREG_vSetParamScopeConfigAddress                                                           
0     003ee4e5  _MODBUSREG_vSetTableNameAddress                                                                  
0     003ee4ea  _MODBUSREG_vSetTableRealAddressInRam                                                             
0     003ee4ef  _MODBUSREG_vSetTableRegisterFlags                                                                
0     003ee4f4  _MODBUSREG_vSetTableRegisterSize                                                                 
0     003ee4f9  _MODBUSREG_vSetTableVirtAddress                                                                  
0     003ee4fe  _MRINTA_ISR                                                                                      
0     003ee503  _MXINTA_ISR                                                                                      
1     00005000  _McbspaRegs                                                                                      
1     0000c0d6  _MyCallbackCounter                                                                               
0     0000801d  _MyCallbackFunction                                                                      003ee71d
0     003ee508  _NMI_ISR                                                                                         
1     00007060  _NmiIntruptRegs                                                                                  
0     003ee50d  _PIE_RESERVED                                                                                    
0     003ee22e  _PRG_key0                                                                                        
0     003ee22f  _PRG_key1                                                                                        
0     003ee230  _PRG_key2                                                                                        
0     003ee231  _PRG_key3                                                                                        
0     003ee232  _PRG_key4                                                                                        
0     003ee233  _PRG_key5                                                                                        
0     003ee234  _PRG_key6                                                                                        
0     003ee235  _PRG_key7                                                                                        
0     003ebe2a  _ParameterInitialization                                                                         
1     003d7e80  _PartIdRegs                                                                                      
1     00000ce0  _PieCtrlRegs                                                                                     
1     00000d00  _PieVectTable                                                                                    
0     003f022a  _PieVectTableInit                                                                                
0     003ee512  _RTOSINT_ISR                                                                                     
0     003ee729  _RamfuncsLoadEnd                                                                                 
abs   00000029  _RamfuncsLoadSize                                                                                
0     003ee700  _RamfuncsLoadStart                                                                               
0     00008000  _RamfuncsRunStart                                                                                
0     003ed5a7  _RecorderDateFromLocalDateTime                                                                   
0     003ed357  _RecorderTimeFromLocalDateTime                                                                   
0     003ebd91  _RecordersInitialization                                                                         
0     003ed5cb  _SCIA_DRV_RXFIFOISR                                                                              
0     003ed5ef  _SCIA_DRV_TXFIFOISR                                                                              
0     003ed613  _SCIA_RXFIFOISR                                                                                  
0     003ed637  _SCIA_TXFIFOISR                                                                                  
0     003ed65b  _SCIB_DRV_RXFIFOISR                                                                              
0     003ed67f  _SCIB_DRV_TXFIFOISR                                                                              
0     003ed6a3  _SCIB_RXFIFOISR                                                                                  
0     003ed6c7  _SCIB_TXFIFOISR                                                                                  
0     003ee517  _SCIRXINTA_ISR                                                                                   
0     003ee51c  _SCIRXINTB_ISR                                                                                   
0     003ee521  _SCITXINTA_ISR                                                                                   
0     003ee526  _SCITXINTB_ISR                                                                                   
0     003ee141  _SCI_DRV_eGetModuleIndexFromBase                                                                 
0     003ee328  _SCI_DRV_u32GetBaseFromModuleIndex                                                               
0     003eda4b  _SCI_clearInterruptStatus                                                                        
0     003edb5a  _SCI_disableInterrupt                                                                            
0     003ee14c  _SCI_eGetModuleIndexFromBase                                                                     
0     003edb74  _SCI_enableInterrupt                                                                             
0     003ee32f  _SCI_u32GetBaseFromModuleIndex                                                                   
0     003ee52b  _SPIRXINTA_ISR                                                                                   
0     003ee530  _SPIRXINTB_ISR                                                                                   
0     003ee535  _SPITXINTA_ISR                                                                                   
0     003ee53a  _SPITXINTB_ISR                                                                                   
1     00007050  _SciaRegs                                                                                        
1     00007750  _ScibRegs                                                                                        
0     003ed453  _ScopesInitialization                                                                            
0     003ee6d4  _SetDBGIER                                                                                       
1     00007040  _SpiaRegs                                                                                        
1     00007740  _SpibRegs                                                                                        
1     00007010  _SysCtrlRegs                                                                                     
1     00000985  _SysPwrCtrlRegs                                                                                  
0     003ee348  _TIMER_u16ResetTimerMainPeriod                                                                   
0     003ee6a0  _TIMER_vGetTimerMainRollingCounter                                                               
0     003ee1f8  _TIMER_vResetTimerMainFunctionDelayCounter                                                       
0     003ee6a4  _TIMER_vSetupTimerMainCSMONFunction                                                              
0     003ee53f  _TIMER_vSetupTimerMainDelayedData                                                                
0     003ee201  _TIMER_vSetupTimerMainDelayedFunctionSendData                                                    
0     003ee0bf  _TIMER_vSetupTimerMainFunctionDelayCompare                                                       
0     003ee544  _TINT0_ISR                                                                                       
0     003ebbb5  _TMR2_ISR                                                                                        
1     0000bfe7  _TMR_u16FreeRunTimerPrescaller                                                                   
0     003ee6a8  _TMR_u16GetFreeRunTimerPrescaller                                                                
0     003ed6eb  _TMR_vInit                                                                                       
0     003ed8a9  _TMR_vInitCPUTimers                                                                              
1     0000a800  _UARTRxBuffer                                                                                    
1     0000befa  _UARTRxBufferRDCount                                                                             
1     0000bf3a  _UARTRxBufferRDIndex                                                                             
1     00009000  _UARTRxBufferTimeDiff                                                                            
1     0000bffc  _UARTRxBufferWRCount                                                                             
1     0000c03c  _UARTRxBufferWRIndex                                                                             
0     003ee34e  _UART_DRV_GetChar                                                                                
1     0000c088  _UART_DRV_RXIntOverflowCounter                                                                   
0     003eca7f  _UART_DRV_RXInterrupt                                                                            
1     0000b840  _UART_DRV_RxBuffer                                                                               
1     0000c07c  _UART_DRV_RxBufferRDCount                                                                        
1     0000b000  _UART_DRV_RxBufferTimeDiff                                                                       
1     0000c0d8  _UART_DRV_RxBufferWRCount                                                                        
1     0000c0dc  _UART_DRV_RxBufferWRIndex                                                                        
0     003ee6fc  _UART_DRV_TXInterrupt                                                                            
1     0000c090  _UART_DRV_u32TimeDiffLast                                                                        
1     0000c098  _UART_DRV_u32TimeDiffNow                                                                         
0     003ee354  _UART_GetChar                                                                                    
0     003edf90  _UART_IsTxEmpty                                                                                  
0     003ee20a  _UART_PutChar                                                                                    
1     0000c0a0  _UART_RXIntOverflowCounter                                                                       
0     003ec865  _UART_RXInterrupt                                                                                
0     003ed0d1  _UART_ReadDataRx                                                                                 
0     003ee0cc  _UART_ReadDataRxAvailable                                                                        
0     003ee213  _UART_ReadDataRxTimeDiff                                                                         
0     003ee6ec  _UART_TXInterrupt                                                                                
0     003ee6fd  _UART_TxDis                                                                                      
0     003ee6fe  _UART_TxEna                                                                                      
0     003ede88  _UART_TxIntDis                                                                                   
0     003ede9a  _UART_TxIntEna                                                                                   
0     003edbda  _UART_vInit                                                                                      
0     003ee549  _USB0_INT_ISR                                                                                    
0     003ee54e  _USER10_ISR                                                                                      
0     003ee553  _USER11_ISR                                                                                      
0     003ee558  _USER12_ISR                                                                                      
0     003ee55d  _USER1_ISR                                                                                       
0     003ee562  _USER2_ISR                                                                                       
0     003ee567  _USER3_ISR                                                                                       
0     003ee56c  _USER4_ISR                                                                                       
0     003ee571  _USER5_ISR                                                                                       
0     003ee576  _USER6_ISR                                                                                       
0     003ee57b  _USER7_ISR                                                                                       
0     003ee580  _USER8_ISR                                                                                       
0     003ee585  _USER9_ISR                                                                                       
1     00004000  _Usb0Regs                                                                                        
0     003ee58a  _WAKEINT_ISR                                                                                     
0     003ee58f  _XINT1_ISR                                                                                       
0     003ee594  _XINT2_ISR                                                                                       
0     003ee599  _XINT3_ISR                                                                                       
1     00007070  _XIntruptRegs                                                                                    
1     000003d0  __STACK_END                                                                                      
abs   00000380  __STACK_SIZE                                                                                     
1     0000bdfc  ___TI_cleanup_ptr                                                                                
1     0000bdfe  ___TI_dtors_ptr                                                                                  
1     0000bdfa  ___TI_enable_exit_profile_output                                                                 
abs   ffffffff  ___TI_pprof_out_hndl                                                                             
abs   ffffffff  ___TI_prof_data_size                                                                             
abs   ffffffff  ___TI_prof_data_start                                                                            
abs   ffffffff  ___binit__                                                                                       
abs   ffffffff  ___c_args__                                                                                      
0     003f0536  ___cinit__                                                                                       
0     003ee700  ___etext__                                                                                       
0     003ec219  ___kernel_cosdf                                                                                  
0     003e98ae  ___kernel_rem_pio2                                                                               
0     003ebfe5  ___kernel_sindf                                                                                  
abs   ffffffff  ___pinit__                                                                                       
0     003ebb0e  ___rem_pio2f                                                                                     
0     003e8000  ___text__                                                                                        
0     003edef0  __args_main                                                                                      
1     0000c100  __lock                                                                                           
0     003ee224  __nop                                                                                            
0     003ee220  __register_lock                                                                                  
0     003ee21c  __register_unlock                                                                                
1     00000050  __stack                                                                                          
0     003ee6ff  __system_post_cinit                                                                              
0     003ee6f9  __system_pre_init                                                                                
1     0000c102  __unlock                                                                                         
1     0000bcd0  _aDummyDataTable                                                                                 
1     0000c11a  _abRecorderJustStopped                                                                           
1     0000c11b  _abRecorderRunning                                                                               
0     003ed3d9  _abort                                                                                           
0     003ee72a  _asParameterList                                                                                 
1     00009800  _au8RecBuffer0                                                                                   
1     0000a000  _au8RecParamBuffer0                                                                              
0     003f002a  _auchCRCHi                                                                                       
0     003f012a  _auchCRCLo                                                                                       
1     0000b43d  _bBadSizeCalculation                                                                             
1     0000b418  _bBareRamTable                                                                                   
1     0000bc82  _bDummyReqstDevRunning                                                                           
1     0000bc81  _bDummyStatsDevRunning                                                                           
1     0000b43c  _bElementsDifference                                                                             
1     0000b440  _bException                                                                                      
1     0000b463  _bFileFirstRequest                                                                               
0     003ee6ac  _bGetElementsDifference                                                                          
0     003edbf3  _bGetFileReadAccess                                                                              
1     0000b41c  _bHoldingRegTableBareRam                                                                         
1     0000b41b  _bHoldingRegTableSorted                                                                          
1     0000b417  _bInputRegsGlobal                                                                                
0     003edf31  _bIsValidEndAddressInBuffer                                                                      
0     003ee157  _bIsValidIndexFileTable                                                                          
1     0000b41a  _bLengthException                                                                                
1     0000b432  _bNeedResetBackup                                                                                
1     0000b442  _bParameterTroughFile                                                                            
1     0000b44d  _bReadOnlyFile                                                                                   
1     0000affc  _bRecorderParameterUsage                                                                         
1     0000bcb4  _bResetAllTimeMeasures                                                                           
1     0000b441  _bResult                                                                                         
1     0000bb4c  _bRunOnceGetSavedRecorderState                                                                   
1     0000affd  _bScopeParameterUsage                                                                            
1     0000bb4a  _bServiceWatchdog                                                                                
1     0000bb55  _bSkipProcessFlag                                                                                
1     0000b43f  _bStringDataExpected                                                                             
1     0000b43e  _bStringNullTerminationPossible                                                                  
1     0000c10c  _bUseSCIA_On_USB                                                                                 
1     0000b419  _bUsedDummyDataAddressInResponseData                                                             
1     0000afff  _breakData                                                                                       
0     003ecb2b  _c_int00                                                                                         
0     003ecf79  _configCPUTimer                                                                                  
0     003ed733  _copy_in                                                                                         
0     003ed7c0  _copysignl                                                                                       
1     0000bfe0  _cpuTimer0IntCount                                                                               
1     0000bfe1  _cpuTimer1IntCount                                                                               
1     0000bfe2  _cpuTimer2IntCount                                                                               
1     0000b42e  _eElementFixedArgument                                                                           
1     0000b461  _eException                                                                                      
1     0000bb63  _eModbusDefaultCommandRead                                                                       
1     0000bb65  _eModbusDefaultCommandReadArray                                                                  
1     0000bb64  _eModbusDefaultCommandWrite                                                                      
1     0000bb66  _eModbusDefaultCommandWriteArray                                                                 
1     0000bb43  _eResponseCodeStartRecParam0                                                                     
1     0000bb44  _eResponseCodeStartRecParam1                                                                     
1     0000bb45  _eResponseCodeStartRecParam2                                                                     
1     0000bcb5  _eResponseCode_CSMON_eInit                                                                       
1     0000bcb6  _eResponseCode_CSMON_eProcess                                                                    
1     0000bcbc  _eResponseCode_CSMON_eSetFlagProcessPassed                                                       
1     0000bcb8  _eResponseCode_CSMON_eSetParameter                                                               
1     0000bcb9  _eResponseCode_CSMON_eSetRecorder                                                                
1     0000bcba  _eResponseCode_CSMON_eSetScope                                                                   
1     0000bcb7  _eResponseCode_CSMON_eSetServerOnStatus                                                          
1     0000bcbb  _eResponseCode_CSMON_eSetTimerPeriodISRFunctionRegister                                          
0     003ee6f7  _eWriteParElement                                                                                
0     003ee109  _epilog_c28x_1                                                                                   
0     003ee10d  _epilog_c28x_2                                                                                   
1     0000c120  _errno                                                                                           
0     003ed3db  _exit                                                                                            
0     003eb362  _floorl                                                                                          
1     0000bfe8  _hours                                                                                           
0     003eba64  _ldexpl                                                                                          
1     0000bcbd  _limit_count_params                                                                              
0     003ea5b5  _main                                                                                            
1     0000bcbe  _maximum_count_params                                                                            
0     003ed9f6  _memcpy                                                                                          
1     0000bfe9  _minutes                                                                                         
1     0000b4f4  _nAddrFuncExecute                                                                                
1     0000b444  _nAddrQueue                                                                                      
1     0000b502  _nAddrRead                                                                                       
1     0000b4ee  _nAddrWrite                                                                                      
1     0000b451  _nBytesRead                                                                                      
1     0000b456  _nBytesResponseTotal                                                                             
1     0000b45d  _nCmd                                                                                            
1     0000b4fc  _nCurrentElementTableIndex                                                                       
1     0000b443  _nDeviceAddress                                                                                  
1     0000b445  _nFileNumber                                                                                     
1     0000b460  _nIDCode                                                                                         
1     0000b44b  _nLoopCount                                                                                      
1     0000b449  _nLoopIndex                                                                                      
1     0000b44a  _nLoopIndex2                                                                                     
1     0000b466  _nLoopIndexedRequest                                                                             
1     0000b44f  _nRecordNumber                                                                                   
1     0000b464  _nRecordNumberRequest                                                                            
1     0000affa  _nRecorderFreemasterIndex                                                                        
1     0000b45a  _nReferenceType                                                                                  
1     0000b44e  _nResponseBytes                                                                                  
1     0000beff  _nScopeIndexFreemaster                                                                           
1     0000affb  _nScopePrmFreemasterIndex                                                                        
1     0000b4f8  _nSizeAllRecords                                                                                 
1     0000b455  _nSizeBytes                                                                                      
1     0000b457  _nSizeCurrentRecord                                                                              
1     0000b4f6  _nSizeOffset                                                                                     
1     0000b4fe  _nSizeOffsetAdd                                                                                  
1     0000b4fa  _nSizeOffsetCurrentRecord                                                                        
1     0000b50e  _nSizeOffsetMultiplier                                                                           
1     0000b510  _nSizeOffsetRequestMultMode                                                                      
1     0000b450  _nSizeRead                                                                                       
1     0000b446  _nSizeReadBits                                                                                   
1     0000b45c  _nSizeReadBytes                                                                                  
1     0000b452  _nSizeReadCheck                                                                                  
1     0000b454  _nSizeReadCheckMemory                                                                            
1     0000b453  _nSizeReadRequest                                                                                
1     0000b465  _nSizeReadRequestLoop                                                                            
1     0000b458  _nSizeWrite                                                                                      
1     0000b44c  _nSizeWriteBits                                                                                  
1     0000b45b  _nSizeWriteBytes                                                                                 
1     0000b459  _nSizeWriteBytesAllParts                                                                         
1     0000b45e  _nSubCmd                                                                                         
1     0000b45f  _nSubCmdDiag                                                                                     
1     0000b512  _nTimeTickDelayModbus                                                                            
1     0000b516  _nTimeTickDelayModbusMax                                                                         
1     0000b514  _nTimeTickDelayModbusMin                                                                         
1     0000c104  _pBufferScope                                                                                    
1     0000b508  _pMessageIn                                                                                      
1     0000b50c  _pMessageInCopy                                                                                  
1     0000b50a  _pMessageOut                                                                                     
1     0000b506  _pResponseEnd                                                                                    
1     0000b504  _pResponseStart                                                                                  
1     0000c003  _pcm_nRxCheckSum                                                                                 
1     0000c002  _pcm_nRxTodo                                                                                     
1     0000c001  _pcm_nRxTodoEcho                                                                                 
1     0000c000  _pcm_nTxTodo                                                                                     
1     0000bc00  _pcm_pCommBuffer                                                                                 
1     0000c008  _pcm_pRxBuff                                                                                     
1     0000c006  _pcm_pTxBuff                                                                                     
1     0000c11c  _pcm_wFlags                                                                                      
1     0000c11d  _pcm_wFlagsRxTx                                                                                  
1     0000bfec  _pfCSMONFunction                                                                                 
1     0000c0a8  _pfDelayedFunction                                                                               
1     0000c0b0  _pfDelayedFunction_u8                                                                            
1     0000b500  _pfIndexGeneration                                                                               
1     0000b4c0  _pfWriteParElementCallbackFunction                                                               
0     003edc0c  _prolog_c28x_1                                                                                   
0     003edc10  _prolog_c28x_2                                                                                   
0     003edc18  _prolog_c28x_3                                                                                   
1     0000b4cc  _pu16ModbusCompleteReceiveMessageCounterThisDevice                                               
1     0000bcce  _pu16ModbusMessageCounter                                                                        
1     0000b4f0  _pu8ElementSizeTable                                                                             
1     0000b4f2  _pu8ElementSizeTablePtr                                                                          
1     0000b4c6  _realRxByteDelay                                                                                 
1     0000b4c8  _realRxByteDelayLastFail                                                                         
1     0000b433  _realRxByteDelayLastFailBytesReceived                                                            
0     003ee59e  _rsvd_ISR                                                                                        
1     0000bc94  _s16DummyCurrentPhaseA                                                                           
1     0000bc8b  _s16DummyCurrentPhaseAIdle                                                                       
1     0000bc83  _s16DummyCurrentPhaseAStartup                                                                    
1     0000bc87  _s16DummyCurrentPhaseAStop                                                                       
1     0000bc95  _s16DummyCurrentPhaseB                                                                           
1     0000bc8c  _s16DummyCurrentPhaseBIdle                                                                       
1     0000bc84  _s16DummyCurrentPhaseBStartup                                                                    
1     0000bc88  _s16DummyCurrentPhaseBStop                                                                       
1     0000bc96  _s16DummyCurrentPhaseC                                                                           
1     0000bc8d  _s16DummyCurrentPhaseCIdle                                                                       
1     0000bc85  _s16DummyCurrentPhaseCStartup                                                                    
1     0000bc89  _s16DummyCurrentPhaseCStop                                                                       
1     0000bca6  _s16DummyData                                                                                    
1     0000bc9a  _s16DummyDataTst                                                                                 
1     0000bc98  _s16DummyIncrementLoop                                                                           
1     0000bc90  _s16DummyIncrementLoopA                                                                          
1     0000bc91  _s16DummyIncrementLoopB                                                                          
1     0000bc92  _s16DummyIncrementLoopC                                                                          
1     0000bc8f  _s16DummyIncrementLoopCDiff                                                                      
1     0000bc93  _s16DummyIncrementLoopV                                                                          
1     0000bc97  _s16DummyVoltageDCLink                                                                           
1     0000bc8e  _s16DummyVoltageDCLinkIdle                                                                       
1     0000bc86  _s16DummyVoltageDCLinkStartup                                                                    
1     0000bc8a  _s16DummyVoltageDCLinkStop                                                                       
1     0000bc9b  _s16ScaleDataTst                                                                                 
1     0000bcc2  _s32DummyCurrentPhaseA                                                                           
1     0000bcc4  _s32DummyCurrentPhaseB                                                                           
1     0000bcc6  _s32DummyCurrentPhaseC                                                                           
1     0000bcca  _s32DummyIncrementLoop                                                                           
1     0000bcc8  _s32DummyVoltageDCLink                                                                           
1     0000c106  _sFileParameterNumericOffsetDefault                                                              
1     0000c11e  _sFileParameterNumericVisualTypeDefault                                                          
1     0000c060  _sHashKey                                                                                        
1     0000be00  _sRecConfigParam                                                                                 
1     0000bbde  _sRecExternParam                                                                                 
1     0000bd80  _sRecHandle                                                                                      
1     0000bd00  _sRecHandleParam                                                                                 
1     0000bfd0  _sRecStatusParam                                                                                 
1     0000c06a  _sRecStatusParamInternal                                                                         
1     0000bf00  _sScopeConfigParam                                                                               
1     0000be80  _sScopeHandlePrm                                                                                 
1     0000c11f  _sScopeStatusParam                                                                               
0     003eba64  _scalbnl                                                                                         
0     003ed4a2  _sci_echoback_init                                                                               
0     003ee18b  _sci_fifo_init                                                                                   
1     0000bfeb  _second_Passed                                                                                   
1     0000bfea  _seconds                                                                                         
0     003eacad  _sin                                                                                             
0     003eacad  _sinf                                                                                            
1     0000bb67  _u16ArrayReadAsHolding                                                                           
1     0000bcb3  _u16CountMaxParameterTest                                                                        
1     0000bcb2  _u16CountSetParameterFail                                                                        
1     0000bcb1  _u16CountSetParameterFree                                                                        
1     0000b430  _u16DataModeFixedArgument                                                                        
1     0000bcac  _u16DelayCtrlLoopOld_100nsec                                                                     
1     0000bcab  _u16DelayCtrlLoop_100nsec                                                                        
1     0000bcae  _u16DelayMainLoopOld_usec                                                                        
1     0000bcad  _u16DelayMainLoop_usec                                                                           
1     0000bc99  _u16DummyDataCnt                                                                                 
1     0000b447  _u16ElementSize                                                                                  
1     0000b41d  _u16FreeRunTimerPrescaller                                                                       
1     0000bcc0  _u16FreeRunningTimerPrescaller                                                                   
1     0000bcbf  _u16FreeRunningTimerTicksPerMicroSecond                                                          
0     003ee6b0  _u16GetIndexFileTable                                                                            
1     0000b43a  _u16IndexFileTable                                                                               
1     0000b462  _u16LastFileNumberRequest                                                                        
1     0000b438  _u16ModbusBadCSReceiveMessageCounter                                                             
1     0000b439  _u16ModbusBadTimeoutReceiveMessageCounter                                                        
1     0000b437  _u16ModbusBufferOverflowReceiveMessageCounter                                                    
1     0000b435  _u16ModbusCompleteReceiveMessageCounter                                                          
1     0000b436  _u16ModbusCompleteReceiveMessageCounterThisDevice                                                
1     0000b41e  _u16ModbusMinMessToMess_usec                                                                     
1     0000b434  _u16ModbusStartedReceiveMessageCounter                                                           
1     0000b42f  _u16NoStoreFixedArgument                                                                         
1     0000b431  _u16PasswordFixedArgument                                                                        
1     0000bcb0  _u16PeriodControlOld_usec                                                                        
1     0000bcaf  _u16PeriodControl_usec                                                                           
1     0000b414  _u16RegisterAddressDummyValue                                                                    
1     0000bfe5  _u16SecondCounter                                                                                
1     0000bfe4  _u16SecondPeriod                                                                                 
1     0000bb53  _u16SkipProcessCounter                                                                           
1     0000bb54  _u16SkipProcessTag                                                                               
1     0000bc9c  _u16TestData0                                                                                    
1     0000bc9d  _u16TestData1                                                                                    
1     0000bc9e  _u16TestData2                                                                                    
1     0000bc9f  _u16TestData3                                                                                    
1     0000bca0  _u16TestData4                                                                                    
1     0000bca1  _u16TestData5                                                                                    
1     0000bca2  _u16TestData6                                                                                    
1     0000bca3  _u16TestData7                                                                                    
1     0000bca4  _u16TestData8                                                                                    
1     0000bca5  _u16TestData9                                                                                    
1     0000affe  _u16TimeBase                                                                                     
1     0000c0e0  _u16TimerMainDelayedData                                                                         
1     0000c0e4  _u16TimerMainFunctionDelay                                                                       
1     0000c0e8  _u16TimerMainFunctionDelayCompare                                                                
1     0000c0ec  _u16TimerMainFunctionDelayCounter                                                                
1     0000bfe6  _u16TimerMainISRCounter                                                                          
1     0000bfe3  _u16TimerMainPeriod                                                                              
1     0000bca7  _u16WatchdogPrescaler                                                                            
1     0000bca8  _u16WatchdogPrescalerOld                                                                         
1     0000bca9  _u16WatchdogPrescalerTime                                                                        
1     0000bcaa  _u16WatchdogPrescalerTimeOld                                                                     
1     0000b4e0  _u32BufferAddressStart                                                                           
1     0000b4e2  _u32BufferSize                                                                                   
0     003edf41  _u32BytesMemoryToBytesModbus                                                                     
0     003edf51  _u32BytesModbusToBytesMemory                                                                     
1     0000bcd2  _u32DelayCtrlLoop_Ticks                                                                          
1     0000bcd4  _u32DelayMainLoop_Ticks                                                                          
1     0000b538  _u32DeviceLSPCLKFreq                                                                             
1     0000b53a  _u32DeviceLSPCLKFreqRoundAndMinErrorBaud                                                         
1     0000b53e  _u32DeviceSYSCLKFreq                                                                             
1     0000b468  _u32Dummy                                                                                        
1     0000bccc  _u32DummyDataCnt                                                                                 
1     0000b4a0  _u32ElementSizeTableB326_0                                                                       
1     0000b4a4  _u32ElementSizeTableB326_1                                                                       
1     0000b4a8  _u32ElementSizeTableB326_2                                                                       
1     0000b49e  _u32ElementSizeTableD384_0                                                                       
1     0000b4a2  _u32ElementSizeTableD384_1                                                                       
1     0000b4a6  _u32ElementSizeTableD384_2                                                                       
1     0000b4ec  _u32ElementsSizeMemory                                                                           
1     0000b4ea  _u32ElementsSizeModbus                                                                           
0     003ee055  _u32FitAddressCircleBufferInside                                                                 
0     003ee0fd  _u32FixAddressCircleBufferOverflow                                                               
1     0000bb6a  _u32FreeRunTimerSysClkDiv                                                                        
1     0000bb68  _u32FreeRunTimerSysClkMHz                                                                        
1     0000bcf0  _u32GetBaudError_PPM                                                                             
0     003ee6b4  _u32GetBufferAddressStart                                                                        
0     003ee6b8  _u32GetBufferSize                                                                                
0     003ee6bc  _u32GetSampleCountAvailable                                                                      
0     003ee6c0  _u32GetSampleCountBuffer                                                                         
0     003ee6c4  _u32GetStartSampleIndex                                                                          
1     0000b490  _u32ModbusMaxByteToByte                                                                          
1     0000b496  _u32ModbusMaxByteToByteExact                                                                     
1     0000b492  _u32ModbusMaxMessToMess                                                                          
1     0000b498  _u32ModbusMaxMessToMessExact                                                                     
1     0000b494  _u32ModbusMinMessToMess                                                                          
1     0000b49a  _u32ModbusTimeout                                                                                
1     0000b200  _u32ModbusTimeoutBuffer                                                                          
1     0000b4c2  _u32ModbusTimeoutBufferIndex                                                                     
1     0000bbb4  _u32NumericDummy                                                                                 
1     0000bcee  _u32ParamTime_Ticks                                                                              
1     0000c108  _u32RecorderLastFreeCounter                                                                      
1     0000c10a  _u32RecorderMicroSec                                                                             
1     0000b4c4  _u32RxTimeout                                                                                    
1     0000b4ca  _u32RxTimeoutLastFail                                                                            
1     0000b4e6  _u32SampleCountAvailable                                                                         
1     0000b4e4  _u32SampleCountBuffer                                                                            
1     0000b4e8  _u32StartSampleIndex                                                                             
1     0000bce8  _u32TimeCSMON_ISR_Max_Ticks                                                                      
1     0000bce6  _u32TimeCSMON_ISR_Ticks                                                                          
1     0000bcec  _u32TimeCtrlLoopMax_Ticks                                                                        
1     0000bcea  _u32TimeCtrlLoop_Ticks                                                                           
1     0000c0b8  _u32TimeDiffLast                                                                                 
1     0000c0c0  _u32TimeDiffNow                                                                                  
1     0000c0c8  _u32TimeDiffRead                                                                                 
1     0000bcde  _u32TimeMainLoopCycle_Bgn_Ticks                                                                  
1     0000bce0  _u32TimeMainLoopCycle_End_Ticks                                                                  
1     0000bce4  _u32TimeMainLoopCycle_Max_Ticks                                                                  
1     0000bce2  _u32TimeMainLoopCycle_Now_Ticks                                                                  
1     0000bcd6  _u32TimeMainLoopProcessCSMON_Bgn_Ticks                                                           
1     0000bcd8  _u32TimeMainLoopProcessCSMON_End_Ticks                                                           
1     0000bcdc  _u32TimeMainLoopProcessCSMON_Max_Ticks                                                           
1     0000bcda  _u32TimeMainLoopProcessCSMON_Now_Ticks                                                           
1     0000b49c  _u32WrongElementSizeTable                                                                        
1     0000bcf4  _u64DummyDataCnt                                                                                 
1     0000b448  _u8ElementSize                                                                                   
0     003ee6c8  _u8GetSampleSize                                                                                 
1     0000b43b  _u8SampleSize                                                                                    
1     0000c004  _u8UartIndex                                                                                     
1     0000b408  _u8UartModBusIndex                                                                               
0     003edf61  _vGetWatchdogPrescaler                                                                           
0     003edce1  _vSetBufferAddressStart                                                                          
0     003ee6cc  _vSetBufferAddressStartFromFunction                                                              
0     003ee6d0  _vSetBufferSize                                                                                  
0     003ec9cf  _vSetElementsSize                                                                                
0     003eda67  _vSetIndexFileTable                                                                              
0     003ed70f  _vSetSampleCountAvailable                                                                        
0     003ed8c9  _vSetSampleCountBuffer                                                                           
0     003ed927  _vSetSampleSize                                                                                  
0     003ecf3c  _vSetStartSampleIndex                                                                            
0     003ededf  _vSetWatchdogPrescalerTimeDiv                                                                    
abs   ffffffff  binit                                                                                            
0     003f0536  cinit                                                                                            
0     003f7ff6  code_start                                                                                       
0     003ee700  etext                                                                                            
abs   ffffffff  pinit                                                                                            


GLOBAL SYMBOLS: SORTED BY Symbol Address 

page  address   name                                                                                             
----  -------   ----                                                                                             
0     00008000  _InitFlash                                                                               003ee700
0     00008000  _RamfuncsRunStart                                                                                
0     0000801d  _MyCallbackFunction                                                                      003ee71d
0     00008025  _DSP28x_usDelay                                                                          003ee725
0     003e8000  .text                                                                                            
0     003e8000  _HMMODBUS_ReadFileRecord                                                                         
0     003e8000  ___text__                                                                                        
0     003e88a0  _HMMODBUS_bDecoder_OPT                                                                           
0     003e9133  _MODBUSREG_AddressTablesInit                                                                     
0     003e98ae  ___kernel_rem_pio2                                                                               
0     003e9f46  _HMMODBUS_WriteFileRecord                                                                        
0     003ea5b5  _main                                                                                            
0     003ea763  _CSMON_eSetUpRecParam                                                                            
0     003ea8e2  _CSMON_eProcess                                                                                  
0     003eaa4c  _HMMODBUS_Rx                                                                                     
0     003eab92  _HMMODBUS_vSetFreeRunTimerPrescaller                                                             
0     003eacad  _sin                                                                                             
0     003eacad  _sinf                                                                                            
0     003eadc1  LL$$DIV                                                                                          
0     003eadfd  LL$$MOD                                                                                          
0     003eae37  ULL$$DIV                                                                                         
0     003eae66  ULL$$MOD                                                                                         
0     003eaec8  _CSMON_vFileRecoderStatusFix                                                                     
0     003eafb9  _HMMODBUS_WriteHoldingRegister                                                                   
0     003eb0a8  _HMMODBUS_ReadHoldingRegister                                                                    
0     003eb191  _HMPROTOCOL_bDecoder                                                                             
0     003eb27a  _HMRECPRM_vProcess                                                                               
0     003eb362  _floorl                                                                                          
0     003eb44a  _ControlProcess                                                                                  
0     003eb52e  _CSMON_vSetupHoldingRegistersAndCoilsAddressTableFromCSMONParameterList                          
0     003eb604  _CSMON_vInitParameterListRealAddressRecordTables                                                 
0     003eb6ca  _HMDRV_vInit                                                                                     
0     003eb78c  _HMRECPRM_SetUpRec                                                                               
0     003eb848  _CSMON_eInit                                                                                     
0     003eb902  _HMREC_SetUpRec                                                                                  
0     003eb9ba  _HMDRV_CopyFromBufferInternalModbusBitField                                                      
0     003eba64  _ldexpl                                                                                          
0     003eba64  _scalbnl                                                                                         
0     003ebb0e  ___rem_pio2f                                                                                     
0     003ebbb5  _TMR2_ISR                                                                                        
0     003ebc58  _HMMODBUS_GetRealRegisterAddressAndSize                                                          
0     003ebcf5  FD$$ADD                                                                                          
0     003ebd91  _RecordersInitialization                                                                         
0     003ebe2a  _ParameterInitialization                                                                         
0     003ebec1  _HMDRV_CopyMemory                                                                                
0     003ebf53  _HMDRV_CopyToBufferInternalModbus                                                                
0     003ebfe5  ___kernel_sindf                                                                                  
0     003ec077  _CSMON_vSetDateTimeAutorization                                                                  
0     003ec107  FD$$DIV                                                                                          
0     003ec192  _HMRECPRM_SetUpRecParamStatusDateTime                                                            
0     003ec219  ___kernel_cosdf                                                                                  
0     003ec2a0  _HMDRV_CopyFromBufferInternalModbus                                                              
0     003ec323  FD$$MPY                                                                                          
0     003ec3a6  FS$$DIV                                                                                          
0     003ec429  _CSMON_vPrepareFileParameterAccessList                                                           
0     003ec4a8  _HMSERIAL_vProcessSCI                                                                            
0     003ec527  FS$$SUB                                                                                          
0     003ec52c  FS$$ADD                                                                                          
0     003ec59f  _HMSERIAL_Rx                                                                                     
0     003ec609  _HMMODBUS_vProcessSCI                                                                            
0     003ec671  _HMPROTOCOL_GetBoardInfo                                                                         
0     003ec6d9  _HMMODBUS_CopyFromBuffer                                                                         
0     003ec740  _HMREC_vProcess                                                                                  
0     003ec7a4  _MODBUSREG_vInit                                                                                 
0     003ec806  _InitPeripheralClocks                                                                            
0     003ec865  _UART_RXInterrupt                                                                                
0     003ec8c2  _GPIO_setPinConfigOutput                                                                         
0     003ec91c  FS$$MPY                                                                                          
0     003ec976  _CSMON_vUpdateDateTimeFromApplication                                                            
0     003ec9cf  _vSetElementsSize                                                                                
0     003eca28  _CSMON_bCheckValidDateTime                                                                       
0     003eca7f  _UART_DRV_RXInterrupt                                                                            
0     003ecad6  _MODBUSREG_FileRecorderExternalUpdateInit                                                        
0     003ecb2b  _c_int00                                                                                         
0     003ecb7f  _CSMON_eSetRecorderTriggerAtPosition                                                             
0     003ecbd1  _InitPll                                                                                         
0     003ecc22  _Device_CsmUnlock                                                                                
0     003ecc71  _HMMODBUS_GetRegisterFunction                                                                    
0     003eccbf  _HMRECPRM_StartRecParam                                                                          
0     003ecd0d  _HMMODBUS_vSendResponse                                                                          
0     003ecd59  _HMRECPRM_vTimeSync                                                                              
0     003ecda5  _HMMODBUS_CopyToBuffer                                                                           
0     003ecdec  _HMSCOPEPRM_SetUpScope                                                                           
0     003ece33  _ExternalParametersInitialization                                                                
0     003ece78  _HMSCOPEPRM_ReadScope                                                                            
0     003ecebb  _Interrupt_enable                                                                                
0     003ecefd  _HMDRV_CopyFromBufferInternal                                                                    
0     003ecf3c  _vSetStartSampleIndex                                                                            
0     003ecf79  _configCPUTimer                                                                                  
0     003ecfb5  _HMSCOPE_SetUpScope                                                                              
0     003ecff0  _CSMON_u16FindIndexParameterTable                                                                
0     003ed029  _CSMON_eSetRecorderConfigurationSkipSamples                                                      
0     003ed061  _Device_init                                                                                     
0     003ed099  _HMMODBUS_bDecoderInit_OPT                                                                       
0     003ed0d1  _UART_ReadDataRx                                                                                 
0     003ed109  _CSMON_vRecorderParamStartStopProcess                                                            
0     003ed13f  _HMSCOPE_ReadScope                                                                               
0     003ed175  _HMSERIAL_vSendResponse                                                                          
0     003ed1ab  _CSMON_u32GetRealAddressAndSizeOffsetFromParameter                                               
0     003ed1e0  _HMDRV_CopyToBufferInternal                                                                      
0     003ed215  _HMMODBUS_Listen                                                                                 
0     003ed248  _HMSERIAL_vProcessSCIFreemasterOnly                                                              
0     003ed276  _CSMON_eSetParameterInRecorderAtPosition                                                         
0     003ed2a3  _CSMON_eSetParameterInScopeAtPosition                                                            
0     003ed2d0  _CSMON_vInitRecorders                                                                            
0     003ed2fd  _CSMON_vSetupHoldingRegistersAndCoilsAddressTableAccessAll                                       
0     003ed357  _RecorderTimeFromLocalDateTime                                                                   
0     003ed384  _FillTimeData                                                                                    
0     003ed3af  FD$$CMP                                                                                          
0     003ed3d9  C$$EXIT                                                                                          
0     003ed3d9  _abort                                                                                           
0     003ed3db  _exit                                                                                            
0     003ed402  FS$$TOL                                                                                          
0     003ed42b  _CSMON_bAutorizationPasswordCheck                                                                
0     003ed453  _ScopesInitialization                                                                            
0     003ed47b  _HMSERIAL_vProcessSCITXISR                                                                       
0     003ed4a2  _sci_echoback_init                                                                               
0     003ed4c9  _HMDRV_CopyFromBufferInternalWithMaskModbus                                                      
0     003ed4ef  _MODBUSREG_vInitHoldingRegistersTableChangesExternalList                                         
0     003ed515  _HMSERIAL_Tx                                                                                     
0     003ed53a  FS$$TOI                                                                                          
0     003ed55f  _CSMON_vAutorizationReset                                                                        
0     003ed583  _HMPROTOCOL_ReadMem                                                                              
0     003ed5a7  _RecorderDateFromLocalDateTime                                                                   
0     003ed5cb  _SCIA_DRV_RXFIFOISR                                                                              
0     003ed5ef  _SCIA_DRV_TXFIFOISR                                                                              
0     003ed613  _SCIA_RXFIFOISR                                                                                  
0     003ed637  _SCIA_TXFIFOISR                                                                                  
0     003ed65b  _SCIB_DRV_RXFIFOISR                                                                              
0     003ed67f  _SCIB_DRV_TXFIFOISR                                                                              
0     003ed6a3  _SCIB_RXFIFOISR                                                                                  
0     003ed6c7  _SCIB_TXFIFOISR                                                                                  
0     003ed6eb  _TMR_vInit                                                                                       
0     003ed70f  _vSetSampleCountAvailable                                                                        
0     003ed733  _copy_in                                                                                         
0     003ed757  _CSMON_vRecorderParamSetupProcess                                                                
0     003ed77a  _HMLIB_vInit                                                                                     
0     003ed79d  _MODBUSREG_FileRecorderElementSizeTableUsedSizeUpdateInit                                        
0     003ed7c0  _copysignl                                                                                       
0     003ed7e3  I$$DIV                                                                                           
0     003ed7f4  I$$MOD                                                                                           
0     003ed805  _CSMON_eSetParameterListParameterID                                                              
0     003ed826  _HMDRV_CopyFromBufferInternalWithMask                                                            
0     003ed847  FD$$TOFS                                                                                         
0     003ed868  FS$$TOUL                                                                                         
0     003ed889  _HMDRV_vProcess                                                                                  
0     003ed8a9  _TMR_vInitCPUTimers                                                                              
0     003ed8c9  _vSetSampleCountBuffer                                                                           
0     003ed8e9  _HMMODBUS_vInit                                                                                  
0     003ed908  _InitPieCtrl                                                                                     
0     003ed927  _vSetSampleSize                                                                                  
0     003ed946  FD$$TOL                                                                                          
0     003ed965  _CSMON_eSetParameterListRealAddress                                                              
0     003ed982  _HMMODBUS_Tx                                                                                     
0     003ed99f  _HMRECPRM_GetRecBuffFreemaster                                                                   
0     003ed9bc  _HMREC_GetRecBuffFreemaster                                                                      
0     003ed9d9  FS$$TOU                                                                                          
0     003ed9f6  _memcpy                                                                                          
0     003eda13  _CSMON_vGetDateTime                                                                              
0     003eda2f  _HMRECPRM_vGetDateTime                                                                           
0     003eda4b  _SCI_clearInterruptStatus                                                                        
0     003eda67  _vSetIndexFileTable                                                                              
0     003eda83  FS$$TOFD                                                                                         
0     003eda9f  L$$TOFD                                                                                          
0     003edabb  _Device_initGPIO                                                                                 
0     003edad6  _HMDRV_AddressToBuffer                                                                           
0     003edaf1  FD$$TOUL                                                                                         
0     003edb0c  _HMMODBUS_vProcessSCITXISR                                                                       
0     003edb26  _HMRECPRM_StartRec                                                                               
0     003edb40  _HMSERIAL_vProcessSCITXISRFreemasterOnly                                                         
0     003edb5a  _SCI_disableInterrupt                                                                            
0     003edb74  _SCI_enableInterrupt                                                                             
0     003edb8e  L$$TOFS                                                                                          
0     003edba8  _CSMON_eSetParameterCountInRecorder                                                              
0     003edbc1  _HMDRV_AddressFromBuffer                                                                         
0     003edbda  _UART_vInit                                                                                      
0     003edbf3  _bGetFileReadAccess                                                                              
0     003edc0c  _prolog_c28x_1                                                                                   
0     003edc10  _prolog_c28x_2                                                                                   
0     003edc18  _prolog_c28x_3                                                                                   
0     003edc25  _CSMON_u32GetFreeRunningTimerMicroseconds                                                        
0     003edc3d  _HMLIB_vProcessSCITXISRWithIndex                                                                 
0     003edc55  _InitSysCtrl                                                                                     
0     003edc6d  LL$$AND                                                                                          
0     003edc75  LL$$OR                                                                                           
0     003edc7d  LL$$XOR                                                                                          
0     003edc85  _CSMON_vSaveRecorderConfig                                                                       
0     003edc9c  _HMMODBUS_vProcessTxDelay                                                                        
0     003edcb3  _HMPROTOCOL_WriteMem                                                                             
0     003edcca  _HMPROTOCOL_WriteMemMask                                                                         
0     003edce1  _vSetBufferAddressStart                                                                          
0     003edcf8  FS$$CMP                                                                                          
0     003edd0f  U$$TOFD                                                                                          
0     003edd26  _CSMON_eSetParameterCountInScope                                                                 
0     003edd3c  _HMDRV_AddressFromBufferBigEndian                                                                
0     003edd52  _HMRECPRM_Comparefloat                                                                           
0     003edd7c  _HMREC_StartRec                                                                                  
0     003edd91  _InitGpio                                                                                        
0     003edda6  _HMLIB_vProcessFastTD                                                                            
0     003eddba  _HMMODBUS_DelayedTx                                                                              
0     003eddce  _HMRECPRM_StopRecParam                                                                           
0     003edde2  _HMSERIAL_DelayedTx                                                                              
0     003eddf6  _CSMON_eSetFlagProcessPassed                                                                     
0     003ede09  UL$$TOFS                                                                                         
0     003ede1c  _CSMON_vFileParameterCountCheckSumUpdate                                                         
0     003ede2e  _HMDRV_GetStringLengthFromWordInternal                                                           
0     003ede40  _HMMODBUS_vSetupRegisterDummy                                                                    
0     003ede52  _HMRECPRM_CompareBOOL                                                                            
0     003ede64  _MODBUSREG_FileShortNameElementSizeandAddressUpdateInit                                          
0     003ede76  _MODBUSREG_vFileDenyAccess                                                                       
0     003ede88  _UART_TxIntDis                                                                                   
0     003ede9a  _UART_TxIntEna                                                                                   
0     003edeac  _CSMON_vSetDateTime                                                                              
0     003edebd  _HMSERIAL_vInit                                                                                  
0     003edece  _InitPieVectTable                                                                                
0     003ededf  _vSetWatchdogPrescalerTimeDiv                                                                    
0     003edef0  __args_main                                                                                      
0     003edf01  _CSMON_eSetParameterListRegisterFlags                                                            
0     003edf11  _Example_MemCopy                                                                                 
0     003edf21  _IntOsc1Sel                                                                                      
0     003edf31  _bIsValidEndAddressInBuffer                                                                      
0     003edf41  _u32BytesMemoryToBytesModbus                                                                     
0     003edf51  _u32BytesModbusToBytesMemory                                                                     
0     003edf61  _vGetWatchdogPrescaler                                                                           
0     003edf71  U$$TOFS                                                                                          
0     003edf81  _HMMODBUS_CalcCRC                                                                                
0     003edf90  _UART_IsTxEmpty                                                                                  
0     003edf9f  _HMDRV_GetStringLengthInternal                                                                   
0     003edfad  _HMRECPRM_Compare16S                                                                             
0     003edfbb  _HMRECPRM_Compare16U                                                                             
0     003edfc9  _HMRECPRM_Compare32S                                                                             
0     003edfd7  _HMRECPRM_Compare32U                                                                             
0     003edfe5  _HMRECPRM_Compare8S                                                                              
0     003edff3  _HMRECPRM_Compare8U                                                                              
0     003ee055  _u32FitAddressCircleBufferInside                                                                 
0     003ee063  FD$$SUB                                                                                          
0     003ee071  _CSMON_eResetParameterTable                                                                      
0     003ee07e  _CSMON_vInitHoldingRegistersTableChanges                                                         
0     003ee08b  _HMRECPRM_IsJustStopped                                                                          
0     003ee098  _HMRECPRM_StopRec                                                                                
0     003ee0a5  _HMREC_StopRec                                                                                   
0     003ee0b2  _MODBUSREG_vFileAllowAccess                                                                      
0     003ee0bf  _TIMER_vSetupTimerMainFunctionDelayCompare                                                       
0     003ee0cc  _UART_ReadDataRxAvailable                                                                        
0     003ee0d9  _HMLIB_vProcess                                                                                  
0     003ee0e5  _HMRECPRM_GetBufferRecParamPtrAddress                                                            
0     003ee0f1  _HMRECPRM_TriggerRec                                                                             
0     003ee0fd  _u32FixAddressCircleBufferOverflow                                                               
0     003ee109  _epilog_c28x_1                                                                                   
0     003ee10d  _epilog_c28x_2                                                                                   
0     003ee115  _HMMODBUS_vProcessFastTD                                                                         
0     003ee120  _HMRECPRM_IsRunning                                                                              
0     003ee12b  _HMSERIAL_vProcessFastTD                                                                         
0     003ee136  _MODBUSREG_vDataZero                                                                             
0     003ee141  _SCI_DRV_eGetModuleIndexFromBase                                                                 
0     003ee14c  _SCI_eGetModuleIndexFromBase                                                                     
0     003ee157  _bIsValidIndexFileTable                                                                          
0     003ee162  U$$DIV                                                                                           
0     003ee167  U$$MOD                                                                                           
0     003ee16d  _HMRECPRM_ClrLastStopDetectionToRecorderStopSamplesCounter                                       
0     003ee177  _HMRECPRM_GetRecStatus                                                                           
0     003ee181  _HMREC_GetRecStatus                                                                              
0     003ee18b  _sci_fifo_init                                                                                   
0     003ee195  _CSMON_eSetParameterListRegisterSize                                                             
0     003ee19e  _CSMON_eSetParameterListShortNaming                                                              
0     003ee1a7  _CSMON_eSetServerOnStatus                                                                        
0     003ee1b0  _HMLIB_vInitRecParamBuff                                                                         
0     003ee1b9  _HMMODBUS_vProcessFreeTimer                                                                      
0     003ee1c2  _HMMODBUS_vProcessRxDelay                                                                        
0     003ee1cb  _HMRECPRM_GetExternBufferRecParamLastPointedAddress                                              
0     003ee1d4  _HMRECPRM_GetExternBufferRecParamPtrAddress                                                      
0     003ee1dd  _HMREC_TriggerRec                                                                                
0     003ee1e6  _HMSCOPEPRM_GetBufferScopeParamAddress                                                           
0     003ee1ef  _HMSERIAL_vProcessFreeTimer                                                                      
0     003ee1f8  _TIMER_vResetTimerMainFunctionDelayCounter                                                       
0     003ee201  _TIMER_vSetupTimerMainDelayedFunctionSendData                                                    
0     003ee20a  _UART_PutChar                                                                                    
0     003ee213  _UART_ReadDataRxTimeDiff                                                                         
0     003ee21c  __register_unlock                                                                                
0     003ee220  __register_lock                                                                                  
0     003ee224  __nop                                                                                            
0     003ee225  FD$$NEG                                                                                          
0     003ee22e  _PRG_key0                                                                                        
0     003ee22f  _PRG_key1                                                                                        
0     003ee230  _PRG_key2                                                                                        
0     003ee231  _PRG_key3                                                                                        
0     003ee232  _PRG_key4                                                                                        
0     003ee233  _PRG_key5                                                                                        
0     003ee234  _PRG_key6                                                                                        
0     003ee235  _PRG_key7                                                                                        
0     003ee23e  _DisableDog                                                                                      
0     003ee246  _HMDRV_CopyFromBufferWithMaskModbus                                                              
0     003ee24e  _HMMODBUS_vSetupHoldingRegistersProcessFuncTable                                                 
0     003ee256  _HMMODBUS_vSetupHoldingRegistersRealAddressTable                                                 
0     003ee25e  _HMMODBUS_vSetupHoldingRegistersRegisterFlagsTable                                               
0     003ee266  _HMMODBUS_vSetupHoldingRegistersRegisterSizeTable                                                
0     003ee26e  _HMMODBUS_vSetupHoldingRegistersVirtAddressTable                                                 
0     003ee276  _HMRECPRM_GetExternRecParamAddress                                                               
0     003ee27e  _HMRECPRM_GetExternRecParamPtrMaximumUsedSampleCount                                             
0     003ee286  _HMRECPRM_GetExternRecParamPtrSampleSize                                                         
0     003ee28e  _HMRECPRM_GetRecParamPtrAvailableSampleCount                                                     
0     003ee296  _HMRECPRM_GetRecParamPtrLastSampleIndex                                                          
0     003ee29e  _HMRECPRM_GetRecParamPtrMaximumUsedSampleCount                                                   
0     003ee2a6  _HMRECPRM_GetRecParamPtrSampleSize                                                               
0     003ee2ae  _HMRECPRM_GetStatusRecParamAddress                                                               
0     003ee2b6  _HMRECPRM_vInit                                                                                  
0     003ee2be  _HMREC_vInit                                                                                     
0     003ee2c6  _DSP28x_DisableInt                                                                               
0     003ee2ca  _DSP28x_RestoreInt                                                                               
0     003ee2cd  _CSMON_eSetParameterListAccessLevel                                                              
0     003ee2d4  _CSMON_eSetParameterListBitsCount                                                                
0     003ee2db  _CSMON_eSetParameterListDataDefault                                                              
0     003ee2e2  _CSMON_eSetParameterListDataMaximum                                                              
0     003ee2e9  _CSMON_eSetParameterListDataMinimum                                                              
0     003ee2f0  _CSMON_eSetParameterListDataType                                                                 
0     003ee2f7  _CSMON_eSetParameterListFunctionCode                                                             
0     003ee2fe  _CSMON_eSetParameterListValueFormat                                                              
0     003ee305  _HMLIB_vProcessDifferentPorts                                                                    
0     003ee30c  _HMLIB_vProcessRecorders                                                                         
0     003ee313  _HMRECPRM_vResetAllStopDetections                                                                
0     003ee31a  _HMSCOPEPRM_GetStatusScopeParamAddress                                                           
0     003ee321  _MODBUSREG_vInitHoldingRegistersTableChanges                                                     
0     003ee328  _SCI_DRV_u32GetBaseFromModuleIndex                                                               
0     003ee32f  _SCI_u32GetBaseFromModuleIndex                                                                   
0     003ee336  _CPUTimer_setEmulationMode                                                                       
0     003ee33c  _HMRECPRM_SetUpRecBuff                                                                           
0     003ee342  _HMREC_SetUpRecBuff                                                                              
0     003ee348  _TIMER_u16ResetTimerMainPeriod                                                                   
0     003ee34e  _UART_DRV_GetChar                                                                                
0     003ee354  _UART_GetChar                                                                                    
0     003ee35a  _ADCINT1_ISR                                                                                     
0     003ee35f  _ADCINT2_ISR                                                                                     
0     003ee364  _ADCINT3_ISR                                                                                     
0     003ee369  _ADCINT4_ISR                                                                                     
0     003ee36e  _ADCINT5_ISR                                                                                     
0     003ee373  _ADCINT6_ISR                                                                                     
0     003ee378  _ADCINT7_ISR                                                                                     
0     003ee37d  _ADCINT8_ISR                                                                                     
0     003ee382  _ADCINT9_ISR                                                                                     
0     003ee387  _CLA1_INT1_ISR                                                                                   
0     003ee38c  _CLA1_INT2_ISR                                                                                   
0     003ee391  _CLA1_INT3_ISR                                                                                   
0     003ee396  _CLA1_INT4_ISR                                                                                   
0     003ee39b  _CLA1_INT5_ISR                                                                                   
0     003ee3a0  _CLA1_INT6_ISR                                                                                   
0     003ee3a5  _CLA1_INT7_ISR                                                                                   
0     003ee3aa  _CLA1_INT8_ISR                                                                                   
0     003ee3af  _CSMON_eSetAutoServiceWatchdogInternalSlowCalculationsInMainLoop                                 
0     003ee3b4  _CSMON_eSetFirmwareApplicationVersion                                                            
0     003ee3b9  _CSMON_eSetMaxTimeInISR                                                                          
0     003ee3be  _CSMON_eSetMinGuaranteedTimeBetweenTwoISRs                                                       
0     003ee3c3  _CSMON_u16ParametersAccessListIndexGenerate                                                      
0     003ee3c8  _CSMON_u32GetFreeRunningTimerTicks                                                               
0     003ee3cd  _CSMON_u32GetParameterAuxCheckSum                                                                
0     003ee3d2  _CSMON_u32GetParameterCheckSum                                                                   
0     003ee3d7  _CSMON_u32GetParameterListCheckSum                                                               
0     003ee3dc  _CSMON_u32GetParameterNumbCheckSum                                                               
0     003ee3e1  _CSMON_u32GetParameterShortNameCheckSum                                                          
0     003ee3e6  _CSMON_u32GetParameterStringCheckSum                                                             
0     003ee3eb  _CSMON_vSetDateTimeRequest                                                                       
0     003ee3f0  _DATALOG_ISR                                                                                     
0     003ee3f5  _DINTCH1_ISR                                                                                     
0     003ee3fa  _DINTCH2_ISR                                                                                     
0     003ee3ff  _DINTCH3_ISR                                                                                     
0     003ee404  _DINTCH4_ISR                                                                                     
0     003ee409  _DINTCH5_ISR                                                                                     
0     003ee40e  _DINTCH6_ISR                                                                                     
0     003ee413  _ECAN0INTA_ISR                                                                                   
0     003ee418  _ECAN1INTA_ISR                                                                                   
0     003ee41d  _ECAP1_INT_ISR                                                                                   
0     003ee422  _ECAP2_INT_ISR                                                                                   
0     003ee427  _ECAP3_INT_ISR                                                                                   
0     003ee42c  _EMPTY_ISR                                                                                       
0     003ee431  _EMUINT_ISR                                                                                      
0     003ee436  _EPWM1_INT_ISR                                                                                   
0     003ee43b  _EPWM1_TZINT_ISR                                                                                 
0     003ee440  _EPWM2_INT_ISR                                                                                   
0     003ee445  _EPWM2_TZINT_ISR                                                                                 
0     003ee44a  _EPWM3_INT_ISR                                                                                   
0     003ee44f  _EPWM3_TZINT_ISR                                                                                 
0     003ee454  _EPWM4_INT_ISR                                                                                   
0     003ee459  _EPWM4_TZINT_ISR                                                                                 
0     003ee45e  _EPWM5_INT_ISR                                                                                   
0     003ee463  _EPWM5_TZINT_ISR                                                                                 
0     003ee468  _EPWM6_INT_ISR                                                                                   
0     003ee46d  _EPWM6_TZINT_ISR                                                                                 
0     003ee472  _EPWM7_INT_ISR                                                                                   
0     003ee477  _EPWM7_TZINT_ISR                                                                                 
0     003ee47c  _EPWM8_INT_ISR                                                                                   
0     003ee481  _EPWM8_TZINT_ISR                                                                                 
0     003ee486  _EQEP1_INT_ISR                                                                                   
0     003ee48b  _EQEP2_INT_ISR                                                                                   
0     003ee490  _HMLIB_vProcessSamePort                                                                          
0     003ee495  _HMLIB_vRecorder0                                                                                
0     003ee49a  _HMMODBUS_bGetReceivedMessage                                                                    
0     003ee49f  _HMMODBUS_vFileTable                                                                             
0     003ee4a4  _HMRECPRM_vDisableAllStopDetections                                                              
0     003ee4a9  _HRCAP1_INT_ISR                                                                                  
0     003ee4ae  _HRCAP2_INT_ISR                                                                                  
0     003ee4b3  _HRCAP3_INT_ISR                                                                                  
0     003ee4b8  _HRCAP4_INT_ISR                                                                                  
0     003ee4bd  _I2CINT1A_ISR                                                                                    
0     003ee4c2  _I2CINT2A_ISR                                                                                    
0     003ee4c7  _ILLEGAL_ISR                                                                                     
0     003ee4cc  _INT13_ISR                                                                                       
0     003ee4d1  _INT14_ISR                                                                                       
0     003ee4d6  _IntDefaultHandler                                                                               
0     003ee4db  _LUF_ISR                                                                                         
0     003ee4e0  _LVF_ISR                                                                                         
0     003ee4e5  _MODBUSREG_vSetTableNameAddress                                                                  
0     003ee4ea  _MODBUSREG_vSetTableRealAddressInRam                                                             
0     003ee4ef  _MODBUSREG_vSetTableRegisterFlags                                                                
0     003ee4f4  _MODBUSREG_vSetTableRegisterSize                                                                 
0     003ee4f9  _MODBUSREG_vSetTableVirtAddress                                                                  
0     003ee4fe  _MRINTA_ISR                                                                                      
0     003ee503  _MXINTA_ISR                                                                                      
0     003ee508  _NMI_ISR                                                                                         
0     003ee50d  _PIE_RESERVED                                                                                    
0     003ee512  _RTOSINT_ISR                                                                                     
0     003ee517  _SCIRXINTA_ISR                                                                                   
0     003ee51c  _SCIRXINTB_ISR                                                                                   
0     003ee521  _SCITXINTA_ISR                                                                                   
0     003ee526  _SCITXINTB_ISR                                                                                   
0     003ee52b  _SPIRXINTA_ISR                                                                                   
0     003ee530  _SPIRXINTB_ISR                                                                                   
0     003ee535  _SPITXINTA_ISR                                                                                   
0     003ee53a  _SPITXINTB_ISR                                                                                   
0     003ee53f  _TIMER_vSetupTimerMainDelayedData                                                                
0     003ee544  _TINT0_ISR                                                                                       
0     003ee549  _USB0_INT_ISR                                                                                    
0     003ee54e  _USER10_ISR                                                                                      
0     003ee553  _USER11_ISR                                                                                      
0     003ee558  _USER12_ISR                                                                                      
0     003ee55d  _USER1_ISR                                                                                       
0     003ee562  _USER2_ISR                                                                                       
0     003ee567  _USER3_ISR                                                                                       
0     003ee56c  _USER4_ISR                                                                                       
0     003ee571  _USER5_ISR                                                                                       
0     003ee576  _USER6_ISR                                                                                       
0     003ee57b  _USER7_ISR                                                                                       
0     003ee580  _USER8_ISR                                                                                       
0     003ee585  _USER9_ISR                                                                                       
0     003ee58a  _WAKEINT_ISR                                                                                     
0     003ee58f  _XINT1_ISR                                                                                       
0     003ee594  _XINT2_ISR                                                                                       
0     003ee599  _XINT3_ISR                                                                                       
0     003ee59e  _rsvd_ISR                                                                                        
0     003ee5a3  FS$$NEG                                                                                          
0     003ee5a8  _CSMON_eApplyParameterChanges                                                                    
0     003ee5ac  _CSMON_eRegisterWriteParElementCallbackFunction                                                  
0     003ee5b0  _CSMON_eSetInternalTimerPeriod                                                                   
0     003ee5b4  _CSMON_eSetTimerPeriodISRFunctionRegister                                                        
0     003ee5b8  _CSMON_u32GetBaudError_PPM                                                                       
0     003ee5bc  _CSMON_vAddSetupRecorderParameterMask                                                            
0     003ee5c0  _CSMON_vInitScopes                                                                               
0     003ee5c4  _CSMON_vSetStartRecorderParameterMask                                                            
0     003ee5c8  _HMDRV_SetExAddr                                                                                 
0     003ee5cc  _HMDRV_u32GetDeviceSYSCLKFreq                                                                    
0     003ee5d0  _HMDRV_u32GetSCIErrorPPM                                                                         
0     003ee5d4  _HMLIB_vRecorderParam0                                                                           
0     003ee5d8  _HMMODBUS_u32GetAddressMessageCounterThisDevice                                                  
0     003ee5dc  _HMMODBUS_vSetAddressMessageCounterThisDevice                                                    
0     003ee5e0  _HMMODBUS_vSetDeviceIDMajorMinorRevision                                                         
0     003ee5e4  _HMMODBUS_vSetDeviceIDMajorMinorRevisionLength                                                   
0     003ee5e8  _HMMODBUS_vSetDeviceIDModelName                                                                  
0     003ee5ec  _HMMODBUS_vSetDeviceIDModelNameLength                                                            
0     003ee5f0  _HMMODBUS_vSetDeviceIDProductCode                                                                
0     003ee5f4  _HMMODBUS_vSetDeviceIDProductCodeLength                                                          
0     003ee5f8  _HMMODBUS_vSetDeviceIDProductName                                                                
0     003ee5fc  _HMMODBUS_vSetDeviceIDProductNameLength                                                          
0     003ee600  _HMMODBUS_vSetDeviceIDUserApplicationName                                                        
0     003ee604  _HMMODBUS_vSetDeviceIDUserApplicationNameLength                                                  
0     003ee608  _HMMODBUS_vSetDeviceIDUserReserve0                                                               
0     003ee60c  _HMMODBUS_vSetDeviceIDUserReserve0Length                                                         
0     003ee610  _HMMODBUS_vSetDeviceIDUserReserve1                                                               
0     003ee614  _HMMODBUS_vSetDeviceIDUserReserve1Length                                                         
0     003ee618  _HMMODBUS_vSetDeviceIDUserReserve2                                                               
0     003ee61c  _HMMODBUS_vSetDeviceIDUserReserve2Length                                                         
0     003ee620  _HMMODBUS_vSetDeviceIDVendorName                                                                 
0     003ee624  _HMMODBUS_vSetDeviceIDVendorNameLength                                                           
0     003ee628  _HMMODBUS_vSetDeviceIDVendorUrl                                                                  
0     003ee62c  _HMMODBUS_vSetDeviceIDVendorUrlLength                                                            
0     003ee630  _HMMODBUS_vSetServerIDDataAddress                                                                
0     003ee634  _HMMODBUS_vSetServerIDLength                                                                     
0     003ee638  _HMMODBUS_vSetServerIDNumber                                                                     
0     003ee63c  _HMMODBUS_vSetServerOnStatus                                                                     
0     003ee640  _HMMODBUS_vSetupHoldingRegistersAccessTableInRam                                                 
0     003ee644  _HMMODBUS_vSetupWriteParElementCallbackFunction                                                  
0     003ee648  _IntMasterDisable                                                                                
0     003ee64c  _IntMasterEnable                                                                                 
0     003ee650  _MODBUSREG_u16GetHoldRegFillCount                                                                
0     003ee654  _MODBUSREG_u16GetTableRegisterFlagsElementOffset                                                 
0     003ee658  _MODBUSREG_u16GetTableRegisterSizeElementOffset                                                  
0     003ee65c  _MODBUSREG_u16GetTableVirtAddressElementOffset                                                   
0     003ee660  _MODBUSREG_u32GetRegisterAccessTableInRam                                                        
0     003ee664  _MODBUSREG_u32GetTableRegisterFlags                                                              
0     003ee668  _MODBUSREG_u32GetTableRegisterSize                                                               
0     003ee66c  _MODBUSREG_u32GetTableVirtAddress                                                                
0     003ee670  _MODBUSREG_vSetFileAutorization_FunctionAfterWriteFileRecordTable                                
0     003ee674  _MODBUSREG_vSetFileParamCount_FunctionBeforeReadFileRecord                                       
0     003ee678  _MODBUSREG_vSetFileRTC_FunctionAfterReadFileRecord                                               
0     003ee67c  _MODBUSREG_vSetFileRTC_FunctionAfterWriteFileRecord                                              
0     003ee680  _MODBUSREG_vSetFileRecConfig_FunctionAfterWriteFileRecord                                        
0     003ee684  _MODBUSREG_vSetFileRecStatus_FunctionIndexGenerationFileRecord                                   
0     003ee688  _MODBUSREG_vSetHoldRegFillCount                                                                  
0     003ee68c  _MODBUSREG_vSetParamCount                                                                        
0     003ee690  _MODBUSREG_vSetParamListAddress                                                                  
0     003ee694  _MODBUSREG_vSetParamNumbAddress                                                                  
0     003ee698  _MODBUSREG_vSetParamRecorderConfigAddress                                                        
0     003ee69c  _MODBUSREG_vSetParamScopeConfigAddress                                                           
0     003ee6a0  _TIMER_vGetTimerMainRollingCounter                                                               
0     003ee6a4  _TIMER_vSetupTimerMainCSMONFunction                                                              
0     003ee6a8  _TMR_u16GetFreeRunTimerPrescaller                                                                
0     003ee6ac  _bGetElementsDifference                                                                          
0     003ee6b0  _u16GetIndexFileTable                                                                            
0     003ee6b4  _u32GetBufferAddressStart                                                                        
0     003ee6b8  _u32GetBufferSize                                                                                
0     003ee6bc  _u32GetSampleCountAvailable                                                                      
0     003ee6c0  _u32GetSampleCountBuffer                                                                         
0     003ee6c4  _u32GetStartSampleIndex                                                                          
0     003ee6c8  _u8GetSampleSize                                                                                 
0     003ee6cc  _vSetBufferAddressStartFromFunction                                                              
0     003ee6d0  _vSetBufferSize                                                                                  
0     003ee6d4  _SetDBGIER                                                                                       
0     003ee6d7  _CSMON_eSetParameter                                                                             
0     003ee6da  _CSMON_u32GetModbusMessageCounterRegisterRealAddress                                             
0     003ee6dd  _CSMON_vSetModbusMessageCounterRegisterRealAddress                                               
0     003ee6e0  _HMLIB_vRecorderParamTimeSync                                                                    
0     003ee6e3  _HMRECPRM_GetTimeBase                                                                            
0     003ee6e6  _MODBUSREG_u32GetAddressMessageCounterThisDevice                                                 
0     003ee6e9  _MODBUSREG_vSetAddressMessageCounterThisDevice                                                   
0     003ee6ec  _UART_TXInterrupt                                                                                
0     003ee6ef  _HMRECPRM_AbortRec                                                                               
0     003ee6f1  _HMRECPRM_GetRecBuffSize                                                                         
0     003ee6f3  _HMREC_AbortRec                                                                                  
0     003ee6f5  _HMREC_GetRecBuffSize                                                                            
0     003ee6f7  _eWriteParElement                                                                                
0     003ee6f9  __system_pre_init                                                                                
0     003ee6fb  _HMPROTOCOL_vInit                                                                                
0     003ee6fc  _UART_DRV_TXInterrupt                                                                            
0     003ee6fd  _UART_TxDis                                                                                      
0     003ee6fe  _UART_TxEna                                                                                      
0     003ee6ff  __system_post_cinit                                                                              
0     003ee700  _RamfuncsLoadStart                                                                               
0     003ee700  ___etext__                                                                                       
0     003ee700  etext                                                                                            
0     003ee729  _RamfuncsLoadEnd                                                                                 
0     003ee72a  _asParameterList                                                                                 
0     003f002a  _auchCRCHi                                                                                       
0     003f012a  _auchCRCLo                                                                                       
0     003f022a  _PieVectTableInit                                                                                
0     003f03ae  _CSMON_asAccessLevelPasswords                                                                    
0     003f04e2  _CSMON_au8FileImplementedFunctionCodes                                                           
0     003f0506  _CSMON_au8FileParameterNumbElementsCountInPartTable                                              
0     003f052c  _CSMON_au8FileParameterListElementsCountInPartTable                                              
0     003f0536  ___cinit__                                                                                       
0     003f0536  cinit                                                                                            
0     003f7ff6  code_start                                                                                       
1     00000050  __stack                                                                                          
1     000003d0  __STACK_END                                                                                      
1     00000880  _DevEmuRegs                                                                                      
1     00000985  _SysPwrCtrlRegs                                                                                  
1     00000a80  _FlashRegs                                                                                       
1     00000ae0  _CsmRegs                                                                                         
1     00000b00  _AdcResult                                                                                       
1     00000c00  _CpuTimer0Regs                                                                                   
1     00000c08  _CpuTimer1Regs                                                                                   
1     00000c10  _CpuTimer2Regs                                                                                   
1     00000ce0  _PieCtrlRegs                                                                                     
1     00000d00  _EmuKey                                                                                          
1     00000d00  _PieVectTable                                                                                    
1     00000d01  _EmuBMode                                                                                        
1     00000d02  _Flash_CallbackPtr                                                                               
1     00000d04  _Flash_CPUScaleFactor                                                                            
1     00001000  _DmaRegs                                                                                         
1     00001400  _Cla1Regs                                                                                        
1     00004000  _Usb0Regs                                                                                        
1     00005000  _McbspaRegs                                                                                      
1     00006000  _ECanaRegs                                                                                       
1     00006040  _ECanaLAMRegs                                                                                    
1     00006080  _ECanaMOTSRegs                                                                                   
1     000060c0  _ECanaMOTORegs                                                                                   
1     00006100  _ECanaMboxes                                                                                     
1     00006400  _Comp1Regs                                                                                       
1     00006420  _Comp2Regs                                                                                       
1     00006440  _Comp3Regs                                                                                       
1     00006800  _EPwm1Regs                                                                                       
1     00006840  _EPwm2Regs                                                                                       
1     00006880  _EPwm3Regs                                                                                       
1     000068c0  _EPwm4Regs                                                                                       
1     00006900  _EPwm5Regs                                                                                       
1     00006940  _EPwm6Regs                                                                                       
1     00006980  _EPwm7Regs                                                                                       
1     000069c0  _EPwm8Regs                                                                                       
1     00006a00  _ECap1Regs                                                                                       
1     00006a20  _ECap2Regs                                                                                       
1     00006a40  _ECap3Regs                                                                                       
1     00006ac0  _HRCap1Regs                                                                                      
1     00006ae0  _HRCap2Regs                                                                                      
1     00006b00  _EQep1Regs                                                                                       
1     00006b40  _EQep2Regs                                                                                       
1     00006c80  _HRCap3Regs                                                                                      
1     00006ca0  _HRCap4Regs                                                                                      
1     00006f80  _GpioCtrlRegs                                                                                    
1     00006fc0  _GpioDataRegs                                                                                    
1     00006fe0  _GpioIntRegs                                                                                     
1     00007010  _SysCtrlRegs                                                                                     
1     00007040  _SpiaRegs                                                                                        
1     00007050  _SciaRegs                                                                                        
1     00007060  _NmiIntruptRegs                                                                                  
1     00007070  _XIntruptRegs                                                                                    
1     00007100  _AdcRegs                                                                                         
1     00007740  _SpibRegs                                                                                        
1     00007750  _ScibRegs                                                                                        
1     00007900  _I2caRegs                                                                                        
1     00008c00  _MODBUSREG_u32RegisterAccessTableInRam                                                           
1     00009000  _UARTRxBufferTimeDiff                                                                            
1     00009800  _au8RecBuffer0                                                                                   
1     0000a000  _au8RecParamBuffer0                                                                              
1     0000a800  _UARTRxBuffer                                                                                    
1     0000ac00  _MODBUSREG_asFileTable                                                                           
1     0000afde  _CSMON_au32FileParameterNumericFileRecordElementsRealAddressTable                                
1     0000affa  _nRecorderFreemasterIndex                                                                        
1     0000affb  _nScopePrmFreemasterIndex                                                                        
1     0000affc  _bRecorderParameterUsage                                                                         
1     0000affd  _bScopeParameterUsage                                                                            
1     0000affe  _u16TimeBase                                                                                     
1     0000afff  _breakData                                                                                       
1     0000b000  _UART_DRV_RxBufferTimeDiff                                                                       
1     0000b200  _u32ModbusTimeoutBuffer                                                                          
1     0000b400  _HMMODBUS_nTxTodo                                                                                
1     0000b401  _HMMODBUS_nRxTodoEcho                                                                            
1     0000b402  _HMMODBUS_nLastResponseCmd                                                                       
1     0000b403  _HMMODBUS_nLastResponseCode                                                                      
1     0000b404  _HMMODBUS_nRxTodo                                                                                
1     0000b405  _HMMODBUS_nRxCheckSum                                                                            
1     0000b406  _HMMODBUS_nTxCheckSum                                                                            
1     0000b407  _HMMODBUS_bOverflowReached                                                                       
1     0000b408  _u8UartModBusIndex                                                                               
1     0000b409  _HMMODBUS_u8DeviceAddress                                                                        
1     0000b40a  _HMMODBUS_u16HoldingRegisterVirtAddressTableOffset                                               
1     0000b40b  _HMMODBUS_u16HoldingRegisterVirtAddressTableSize                                                 
1     0000b40c  _HMMODBUS_u16HoldingRegisterRegisterSizeTableOffset                                              
1     0000b40d  _HMMODBUS_u16HoldingRegisterRegisterSizeTableSize                                                
1     0000b40e  _HMMODBUS_u16HoldingRegisterRegisterFlagsTableOffset                                             
1     0000b40f  _HMMODBUS_u16HoldingRegisterRegisterFlagsTableSize                                               
1     0000b410  _HMMODBUS_u16HoldingRegisterRealAddressTableOffset                                               
1     0000b411  _HMMODBUS_u16HoldingRegisterRealAddressTableSize                                                 
1     0000b412  _HMMODBUS_u16HoldingRegisterProcessFuncTableOffset                                               
1     0000b413  _HMMODBUS_u16HoldingRegisterProcessFuncTableSize                                                 
1     0000b414  _u16RegisterAddressDummyValue                                                                    
1     0000b415  _HMMODBUS_u32RegisterAddressDummyVirtAddress                                                     
1     0000b416  _HMMODBUS_bReceivedMessage                                                                       
1     0000b417  _bInputRegsGlobal                                                                                
1     0000b418  _bBareRamTable                                                                                   
1     0000b419  _bUsedDummyDataAddressInResponseData                                                             
1     0000b41a  _bLengthException                                                                                
1     0000b41b  _bHoldingRegTableSorted                                                                          
1     0000b41c  _bHoldingRegTableBareRam                                                                         
1     0000b41d  _u16FreeRunTimerPrescaller                                                                       
1     0000b41e  _u16ModbusMinMessToMess_usec                                                                     
1     0000b41f  _HMMODBUS_u8ReadServerIDLength                                                                   
1     0000b420  _HMMODBUS_u8ReadServerIDNumber                                                                   
1     0000b421  _HMMODBUS_u8ReadServerOnStatus                                                                   
1     0000b422  _HMMODBUS_u8ReadDeviceIDConfLvlMask                                                              
1     0000b423  _HMMODBUS_u8ReadDeviceIDConfLvl                                                                  
1     0000b424  _HMMODBUS_u8ReadDeviceIDVendorNameLength                                                         
1     0000b425  _HMMODBUS_u8ReadDeviceIDProductCodeLength                                                        
1     0000b426  _HMMODBUS_u8ReadDeviceIDMajorMinorRevisionLength                                                 
1     0000b427  _HMMODBUS_u8ReadDeviceIDVendorUrlLength                                                          
1     0000b428  _HMMODBUS_u8ReadDeviceIDProductNameLength                                                        
1     0000b429  _HMMODBUS_u8ReadDeviceIDModelNameLength                                                          
1     0000b42a  _HMMODBUS_u8ReadDeviceIDUserApplicationNameLength                                                
1     0000b42b  _HMMODBUS_u8ReadDeviceIDUserReserve0Length                                                       
1     0000b42c  _HMMODBUS_u8ReadDeviceIDUserReserve1Length                                                       
1     0000b42d  _HMMODBUS_u8ReadDeviceIDUserReserve2Length                                                       
1     0000b42e  _eElementFixedArgument                                                                           
1     0000b42f  _u16NoStoreFixedArgument                                                                         
1     0000b430  _u16DataModeFixedArgument                                                                        
1     0000b431  _u16PasswordFixedArgument                                                                        
1     0000b432  _bNeedResetBackup                                                                                
1     0000b433  _realRxByteDelayLastFailBytesReceived                                                            
1     0000b434  _u16ModbusStartedReceiveMessageCounter                                                           
1     0000b435  _u16ModbusCompleteReceiveMessageCounter                                                          
1     0000b436  _u16ModbusCompleteReceiveMessageCounterThisDevice                                                
1     0000b437  _u16ModbusBufferOverflowReceiveMessageCounter                                                    
1     0000b438  _u16ModbusBadCSReceiveMessageCounter                                                             
1     0000b439  _u16ModbusBadTimeoutReceiveMessageCounter                                                        
1     0000b43a  _u16IndexFileTable                                                                               
1     0000b43b  _u8SampleSize                                                                                    
1     0000b43c  _bElementsDifference                                                                             
1     0000b43d  _bBadSizeCalculation                                                                             
1     0000b43e  _bStringNullTerminationPossible                                                                  
1     0000b43f  _bStringDataExpected                                                                             
1     0000b440  _bException                                                                                      
1     0000b441  _bResult                                                                                         
1     0000b442  _bParameterTroughFile                                                                            
1     0000b443  _nDeviceAddress                                                                                  
1     0000b444  _nAddrQueue                                                                                      
1     0000b445  _nFileNumber                                                                                     
1     0000b446  _nSizeReadBits                                                                                   
1     0000b447  _u16ElementSize                                                                                  
1     0000b448  _u8ElementSize                                                                                   
1     0000b449  _nLoopIndex                                                                                      
1     0000b44a  _nLoopIndex2                                                                                     
1     0000b44b  _nLoopCount                                                                                      
1     0000b44c  _nSizeWriteBits                                                                                  
1     0000b44d  _bReadOnlyFile                                                                                   
1     0000b44e  _nResponseBytes                                                                                  
1     0000b44f  _nRecordNumber                                                                                   
1     0000b450  _nSizeRead                                                                                       
1     0000b451  _nBytesRead                                                                                      
1     0000b452  _nSizeReadCheck                                                                                  
1     0000b453  _nSizeReadRequest                                                                                
1     0000b454  _nSizeReadCheckMemory                                                                            
1     0000b455  _nSizeBytes                                                                                      
1     0000b456  _nBytesResponseTotal                                                                             
1     0000b457  _nSizeCurrentRecord                                                                              
1     0000b458  _nSizeWrite                                                                                      
1     0000b459  _nSizeWriteBytesAllParts                                                                         
1     0000b45a  _nReferenceType                                                                                  
1     0000b45b  _nSizeWriteBytes                                                                                 
1     0000b45c  _nSizeReadBytes                                                                                  
1     0000b45d  _nCmd                                                                                            
1     0000b45e  _nSubCmd                                                                                         
1     0000b45f  _nSubCmdDiag                                                                                     
1     0000b460  _nIDCode                                                                                         
1     0000b461  _eException                                                                                      
1     0000b462  _u16LastFileNumberRequest                                                                        
1     0000b463  _bFileFirstRequest                                                                               
1     0000b464  _nRecordNumberRequest                                                                            
1     0000b465  _nSizeReadRequestLoop                                                                            
1     0000b466  _nLoopIndexedRequest                                                                             
1     0000b468  _u32Dummy                                                                                        
1     0000b46a  _HMMODBUS_pTxBuff                                                                                
1     0000b46c  _HMMODBUS_pRxBuff                                                                                
1     0000b46e  _HMMODBUS_pu32HoldingRegisterAccessTableInRam                                                    
1     0000b470  _HMMODBUS_u32HoldingRegisterAddressTableSize                                                     
1     0000b472  _HMMODBUS_u32HoldingRegisterAddressTableInRamSize                                                
1     0000b474  _HMMODBUS_u32HoldingRegisterVirtAddressTable                                                     
1     0000b476  _HMMODBUS_u32HoldingRegisterRegisterSizeTable                                                    
1     0000b478  _HMMODBUS_u32HoldingRegisterRegisterFlagsTable                                                   
1     0000b47a  _HMMODBUS_u32HoldingRegisterRealAddressTable                                                     
1     0000b47c  _HMMODBUS_u32HoldingRegisterProcessFuncTable                                                     
1     0000b47e  _HMMODBUS_u32TxDelayCounter                                                                      
1     0000b480  _HMMOSBUS_nFileWritePrimaryAddrReadLast                                                          
1     0000b482  _HMMOSBUS_nDummy                                                                                 
1     0000b484  _HMMODBUS_u32RegisterAddressInRamDummyRealAddress                                                
1     0000b486  _HMMODBUS_u32RegisterAddressInRamDummyProcessFunc                                                
1     0000b488  _HMMODBUS_u32FreeRunTimerReceivedMessage                                                         
1     0000b48a  _HMMODBUS_pasFileAddressTable                                                                    
1     0000b48c  _HMMODBUS_u32FileCount                                                                           
1     0000b48e  _HMMODBUS_u32DeviceSYSCLKFreq                                                                    
1     0000b490  _u32ModbusMaxByteToByte                                                                          
1     0000b492  _u32ModbusMaxMessToMess                                                                          
1     0000b494  _u32ModbusMinMessToMess                                                                          
1     0000b496  _u32ModbusMaxByteToByteExact                                                                     
1     0000b498  _u32ModbusMaxMessToMessExact                                                                     
1     0000b49a  _u32ModbusTimeout                                                                                
1     0000b49c  _u32WrongElementSizeTable                                                                        
1     0000b49e  _u32ElementSizeTableD384_0                                                                       
1     0000b4a0  _u32ElementSizeTableB326_0                                                                       
1     0000b4a2  _u32ElementSizeTableD384_1                                                                       
1     0000b4a4  _u32ElementSizeTableB326_1                                                                       
1     0000b4a6  _u32ElementSizeTableD384_2                                                                       
1     0000b4a8  _u32ElementSizeTableB326_2                                                                       
1     0000b4aa  _HMMODBUS_pu8ReadServerIDDatAdr                                                                  
1     0000b4ac  _HMMODBUS_pu8ReadDeviceIDVendorName                                                              
1     0000b4ae  _HMMODBUS_pu8ReadDeviceIDProductCode                                                             
1     0000b4b0  _HMMODBUS_pu8ReadDeviceIDMajorMinorRevision                                                      
1     0000b4b2  _HMMODBUS_pu8ReadDeviceIDVendorUrl                                                               
1     0000b4b4  _HMMODBUS_pu8ReadDeviceIDProductName                                                             
1     0000b4b6  _HMMODBUS_pu8ReadDeviceIDModelName                                                               
1     0000b4b8  _HMMODBUS_pu8ReadDeviceIDUserApplicationName                                                     
1     0000b4ba  _HMMODBUS_pu8ReadDeviceIDUserReserve0                                                            
1     0000b4bc  _HMMODBUS_pu8ReadDeviceIDUserReserve1                                                            
1     0000b4be  _HMMODBUS_pu8ReadDeviceIDUserReserve2                                                            
1     0000b4c0  _pfWriteParElementCallbackFunction                                                               
1     0000b4c2  _u32ModbusTimeoutBufferIndex                                                                     
1     0000b4c4  _u32RxTimeout                                                                                    
1     0000b4c6  _realRxByteDelay                                                                                 
1     0000b4c8  _realRxByteDelayLastFail                                                                         
1     0000b4ca  _u32RxTimeoutLastFail                                                                            
1     0000b4cc  _pu16ModbusCompleteReceiveMessageCounterThisDevice                                               
1     0000b4ce  _HMMODBUS_u32DebugAddrReadFileReal                                                               
1     0000b4d0  _HMMODBUS_u32DebugAddrReadFileFromIndex                                                          
1     0000b4d2  _HMMODBUS_u32DebugAddrReadFileFromAddress                                                        
1     0000b4d4  _HMMODBUS_u32DebugAddrReadPlusOffset                                                             
1     0000b4d6  _HMMODBUS_u32DebugAddrReadFileCircleTooFarAddress                                                
1     0000b4d8  _HMMODBUS_u32DebugAddrReadFileCircle                                                             
1     0000b4da  _HMMODBUS_u32DebugAddrReadFileForRead                                                            
1     0000b4dc  _HMMODBUS_u32DebugAddrReadFileForReadLooped                                                      
1     0000b4de  _HMMODBUS_nSizeReadRequestLoopLeft                                                               
1     0000b4e0  _u32BufferAddressStart                                                                           
1     0000b4e2  _u32BufferSize                                                                                   
1     0000b4e4  _u32SampleCountBuffer                                                                            
1     0000b4e6  _u32SampleCountAvailable                                                                         
1     0000b4e8  _u32StartSampleIndex                                                                             
1     0000b4ea  _u32ElementsSizeModbus                                                                           
1     0000b4ec  _u32ElementsSizeMemory                                                                           
1     0000b4ee  _nAddrWrite                                                                                      
1     0000b4f0  _pu8ElementSizeTable                                                                             
1     0000b4f2  _pu8ElementSizeTablePtr                                                                          
1     0000b4f4  _nAddrFuncExecute                                                                                
1     0000b4f6  _nSizeOffset                                                                                     
1     0000b4f8  _nSizeAllRecords                                                                                 
1     0000b4fa  _nSizeOffsetCurrentRecord                                                                        
1     0000b4fc  _nCurrentElementTableIndex                                                                       
1     0000b4fe  _nSizeOffsetAdd                                                                                  
1     0000b500  _pfIndexGeneration                                                                               
1     0000b502  _nAddrRead                                                                                       
1     0000b504  _pResponseStart                                                                                  
1     0000b506  _pResponseEnd                                                                                    
1     0000b508  _pMessageIn                                                                                      
1     0000b50a  _pMessageOut                                                                                     
1     0000b50c  _pMessageInCopy                                                                                  
1     0000b50e  _nSizeOffsetMultiplier                                                                           
1     0000b510  _nSizeOffsetRequestMultMode                                                                      
1     0000b512  _nTimeTickDelayModbus                                                                            
1     0000b514  _nTimeTickDelayModbusMin                                                                         
1     0000b516  _nTimeTickDelayModbusMax                                                                         
1     0000b51a  _CSMON_au32FileParameterNumericFileRecordElementsSizeTable                                       
1     0000b538  _u32DeviceLSPCLKFreq                                                                             
1     0000b53a  _u32DeviceLSPCLKFreqRoundAndMinErrorBaud                                                         
1     0000b53c  _HMDRV_u32SCIErrorPPM                                                                            
1     0000b53e  _u32DeviceSYSCLKFreq                                                                             
1     0000b540  _HMMODBUS_anTxCheckSum                                                                           
1     0000b640  _HMMODBUS_pCommBufferRx                                                                          
1     0000b740  _HMMODBUS_pCommBufferTx                                                                          
1     0000b840  _UART_DRV_RxBuffer                                                                               
1     0000b940  _CSMON_asFileParameterDefinitionsFromAccessLevel                                                 
1     0000ba08  _MODBUSREG_u16ModbusParamCount                                                                   
1     0000ba09  _MODBUSREG_u16ParamCount                                                                         
1     0000ba0a  _MODBUSREG_u16TableNameAddressOffset                                                             
1     0000ba0b  _InputRegisterDummy                                                                              
1     0000ba0c  _InputCoilDummy                                                                                  
1     0000ba0d  _CoilTest                                                                                        
1     0000ba0e  _HMMODBUS_u16RegisterAddressTableControlParametersStartIndex                                     
1     0000ba0f  _MODBUSREG_u16HoldRegFillCount                                                                   
1     0000ba10  _MODBUSREG_u16HoldRegUsedCount                                                                   
1     0000ba11  _MODBUSREG_u16HoldRegListCount                                                                   
1     0000ba12  _MODBUSREG_u16TableVirtAddressOffset                                                             
1     0000ba13  _MODBUSREG_u16TableRegisterSizeOffset                                                            
1     0000ba14  _MODBUSREG_u16TableRegisterFlagsOffset                                                           
1     0000ba15  _MODBUSREG_u16TableRealAddressOffset                                                             
1     0000ba16  _MODBUSREG_u16TableProcessFuncOffset                                                             
1     0000ba17  _MODBUSREG_u16FileTableRecorderIndex                                                             
1     0000ba18  _MODBUSREG_u16FileTableShortNameIndex                                                            
1     0000ba19  _MODBUSREG_u16FileTableParameterListIndex                                                        
1     0000ba1a  _MODBUSREG_u16FileTableParameterNumbIndex                                                        
1     0000ba1c  _MODBUSREG_u32ParamRecorderConfigAddress                                                         
1     0000ba1e  _MODBUSREG_u32ParamScopeConfigAddress                                                            
1     0000ba20  _MODBUSREG_u32ParamListAddress                                                                   
1     0000ba22  _MODBUSREG_pu32TableNameAddress                                                                  
1     0000ba24  _MODBUSREG_u32ParamNumbAddress                                                                   
1     0000ba26  _MODBUSREG_u32FileRTC_FunctionAfterWriteFileRecord                                               
1     0000ba28  _MODBUSREG_u32FileRTC_FunctionAfterReadFileRecord                                                
1     0000ba2a  _MODBUSREG_u32FileParamCount_FunctionBeforeReadFileRecord                                        
1     0000ba2c  _MODBUSREG_u32FileAutorization_FunctionAfterWriteFileRecordTable                                 
1     0000ba2e  _MODBUSREG_u32FileRecStatus_FunctionIndexGenerationFileRecord                                    
1     0000ba30  _MODBUSREG_u32FileRecConfig_FunctionAfterWriteFileRecord                                         
1     0000ba32  _MODBUSREG_pu32TableVirtAddress                                                                  
1     0000ba34  _MODBUSREG_pu32TableRegisterSize                                                                 
1     0000ba36  _MODBUSREG_pu32TableRegisterFlags                                                                
1     0000ba38  _MODBUSREG_pu32TableRealAddress                                                                  
1     0000ba3a  _MODBUSREG_pu32TableProcessFunc                                                                  
1     0000ba3c  _CSMON_au8FileRecorderStatusElementsSizeTable                                                    
1     0000ba40  _CSMON_sFileParameterAccessList                                                                  
1     0000bb08  _CSMON_au8FileRecorderConfigElementsSizeTable                                                    
1     0000bb35  _CSMON_au8FileParameterCountElementsSizeTable                                                    
1     0000bb3f  _HMREC_u16FailSnapshotWrite                                                                      
1     0000bb40  _CSMON_u16MaskSetupRecorderParam                                                                 
1     0000bb41  _CSMON_u16MaskStartRecorderParam                                                                 
1     0000bb42  _CSMON_u16MaskStopRecorderParam                                                                  
1     0000bb43  _eResponseCodeStartRecParam0                                                                     
1     0000bb44  _eResponseCodeStartRecParam1                                                                     
1     0000bb45  _eResponseCodeStartRecParam2                                                                     
1     0000bb46  _CSMON_bGetDateTimeAutorization                                                                  
1     0000bb47  _CSMON_bSetDateTimeRequest                                                                       
1     0000bb48  _CSMON_bGetDateTimeRequest                                                                       
1     0000bb49  _CSMON_u16SCIErrorPercent                                                                        
1     0000bb4a  _bServiceWatchdog                                                                                
1     0000bb4b  _CSMON_bResetMaxMeasure                                                                          
1     0000bb4c  _bRunOnceGetSavedRecorderState                                                                   
1     0000bb4d  _CSMON_bWatchdogCalcNeeded                                                                       
1     0000bb4e  _CSMON_u16WatchdogPrescaler                                                                      
1     0000bb4f  _CSMON_u16MaxTimeInISR_usec                                                                      
1     0000bb50  _CSMON_u16MinTimeProcessExit_usec                                                                
1     0000bb51  _CSMON_u16MaxTimeTillWdtClear_usec                                                               
1     0000bb52  _CSMON_u16MinTimeProcessAllowedNeeded_usec                                                       
1     0000bb53  _u16SkipProcessCounter                                                                           
1     0000bb54  _u16SkipProcessTag                                                                               
1     0000bb55  _bSkipProcessFlag                                                                                
1     0000bb56  _CSMON_bUseAccessLevelForHoldingRegistersAndCoils                                                
1     0000bb57  _CSMON_bUseAccessLevelForInputRegistersAndCoils                                                  
1     0000bb58  _CSMON_u16CurrentAccessLevelPrev                                                                 
1     0000bb59  _CSMON_u16FileParameterFillCount                                                                 
1     0000bb5a  _CSMON_u16FileParameterUseMaxCnt                                                                 
1     0000bb5b  _CSMON_u16FileParameterListCount                                                                 
1     0000bb5c  _CSMON_u16FileParameterNameCount                                                                 
1     0000bb5d  _CSMON_u16FileParameterNumeric                                                                   
1     0000bb5e  _CSMON_sFileParameterDefinitionsElementOffset                                                    
1     0000bb5f  _CSMON_bUseDisconnectOnTimeout                                                                   
1     0000bb60  _CSMON_u16NoMessageTimeout_msec                                                                  
1     0000bb61  _CSMON_u16NoMessageTimeoutOld_msec                                                               
1     0000bb62  _CSMON_bRunningInitialization                                                                    
1     0000bb63  _eModbusDefaultCommandRead                                                                       
1     0000bb64  _eModbusDefaultCommandWrite                                                                      
1     0000bb65  _eModbusDefaultCommandReadArray                                                                  
1     0000bb66  _eModbusDefaultCommandWriteArray                                                                 
1     0000bb67  _u16ArrayReadAsHolding                                                                           
1     0000bb68  _u32FreeRunTimerSysClkMHz                                                                        
1     0000bb6a  _u32FreeRunTimerSysClkDiv                                                                        
1     0000bb6c  _CSMON_u32SCIErrorPPM                                                                            
1     0000bb6e  _CSMON_u32ServiceWatchdogTimes                                                                   
1     0000bb70  _CSMON_u32FreeRunTimerCheckSumListBegin                                                          
1     0000bb72  _CSMON_u32FreeRunTimerCheckSumListEnd                                                            
1     0000bb74  _CSMON_u32FreeRunTimerCheckSumListMax                                                            
1     0000bb76  _CSMON_u32FreeRunTimerCheckSumNameBegin                                                          
1     0000bb78  _CSMON_u32FreeRunTimerCheckSumNameEnd                                                            
1     0000bb7a  _CSMON_u32FreeRunTimerCheckSumNameMax                                                            
1     0000bb7c  _CSMON_u32FreeRunTimerCheckSumNumbBegin                                                          
1     0000bb7e  _CSMON_u32FreeRunTimerCheckSumNumbEnd                                                            
1     0000bb80  _CSMON_u32FreeRunTimerCheckSumNumbMax                                                            
1     0000bb82  _CSMON_u32FreeRunTimerCheckSumStrgBegin                                                          
1     0000bb84  _CSMON_u32FreeRunTimerCheckSumStrgEnd                                                            
1     0000bb86  _CSMON_u32FreeRunTimerCheckSumStrgMax                                                            
1     0000bb88  _CSMON_u32FreeRunTimerAccessChangeBegin                                                          
1     0000bb8a  _CSMON_u32FreeRunTimerAccessChangeEnd                                                            
1     0000bb8c  _CSMON_u32FreeRunTimerAccessChangeMax                                                            
1     0000bb8e  _CSMON_u32FreeRunTimerPrepareFileParameterAccessListEnd                                          
1     0000bb90  _CSMON_u32FreeRunTimerPrepareFileParameterAccessListMax                                          
1     0000bb92  _CSMON_u32FreeRunTimerPasswordHashBegin                                                          
1     0000bb94  _CSMON_u32FreeRunTimerPasswordHashEnd                                                            
1     0000bb96  _CSMON_u32FreeRunTimerPasswordHashMax                                                            
1     0000bb98  _CSMON_u32FreeRunTimerProcessBegin                                                               
1     0000bb9a  _CSMON_u32FreeRunTimerProcessNow                                                                 
1     0000bb9c  _CSMON_u32FreeRunTimerProcessEnd                                                                 
1     0000bb9e  _CSMON_u32FreeRunTimerProcessMax                                                                 
1     0000bba0  _CSMON_u32WatchdogPeriod_usec                                                                    
1     0000bba2  _CSMON_u32WatchdogPeriod_Ticks                                                                   
1     0000bba4  _CSMON_u32MaxTimeInISR_Ticks                                                                     
1     0000bba6  _CSMON_u32MaxTimeProcess_Ticks                                                                   
1     0000bba8  _CSMON_u32MaxTimeTillWdtClearISRs                                                                
1     0000bbaa  _CSMON_u32MinTimeProcessExit_Ticks                                                               
1     0000bbac  _CSMON_u32MaxTimeTillWdtClear_Ticks                                                              
1     0000bbae  _CSMON_u32MinTimeProcessAllowedNeeded_Ticks                                                      
1     0000bbb0  _CSMON_s32MaxTimeProcessAllowedCalc_Ticks                                                        
1     0000bbb2  _CSMON_u32MaxTimeProcessAllowed_Ticks                                                            
1     0000bbb4  _u32NumericDummy                                                                                 
1     0000bbb6  _CSMON_pasFileParameterListValueAccessKeyID                                                      
1     0000bbb8  _CSMON_pasFileParameterListValueAccessKeyFl                                                      
1     0000bbba  _CSMON_pasFileParameterListModbusAddress                                                         
1     0000bbbc  _CSMON_pasFileParameterListFunctionCode                                                          
1     0000bbbe  _CSMON_pasFileParameterListAccessLevel                                                           
1     0000bbc0  _CSMON_pasFileParameterListBitsCount                                                             
1     0000bbc2  _CSMON_pu32HoldingRegistersAddressTable                                                          
1     0000bbc4  _CSMON_pu32HoldingRegistersAccessTableInRam                                                      
1     0000bbc6  _CSMON_pasFileParameterNumbDataType                                                              
1     0000bbc8  _CSMON_pasFileParameterNumbVisualType                                                            
1     0000bbca  _CSMON_pasFileParameterNumbDefault                                                               
1     0000bbcc  _CSMON_pasFileParameterNumbMinimum                                                               
1     0000bbce  _CSMON_pasFileParameterNumbMaximum                                                               
1     0000bbd0  _CSMON_pasFileParameterNumbMultply                                                               
1     0000bbd2  _CSMON_pasFileParameterNumbOffset                                                                
1     0000bbd4  _CSMON_u32FreeRunTimerNow                                                                        
1     0000bbd6  _CSMON_u32FreeRunTimerPrev                                                                       
1     0000bbd8  _CSMON_u32FreeRunTimerDiff                                                                       
1     0000bbda  _CSMON_u32NoMessageTime                                                                          
1     0000bbdc  _CSMON_u32NoMessageTimeout_Ticks                                                                 
1     0000bbde  _sRecExternParam                                                                                 
1     0000bbfa  _CSMON_au32FileAutorization_FunctionAfterWriteFileRecord                                         
1     0000bc00  _pcm_pCommBuffer                                                                                 
1     0000bc79  _CSMON_au32FileParameterDefinitionsFileRecordElementsRecordToRecordOffsetSizeBytesTable          
1     0000bc7f  _DataChangedFlag                                                                                 
1     0000bc80  _MAIN_bDateTimeSet                                                                               
1     0000bc81  _bDummyStatsDevRunning                                                                           
1     0000bc82  _bDummyReqstDevRunning                                                                           
1     0000bc83  _s16DummyCurrentPhaseAStartup                                                                    
1     0000bc84  _s16DummyCurrentPhaseBStartup                                                                    
1     0000bc85  _s16DummyCurrentPhaseCStartup                                                                    
1     0000bc86  _s16DummyVoltageDCLinkStartup                                                                    
1     0000bc87  _s16DummyCurrentPhaseAStop                                                                       
1     0000bc88  _s16DummyCurrentPhaseBStop                                                                       
1     0000bc89  _s16DummyCurrentPhaseCStop                                                                       
1     0000bc8a  _s16DummyVoltageDCLinkStop                                                                       
1     0000bc8b  _s16DummyCurrentPhaseAIdle                                                                       
1     0000bc8c  _s16DummyCurrentPhaseBIdle                                                                       
1     0000bc8d  _s16DummyCurrentPhaseCIdle                                                                       
1     0000bc8e  _s16DummyVoltageDCLinkIdle                                                                       
1     0000bc8f  _s16DummyIncrementLoopCDiff                                                                      
1     0000bc90  _s16DummyIncrementLoopA                                                                          
1     0000bc91  _s16DummyIncrementLoopB                                                                          
1     0000bc92  _s16DummyIncrementLoopC                                                                          
1     0000bc93  _s16DummyIncrementLoopV                                                                          
1     0000bc94  _s16DummyCurrentPhaseA                                                                           
1     0000bc95  _s16DummyCurrentPhaseB                                                                           
1     0000bc96  _s16DummyCurrentPhaseC                                                                           
1     0000bc97  _s16DummyVoltageDCLink                                                                           
1     0000bc98  _s16DummyIncrementLoop                                                                           
1     0000bc99  _u16DummyDataCnt                                                                                 
1     0000bc9a  _s16DummyDataTst                                                                                 
1     0000bc9b  _s16ScaleDataTst                                                                                 
1     0000bc9c  _u16TestData0                                                                                    
1     0000bc9d  _u16TestData1                                                                                    
1     0000bc9e  _u16TestData2                                                                                    
1     0000bc9f  _u16TestData3                                                                                    
1     0000bca0  _u16TestData4                                                                                    
1     0000bca1  _u16TestData5                                                                                    
1     0000bca2  _u16TestData6                                                                                    
1     0000bca3  _u16TestData7                                                                                    
1     0000bca4  _u16TestData8                                                                                    
1     0000bca5  _u16TestData9                                                                                    
1     0000bca6  _s16DummyData                                                                                    
1     0000bca7  _u16WatchdogPrescaler                                                                            
1     0000bca8  _u16WatchdogPrescalerOld                                                                         
1     0000bca9  _u16WatchdogPrescalerTime                                                                        
1     0000bcaa  _u16WatchdogPrescalerTimeOld                                                                     
1     0000bcab  _u16DelayCtrlLoop_100nsec                                                                        
1     0000bcac  _u16DelayCtrlLoopOld_100nsec                                                                     
1     0000bcad  _u16DelayMainLoop_usec                                                                           
1     0000bcae  _u16DelayMainLoopOld_usec                                                                        
1     0000bcaf  _u16PeriodControl_usec                                                                           
1     0000bcb0  _u16PeriodControlOld_usec                                                                        
1     0000bcb1  _u16CountSetParameterFree                                                                        
1     0000bcb2  _u16CountSetParameterFail                                                                        
1     0000bcb3  _u16CountMaxParameterTest                                                                        
1     0000bcb4  _bResetAllTimeMeasures                                                                           
1     0000bcb5  _eResponseCode_CSMON_eInit                                                                       
1     0000bcb6  _eResponseCode_CSMON_eProcess                                                                    
1     0000bcb7  _eResponseCode_CSMON_eSetServerOnStatus                                                          
1     0000bcb8  _eResponseCode_CSMON_eSetParameter                                                               
1     0000bcb9  _eResponseCode_CSMON_eSetRecorder                                                                
1     0000bcba  _eResponseCode_CSMON_eSetScope                                                                   
1     0000bcbb  _eResponseCode_CSMON_eSetTimerPeriodISRFunctionRegister                                          
1     0000bcbc  _eResponseCode_CSMON_eSetFlagProcessPassed                                                       
1     0000bcbd  _limit_count_params                                                                              
1     0000bcbe  _maximum_count_params                                                                            
1     0000bcbf  _u16FreeRunningTimerTicksPerMicroSecond                                                          
1     0000bcc0  _u16FreeRunningTimerPrescaller                                                                   
1     0000bcc2  _s32DummyCurrentPhaseA                                                                           
1     0000bcc4  _s32DummyCurrentPhaseB                                                                           
1     0000bcc6  _s32DummyCurrentPhaseC                                                                           
1     0000bcc8  _s32DummyVoltageDCLink                                                                           
1     0000bcca  _s32DummyIncrementLoop                                                                           
1     0000bccc  _u32DummyDataCnt                                                                                 
1     0000bcce  _pu16ModbusMessageCounter                                                                        
1     0000bcd0  _aDummyDataTable                                                                                 
1     0000bcd2  _u32DelayCtrlLoop_Ticks                                                                          
1     0000bcd4  _u32DelayMainLoop_Ticks                                                                          
1     0000bcd6  _u32TimeMainLoopProcessCSMON_Bgn_Ticks                                                           
1     0000bcd8  _u32TimeMainLoopProcessCSMON_End_Ticks                                                           
1     0000bcda  _u32TimeMainLoopProcessCSMON_Now_Ticks                                                           
1     0000bcdc  _u32TimeMainLoopProcessCSMON_Max_Ticks                                                           
1     0000bcde  _u32TimeMainLoopCycle_Bgn_Ticks                                                                  
1     0000bce0  _u32TimeMainLoopCycle_End_Ticks                                                                  
1     0000bce2  _u32TimeMainLoopCycle_Now_Ticks                                                                  
1     0000bce4  _u32TimeMainLoopCycle_Max_Ticks                                                                  
1     0000bce6  _u32TimeCSMON_ISR_Ticks                                                                          
1     0000bce8  _u32TimeCSMON_ISR_Max_Ticks                                                                      
1     0000bcea  _u32TimeCtrlLoop_Ticks                                                                           
1     0000bcec  _u32TimeCtrlLoopMax_Ticks                                                                        
1     0000bcee  _u32ParamTime_Ticks                                                                              
1     0000bcf0  _u32GetBaudError_PPM                                                                             
1     0000bcf4  _u64DummyDataCnt                                                                                 
1     0000bcf8  _HMRECPRM_sDateTime                                                                              
1     0000bd00  _sRecHandleParam                                                                                 
1     0000bd62  _CSMON_au8FileRecorderDataElementsSizeTable                                                      
1     0000bd76  _CSMON_au8FileRTCElementsSizeTable                                                               
1     0000bd80  _sRecHandle                                                                                      
1     0000bdd8  _CSMON_sFileAutorization                                                                         
1     0000bdea  _CSMON_sFileParameterCount                                                                       
1     0000bdfa  ___TI_enable_exit_profile_output                                                                 
1     0000bdfc  ___TI_cleanup_ptr                                                                                
1     0000bdfe  ___TI_dtors_ptr                                                                                  
1     0000be00  _sRecConfigParam                                                                                 
1     0000be80  _sScopeHandlePrm                                                                                 
1     0000bebe  _MAIN_u32FreeCounter                                                                             
1     0000bec0  _CSMON_au8FileScopeConfigurationElementsSizeTable                                                
1     0000beea  _MODBUSREG_au8DeviceIDMajorMinorRevision                                                         
1     0000befa  _UARTRxBufferRDCount                                                                             
1     0000befe  _DataChangedParamFlag                                                                            
1     0000beff  _nScopeIndexFreemaster                                                                           
1     0000bf00  _sScopeConfigParam                                                                               
1     0000bf2a  _MODBUSREG_au8DeviceIDModelName                                                                  
1     0000bf3a  _UARTRxBufferRDIndex                                                                             
1     0000bf3e  _CSMON_abFlagProcessPassed                                                                       
1     0000bf40  _MODBUSREG_au8DeviceIDProductCode                                                                
1     0000bf50  _MODBUSREG_au8DeviceIDProductName                                                                
1     0000bf60  _MODBUSREG_au8DeviceIDUserApplicationName                                                        
1     0000bf70  _MODBUSREG_au8DeviceIDUserReserve0                                                               
1     0000bf80  _MODBUSREG_au8DeviceIDUserReserve1                                                               
1     0000bf90  _MODBUSREG_au8DeviceIDUserReserve2                                                               
1     0000bfa0  _MODBUSREG_au8DeviceIDVendorName                                                                 
1     0000bfb0  _MODBUSREG_au8DeviceIDVendorUrl                                                                  
1     0000bfc0  _MODBUSREG_au8ServerIDData                                                                       
1     0000bfd0  _sRecStatusParam                                                                                 
1     0000bfe0  _cpuTimer0IntCount                                                                               
1     0000bfe1  _cpuTimer1IntCount                                                                               
1     0000bfe2  _cpuTimer2IntCount                                                                               
1     0000bfe3  _u16TimerMainPeriod                                                                              
1     0000bfe4  _u16SecondPeriod                                                                                 
1     0000bfe5  _u16SecondCounter                                                                                
1     0000bfe6  _u16TimerMainISRCounter                                                                          
1     0000bfe7  _TMR_u16FreeRunTimerPrescaller                                                                   
1     0000bfe8  _hours                                                                                           
1     0000bfe9  _minutes                                                                                         
1     0000bfea  _seconds                                                                                         
1     0000bfeb  _second_Passed                                                                                   
1     0000bfec  _pfCSMONFunction                                                                                 
1     0000bfee  _CSMON_au32FileParameterNumericFileRecordElementsRecordToRecordOffsetSizeBytesTable              
1     0000bffc  _UARTRxBufferWRCount                                                                             
1     0000c000  _pcm_nTxTodo                                                                                     
1     0000c001  _pcm_nRxTodoEcho                                                                                 
1     0000c002  _pcm_nRxTodo                                                                                     
1     0000c003  _pcm_nRxCheckSum                                                                                 
1     0000c004  _u8UartIndex                                                                                     
1     0000c006  _pcm_pTxBuff                                                                                     
1     0000c008  _pcm_pRxBuff                                                                                     
1     0000c00c  _CSMON_au32FileParameterDefinitionsFileRecordElementsRealAddressTable                            
1     0000c018  _CSMON_au32FileParameterDefinitionsFileRecordElementsSizeTable                                   
1     0000c024  _CSMON_sDateTime                                                                                 
1     0000c030  _CSMON_sDateTimeApplication                                                                      
1     0000c03c  _UARTRxBufferWRIndex                                                                             
1     0000c040  _CSMON_sDateTimeDefault                                                                          
1     0000c04c  _HMMODBUS_nFilePrimaryAddrWriteLast                                                              
1     0000c056  _HMMOSBUS_nFileWriteAddrReadLast                                                                 
1     0000c060  _sHashKey                                                                                        
1     0000c06a  _sRecStatusParamInternal                                                                         
1     0000c074  _MAIN_sDateTimeGet                                                                               
1     0000c07c  _UART_DRV_RxBufferRDCount                                                                        
1     0000c080  _MAIN_sDateTimeSet                                                                               
1     0000c088  _UART_DRV_RXIntOverflowCounter                                                                   
1     0000c090  _UART_DRV_u32TimeDiffLast                                                                        
1     0000c098  _UART_DRV_u32TimeDiffNow                                                                         
1     0000c0a0  _UART_RXIntOverflowCounter                                                                       
1     0000c0a8  _pfDelayedFunction                                                                               
1     0000c0b0  _pfDelayedFunction_u8                                                                            
1     0000c0b8  _u32TimeDiffLast                                                                                 
1     0000c0c0  _u32TimeDiffNow                                                                                  
1     0000c0c8  _u32TimeDiffRead                                                                                 
1     0000c0d0  _Example_Result                                                                                  
1     0000c0d2  _Example_PassCount                                                                               
1     0000c0d4  _Example_Fail                                                                                    
1     0000c0d6  _MyCallbackCounter                                                                               
1     0000c0d8  _UART_DRV_RxBufferWRCount                                                                        
1     0000c0dc  _UART_DRV_RxBufferWRIndex                                                                        
1     0000c0e0  _u16TimerMainDelayedData                                                                         
1     0000c0e4  _u16TimerMainFunctionDelay                                                                       
1     0000c0e8  _u16TimerMainFunctionDelayCompare                                                                
1     0000c0ec  _u16TimerMainFunctionDelayCounter                                                                
1     0000c0f0  _CSMON_abFileAutorization_RecordReadOnly                                                         
1     0000c0f3  _CSMON_abFileAutorization_RecordStringData                                                       
1     0000c0f6  _CSMON_au16FileAutorization_RecordOffsets                                                        
1     0000c0f9  _CSMON_sFileProtocolVersion                                                                      
1     0000c0fc  _MAIN_sDate                                                                                      
1     0000c0fe  _MAIN_sTime                                                                                      
1     0000c100  __lock                                                                                           
1     0000c102  __unlock                                                                                         
1     0000c104  _pBufferScope                                                                                    
1     0000c106  _sFileParameterNumericOffsetDefault                                                              
1     0000c108  _u32RecorderLastFreeCounter                                                                      
1     0000c10a  _u32RecorderMicroSec                                                                             
1     0000c10c  _bUseSCIA_On_USB                                                                                 
1     0000c10d  _CSMON_au8FileParameterListElementsSizeTablePart1_1                                              
1     0000c10e  _CSMON_au8FileParameterListElementsSizeTablePart1_2                                              
1     0000c10f  _CSMON_au8FileParameterListElementsSizeTablePart1_3                                              
1     0000c110  _CSMON_au8FileParameterListElementsSizeTablePart1_4                                              
1     0000c111  _CSMON_au8FileParameterListElementsSizeTablePart2                                                
1     0000c112  _CSMON_au8FileParameterListElementsSizeTablePart3                                                
1     0000c113  _CSMON_au8FileParameterNumbElementsSizeTablePart16Bits                                           
1     0000c114  _CSMON_au8FileParameterNumbElementsSizeTablePart32Bits                                           
1     0000c115  _CSMON_au8FileRecorderDataElementsSizeTableUsedLength                                            
1     0000c116  _CSMON_au8FileScopeStatusElementsSizeTable                                                       
1     0000c117  _HMMODBUS_u32RegisterAddressDummyuSize                                                           
1     0000c118  _HMMODBUS_wFlags                                                                                 
1     0000c119  _HMMODBUS_wFlagsRxTx                                                                             
1     0000c11a  _abRecorderJustStopped                                                                           
1     0000c11b  _abRecorderRunning                                                                               
1     0000c11c  _pcm_wFlags                                                                                      
1     0000c11d  _pcm_wFlagsRxTx                                                                                  
1     0000c11e  _sFileParameterNumericVisualTypeDefault                                                          
1     0000c11f  _sScopeStatusParam                                                                               
1     0000c120  _errno                                                                                           
1     003d7e80  _PartIdRegs                                                                                      
1     003f7ff8  _CsmPwl                                                                                          
abs   00000029  _RamfuncsLoadSize                                                                                
abs   00000380  __STACK_SIZE                                                                                     
abs   ffffffff  ___TI_pprof_out_hndl                                                                             
abs   ffffffff  ___TI_prof_data_size                                                                             
abs   ffffffff  ___TI_prof_data_start                                                                            
abs   ffffffff  ___binit__                                                                                       
abs   ffffffff  ___c_args__                                                                                      
abs   ffffffff  ___pinit__                                                                                       
abs   ffffffff  binit                                                                                            
abs   ffffffff  pinit                                                                                            

[1196 symbols]


SYMBOL DEFINITIONS BY INPUT FILE 

================================================================================

main.obj

Run/Load            
Value     Binding   Name (Section)
--------  --------  ---------------
003f04f6  local     $C$FL1 (.econst)
003f04fa  local     $C$FL2 (.econst)
003f04fe  local     $C$FL3 (.econst)
003f0502  local     $C$FL4 (.econst)
003edeeb  local     $C$L1 (.text:_vSetWatchdogPrescalerTimeDiv)
003ebebd  local     $C$L10 (.text:_ParameterInitialization)
003ea672  local     $C$L11 (.text:_main)
003ea687  local     $C$L12 (.text:_main)
003ea69f  local     $C$L13 (.text:_main)
003ea6b2  local     $C$L14 (.text:_main)
003ea6c4  local     $C$L15 (.text:_main)
003ea70b  local     $C$L16 (.text:_main)
003ea742  local     $C$L17 (.text:_main)
003eb467  local     $C$L18 (.text:_ControlProcess)
003eb477  local     $C$L19 (.text:_ControlProcess)
003edf67  local     $C$L2 (.text:_vGetWatchdogPrescaler)
003eb47a  local     $C$L20 (.text:_ControlProcess)
003eb4d4  local     $C$L21 (.text:_ControlProcess)
003eb501  local     $C$L22 (.text:_ControlProcess)
003eb51e  local     $C$L23 (.text:_ControlProcess)
003eb526  local     $C$L24 (.text:_ControlProcess)
003edf6b  local     $C$L3 (.text:_vGetWatchdogPrescaler)
003ebe5b  local     $C$L4 (.text:_ParameterInitialization)
003ebe63  local     $C$L5 (.text:_ParameterInitialization)
003ebe7e  local     $C$L6 (.text:_ParameterInitialization)
003ebeb2  local     $C$L7 (.text:_ParameterInitialization)
003ebeb3  local     $C$L8 (.text:_ParameterInitialization)
003ebeb7  local     $C$L9 (.text:_ParameterInitialization)
00000000  local     .bss (.bss)
003f074c  local     .cinit (.cinit)
003f0c37  local     .cinit:_MAIN_sDateTimeGet (.cinit:_MAIN_sDateTimeGet)
003f0c42  local     .cinit:_MAIN_sDateTimeSet (.cinit:_MAIN_sDateTimeSet)
00000000  local     .cinit:_au8TestCharArray16 (.cinit:_au8TestCharArray16)
00000000  local     .cinit:_au8TestCharArray32 (.cinit:_au8TestCharArray32)
00000000  local     .cinit:_au8TestCharArray8 (.cinit:_au8TestCharArray8)
00000000  local     .data (.data)
0000bc80  local     .ebss (.ebss)
0000c074  local     .ebss:_MAIN_sDateTimeGet (.ebss:_MAIN_sDateTimeGet)
0000c080  local     .ebss:_MAIN_sDateTimeSet (.ebss:_MAIN_sDateTimeSet)
00000000  local     .ebss:_au8TestCharArray16 (.ebss:_au8TestCharArray16)
00000000  local     .ebss:_au8TestCharArray32 (.ebss:_au8TestCharArray32)
00000000  local     .ebss:_au8TestCharArray8 (.ebss:_au8TestCharArray8)
003f04f6  local     .econst (.econst)
00000000  local     .text (.text)
003eda13  local     .text:_CSMON_vGetDateTime (.text:_CSMON_vGetDateTime)
003edeac  local     .text:_CSMON_vSetDateTime (.text:_CSMON_vSetDateTime)
003eb44a  local     .text:_ControlProcess (.text:_ControlProcess)
003ece33  local     .text:_ExternalParametersInitialization (.text:_ExternalParametersInitialization)
003ebe2a  local     .text:_ParameterInitialization (.text:_ParameterInitialization)
003ebd91  local     .text:_RecordersInitialization (.text:_RecordersInitialization)
003ed453  local     .text:_ScopesInitialization (.text:_ScopesInitialization)
003ee6f7  local     .text:_eWriteParElement (.text:_eWriteParElement)
003ea5b5  local     .text:_main (.text:_main)
003edf61  local     .text:_vGetWatchdogPrescaler (.text:_vGetWatchdogPrescaler)
003ededf  local     .text:_vSetWatchdogPrescalerTimeDiv (.text:_vSetWatchdogPrescalerTimeDiv)
003eda13  global    _CSMON_vGetDateTime (.text:_CSMON_vGetDateTime)
003edeac  global    _CSMON_vSetDateTime (.text:_CSMON_vSetDateTime)
003eb44a  global    _ControlProcess (.text:_ControlProcess)
003ece33  global    _ExternalParametersInitialization (.text:_ExternalParametersInitialization)
0000bc80  global    _MAIN_bDateTimeSet (.ebss)
0000c074  global    _MAIN_sDateTimeGet (.ebss:_MAIN_sDateTimeGet)
0000c080  global    _MAIN_sDateTimeSet (.ebss:_MAIN_sDateTimeSet)
003ebe2a  global    _ParameterInitialization (.text:_ParameterInitialization)
003ebd91  global    _RecordersInitialization (.text:_RecordersInitialization)
003ed453  global    _ScopesInitialization (.text:_ScopesInitialization)
0000bcd0  global    _aDummyDataTable (.ebss)
00000000  global    _au8TestCharArray16 (.ebss:_au8TestCharArray16)
00000000  global    _au8TestCharArray32 (.ebss:_au8TestCharArray32)
00000000  global    _au8TestCharArray8 (.ebss:_au8TestCharArray8)
0000bc82  global    _bDummyReqstDevRunning (.ebss)
0000bc81  global    _bDummyStatsDevRunning (.ebss)
0000bcb4  global    _bResetAllTimeMeasures (.ebss)
0000bcb5  global    _eResponseCode_CSMON_eInit (.ebss)
0000bcb6  global    _eResponseCode_CSMON_eProcess (.ebss)
0000bcbc  global    _eResponseCode_CSMON_eSetFlagProcessPassed (.ebss)
0000bcb8  global    _eResponseCode_CSMON_eSetParameter (.ebss)
0000bcb9  global    _eResponseCode_CSMON_eSetRecorder (.ebss)
0000bcba  global    _eResponseCode_CSMON_eSetScope (.ebss)
0000bcb7  global    _eResponseCode_CSMON_eSetServerOnStatus (.ebss)
0000bcbb  global    _eResponseCode_CSMON_eSetTimerPeriodISRFunctionRegister (.ebss)
003ee6f7  global    _eWriteParElement (.text:_eWriteParElement)
0000bcbd  global    _limit_count_params (.ebss)
003ea5b5  global    _main (.text:_main)
0000bcbe  global    _maximum_count_params (.ebss)
0000bcce  global    _pu16ModbusMessageCounter (.ebss)
0000bc94  global    _s16DummyCurrentPhaseA (.ebss)
0000bc8b  global    _s16DummyCurrentPhaseAIdle (.ebss)
0000bc83  global    _s16DummyCurrentPhaseAStartup (.ebss)
0000bc87  global    _s16DummyCurrentPhaseAStop (.ebss)
0000bc95  global    _s16DummyCurrentPhaseB (.ebss)
0000bc8c  global    _s16DummyCurrentPhaseBIdle (.ebss)
0000bc84  global    _s16DummyCurrentPhaseBStartup (.ebss)
0000bc88  global    _s16DummyCurrentPhaseBStop (.ebss)
0000bc96  global    _s16DummyCurrentPhaseC (.ebss)
0000bc8d  global    _s16DummyCurrentPhaseCIdle (.ebss)
0000bc85  global    _s16DummyCurrentPhaseCStartup (.ebss)
0000bc89  global    _s16DummyCurrentPhaseCStop (.ebss)
0000bca6  global    _s16DummyData (.ebss)
0000bc9a  global    _s16DummyDataTst (.ebss)
0000bc98  global    _s16DummyIncrementLoop (.ebss)
0000bc90  global    _s16DummyIncrementLoopA (.ebss)
0000bc91  global    _s16DummyIncrementLoopB (.ebss)
0000bc92  global    _s16DummyIncrementLoopC (.ebss)
0000bc8f  global    _s16DummyIncrementLoopCDiff (.ebss)
0000bc93  global    _s16DummyIncrementLoopV (.ebss)
0000bc97  global    _s16DummyVoltageDCLink (.ebss)
0000bc8e  global    _s16DummyVoltageDCLinkIdle (.ebss)
0000bc86  global    _s16DummyVoltageDCLinkStartup (.ebss)
0000bc8a  global    _s16DummyVoltageDCLinkStop (.ebss)
0000bc9b  global    _s16ScaleDataTst (.ebss)
0000bcc2  global    _s32DummyCurrentPhaseA (.ebss)
0000bcc4  global    _s32DummyCurrentPhaseB (.ebss)
0000bcc6  global    _s32DummyCurrentPhaseC (.ebss)
0000bcca  global    _s32DummyIncrementLoop (.ebss)
0000bcc8  global    _s32DummyVoltageDCLink (.ebss)
0000bcf2  local     _t$1 (.ebss)
0000bcb3  global    _u16CountMaxParameterTest (.ebss)
0000bcb2  global    _u16CountSetParameterFail (.ebss)
0000bcb1  global    _u16CountSetParameterFree (.ebss)
0000bcac  global    _u16DelayCtrlLoopOld_100nsec (.ebss)
0000bcab  global    _u16DelayCtrlLoop_100nsec (.ebss)
0000bcae  global    _u16DelayMainLoopOld_usec (.ebss)
0000bcad  global    _u16DelayMainLoop_usec (.ebss)
0000bc99  global    _u16DummyDataCnt (.ebss)
0000bcc0  global    _u16FreeRunningTimerPrescaller (.ebss)
0000bcbf  global    _u16FreeRunningTimerTicksPerMicroSecond (.ebss)
0000bcb0  global    _u16PeriodControlOld_usec (.ebss)
0000bcaf  global    _u16PeriodControl_usec (.ebss)
0000bc9c  global    _u16TestData0 (.ebss)
0000bc9d  global    _u16TestData1 (.ebss)
0000bc9e  global    _u16TestData2 (.ebss)
0000bc9f  global    _u16TestData3 (.ebss)
0000bca0  global    _u16TestData4 (.ebss)
0000bca1  global    _u16TestData5 (.ebss)
0000bca2  global    _u16TestData6 (.ebss)
0000bca3  global    _u16TestData7 (.ebss)
0000bca4  global    _u16TestData8 (.ebss)
0000bca5  global    _u16TestData9 (.ebss)
0000bca7  global    _u16WatchdogPrescaler (.ebss)
0000bca8  global    _u16WatchdogPrescalerOld (.ebss)
0000bca9  global    _u16WatchdogPrescalerTime (.ebss)
0000bcaa  global    _u16WatchdogPrescalerTimeOld (.ebss)
0000bcd2  global    _u32DelayCtrlLoop_Ticks (.ebss)
0000bcd4  global    _u32DelayMainLoop_Ticks (.ebss)
0000bccc  global    _u32DummyDataCnt (.ebss)
0000bcf0  global    _u32GetBaudError_PPM (.ebss)
0000bcee  global    _u32ParamTime_Ticks (.ebss)
0000bce8  global    _u32TimeCSMON_ISR_Max_Ticks (.ebss)
0000bce6  global    _u32TimeCSMON_ISR_Ticks (.ebss)
0000bcec  global    _u32TimeCtrlLoopMax_Ticks (.ebss)
0000bcea  global    _u32TimeCtrlLoop_Ticks (.ebss)
0000bcde  global    _u32TimeMainLoopCycle_Bgn_Ticks (.ebss)
0000bce0  global    _u32TimeMainLoopCycle_End_Ticks (.ebss)
0000bce4  global    _u32TimeMainLoopCycle_Max_Ticks (.ebss)
0000bce2  global    _u32TimeMainLoopCycle_Now_Ticks (.ebss)
0000bcd6  global    _u32TimeMainLoopProcessCSMON_Bgn_Ticks (.ebss)
0000bcd8  global    _u32TimeMainLoopProcessCSMON_End_Ticks (.ebss)
0000bcdc  global    _u32TimeMainLoopProcessCSMON_Max_Ticks (.ebss)
0000bcda  global    _u32TimeMainLoopProcessCSMON_Now_Ticks (.ebss)
0000bcf4  global    _u64DummyDataCnt (.ebss)
003edf61  global    _vGetWatchdogPrescaler (.text:_vGetWatchdogPrescaler)
003ededf  global    _vSetWatchdogPrescalerTimeDiv (.text:_vSetWatchdogPrescalerTimeDiv)


================================================================================

sci_driver.obj

Run/Load            
Value     Binding   Name (Section)
--------  --------  ---------------
00000013  local     $C$L1 (.text:_SCI_DRV_vErrorResetProcess)
0000002b  local     $C$L2 (.text:_SCI_DRV_vErrorResetProcess)
00000000  local     .bss (.bss)
00000000  local     .data (.data)
00000000  local     .ebss:_SCI_DRV_ErrorRx (.ebss:_SCI_DRV_ErrorRx)
00000000  local     .text (.text)
003ed5cb  local     .text:_SCIA_DRV_RXFIFOISR (.text:_SCIA_DRV_RXFIFOISR)
003ed5ef  local     .text:_SCIA_DRV_TXFIFOISR (.text:_SCIA_DRV_TXFIFOISR)
003ed65b  local     .text:_SCIB_DRV_RXFIFOISR (.text:_SCIB_DRV_RXFIFOISR)
003ed67f  local     .text:_SCIB_DRV_TXFIFOISR (.text:_SCIB_DRV_TXFIFOISR)
003ee141  local     .text:_SCI_DRV_eGetModuleIndexFromBase (.text:_SCI_DRV_eGetModuleIndexFromBase)
003ee328  local     .text:_SCI_DRV_u32GetBaseFromModuleIndex (.text:_SCI_DRV_u32GetBaseFromModuleIndex)
00000000  local     .text:_SCI_DRV_vErrorResetProcess (.text:_SCI_DRV_vErrorResetProcess)
00000000  local     .text:_SCI_DRV_vInitFIFO (.text:_SCI_DRV_vInitFIFO)
003ed5cb  global    _SCIA_DRV_RXFIFOISR (.text:_SCIA_DRV_RXFIFOISR)
003ed5ef  global    _SCIA_DRV_TXFIFOISR (.text:_SCIA_DRV_TXFIFOISR)
003ed65b  global    _SCIB_DRV_RXFIFOISR (.text:_SCIB_DRV_RXFIFOISR)
003ed67f  global    _SCIB_DRV_TXFIFOISR (.text:_SCIB_DRV_TXFIFOISR)
00000000  global    _SCI_DRV_ErrorRx (.ebss:_SCI_DRV_ErrorRx)
003ee141  global    _SCI_DRV_eGetModuleIndexFromBase (.text:_SCI_DRV_eGetModuleIndexFromBase)
003ee328  global    _SCI_DRV_u32GetBaseFromModuleIndex (.text:_SCI_DRV_u32GetBaseFromModuleIndex)
00000000  global    _SCI_DRV_vErrorResetProcess (.text:_SCI_DRV_vErrorResetProcess)
00000000  global    _SCI_DRV_vInitFIFO (.text:_SCI_DRV_vInitFIFO)


================================================================================

uart_driver.obj

Run/Load            
Value     Binding   Name (Section)
--------  --------  ---------------
00000034  local     $C$L1 (.text:_UART_DRV_ReadDataRx)
00000036  local     $C$L2 (.text:_UART_DRV_ReadDataRx)
003ecac5  local     $C$L3 (.text:_UART_DRV_RXInterrupt)
003ecad2  local     $C$L4 (.text:_UART_DRV_RXInterrupt)
0000000d  local     $C$L5 (.text:_UART_DRV_IsTxEmpty)
00000000  local     .bss (.bss)
003f0c4d  local     .cinit:_UART_DRV_RXIntOverflowCounter (.cinit:_UART_DRV_RXIntOverflowCounter)
00000000  local     .cinit:_UART_DRV_RXOverflowCounter (.cinit:_UART_DRV_RXOverflowCounter)
003f0d0f  local     .cinit:_UART_DRV_RxBufferRDCount (.cinit:_UART_DRV_RxBufferRDCount)
00000000  local     .cinit:_UART_DRV_RxBufferRDIndex (.cinit:_UART_DRV_RxBufferRDIndex)
003f0d16  local     .cinit:_UART_DRV_RxBufferWRCount (.cinit:_UART_DRV_RxBufferWRCount)
003f0d1d  local     .cinit:_UART_DRV_RxBufferWRIndex (.cinit:_UART_DRV_RxBufferWRIndex)
003f0c58  local     .cinit:_UART_DRV_u32TimeDiffLast (.cinit:_UART_DRV_u32TimeDiffLast)
003f0c63  local     .cinit:_UART_DRV_u32TimeDiffNow (.cinit:_UART_DRV_u32TimeDiffNow)
00000000  local     .cinit:_UART_DRV_u32TimeDiffRead (.cinit:_UART_DRV_u32TimeDiffRead)
00000000  local     .data (.data)
0000c088  local     .ebss:_UART_DRV_RXIntOverflowCounter (.ebss:_UART_DRV_RXIntOverflowCounter)
00000000  local     .ebss:_UART_DRV_RXOverflowCounter (.ebss:_UART_DRV_RXOverflowCounter)
0000b840  local     .ebss:_UART_DRV_RxBuffer (.ebss:_UART_DRV_RxBuffer)
0000c07c  local     .ebss:_UART_DRV_RxBufferRDCount (.ebss:_UART_DRV_RxBufferRDCount)
00000000  local     .ebss:_UART_DRV_RxBufferRDIndex (.ebss:_UART_DRV_RxBufferRDIndex)
0000b000  local     .ebss:_UART_DRV_RxBufferTimeDiff (.ebss:_UART_DRV_RxBufferTimeDiff)
0000c0d8  local     .ebss:_UART_DRV_RxBufferWRCount (.ebss:_UART_DRV_RxBufferWRCount)
0000c0dc  local     .ebss:_UART_DRV_RxBufferWRIndex (.ebss:_UART_DRV_RxBufferWRIndex)
0000c090  local     .ebss:_UART_DRV_u32TimeDiffLast (.ebss:_UART_DRV_u32TimeDiffLast)
0000c098  local     .ebss:_UART_DRV_u32TimeDiffNow (.ebss:_UART_DRV_u32TimeDiffNow)
00000000  local     .ebss:_UART_DRV_u32TimeDiffRead (.ebss:_UART_DRV_u32TimeDiffRead)
00000000  local     .text (.text)
003ee34e  local     .text:_UART_DRV_GetChar (.text:_UART_DRV_GetChar)
00000000  local     .text:_UART_DRV_IsRxReady (.text:_UART_DRV_IsRxReady)
00000000  local     .text:_UART_DRV_IsTxEmpty (.text:_UART_DRV_IsTxEmpty)
00000000  local     .text:_UART_DRV_IsTxReady (.text:_UART_DRV_IsTxReady)
00000000  local     .text:_UART_DRV_PutChar (.text:_UART_DRV_PutChar)
00000000  local     .text:_UART_DRV_PutNextAddress (.text:_UART_DRV_PutNextAddress)
003eca7f  local     .text:_UART_DRV_RXInterrupt (.text:_UART_DRV_RXInterrupt)
00000000  local     .text:_UART_DRV_ReadDataRx (.text:_UART_DRV_ReadDataRx)
00000000  local     .text:_UART_DRV_ReadDataRxAvailable (.text:_UART_DRV_ReadDataRxAvailable)
00000000  local     .text:_UART_DRV_ReadDataRxTimeDiff (.text:_UART_DRV_ReadDataRxTimeDiff)
00000000  local     .text:_UART_DRV_RxDis (.text:_UART_DRV_RxDis)
00000000  local     .text:_UART_DRV_RxEna (.text:_UART_DRV_RxEna)
003ee6fc  local     .text:_UART_DRV_TXInterrupt (.text:_UART_DRV_TXInterrupt)
00000000  local     .text:_UART_DRV_TransmitEnableDisable (.text:_UART_DRV_TransmitEnableDisable)
00000000  local     .text:_UART_DRV_TxDis (.text:_UART_DRV_TxDis)
00000000  local     .text:_UART_DRV_TxEna (.text:_UART_DRV_TxEna)
00000000  local     .text:_UART_DRV_TxIntDis (.text:_UART_DRV_TxIntDis)
00000000  local     .text:_UART_DRV_TxIntEna (.text:_UART_DRV_TxIntEna)
00000000  local     .text:_UART_DRV_vInit (.text:_UART_DRV_vInit)
003ee34e  global    _UART_DRV_GetChar (.text:_UART_DRV_GetChar)
00000000  global    _UART_DRV_IsRxReady (.text:_UART_DRV_IsRxReady)
00000000  global    _UART_DRV_IsTxEmpty (.text:_UART_DRV_IsTxEmpty)
00000000  global    _UART_DRV_IsTxReady (.text:_UART_DRV_IsTxReady)
00000000  global    _UART_DRV_PutChar (.text:_UART_DRV_PutChar)
00000000  global    _UART_DRV_PutNextAddress (.text:_UART_DRV_PutNextAddress)
0000c088  global    _UART_DRV_RXIntOverflowCounter (.ebss:_UART_DRV_RXIntOverflowCounter)
003eca7f  global    _UART_DRV_RXInterrupt (.text:_UART_DRV_RXInterrupt)
00000000  global    _UART_DRV_RXOverflowCounter (.ebss:_UART_DRV_RXOverflowCounter)
00000000  global    _UART_DRV_ReadDataRx (.text:_UART_DRV_ReadDataRx)
00000000  global    _UART_DRV_ReadDataRxAvailable (.text:_UART_DRV_ReadDataRxAvailable)
00000000  global    _UART_DRV_ReadDataRxTimeDiff (.text:_UART_DRV_ReadDataRxTimeDiff)
0000b840  global    _UART_DRV_RxBuffer (.ebss:_UART_DRV_RxBuffer)
0000c07c  global    _UART_DRV_RxBufferRDCount (.ebss:_UART_DRV_RxBufferRDCount)
00000000  global    _UART_DRV_RxBufferRDIndex (.ebss:_UART_DRV_RxBufferRDIndex)
0000b000  global    _UART_DRV_RxBufferTimeDiff (.ebss:_UART_DRV_RxBufferTimeDiff)
0000c0d8  global    _UART_DRV_RxBufferWRCount (.ebss:_UART_DRV_RxBufferWRCount)
0000c0dc  global    _UART_DRV_RxBufferWRIndex (.ebss:_UART_DRV_RxBufferWRIndex)
00000000  global    _UART_DRV_RxDis (.text:_UART_DRV_RxDis)
00000000  global    _UART_DRV_RxEna (.text:_UART_DRV_RxEna)
003ee6fc  global    _UART_DRV_TXInterrupt (.text:_UART_DRV_TXInterrupt)
00000000  global    _UART_DRV_TransmitEnableDisable (.text:_UART_DRV_TransmitEnableDisable)
00000000  global    _UART_DRV_TxDis (.text:_UART_DRV_TxDis)
00000000  global    _UART_DRV_TxEna (.text:_UART_DRV_TxEna)
00000000  global    _UART_DRV_TxIntDis (.text:_UART_DRV_TxIntDis)
00000000  global    _UART_DRV_TxIntEna (.text:_UART_DRV_TxIntEna)
0000c090  global    _UART_DRV_u32TimeDiffLast (.ebss:_UART_DRV_u32TimeDiffLast)
0000c098  global    _UART_DRV_u32TimeDiffNow (.ebss:_UART_DRV_u32TimeDiffNow)
00000000  global    _UART_DRV_u32TimeDiffRead (.ebss:_UART_DRV_u32TimeDiffRead)
00000000  global    _UART_DRV_vInit (.text:_UART_DRV_vInit)


================================================================================

Example_Flash2806x_CsmKeys.obj

Run/Load            
Value     Binding   Name (Section)
--------  --------  ---------------
00000000  local     .bss (.bss)
00000000  local     .data (.data)
003ee22e  local     .text (.text)
003ee22e  global    _PRG_key0 (.text)
003ee22f  global    _PRG_key1 (.text)
003ee230  global    _PRG_key2 (.text)
003ee231  global    _PRG_key3 (.text)
003ee232  global    _PRG_key4 (.text)
003ee233  global    _PRG_key5 (.text)
003ee234  global    _PRG_key6 (.text)
003ee235  global    _PRG_key7 (.text)


================================================================================

device.obj

Run/Load             
Value      Binding   Name (Section)
--------   --------  ---------------
00000000   local     $C$L1 (.text:_Example_done)
003edf19   local     $C$L2 (.text:_Example_MemCopy)
003edf20   local     $C$L3 (.text:_Example_MemCopy)
003ed07b   local     $C$L4 (.text:_Device_init)
00000000   local     .bss (.bss)
003f0b9f   local     .cinit (.cinit)
00000000   local     .data (.data)
0000c0d0   local     .ebss (.ebss)
00000000   local     .text (.text)
003ecc22   local     .text:_Device_CsmUnlock (.text:_Device_CsmUnlock)
003ed061   local     .text:_Device_init (.text:_Device_init)
003edabb   local     .text:_Device_initGPIO (.text:_Device_initGPIO)
003edf11   local     .text:_Example_MemCopy (.text:_Example_MemCopy)
00000000   local     .text:_Example_done (.text:_Example_done)
00000000   local     .text:_Example_setResultFail (.text:_Example_setResultFail)
00000000   local     .text:_Example_setResultPass (.text:_Example_setResultPass)
00000000   local     .text:___error__ (.text:___error__)
003ecc22   global    _Device_CsmUnlock (.text:_Device_CsmUnlock)
003ed061   global    _Device_init (.text:_Device_init)
003edabb   global    _Device_initGPIO (.text:_Device_initGPIO)
0000c0d4   global    _Example_Fail (.ebss)
003edf11   global    _Example_MemCopy (.text:_Example_MemCopy)
0000c0d2   global    _Example_PassCount (.ebss)
0000c0d0   global    _Example_Result (.ebss)
00000000   global    _Example_done (.text:_Example_done)
00000000   global    _Example_setResultFail (.text:_Example_setResultFail)
00000000   global    _Example_setResultPass (.text:_Example_setResultPass)
0000c0d6   global    _MyCallbackCounter (.ebss)
0000801d   global    _MyCallbackFunction (ramfuncs:_MyCallbackFunction)
 003ee71d            
00000000   global    ___error__ (.text:___error__)
0000801d   local     ramfuncs:_MyCallbackFunction (ramfuncs:_MyCallbackFunction)
 003ee71d            


================================================================================

F2806x_Adc.obj

Run/Load            
Value     Binding   Name (Section)
--------  --------  ---------------
000000bd  local     $C$L1 (.text:_AdcConversion)
000000cd  local     $C$L2 (.text:_AdcConversion)
000000d4  local     $C$L3 (.text:_AdcConversion)
000000e3  local     $C$L4 (.text:_AdcConversion)
000000f3  local     $C$L5 (.text:_AdcConversion)
00000106  local     $C$L6 (.text:_AdcConversion)
0000010c  local     $C$L7 (.text:_AdcConversion)
00000000  local     .bss (.bss)
00000000  local     .data (.data)
00000000  local     .text (.text)
00000000  local     .text:_AdcChanSelect (.text:_AdcChanSelect)
00000000  local     .text:_AdcConversion (.text:_AdcConversion)
00000000  local     .text:_AdcOffsetSelfCal (.text:_AdcOffsetSelfCal)
00000000  local     .text:_InitAdc (.text:_InitAdc)
00000000  local     .text:_InitAdcAio (.text:_InitAdcAio)
00000000  global    _AdcChanSelect (.text:_AdcChanSelect)
00000000  global    _AdcConversion (.text:_AdcConversion)
00000000  global    _AdcOffsetSelfCal (.text:_AdcOffsetSelfCal)
00000000  global    _InitAdc (.text:_InitAdc)
00000000  global    _InitAdcAio (.text:_InitAdcAio)


================================================================================

F2806x_CSMPasswords.obj

Run/Load            
Value     Binding   Name (Section)
--------  --------  ---------------
00000000  local     .bss (.bss)
00000000  local     .data (.data)
00000000  local     .text (.text)
003f7f80  local     csm_rsvd (csm_rsvd)
003f7ff8  local     csmpasswds (csmpasswds)


================================================================================

F2806x_CodeStartBranch.obj

Run/Load            
Value     Binding   Name (Section)
--------  --------  ---------------
00000000  local     .bss (.bss)
00000000  local     .data (.data)
003ee236  local     .text (.text)
003f7ff6  global    code_start (codestart)
003f7ff6  local     codestart (codestart)
003ee236  local     wd_disable (.text)


================================================================================

F2806x_Comp.obj

Run/Load            
Value     Binding   Name (Section)
--------  --------  ---------------
00000000  local     .bss (.bss)
00000000  local     .data (.data)
00000000  local     .text (.text)
00000000  local     .text:_InitComp (.text:_InitComp)
00000000  local     .text:_InitComp1Gpio (.text:_InitComp1Gpio)
00000000  local     .text:_InitComp2Gpio (.text:_InitComp2Gpio)
00000000  local     .text:_InitComp3Gpio (.text:_InitComp3Gpio)
00000000  local     .text:_InitCompGpio (.text:_InitCompGpio)
00000000  global    _InitComp (.text:_InitComp)
00000000  global    _InitComp1Gpio (.text:_InitComp1Gpio)
00000000  global    _InitComp2Gpio (.text:_InitComp2Gpio)
00000000  global    _InitComp3Gpio (.text:_InitComp3Gpio)
00000000  global    _InitCompGpio (.text:_InitCompGpio)


================================================================================

F2806x_CpuTimers.obj

Run/Load            
Value     Binding   Name (Section)
--------  --------  ---------------
00000000  local     .bss (.bss)
00000000  local     .data (.data)
00000000  local     .ebss:_CpuTimer0 (.ebss:_CpuTimer0)
00000000  local     .ebss:_CpuTimer1 (.ebss:_CpuTimer1)
00000000  local     .ebss:_CpuTimer2 (.ebss:_CpuTimer2)
00000000  local     .text (.text)
00000000  local     .text:_ConfigCpuTimer (.text:_ConfigCpuTimer)
00000000  local     .text:_InitCpuTimers (.text:_InitCpuTimers)
00000000  global    _ConfigCpuTimer (.text:_ConfigCpuTimer)
00000000  global    _CpuTimer0 (.ebss:_CpuTimer0)
00000000  global    _CpuTimer1 (.ebss:_CpuTimer1)
00000000  global    _CpuTimer2 (.ebss:_CpuTimer2)
00000000  global    _InitCpuTimers (.text:_InitCpuTimers)


================================================================================

F2806x_DBGIER.obj

Run/Load            
Value     Binding   Name (Section)
--------  --------  ---------------
00000000  local     .bss (.bss)
00000000  local     .data (.data)
003ee6d4  local     .text (.text)
003ee6d4  global    _SetDBGIER (.text)


================================================================================

F2806x_DefaultIsr.obj

Run/Load            
Value     Binding   Name (Section)
--------  --------  ---------------
003ee5a2  local     $C$L1 (.text:_rsvd_ISR)
003ee575  local     $C$L10 (.text:_USER5_ISR)
003ee570  local     $C$L11 (.text:_USER4_ISR)
003ee56b  local     $C$L12 (.text:_USER3_ISR)
003ee566  local     $C$L13 (.text:_USER2_ISR)
003ee561  local     $C$L14 (.text:_USER1_ISR)
003ee55c  local     $C$L15 (.text:_USER12_ISR)
003ee557  local     $C$L16 (.text:_USER11_ISR)
003ee552  local     $C$L17 (.text:_USER10_ISR)
003ee54d  local     $C$L18 (.text:_USB0_INT_ISR)
003ee548  local     $C$L19 (.text:_TINT0_ISR)
003ee59d  local     $C$L2 (.text:_XINT3_ISR)
003ee53e  local     $C$L20 (.text:_SPITXINTB_ISR)
003ee539  local     $C$L21 (.text:_SPITXINTA_ISR)
003ee534  local     $C$L22 (.text:_SPIRXINTB_ISR)
003ee52f  local     $C$L23 (.text:_SPIRXINTA_ISR)
003ee52a  local     $C$L24 (.text:_SCITXINTB_ISR)
003ee525  local     $C$L25 (.text:_SCITXINTA_ISR)
003ee520  local     $C$L26 (.text:_SCIRXINTB_ISR)
003ee51b  local     $C$L27 (.text:_SCIRXINTA_ISR)
003ee516  local     $C$L28 (.text:_RTOSINT_ISR)
003ee511  local     $C$L29 (.text:_PIE_RESERVED)
003ee598  local     $C$L3 (.text:_XINT2_ISR)
003ee50c  local     $C$L30 (.text:_NMI_ISR)
003ee507  local     $C$L31 (.text:_MXINTA_ISR)
003ee502  local     $C$L32 (.text:_MRINTA_ISR)
003ee4e4  local     $C$L33 (.text:_LVF_ISR)
003ee4df  local     $C$L34 (.text:_LUF_ISR)
003ee4d5  local     $C$L35 (.text:_INT14_ISR)
003ee4d0  local     $C$L36 (.text:_INT13_ISR)
003ee4cb  local     $C$L37 (.text:_ILLEGAL_ISR)
003ee4c6  local     $C$L38 (.text:_I2CINT2A_ISR)
003ee4c1  local     $C$L39 (.text:_I2CINT1A_ISR)
003ee593  local     $C$L4 (.text:_XINT1_ISR)
003ee4bc  local     $C$L40 (.text:_HRCAP4_INT_ISR)
003ee4b7  local     $C$L41 (.text:_HRCAP3_INT_ISR)
003ee4b2  local     $C$L42 (.text:_HRCAP2_INT_ISR)
003ee4ad  local     $C$L43 (.text:_HRCAP1_INT_ISR)
003ee48f  local     $C$L44 (.text:_EQEP2_INT_ISR)
003ee48a  local     $C$L45 (.text:_EQEP1_INT_ISR)
003ee485  local     $C$L46 (.text:_EPWM8_TZINT_ISR)
003ee480  local     $C$L47 (.text:_EPWM8_INT_ISR)
003ee47b  local     $C$L48 (.text:_EPWM7_TZINT_ISR)
003ee476  local     $C$L49 (.text:_EPWM7_INT_ISR)
003ee58e  local     $C$L5 (.text:_WAKEINT_ISR)
003ee471  local     $C$L50 (.text:_EPWM6_TZINT_ISR)
003ee46c  local     $C$L51 (.text:_EPWM6_INT_ISR)
003ee467  local     $C$L52 (.text:_EPWM5_TZINT_ISR)
003ee462  local     $C$L53 (.text:_EPWM5_INT_ISR)
003ee45d  local     $C$L54 (.text:_EPWM4_TZINT_ISR)
003ee458  local     $C$L55 (.text:_EPWM4_INT_ISR)
003ee453  local     $C$L56 (.text:_EPWM3_TZINT_ISR)
003ee44e  local     $C$L57 (.text:_EPWM3_INT_ISR)
003ee449  local     $C$L58 (.text:_EPWM2_TZINT_ISR)
003ee444  local     $C$L59 (.text:_EPWM2_INT_ISR)
003ee589  local     $C$L6 (.text:_USER9_ISR)
003ee43f  local     $C$L60 (.text:_EPWM1_TZINT_ISR)
003ee43a  local     $C$L61 (.text:_EPWM1_INT_ISR)
003ee435  local     $C$L62 (.text:_EMUINT_ISR)
003ee42b  local     $C$L63 (.text:_ECAP3_INT_ISR)
003ee426  local     $C$L64 (.text:_ECAP2_INT_ISR)
003ee421  local     $C$L65 (.text:_ECAP1_INT_ISR)
003ee41c  local     $C$L66 (.text:_ECAN1INTA_ISR)
003ee417  local     $C$L67 (.text:_ECAN0INTA_ISR)
003ee412  local     $C$L68 (.text:_DINTCH6_ISR)
003ee40d  local     $C$L69 (.text:_DINTCH5_ISR)
003ee584  local     $C$L7 (.text:_USER8_ISR)
003ee408  local     $C$L70 (.text:_DINTCH4_ISR)
003ee403  local     $C$L71 (.text:_DINTCH3_ISR)
003ee3fe  local     $C$L72 (.text:_DINTCH2_ISR)
003ee3f9  local     $C$L73 (.text:_DINTCH1_ISR)
003ee3f4  local     $C$L74 (.text:_DATALOG_ISR)
003ee3ae  local     $C$L75 (.text:_CLA1_INT8_ISR)
003ee3a9  local     $C$L76 (.text:_CLA1_INT7_ISR)
003ee3a4  local     $C$L77 (.text:_CLA1_INT6_ISR)
003ee39f  local     $C$L78 (.text:_CLA1_INT5_ISR)
003ee39a  local     $C$L79 (.text:_CLA1_INT4_ISR)
003ee57f  local     $C$L8 (.text:_USER7_ISR)
003ee395  local     $C$L80 (.text:_CLA1_INT3_ISR)
003ee390  local     $C$L81 (.text:_CLA1_INT2_ISR)
003ee38b  local     $C$L82 (.text:_CLA1_INT1_ISR)
003ee386  local     $C$L83 (.text:_ADCINT9_ISR)
003ee381  local     $C$L84 (.text:_ADCINT8_ISR)
003ee37c  local     $C$L85 (.text:_ADCINT7_ISR)
003ee377  local     $C$L86 (.text:_ADCINT6_ISR)
003ee372  local     $C$L87 (.text:_ADCINT5_ISR)
003ee36d  local     $C$L88 (.text:_ADCINT4_ISR)
003ee368  local     $C$L89 (.text:_ADCINT3_ISR)
003ee57a  local     $C$L9 (.text:_USER6_ISR)
003ee363  local     $C$L90 (.text:_ADCINT2_ISR)
003ee35e  local     $C$L91 (.text:_ADCINT1_ISR)
00000000  local     .bss (.bss)
00000000  local     .data (.data)
00000000  local     .text (.text)
003ee35a  local     .text:_ADCINT1_ISR (.text:_ADCINT1_ISR)
003ee35f  local     .text:_ADCINT2_ISR (.text:_ADCINT2_ISR)
003ee364  local     .text:_ADCINT3_ISR (.text:_ADCINT3_ISR)
003ee369  local     .text:_ADCINT4_ISR (.text:_ADCINT4_ISR)
003ee36e  local     .text:_ADCINT5_ISR (.text:_ADCINT5_ISR)
003ee373  local     .text:_ADCINT6_ISR (.text:_ADCINT6_ISR)
003ee378  local     .text:_ADCINT7_ISR (.text:_ADCINT7_ISR)
003ee37d  local     .text:_ADCINT8_ISR (.text:_ADCINT8_ISR)
003ee382  local     .text:_ADCINT9_ISR (.text:_ADCINT9_ISR)
003ee387  local     .text:_CLA1_INT1_ISR (.text:_CLA1_INT1_ISR)
003ee38c  local     .text:_CLA1_INT2_ISR (.text:_CLA1_INT2_ISR)
003ee391  local     .text:_CLA1_INT3_ISR (.text:_CLA1_INT3_ISR)
003ee396  local     .text:_CLA1_INT4_ISR (.text:_CLA1_INT4_ISR)
003ee39b  local     .text:_CLA1_INT5_ISR (.text:_CLA1_INT5_ISR)
003ee3a0  local     .text:_CLA1_INT6_ISR (.text:_CLA1_INT6_ISR)
003ee3a5  local     .text:_CLA1_INT7_ISR (.text:_CLA1_INT7_ISR)
003ee3aa  local     .text:_CLA1_INT8_ISR (.text:_CLA1_INT8_ISR)
003ee3f0  local     .text:_DATALOG_ISR (.text:_DATALOG_ISR)
003ee3f5  local     .text:_DINTCH1_ISR (.text:_DINTCH1_ISR)
003ee3fa  local     .text:_DINTCH2_ISR (.text:_DINTCH2_ISR)
003ee3ff  local     .text:_DINTCH3_ISR (.text:_DINTCH3_ISR)
003ee404  local     .text:_DINTCH4_ISR (.text:_DINTCH4_ISR)
003ee409  local     .text:_DINTCH5_ISR (.text:_DINTCH5_ISR)
003ee40e  local     .text:_DINTCH6_ISR (.text:_DINTCH6_ISR)
003ee413  local     .text:_ECAN0INTA_ISR (.text:_ECAN0INTA_ISR)
003ee418  local     .text:_ECAN1INTA_ISR (.text:_ECAN1INTA_ISR)
003ee41d  local     .text:_ECAP1_INT_ISR (.text:_ECAP1_INT_ISR)
003ee422  local     .text:_ECAP2_INT_ISR (.text:_ECAP2_INT_ISR)
003ee427  local     .text:_ECAP3_INT_ISR (.text:_ECAP3_INT_ISR)
003ee42c  local     .text:_EMPTY_ISR (.text:_EMPTY_ISR)
003ee431  local     .text:_EMUINT_ISR (.text:_EMUINT_ISR)
003ee436  local     .text:_EPWM1_INT_ISR (.text:_EPWM1_INT_ISR)
003ee43b  local     .text:_EPWM1_TZINT_ISR (.text:_EPWM1_TZINT_ISR)
003ee440  local     .text:_EPWM2_INT_ISR (.text:_EPWM2_INT_ISR)
003ee445  local     .text:_EPWM2_TZINT_ISR (.text:_EPWM2_TZINT_ISR)
003ee44a  local     .text:_EPWM3_INT_ISR (.text:_EPWM3_INT_ISR)
003ee44f  local     .text:_EPWM3_TZINT_ISR (.text:_EPWM3_TZINT_ISR)
003ee454  local     .text:_EPWM4_INT_ISR (.text:_EPWM4_INT_ISR)
003ee459  local     .text:_EPWM4_TZINT_ISR (.text:_EPWM4_TZINT_ISR)
003ee45e  local     .text:_EPWM5_INT_ISR (.text:_EPWM5_INT_ISR)
003ee463  local     .text:_EPWM5_TZINT_ISR (.text:_EPWM5_TZINT_ISR)
003ee468  local     .text:_EPWM6_INT_ISR (.text:_EPWM6_INT_ISR)
003ee46d  local     .text:_EPWM6_TZINT_ISR (.text:_EPWM6_TZINT_ISR)
003ee472  local     .text:_EPWM7_INT_ISR (.text:_EPWM7_INT_ISR)
003ee477  local     .text:_EPWM7_TZINT_ISR (.text:_EPWM7_TZINT_ISR)
003ee47c  local     .text:_EPWM8_INT_ISR (.text:_EPWM8_INT_ISR)
003ee481  local     .text:_EPWM8_TZINT_ISR (.text:_EPWM8_TZINT_ISR)
003ee486  local     .text:_EQEP1_INT_ISR (.text:_EQEP1_INT_ISR)
003ee48b  local     .text:_EQEP2_INT_ISR (.text:_EQEP2_INT_ISR)
003ee4a9  local     .text:_HRCAP1_INT_ISR (.text:_HRCAP1_INT_ISR)
003ee4ae  local     .text:_HRCAP2_INT_ISR (.text:_HRCAP2_INT_ISR)
003ee4b3  local     .text:_HRCAP3_INT_ISR (.text:_HRCAP3_INT_ISR)
003ee4b8  local     .text:_HRCAP4_INT_ISR (.text:_HRCAP4_INT_ISR)
003ee4bd  local     .text:_I2CINT1A_ISR (.text:_I2CINT1A_ISR)
003ee4c2  local     .text:_I2CINT2A_ISR (.text:_I2CINT2A_ISR)
003ee4c7  local     .text:_ILLEGAL_ISR (.text:_ILLEGAL_ISR)
003ee4cc  local     .text:_INT13_ISR (.text:_INT13_ISR)
003ee4d1  local     .text:_INT14_ISR (.text:_INT14_ISR)
003ee4db  local     .text:_LUF_ISR (.text:_LUF_ISR)
003ee4e0  local     .text:_LVF_ISR (.text:_LVF_ISR)
003ee4fe  local     .text:_MRINTA_ISR (.text:_MRINTA_ISR)
003ee503  local     .text:_MXINTA_ISR (.text:_MXINTA_ISR)
003ee508  local     .text:_NMI_ISR (.text:_NMI_ISR)
003ee50d  local     .text:_PIE_RESERVED (.text:_PIE_RESERVED)
003ee512  local     .text:_RTOSINT_ISR (.text:_RTOSINT_ISR)
003ee517  local     .text:_SCIRXINTA_ISR (.text:_SCIRXINTA_ISR)
003ee51c  local     .text:_SCIRXINTB_ISR (.text:_SCIRXINTB_ISR)
003ee521  local     .text:_SCITXINTA_ISR (.text:_SCITXINTA_ISR)
003ee526  local     .text:_SCITXINTB_ISR (.text:_SCITXINTB_ISR)
003ee52b  local     .text:_SPIRXINTA_ISR (.text:_SPIRXINTA_ISR)
003ee530  local     .text:_SPIRXINTB_ISR (.text:_SPIRXINTB_ISR)
003ee535  local     .text:_SPITXINTA_ISR (.text:_SPITXINTA_ISR)
003ee53a  local     .text:_SPITXINTB_ISR (.text:_SPITXINTB_ISR)
003ee544  local     .text:_TINT0_ISR (.text:_TINT0_ISR)
003ee549  local     .text:_USB0_INT_ISR (.text:_USB0_INT_ISR)
003ee54e  local     .text:_USER10_ISR (.text:_USER10_ISR)
003ee553  local     .text:_USER11_ISR (.text:_USER11_ISR)
003ee558  local     .text:_USER12_ISR (.text:_USER12_ISR)
003ee55d  local     .text:_USER1_ISR (.text:_USER1_ISR)
003ee562  local     .text:_USER2_ISR (.text:_USER2_ISR)
003ee567  local     .text:_USER3_ISR (.text:_USER3_ISR)
003ee56c  local     .text:_USER4_ISR (.text:_USER4_ISR)
003ee571  local     .text:_USER5_ISR (.text:_USER5_ISR)
003ee576  local     .text:_USER6_ISR (.text:_USER6_ISR)
003ee57b  local     .text:_USER7_ISR (.text:_USER7_ISR)
003ee580  local     .text:_USER8_ISR (.text:_USER8_ISR)
003ee585  local     .text:_USER9_ISR (.text:_USER9_ISR)
003ee58a  local     .text:_WAKEINT_ISR (.text:_WAKEINT_ISR)
003ee58f  local     .text:_XINT1_ISR (.text:_XINT1_ISR)
003ee594  local     .text:_XINT2_ISR (.text:_XINT2_ISR)
003ee599  local     .text:_XINT3_ISR (.text:_XINT3_ISR)
003ee59e  local     .text:_rsvd_ISR (.text:_rsvd_ISR)
003ee35a  global    _ADCINT1_ISR (.text:_ADCINT1_ISR)
003ee35f  global    _ADCINT2_ISR (.text:_ADCINT2_ISR)
003ee364  global    _ADCINT3_ISR (.text:_ADCINT3_ISR)
003ee369  global    _ADCINT4_ISR (.text:_ADCINT4_ISR)
003ee36e  global    _ADCINT5_ISR (.text:_ADCINT5_ISR)
003ee373  global    _ADCINT6_ISR (.text:_ADCINT6_ISR)
003ee378  global    _ADCINT7_ISR (.text:_ADCINT7_ISR)
003ee37d  global    _ADCINT8_ISR (.text:_ADCINT8_ISR)
003ee382  global    _ADCINT9_ISR (.text:_ADCINT9_ISR)
003ee387  global    _CLA1_INT1_ISR (.text:_CLA1_INT1_ISR)
003ee38c  global    _CLA1_INT2_ISR (.text:_CLA1_INT2_ISR)
003ee391  global    _CLA1_INT3_ISR (.text:_CLA1_INT3_ISR)
003ee396  global    _CLA1_INT4_ISR (.text:_CLA1_INT4_ISR)
003ee39b  global    _CLA1_INT5_ISR (.text:_CLA1_INT5_ISR)
003ee3a0  global    _CLA1_INT6_ISR (.text:_CLA1_INT6_ISR)
003ee3a5  global    _CLA1_INT7_ISR (.text:_CLA1_INT7_ISR)
003ee3aa  global    _CLA1_INT8_ISR (.text:_CLA1_INT8_ISR)
003ee3f0  global    _DATALOG_ISR (.text:_DATALOG_ISR)
003ee3f5  global    _DINTCH1_ISR (.text:_DINTCH1_ISR)
003ee3fa  global    _DINTCH2_ISR (.text:_DINTCH2_ISR)
003ee3ff  global    _DINTCH3_ISR (.text:_DINTCH3_ISR)
003ee404  global    _DINTCH4_ISR (.text:_DINTCH4_ISR)
003ee409  global    _DINTCH5_ISR (.text:_DINTCH5_ISR)
003ee40e  global    _DINTCH6_ISR (.text:_DINTCH6_ISR)
003ee413  global    _ECAN0INTA_ISR (.text:_ECAN0INTA_ISR)
003ee418  global    _ECAN1INTA_ISR (.text:_ECAN1INTA_ISR)
003ee41d  global    _ECAP1_INT_ISR (.text:_ECAP1_INT_ISR)
003ee422  global    _ECAP2_INT_ISR (.text:_ECAP2_INT_ISR)
003ee427  global    _ECAP3_INT_ISR (.text:_ECAP3_INT_ISR)
003ee42c  global    _EMPTY_ISR (.text:_EMPTY_ISR)
003ee431  global    _EMUINT_ISR (.text:_EMUINT_ISR)
003ee436  global    _EPWM1_INT_ISR (.text:_EPWM1_INT_ISR)
003ee43b  global    _EPWM1_TZINT_ISR (.text:_EPWM1_TZINT_ISR)
003ee440  global    _EPWM2_INT_ISR (.text:_EPWM2_INT_ISR)
003ee445  global    _EPWM2_TZINT_ISR (.text:_EPWM2_TZINT_ISR)
003ee44a  global    _EPWM3_INT_ISR (.text:_EPWM3_INT_ISR)
003ee44f  global    _EPWM3_TZINT_ISR (.text:_EPWM3_TZINT_ISR)
003ee454  global    _EPWM4_INT_ISR (.text:_EPWM4_INT_ISR)
003ee459  global    _EPWM4_TZINT_ISR (.text:_EPWM4_TZINT_ISR)
003ee45e  global    _EPWM5_INT_ISR (.text:_EPWM5_INT_ISR)
003ee463  global    _EPWM5_TZINT_ISR (.text:_EPWM5_TZINT_ISR)
003ee468  global    _EPWM6_INT_ISR (.text:_EPWM6_INT_ISR)
003ee46d  global    _EPWM6_TZINT_ISR (.text:_EPWM6_TZINT_ISR)
003ee472  global    _EPWM7_INT_ISR (.text:_EPWM7_INT_ISR)
003ee477  global    _EPWM7_TZINT_ISR (.text:_EPWM7_TZINT_ISR)
003ee47c  global    _EPWM8_INT_ISR (.text:_EPWM8_INT_ISR)
003ee481  global    _EPWM8_TZINT_ISR (.text:_EPWM8_TZINT_ISR)
003ee486  global    _EQEP1_INT_ISR (.text:_EQEP1_INT_ISR)
003ee48b  global    _EQEP2_INT_ISR (.text:_EQEP2_INT_ISR)
003ee4a9  global    _HRCAP1_INT_ISR (.text:_HRCAP1_INT_ISR)
003ee4ae  global    _HRCAP2_INT_ISR (.text:_HRCAP2_INT_ISR)
003ee4b3  global    _HRCAP3_INT_ISR (.text:_HRCAP3_INT_ISR)
003ee4b8  global    _HRCAP4_INT_ISR (.text:_HRCAP4_INT_ISR)
003ee4bd  global    _I2CINT1A_ISR (.text:_I2CINT1A_ISR)
003ee4c2  global    _I2CINT2A_ISR (.text:_I2CINT2A_ISR)
003ee4c7  global    _ILLEGAL_ISR (.text:_ILLEGAL_ISR)
003ee4cc  global    _INT13_ISR (.text:_INT13_ISR)
003ee4d1  global    _INT14_ISR (.text:_INT14_ISR)
003ee4db  global    _LUF_ISR (.text:_LUF_ISR)
003ee4e0  global    _LVF_ISR (.text:_LVF_ISR)
003ee4fe  global    _MRINTA_ISR (.text:_MRINTA_ISR)
003ee503  global    _MXINTA_ISR (.text:_MXINTA_ISR)
003ee508  global    _NMI_ISR (.text:_NMI_ISR)
003ee50d  global    _PIE_RESERVED (.text:_PIE_RESERVED)
003ee512  global    _RTOSINT_ISR (.text:_RTOSINT_ISR)
003ee517  global    _SCIRXINTA_ISR (.text:_SCIRXINTA_ISR)
003ee51c  global    _SCIRXINTB_ISR (.text:_SCIRXINTB_ISR)
003ee521  global    _SCITXINTA_ISR (.text:_SCITXINTA_ISR)
003ee526  global    _SCITXINTB_ISR (.text:_SCITXINTB_ISR)
003ee52b  global    _SPIRXINTA_ISR (.text:_SPIRXINTA_ISR)
003ee530  global    _SPIRXINTB_ISR (.text:_SPIRXINTB_ISR)
003ee535  global    _SPITXINTA_ISR (.text:_SPITXINTA_ISR)
003ee53a  global    _SPITXINTB_ISR (.text:_SPITXINTB_ISR)
003ee544  global    _TINT0_ISR (.text:_TINT0_ISR)
003ee549  global    _USB0_INT_ISR (.text:_USB0_INT_ISR)
003ee54e  global    _USER10_ISR (.text:_USER10_ISR)
003ee553  global    _USER11_ISR (.text:_USER11_ISR)
003ee558  global    _USER12_ISR (.text:_USER12_ISR)
003ee55d  global    _USER1_ISR (.text:_USER1_ISR)
003ee562  global    _USER2_ISR (.text:_USER2_ISR)
003ee567  global    _USER3_ISR (.text:_USER3_ISR)
003ee56c  global    _USER4_ISR (.text:_USER4_ISR)
003ee571  global    _USER5_ISR (.text:_USER5_ISR)
003ee576  global    _USER6_ISR (.text:_USER6_ISR)
003ee57b  global    _USER7_ISR (.text:_USER7_ISR)
003ee580  global    _USER8_ISR (.text:_USER8_ISR)
003ee585  global    _USER9_ISR (.text:_USER9_ISR)
003ee58a  global    _WAKEINT_ISR (.text:_WAKEINT_ISR)
003ee58f  global    _XINT1_ISR (.text:_XINT1_ISR)
003ee594  global    _XINT2_ISR (.text:_XINT2_ISR)
003ee599  global    _XINT3_ISR (.text:_XINT3_ISR)
003ee59e  global    _rsvd_ISR (.text:_rsvd_ISR)


================================================================================

F2806x_DisInt.obj

Run/Load            
Value     Binding   Name (Section)
--------  --------  ---------------
00000000  local     .bss (.bss)
00000000  local     .data (.data)
003ee2c6  local     .text (.text)
003ee2c6  global    _DSP28x_DisableInt (.text)
003ee2ca  global    _DSP28x_RestoreInt (.text)


================================================================================

F2806x_Dma.obj

Run/Load            
Value     Binding   Name (Section)
--------  --------  ---------------
00000000  local     .bss (.bss)
00000000  local     .data (.data)
00000000  local     .text (.text)
00000000  local     .text:_DMACH1AddrConfig (.text:_DMACH1AddrConfig)
00000000  local     .text:_DMACH1BurstConfig (.text:_DMACH1BurstConfig)
00000000  local     .text:_DMACH1ModeConfig (.text:_DMACH1ModeConfig)
00000000  local     .text:_DMACH1TransferConfig (.text:_DMACH1TransferConfig)
00000000  local     .text:_DMACH1WrapConfig (.text:_DMACH1WrapConfig)
00000000  local     .text:_DMACH2AddrConfig (.text:_DMACH2AddrConfig)
00000000  local     .text:_DMACH2BurstConfig (.text:_DMACH2BurstConfig)
00000000  local     .text:_DMACH2ModeConfig (.text:_DMACH2ModeConfig)
00000000  local     .text:_DMACH2TransferConfig (.text:_DMACH2TransferConfig)
00000000  local     .text:_DMACH2WrapConfig (.text:_DMACH2WrapConfig)
00000000  local     .text:_DMACH3AddrConfig (.text:_DMACH3AddrConfig)
00000000  local     .text:_DMACH3BurstConfig (.text:_DMACH3BurstConfig)
00000000  local     .text:_DMACH3ModeConfig (.text:_DMACH3ModeConfig)
00000000  local     .text:_DMACH3TransferConfig (.text:_DMACH3TransferConfig)
00000000  local     .text:_DMACH3WrapConfig (.text:_DMACH3WrapConfig)
00000000  local     .text:_DMACH4AddrConfig (.text:_DMACH4AddrConfig)
00000000  local     .text:_DMACH4BurstConfig (.text:_DMACH4BurstConfig)
00000000  local     .text:_DMACH4ModeConfig (.text:_DMACH4ModeConfig)
00000000  local     .text:_DMACH4TransferConfig (.text:_DMACH4TransferConfig)
00000000  local     .text:_DMACH4WrapConfig (.text:_DMACH4WrapConfig)
00000000  local     .text:_DMACH5AddrConfig (.text:_DMACH5AddrConfig)
00000000  local     .text:_DMACH5BurstConfig (.text:_DMACH5BurstConfig)
00000000  local     .text:_DMACH5ModeConfig (.text:_DMACH5ModeConfig)
00000000  local     .text:_DMACH5TransferConfig (.text:_DMACH5TransferConfig)
00000000  local     .text:_DMACH5WrapConfig (.text:_DMACH5WrapConfig)
00000000  local     .text:_DMACH6AddrConfig (.text:_DMACH6AddrConfig)
00000000  local     .text:_DMACH6BurstConfig (.text:_DMACH6BurstConfig)
00000000  local     .text:_DMACH6ModeConfig (.text:_DMACH6ModeConfig)
00000000  local     .text:_DMACH6TransferConfig (.text:_DMACH6TransferConfig)
00000000  local     .text:_DMACH6WrapConfig (.text:_DMACH6WrapConfig)
00000000  local     .text:_DMAInitialize (.text:_DMAInitialize)
00000000  local     .text:_StartDMACH1 (.text:_StartDMACH1)
00000000  local     .text:_StartDMACH2 (.text:_StartDMACH2)
00000000  local     .text:_StartDMACH3 (.text:_StartDMACH3)
00000000  local     .text:_StartDMACH4 (.text:_StartDMACH4)
00000000  local     .text:_StartDMACH5 (.text:_StartDMACH5)
00000000  local     .text:_StartDMACH6 (.text:_StartDMACH6)
00000000  global    _DMACH1AddrConfig (.text:_DMACH1AddrConfig)
00000000  global    _DMACH1BurstConfig (.text:_DMACH1BurstConfig)
00000000  global    _DMACH1ModeConfig (.text:_DMACH1ModeConfig)
00000000  global    _DMACH1TransferConfig (.text:_DMACH1TransferConfig)
00000000  global    _DMACH1WrapConfig (.text:_DMACH1WrapConfig)
00000000  global    _DMACH2AddrConfig (.text:_DMACH2AddrConfig)
00000000  global    _DMACH2BurstConfig (.text:_DMACH2BurstConfig)
00000000  global    _DMACH2ModeConfig (.text:_DMACH2ModeConfig)
00000000  global    _DMACH2TransferConfig (.text:_DMACH2TransferConfig)
00000000  global    _DMACH2WrapConfig (.text:_DMACH2WrapConfig)
00000000  global    _DMACH3AddrConfig (.text:_DMACH3AddrConfig)
00000000  global    _DMACH3BurstConfig (.text:_DMACH3BurstConfig)
00000000  global    _DMACH3ModeConfig (.text:_DMACH3ModeConfig)
00000000  global    _DMACH3TransferConfig (.text:_DMACH3TransferConfig)
00000000  global    _DMACH3WrapConfig (.text:_DMACH3WrapConfig)
00000000  global    _DMACH4AddrConfig (.text:_DMACH4AddrConfig)
00000000  global    _DMACH4BurstConfig (.text:_DMACH4BurstConfig)
00000000  global    _DMACH4ModeConfig (.text:_DMACH4ModeConfig)
00000000  global    _DMACH4TransferConfig (.text:_DMACH4TransferConfig)
00000000  global    _DMACH4WrapConfig (.text:_DMACH4WrapConfig)
00000000  global    _DMACH5AddrConfig (.text:_DMACH5AddrConfig)
00000000  global    _DMACH5BurstConfig (.text:_DMACH5BurstConfig)
00000000  global    _DMACH5ModeConfig (.text:_DMACH5ModeConfig)
00000000  global    _DMACH5TransferConfig (.text:_DMACH5TransferConfig)
00000000  global    _DMACH5WrapConfig (.text:_DMACH5WrapConfig)
00000000  global    _DMACH6AddrConfig (.text:_DMACH6AddrConfig)
00000000  global    _DMACH6BurstConfig (.text:_DMACH6BurstConfig)
00000000  global    _DMACH6ModeConfig (.text:_DMACH6ModeConfig)
00000000  global    _DMACH6TransferConfig (.text:_DMACH6TransferConfig)
00000000  global    _DMACH6WrapConfig (.text:_DMACH6WrapConfig)
00000000  global    _DMAInitialize (.text:_DMAInitialize)
00000000  global    _StartDMACH1 (.text:_StartDMACH1)
00000000  global    _StartDMACH2 (.text:_StartDMACH2)
00000000  global    _StartDMACH3 (.text:_StartDMACH3)
00000000  global    _StartDMACH4 (.text:_StartDMACH4)
00000000  global    _StartDMACH5 (.text:_StartDMACH5)
00000000  global    _StartDMACH6 (.text:_StartDMACH6)


================================================================================

F2806x_ECan.obj

Run/Load            
Value     Binding   Name (Section)
--------  --------  ---------------
0000001a  local     $C$L1 (.text:_InitECana)
00000035  local     $C$L2 (.text:_InitECana)
0000004b  local     $C$L3 (.text:_InitECana)
00000000  local     .bss (.bss)
00000000  local     .data (.data)
00000000  local     .text (.text)
00000000  local     .text:_InitECana (.text:_InitECana)
00000000  local     .text:_InitECanaGpio (.text:_InitECanaGpio)
00000000  global    _InitECan (.text:_InitECana)
00000000  global    _InitECanGpio (.text:_InitECanaGpio)
00000000  global    _InitECana (.text:_InitECana)
00000000  global    _InitECanaGpio (.text:_InitECanaGpio)


================================================================================

F2806x_ECap.obj

Run/Load            
Value     Binding   Name (Section)
--------  --------  ---------------
00000000  local     .bss (.bss)
00000000  local     .data (.data)
00000000  local     .text (.text)
00000000  local     .text:_InitECap (.text:_InitECap)
00000000  local     .text:_InitECap1Gpio (.text:_InitECap1Gpio)
00000000  local     .text:_InitECap2Gpio (.text:_InitECap2Gpio)
00000000  local     .text:_InitECap3Gpio (.text:_InitECap3Gpio)
00000000  local     .text:_InitECapGpio (.text:_InitECapGpio)
00000000  global    _InitECap (.text:_InitECap)
00000000  global    _InitECap1Gpio (.text:_InitECap1Gpio)
00000000  global    _InitECap2Gpio (.text:_InitECap2Gpio)
00000000  global    _InitECap3Gpio (.text:_InitECap3Gpio)
00000000  global    _InitECapGpio (.text:_InitECapGpio)


================================================================================

F2806x_EPwm.obj

Run/Load            
Value     Binding   Name (Section)
--------  --------  ---------------
00000000  local     .bss (.bss)
00000000  local     .data (.data)
00000000  local     .text (.text)
00000000  local     .text:_InitEPwm (.text:_InitEPwm)
00000000  local     .text:_InitEPwm1Gpio (.text:_InitEPwm1Gpio)
00000000  local     .text:_InitEPwm2Gpio (.text:_InitEPwm2Gpio)
00000000  local     .text:_InitEPwm3Gpio (.text:_InitEPwm3Gpio)
00000000  local     .text:_InitEPwm4Gpio (.text:_InitEPwm4Gpio)
00000000  local     .text:_InitEPwm5Gpio (.text:_InitEPwm5Gpio)
00000000  local     .text:_InitEPwm6Gpio (.text:_InitEPwm6Gpio)
00000000  local     .text:_InitEPwm7Gpio (.text:_InitEPwm7Gpio)
00000000  local     .text:_InitEPwm8Gpio (.text:_InitEPwm8Gpio)
00000000  local     .text:_InitEPwmGpio (.text:_InitEPwmGpio)
00000000  local     .text:_InitEPwmSyncGpio (.text:_InitEPwmSyncGpio)
00000000  local     .text:_InitTzGpio (.text:_InitTzGpio)
00000000  global    _InitEPwm (.text:_InitEPwm)
00000000  global    _InitEPwm1Gpio (.text:_InitEPwm1Gpio)
00000000  global    _InitEPwm2Gpio (.text:_InitEPwm2Gpio)
00000000  global    _InitEPwm3Gpio (.text:_InitEPwm3Gpio)
00000000  global    _InitEPwm4Gpio (.text:_InitEPwm4Gpio)
00000000  global    _InitEPwm5Gpio (.text:_InitEPwm5Gpio)
00000000  global    _InitEPwm6Gpio (.text:_InitEPwm6Gpio)
00000000  global    _InitEPwm7Gpio (.text:_InitEPwm7Gpio)
00000000  global    _InitEPwm8Gpio (.text:_InitEPwm8Gpio)
00000000  global    _InitEPwmGpio (.text:_InitEPwmGpio)
00000000  global    _InitEPwmSyncGpio (.text:_InitEPwmSyncGpio)
00000000  global    _InitTzGpio (.text:_InitTzGpio)


================================================================================

F2806x_EQep.obj

Run/Load            
Value     Binding   Name (Section)
--------  --------  ---------------
00000000  local     .bss (.bss)
00000000  local     .data (.data)
00000000  local     .text (.text)
00000000  local     .text:_InitEQep (.text:_InitEQep)
00000000  local     .text:_InitEQep1Gpio (.text:_InitEQep1Gpio)
00000000  local     .text:_InitEQep2Gpio (.text:_InitEQep2Gpio)
00000000  local     .text:_InitEQepGpio (.text:_InitEQepGpio)
00000000  global    _InitEQep (.text:_InitEQep)
00000000  global    _InitEQep1Gpio (.text:_InitEQep1Gpio)
00000000  global    _InitEQep2Gpio (.text:_InitEQep2Gpio)
00000000  global    _InitEQepGpio (.text:_InitEQepGpio)


================================================================================

F2806x_Gpio.obj

Run/Load            
Value     Binding   Name (Section)
--------  --------  ---------------
00000000  local     .bss (.bss)
00000000  local     .data (.data)
00000000  local     .text (.text)
003edd91  local     .text:_InitGpio (.text:_InitGpio)
003edd91  global    _InitGpio (.text:_InitGpio)


================================================================================

F2806x_HRCap.obj

Run/Load            
Value     Binding   Name (Section)
--------  --------  ---------------
00000000  local     .bss (.bss)
00000000  local     .data (.data)
00000000  local     .text (.text)
00000000  local     .text:_InitHRCap (.text:_InitHRCap)
00000000  local     .text:_InitHRCap1Gpio (.text:_InitHRCap1Gpio)
00000000  local     .text:_InitHRCap2Gpio (.text:_InitHRCap2Gpio)
00000000  local     .text:_InitHRCap3Gpio (.text:_InitHRCap3Gpio)
00000000  local     .text:_InitHRCap4Gpio (.text:_InitHRCap4Gpio)
00000000  local     .text:_InitHRCapGpio (.text:_InitHRCapGpio)
00000000  global    _InitHRCap (.text:_InitHRCap)
00000000  global    _InitHRCap1Gpio (.text:_InitHRCap1Gpio)
00000000  global    _InitHRCap2Gpio (.text:_InitHRCap2Gpio)
00000000  global    _InitHRCap3Gpio (.text:_InitHRCap3Gpio)
00000000  global    _InitHRCap4Gpio (.text:_InitHRCap4Gpio)
00000000  global    _InitHRCapGpio (.text:_InitHRCapGpio)


================================================================================

F2806x_I2C.obj

Run/Load            
Value     Binding   Name (Section)
--------  --------  ---------------
00000000  local     .bss (.bss)
00000000  local     .data (.data)
00000000  local     .text (.text)
00000000  local     .text:_InitI2C (.text:_InitI2C)
00000000  local     .text:_InitI2CGpio (.text:_InitI2CGpio)
00000000  global    _InitI2C (.text:_InitI2C)
00000000  global    _InitI2CGpio (.text:_InitI2CGpio)


================================================================================

F2806x_Mcbsp.obj

Run/Load            
Value     Binding   Name (Section)
--------  --------  ---------------
00000003  local     $C$L1 (.text:_delay_loop)
00000003  local     $C$L2 (.text:_clkg_delay_loop)
00000000  local     .bss (.bss)
00000000  local     .data (.data)
00000000  local     .text (.text)
00000000  local     .text:_InitMcbspa (.text:_InitMcbspa)
00000000  local     .text:_InitMcbspa12bit (.text:_InitMcbspa12bit)
00000000  local     .text:_InitMcbspa16bit (.text:_InitMcbspa16bit)
00000000  local     .text:_InitMcbspa20bit (.text:_InitMcbspa20bit)
00000000  local     .text:_InitMcbspa24bit (.text:_InitMcbspa24bit)
00000000  local     .text:_InitMcbspa32bit (.text:_InitMcbspa32bit)
00000000  local     .text:_InitMcbspa8bit (.text:_InitMcbspa8bit)
00000000  local     .text:_InitMcbspaGpio (.text:_InitMcbspaGpio)
00000000  local     .text:_clkg_delay_loop (.text:_clkg_delay_loop)
00000000  local     .text:_delay_loop (.text:_delay_loop)
00000000  global    _InitMcbsp (.text:_InitMcbspa)
00000000  global    _InitMcbspGpio (.text:_InitMcbspaGpio)
00000000  global    _InitMcbspa (.text:_InitMcbspa)
00000000  global    _InitMcbspa12bit (.text:_InitMcbspa12bit)
00000000  global    _InitMcbspa16bit (.text:_InitMcbspa16bit)
00000000  global    _InitMcbspa20bit (.text:_InitMcbspa20bit)
00000000  global    _InitMcbspa24bit (.text:_InitMcbspa24bit)
00000000  global    _InitMcbspa32bit (.text:_InitMcbspa32bit)
00000000  global    _InitMcbspa8bit (.text:_InitMcbspa8bit)
00000000  global    _InitMcbspaGpio (.text:_InitMcbspaGpio)
00000000  global    _clkg_delay_loop (.text:_clkg_delay_loop)
00000000  global    _delay_loop (.text:_delay_loop)


================================================================================

F2806x_OscComp.obj

Run/Load            
Value     Binding   Name (Section)
--------  --------  ---------------
00000006  local     $C$L1 (.text:_GetOscTrimValue)
0000000a  local     $C$L2 (.text:_GetOscTrimValue)
0000000e  local     $C$L3 (.text:_GetOscTrimValue)
0000002b  local     $C$L4 (.text:_Osc2Comp)
0000002c  local     $C$L5 (.text:_Osc2Comp)
0000002b  local     $C$L6 (.text:_Osc1Comp)
0000002c  local     $C$L7 (.text:_Osc1Comp)
00000000  local     .bss (.bss)
00000000  local     .data (.data)
00000000  local     .text (.text)
00000000  local     .text:_GetOscTrimValue (.text:_GetOscTrimValue)
00000000  local     .text:_Osc1Comp (.text:_Osc1Comp)
00000000  local     .text:_Osc2Comp (.text:_Osc2Comp)
00000000  global    _GetOscTrimValue (.text:_GetOscTrimValue)
00000000  global    _Osc1Comp (.text:_Osc1Comp)
00000000  global    _Osc2Comp (.text:_Osc2Comp)


================================================================================

F2806x_PieCtrl.obj

Run/Load            
Value     Binding   Name (Section)
--------  --------  ---------------
00000000  local     .bss (.bss)
00000000  local     .data (.data)
00000000  local     .text (.text)
00000000  local     .text:_EnableInterrupts (.text:_EnableInterrupts)
003ed908  local     .text:_InitPieCtrl (.text:_InitPieCtrl)
00000000  global    _EnableInterrupts (.text:_EnableInterrupts)
003ed908  global    _InitPieCtrl (.text:_InitPieCtrl)


================================================================================

F2806x_PieVect.obj

Run/Load            
Value     Binding   Name (Section)
--------  --------  ---------------
003eded4  local     $C$L1 (.text:_InitPieVectTable)
00000000  local     .bss (.bss)
00000000  local     .data (.data)
003f022a  local     .econst:_PieVectTableInit (.econst:_PieVectTableInit)
00000000  local     .text (.text)
003edece  local     .text:_InitPieVectTable (.text:_InitPieVectTable)
003edece  global    _InitPieVectTable (.text:_InitPieVectTable)
003f022a  global    _PieVectTableInit (.econst:_PieVectTableInit)


================================================================================

F2806x_Sci.obj

Run/Load            
Value     Binding   Name (Section)
--------  --------  ---------------
00000000  local     .bss (.bss)
00000000  local     .data (.data)
00000000  local     .text (.text)
00000000  local     .text:_InitSci (.text:_InitSci)
00000000  local     .text:_InitSciGpio (.text:_InitSciGpio)
00000000  local     .text:_InitSciaGpio (.text:_InitSciaGpio)
00000000  local     .text:_InitScibGpio (.text:_InitScibGpio)
00000000  global    _InitSci (.text:_InitSci)
00000000  global    _InitSciGpio (.text:_InitSciGpio)
00000000  global    _InitSciaGpio (.text:_InitSciaGpio)
00000000  global    _InitScibGpio (.text:_InitScibGpio)


================================================================================

F2806x_Spi.obj

Run/Load            
Value     Binding   Name (Section)
--------  --------  ---------------
00000000  local     .bss (.bss)
00000000  local     .data (.data)
00000000  local     .text (.text)
00000000  local     .text:_InitSpi (.text:_InitSpi)
00000000  local     .text:_InitSpiGpio (.text:_InitSpiGpio)
00000000  local     .text:_InitSpiaGpio (.text:_InitSpiaGpio)
00000000  local     .text:_InitSpibGpio (.text:_InitSpibGpio)
00000000  global    _InitSpi (.text:_InitSpi)
00000000  global    _InitSpiGpio (.text:_InitSpiGpio)
00000000  global    _InitSpiaGpio (.text:_InitSpiaGpio)
00000000  global    _InitSpibGpio (.text:_InitSpibGpio)


================================================================================

F2806x_SysCtrl.obj

Run/Load             
Value      Binding   Name (Section)
--------   --------  ---------------
003ecbdc   local     $C$L1 (.text:_InitPll)
003ecbe3   local     $C$L2 (.text:_InitPll)
003ecbfa   local     $C$L3 (.text:_InitPll)
003ecc00   local     $C$L4 (.text:_InitPll)
003ecc05   local     $C$L5 (.text:_InitPll)
003ecc0d   local     $C$L6 (.text:_InitPll)
003ecc20   local     $C$L7 (.text:_InitPll)
00000008   local     $C$L8 (.text:_InitPll2)
0000001f   local     $C$L9 (.text:_InitPll2)
00000000   local     .bss (.bss)
00000000   local     .data (.data)
00000000   local     .text (.text)
00000000   local     .text:_CsmUnlock (.text:_CsmUnlock)
003ee23e   local     .text:_DisableDog (.text:_DisableDog)
00000000   local     .text:_ExtOscSel (.text:_ExtOscSel)
003ec806   local     .text:_InitPeripheralClocks (.text:_InitPeripheralClocks)
003ecbd1   local     .text:_InitPll (.text:_InitPll)
00000000   local     .text:_InitPll2 (.text:_InitPll2)
003edc55   local     .text:_InitSysCtrl (.text:_InitSysCtrl)
003edf21   local     .text:_IntOsc1Sel (.text:_IntOsc1Sel)
00000000   local     .text:_IntOsc2Sel (.text:_IntOsc2Sel)
00000000   local     .text:_ServiceDog (.text:_ServiceDog)
00000000   local     .text:_XtalOscSel (.text:_XtalOscSel)
00000000   global    _CsmUnlock (.text:_CsmUnlock)
003ee23e   global    _DisableDog (.text:_DisableDog)
00000000   global    _ExtOscSel (.text:_ExtOscSel)
00008000   global    _InitFlash (ramfuncs:_InitFlash)
 003ee700            
003ec806   global    _InitPeripheralClocks (.text:_InitPeripheralClocks)
003ecbd1   global    _InitPll (.text:_InitPll)
00000000   global    _InitPll2 (.text:_InitPll2)
003edc55   global    _InitSysCtrl (.text:_InitSysCtrl)
003edf21   global    _IntOsc1Sel (.text:_IntOsc1Sel)
00000000   global    _IntOsc2Sel (.text:_IntOsc2Sel)
00000000   global    _ServiceDog (.text:_ServiceDog)
00000000   global    _XtalOscSel (.text:_XtalOscSel)
00008000   local     ramfuncs:_InitFlash (ramfuncs:_InitFlash)
 003ee700            


================================================================================

F2806x_TempSensorConv.obj

Run/Load            
Value     Binding   Name (Section)
--------  --------  ---------------
00000000  local     .bss (.bss)
00000000  local     .data (.data)
00000000  local     .text (.text)
00000000  local     .text:_GetTemperatureC (.text:_GetTemperatureC)
00000000  local     .text:_GetTemperatureK (.text:_GetTemperatureK)
00000000  global    _GetTemperatureC (.text:_GetTemperatureC)
00000000  global    _GetTemperatureK (.text:_GetTemperatureK)


================================================================================

F2806x_usDelay.obj

Run/Load             
Value      Binding   Name (Section)
--------   --------  ---------------
00000000   local     .bss (.bss)
00000000   local     .data (.data)
00000000   local     .text (.text)
00008025   global    _DSP28x_usDelay (ramfuncs)
 003ee725            
00008025   local     ramfuncs (ramfuncs)
 003ee725            


================================================================================

interrupt.obj

Run/Load            
Value     Binding   Name (Section)
--------  --------  ---------------
003eced7  local     $C$L1 (.text:_Interrupt_enable)
0000004a  local     $C$L10 (.text:_Interrupt_clearIFR)
0000004d  local     $C$L11 (.text:_Interrupt_clearIFR)
00000050  local     $C$L12 (.text:_Interrupt_clearIFR)
00000053  local     $C$L13 (.text:_Interrupt_clearIFR)
00000056  local     $C$L14 (.text:_Interrupt_clearIFR)
00000059  local     $C$L15 (.text:_Interrupt_clearIFR)
0000005c  local     $C$L16 (.text:_Interrupt_clearIFR)
0000005f  local     $C$L17 (.text:_Interrupt_clearIFR)
00000062  local     $C$L18 (.text:_Interrupt_clearIFR)
00000065  local     $C$L19 (.text:_Interrupt_clearIFR)
003ecef2  local     $C$L2 (.text:_Interrupt_enable)
00000068  local     $C$L20 (.text:_Interrupt_clearIFR)
0000006b  local     $C$L21 (.text:_Interrupt_clearIFR)
0000006e  local     $C$L22 (.text:_Interrupt_clearIFR)
00000071  local     $C$L23 (.text:_Interrupt_clearIFR)
00000019  local     $C$L24 (.text:_Interrupt_disable)
0000003b  local     $C$L25 (.text:_Interrupt_disable)
00000042  local     $C$L26 (.text:_Interrupt_disable)
003ecef4  local     $C$L3 (.text:_Interrupt_enable)
003ecefb  local     $C$L4 (.text:_Interrupt_enable)
00000017  local     $C$L5 (.text:_Interrupt_clearIFR)
0000001e  local     $C$L6 (.text:_Interrupt_clearIFR)
00000034  local     $C$L7 (.text:_Interrupt_clearIFR)
00000044  local     $C$L8 (.text:_Interrupt_clearIFR)
00000047  local     $C$L9 (.text:_Interrupt_clearIFR)
00000000  local     .bss (.bss)
00000000  local     .data (.data)
00000000  local     .text (.text)
003ee4d6  local     .text:_IntDefaultHandler (.text:_IntDefaultHandler)
00000000  local     .text:_IntDisable (.text:_IntDisable)
00000000  local     .text:_IntEnable (.text:_IntEnable)
003ee648  local     .text:_IntMasterDisable (.text:_IntMasterDisable)
003ee64c  local     .text:_IntMasterEnable (.text:_IntMasterEnable)
00000000  local     .text:_IntRegister (.text:_IntRegister)
00000000  local     .text:_IntUnregister (.text:_IntUnregister)
00000000  local     .text:_Interrupt_clearIFR (.text:_Interrupt_clearIFR)
00000000  local     .text:_Interrupt_disable (.text:_Interrupt_disable)
003ecebb  local     .text:_Interrupt_enable (.text:_Interrupt_enable)
003ee4d6  global    _IntDefaultHandler (.text:_IntDefaultHandler)
00000000  global    _IntDisable (.text:_IntDisable)
00000000  global    _IntEnable (.text:_IntEnable)
003ee648  global    _IntMasterDisable (.text:_IntMasterDisable)
003ee64c  global    _IntMasterEnable (.text:_IntMasterEnable)
00000000  global    _IntRegister (.text:_IntRegister)
00000000  global    _IntUnregister (.text:_IntUnregister)
00000000  local     _Interrupt_clearIFR (.text:_Interrupt_clearIFR)
00000000  global    _Interrupt_disable (.text:_Interrupt_disable)
003ecebb  global    _Interrupt_enable (.text:_Interrupt_enable)


================================================================================

sysctl.obj

Run/Load            
Value     Binding   Name (Section)
--------  --------  ---------------
0000000f  local     $C$L1 (.text:_SysCtlUSBPLLEnable)
0000001c  local     $C$L10 (.text:_SysCtlPeripheralDisable)
00000021  local     $C$L11 (.text:_SysCtlPeripheralDisable)
00000026  local     $C$L12 (.text:_SysCtlPeripheralDisable)
0000002b  local     $C$L13 (.text:_SysCtlPeripheralDisable)
00000030  local     $C$L14 (.text:_SysCtlPeripheralDisable)
00000034  local     $C$L15 (.text:_SysCtlPeripheralDisable)
00000004  local     $C$L16 (.text:_SysCtlDelay)
0000000a  local     $C$L17 (.text:_SysCtlDelay)
00000011  local     $C$L2 (.text:_SysCtlPeripheralEnable)
0000001c  local     $C$L3 (.text:_SysCtlPeripheralEnable)
00000021  local     $C$L4 (.text:_SysCtlPeripheralEnable)
00000026  local     $C$L5 (.text:_SysCtlPeripheralEnable)
0000002b  local     $C$L6 (.text:_SysCtlPeripheralEnable)
00000030  local     $C$L7 (.text:_SysCtlPeripheralEnable)
00000034  local     $C$L8 (.text:_SysCtlPeripheralEnable)
00000011  local     $C$L9 (.text:_SysCtlPeripheralDisable)
00000000  local     .bss (.bss)
00000000  local     .data (.data)
00000000  local     .text (.text)
00000000  local     .text:_SysCtlClockGet (.text:_SysCtlClockGet)
00000000  local     .text:_SysCtlDelay (.text:_SysCtlDelay)
00000000  local     .text:_SysCtlPeripheralDisable (.text:_SysCtlPeripheralDisable)
00000000  local     .text:_SysCtlPeripheralEnable (.text:_SysCtlPeripheralEnable)
00000000  local     .text:_SysCtlPeripheralPresent (.text:_SysCtlPeripheralPresent)
00000000  local     .text:_SysCtlPeripheralReset (.text:_SysCtlPeripheralReset)
00000000  local     .text:_SysCtlUSBPLLDisable (.text:_SysCtlUSBPLLDisable)
00000000  local     .text:_SysCtlUSBPLLEnable (.text:_SysCtlUSBPLLEnable)
00000000  global    _SysCtlClockGet (.text:_SysCtlClockGet)
00000000  global    _SysCtlDelay (.text:_SysCtlDelay)
00000000  global    _SysCtlPeripheralDisable (.text:_SysCtlPeripheralDisable)
00000000  global    _SysCtlPeripheralEnable (.text:_SysCtlPeripheralEnable)
00000000  global    _SysCtlPeripheralPresent (.text:_SysCtlPeripheralPresent)
00000000  global    _SysCtlPeripheralReset (.text:_SysCtlPeripheralReset)
00000000  global    _SysCtlUSBPLLDisable (.text:_SysCtlUSBPLLDisable)
00000000  global    _SysCtlUSBPLLEnable (.text:_SysCtlUSBPLLEnable)


================================================================================

systick.obj

Run/Load            
Value     Binding   Name (Section)
--------  --------  ---------------
00000000  local     .bss (.bss)
00000000  local     .data (.data)
00000000  local     .text (.text)
00000000  local     .text:_SysTickDisable (.text:_SysTickDisable)
00000000  local     .text:_SysTickEnable (.text:_SysTickEnable)
00000000  local     .text:_SysTickInit (.text:_SysTickInit)
00000000  local     .text:_SysTickIntDisable (.text:_SysTickIntDisable)
00000000  local     .text:_SysTickIntEnable (.text:_SysTickIntEnable)
00000000  local     .text:_SysTickIntRegister (.text:_SysTickIntRegister)
00000000  local     .text:_SysTickIntUnregister (.text:_SysTickIntUnregister)
00000000  local     .text:_SysTickPeriodGet (.text:_SysTickPeriodGet)
00000000  local     .text:_SysTickPeriodSet (.text:_SysTickPeriodSet)
00000000  local     .text:_SysTickValueGet (.text:_SysTickValueGet)
00000000  global    _SysTickDisable (.text:_SysTickDisable)
00000000  global    _SysTickEnable (.text:_SysTickEnable)
00000000  global    _SysTickInit (.text:_SysTickInit)
00000000  global    _SysTickIntDisable (.text:_SysTickIntDisable)
00000000  global    _SysTickIntEnable (.text:_SysTickIntEnable)
00000000  global    _SysTickIntRegister (.text:_SysTickIntRegister)
00000000  global    _SysTickIntUnregister (.text:_SysTickIntUnregister)
00000000  global    _SysTickPeriodGet (.text:_SysTickPeriodGet)
00000000  global    _SysTickPeriodSet (.text:_SysTickPeriodSet)
00000000  global    _SysTickValueGet (.text:_SysTickValueGet)


================================================================================

uart.obj

Run/Load            
Value     Binding   Name (Section)
--------  --------  ---------------
00000008  local     $C$L1 (.text:_UARTTXIntUnregister)
00000009  local     $C$L10 (.text:_UARTIntEnable)
00000010  local     $C$L11 (.text:_UARTIntEnable)
00000017  local     $C$L12 (.text:_UARTIntEnable)
0000001e  local     $C$L13 (.text:_UARTIntEnable)
00000025  local     $C$L14 (.text:_UARTIntEnable)
0000000a  local     $C$L15 (.text:_UARTIntDisable)
00000012  local     $C$L16 (.text:_UARTIntDisable)
0000001a  local     $C$L17 (.text:_UARTIntDisable)
00000022  local     $C$L18 (.text:_UARTIntDisable)
0000002a  local     $C$L19 (.text:_UARTIntDisable)
00000009  local     $C$L2 (.text:_UARTTXIntUnregister)
00000014  local     $C$L20 (.text:_UARTIntClear)
0000001c  local     $C$L21 (.text:_UARTIntClear)
00000024  local     $C$L22 (.text:_UARTIntClear)
00000005  local     $C$L23 (.text:_UARTDisable)
00000029  local     $C$L24 (.text:_UARTConfigSetExpClk)
0000000c  local     $C$L25 (.text:_UARTCharPutNonBlocking)
00000007  local     $C$L26 (.text:_UARTCharPut)
0000000a  local     $C$L27 (.text:_UARTCharGetNonBlocking)
00000008  local     $C$L3 (.text:_UARTTXIntRegister)
00000009  local     $C$L4 (.text:_UARTTXIntRegister)
00000008  local     $C$L5 (.text:_UARTRXIntUnregister)
00000009  local     $C$L6 (.text:_UARTRXIntUnregister)
00000008  local     $C$L7 (.text:_UARTRXIntRegister)
00000009  local     $C$L8 (.text:_UARTRXIntRegister)
00000019  local     $C$L9 (.text:_UARTIntStatus)
00000000  local     .bss (.bss)
00000000  local     .data (.data)
00000000  local     .text (.text)
00000000  local     .text:_UARTBusy (.text:_UARTBusy)
00000000  local     .text:_UARTCharGet (.text:_UARTCharGet)
00000000  local     .text:_UARTCharGetNonBlocking (.text:_UARTCharGetNonBlocking)
00000000  local     .text:_UARTCharPut (.text:_UARTCharPut)
00000000  local     .text:_UARTCharPutNonBlocking (.text:_UARTCharPutNonBlocking)
00000000  local     .text:_UARTCharsAvail (.text:_UARTCharsAvail)
00000000  local     .text:_UARTConfigGetExpClk (.text:_UARTConfigGetExpClk)
00000000  local     .text:_UARTConfigSetExpClk (.text:_UARTConfigSetExpClk)
00000000  local     .text:_UARTDisable (.text:_UARTDisable)
00000000  local     .text:_UARTEnable (.text:_UARTEnable)
00000000  local     .text:_UARTFIFODisable (.text:_UARTFIFODisable)
00000000  local     .text:_UARTFIFOEnable (.text:_UARTFIFOEnable)
00000000  local     .text:_UARTFIFOLevelGet (.text:_UARTFIFOLevelGet)
00000000  local     .text:_UARTFIFOLevelSet (.text:_UARTFIFOLevelSet)
00000000  local     .text:_UARTIntClear (.text:_UARTIntClear)
00000000  local     .text:_UARTIntDisable (.text:_UARTIntDisable)
00000000  local     .text:_UARTIntEnable (.text:_UARTIntEnable)
00000000  local     .text:_UARTIntStatus (.text:_UARTIntStatus)
00000000  local     .text:_UARTParityModeGet (.text:_UARTParityModeGet)
00000000  local     .text:_UARTParityModeSet (.text:_UARTParityModeSet)
00000000  local     .text:_UARTRXIntRegister (.text:_UARTRXIntRegister)
00000000  local     .text:_UARTRXIntUnregister (.text:_UARTRXIntUnregister)
00000000  local     .text:_UARTRxErrorClear (.text:_UARTRxErrorClear)
00000000  local     .text:_UARTRxErrorGet (.text:_UARTRxErrorGet)
00000000  local     .text:_UARTSpaceAvail (.text:_UARTSpaceAvail)
00000000  local     .text:_UARTTXIntRegister (.text:_UARTTXIntRegister)
00000000  local     .text:_UARTTXIntUnregister (.text:_UARTTXIntUnregister)
00000000  local     .text:_UARTTxIntModeGet (.text:_UARTTxIntModeGet)
00000000  local     .text:_UARTTxIntModeSet (.text:_UARTTxIntModeSet)
00000000  global    _UARTBusy (.text:_UARTBusy)
00000000  global    _UARTCharGet (.text:_UARTCharGet)
00000000  global    _UARTCharGetNonBlocking (.text:_UARTCharGetNonBlocking)
00000000  global    _UARTCharPut (.text:_UARTCharPut)
00000000  global    _UARTCharPutNonBlocking (.text:_UARTCharPutNonBlocking)
00000000  global    _UARTCharsAvail (.text:_UARTCharsAvail)
00000000  global    _UARTConfigGetExpClk (.text:_UARTConfigGetExpClk)
00000000  global    _UARTConfigSetExpClk (.text:_UARTConfigSetExpClk)
00000000  global    _UARTDisable (.text:_UARTDisable)
00000000  global    _UARTEnable (.text:_UARTEnable)
00000000  global    _UARTFIFODisable (.text:_UARTFIFODisable)
00000000  global    _UARTFIFOEnable (.text:_UARTFIFOEnable)
00000000  global    _UARTFIFOLevelGet (.text:_UARTFIFOLevelGet)
00000000  global    _UARTFIFOLevelSet (.text:_UARTFIFOLevelSet)
00000000  global    _UARTIntClear (.text:_UARTIntClear)
00000000  global    _UARTIntDisable (.text:_UARTIntDisable)
00000000  global    _UARTIntEnable (.text:_UARTIntEnable)
00000000  global    _UARTIntStatus (.text:_UARTIntStatus)
00000000  global    _UARTParityModeGet (.text:_UARTParityModeGet)
00000000  global    _UARTParityModeSet (.text:_UARTParityModeSet)
00000000  global    _UARTRXIntRegister (.text:_UARTRXIntRegister)
00000000  global    _UARTRXIntUnregister (.text:_UARTRXIntUnregister)
00000000  global    _UARTRxErrorClear (.text:_UARTRxErrorClear)
00000000  global    _UARTRxErrorGet (.text:_UARTRxErrorGet)
00000000  global    _UARTSpaceAvail (.text:_UARTSpaceAvail)
00000000  global    _UARTTXIntRegister (.text:_UARTTXIntRegister)
00000000  global    _UARTTXIntUnregister (.text:_UARTTXIntUnregister)
00000000  global    _UARTTxIntModeGet (.text:_UARTTxIntModeGet)
00000000  global    _UARTTxIntModeSet (.text:_UARTTxIntModeSet)


================================================================================

usb.obj

Run/Load            
Value     Binding   Name (Section)
--------  --------  ---------------
00000009  local     $C$L1 (.text:_USBOTGSessionRequest)
00000015  local     $C$L10 (.text:_USBIntEnable)
00000024  local     $C$L100 (.text:_USBDevEndpointStallClear)
00000011  local     $C$L101 (.text:_USBDevEndpointStall)
00000019  local     $C$L102 (.text:_USBDevEndpointStall)
0000001f  local     $C$L103 (.text:_USBDevEndpointStall)
00000011  local     $C$L104 (.text:_USBDevEndpointDataAck)
00000019  local     $C$L105 (.text:_USBDevEndpointDataAck)
0000001e  local     $C$L106 (.text:_USBDevEndpointConfigSet)
00000021  local     $C$L107 (.text:_USBDevEndpointConfigSet)
0000002a  local     $C$L108 (.text:_USBDevEndpointConfigSet)
00000036  local     $C$L109 (.text:_USBDevEndpointConfigSet)
00000024  local     $C$L11 (.text:_USBIntEnable)
0000004d  local     $C$L110 (.text:_USBDevEndpointConfigSet)
00000050  local     $C$L111 (.text:_USBDevEndpointConfigSet)
00000059  local     $C$L112 (.text:_USBDevEndpointConfigSet)
00000064  local     $C$L113 (.text:_USBDevEndpointConfigSet)
00000018  local     $C$L114 (.text:_USBDevEndpointConfigGet)
0000001e  local     $C$L115 (.text:_USBDevEndpointConfigGet)
0000001f  local     $C$L116 (.text:_USBDevEndpointConfigGet)
00000021  local     $C$L117 (.text:_USBDevEndpointConfigGet)
00000025  local     $C$L118 (.text:_USBDevEndpointConfigGet)
0000003b  local     $C$L119 (.text:_USBDevEndpointConfigGet)
00000010  local     $C$L12 (.text:_USBIntDisableControl)
00000041  local     $C$L120 (.text:_USBDevEndpointConfigGet)
00000042  local     $C$L121 (.text:_USBDevEndpointConfigGet)
00000044  local     $C$L122 (.text:_USBDevEndpointConfigGet)
00000047  local     $C$L123 (.text:_USBDevEndpointConfigGet)
00000049  local     $C$L124 (.text:_USBDevEndpointConfigGet)
0000000c  local     $C$L13 (.text:_USBIntDisable)
0000001b  local     $C$L14 (.text:_USBIntDisable)
0000002b  local     $C$L15 (.text:_USBIntDisable)
00000007  local     $C$L16 (.text:_USBHostSpeedGet)
0000000b  local     $C$L17 (.text:_USBHostSpeedGet)
00000009  local     $C$L18 (.text:_USBHostResume)
0000000c  local     $C$L19 (.text:_USBHostResume)
0000000c  local     $C$L2 (.text:_USBOTGSessionRequest)
00000009  local     $C$L20 (.text:_USBHostReset)
0000000c  local     $C$L21 (.text:_USBHostReset)
00000007  local     $C$L22 (.text:_USBHostRequestINClear)
00000009  local     $C$L23 (.text:_USBHostRequestINClear)
00000007  local     $C$L24 (.text:_USBHostRequestIN)
00000009  local     $C$L25 (.text:_USBHostRequestIN)
00000009  local     $C$L26 (.text:_USBHostHubAddrSet)
0000000a  local     $C$L27 (.text:_USBHostHubAddrSet)
0000001e  local     $C$L28 (.text:_USBHostHubAddrSet)
0000000b  local     $C$L29 (.text:_USBHostHubAddrGet)
00000017  local     $C$L3 (.text:_USBIntStatusControl)
00000010  local     $C$L30 (.text:_USBHostHubAddrGet)
0000000e  local     $C$L31 (.text:_USBHostEndpointStatusClear)
0000000b  local     $C$L32 (.text:_USBHostEndpointDataToggle)
0000000c  local     $C$L33 (.text:_USBHostEndpointDataToggle)
0000000e  local     $C$L34 (.text:_USBHostEndpointDataToggle)
0000000f  local     $C$L35 (.text:_USBHostEndpointDataToggle)
00000018  local     $C$L36 (.text:_USBHostEndpointDataToggle)
00000024  local     $C$L37 (.text:_USBHostEndpointDataToggle)
00000027  local     $C$L38 (.text:_USBHostEndpointDataToggle)
0000002e  local     $C$L39 (.text:_USBHostEndpointDataToggle)
00000023  local     $C$L4 (.text:_USBIntStatusControl)
00000008  local     $C$L40 (.text:_USBHostEndpointDataAck)
0000000c  local     $C$L41 (.text:_USBHostEndpointDataAck)
00000010  local     $C$L42 (.text:_USBHostEndpointConfig)
00000012  local     $C$L43 (.text:_USBHostEndpointConfig)
00000029  local     $C$L44 (.text:_USBHostEndpointConfig)
0000002c  local     $C$L45 (.text:_USBHostEndpointConfig)
0000002e  local     $C$L46 (.text:_USBHostEndpointConfig)
0000002f  local     $C$L47 (.text:_USBHostEndpointConfig)
00000054  local     $C$L48 (.text:_USBHostEndpointConfig)
00000057  local     $C$L49 (.text:_USBHostEndpointConfig)
00000008  local     $C$L5 (.text:_USBIntStatus)
0000005b  local     $C$L50 (.text:_USBHostEndpointConfig)
0000007d  local     $C$L51 (.text:_USBHostEndpointConfig)
00000080  local     $C$L52 (.text:_USBHostEndpointConfig)
00000083  local     $C$L53 (.text:_USBHostEndpointConfig)
00000086  local     $C$L54 (.text:_USBHostEndpointConfig)
00000097  local     $C$L55 (.text:_USBHostEndpointConfig)
0000000c  local     $C$L56 (.text:_USBHostAddrSet)
00000011  local     $C$L57 (.text:_USBHostAddrSet)
0000000b  local     $C$L58 (.text:_USBHostAddrGet)
00000010  local     $C$L59 (.text:_USBHostAddrGet)
00000032  local     $C$L6 (.text:_USBIntStatus)
00000012  local     $C$L60 (.text:_USBFIFOFlush)
00000020  local     $C$L61 (.text:_USBFIFOFlush)
0000002a  local     $C$L62 (.text:_USBFIFOFlush)
0000002b  local     $C$L63 (.text:_USBFIFOFlush)
00000015  local     $C$L64 (.text:_USBIndexWrite)
0000001a  local     $C$L65 (.text:_USBIndexWrite)
00000019  local     $C$L66 (.text:_USBFIFOConfigSet)
00000027  local     $C$L67 (.text:_USBFIFOConfigSet)
00000011  local     $C$L68 (.text:_USBIndexRead)
00000015  local     $C$L69 (.text:_USBIndexRead)
0000003d  local     $C$L7 (.text:_USBIntStatus)
0000001a  local     $C$L70 (.text:_USBFIFOConfigGet)
00000029  local     $C$L71 (.text:_USBFIFOConfigGet)
0000000d  local     $C$L72 (.text:_USBEndpointDataToggleClear)
00000014  local     $C$L73 (.text:_USBEndpointDataToggleClear)
00000016  local     $C$L74 (.text:_USBEndpointDataSend)
0000001d  local     $C$L75 (.text:_USBEndpointDataSend)
00000020  local     $C$L76 (.text:_USBEndpointDataSend)
00000026  local     $C$L77 (.text:_USBEndpointDataSend)
00000012  local     $C$L78 (.text:_USBEndpointDataPut)
0000001a  local     $C$L79 (.text:_USBEndpointDataPut)
0000000d  local     $C$L8 (.text:_USBIntEnableControl)
0000001f  local     $C$L80 (.text:_USBEndpointDataPut)
00000008  local     $C$L81 (.text:_USBEndpointDataGet)
0000000a  local     $C$L82 (.text:_USBEndpointDataGet)
00000013  local     $C$L83 (.text:_USBEndpointDataGet)
0000001d  local     $C$L84 (.text:_USBEndpointDataGet)
00000026  local     $C$L85 (.text:_USBEndpointDataGet)
0000002b  local     $C$L86 (.text:_USBEndpointDataGet)
00000008  local     $C$L87 (.text:_USBEndpointDataAvail)
0000000a  local     $C$L88 (.text:_USBEndpointDataAvail)
00000015  local     $C$L89 (.text:_USBEndpointDataAvail)
00000008  local     $C$L9 (.text:_USBIntEnable)
0000000d  local     $C$L90 (.text:_USBEndpointDMAEnable)
00000014  local     $C$L91 (.text:_USBEndpointDMAEnable)
0000000e  local     $C$L92 (.text:_USBEndpointDMADisable)
00000016  local     $C$L93 (.text:_USBEndpointDMADisable)
0000000e  local     $C$L94 (.text:_USBDevEndpointStatusClear)
00000018  local     $C$L95 (.text:_USBDevEndpointStatusClear)
00000024  local     $C$L96 (.text:_USBDevEndpointStatusClear)
0000003d  local     $C$L97 (.text:_USBDevEndpointStatusClear)
00000013  local     $C$L98 (.text:_USBDevEndpointStallClear)
0000001d  local     $C$L99 (.text:_USBDevEndpointStallClear)
00000000  local     .bss (.bss)
00000000  local     .data (.data)
00000000  local     .text (.text)
00000000  local     .text:_USBDevAddrGet (.text:_USBDevAddrGet)
00000000  local     .text:_USBDevAddrSet (.text:_USBDevAddrSet)
00000000  local     .text:_USBDevConnect (.text:_USBDevConnect)
00000000  local     .text:_USBDevDisconnect (.text:_USBDevDisconnect)
00000000  local     .text:_USBDevEndpointConfigGet (.text:_USBDevEndpointConfigGet)
00000000  local     .text:_USBDevEndpointConfigSet (.text:_USBDevEndpointConfigSet)
00000000  local     .text:_USBDevEndpointDataAck (.text:_USBDevEndpointDataAck)
00000000  local     .text:_USBDevEndpointStall (.text:_USBDevEndpointStall)
00000000  local     .text:_USBDevEndpointStallClear (.text:_USBDevEndpointStallClear)
00000000  local     .text:_USBDevEndpointStatusClear (.text:_USBDevEndpointStatusClear)
00000000  local     .text:_USBDevMode (.text:_USBDevMode)
00000000  local     .text:_USBEndpointDMAChannel (.text:_USBEndpointDMAChannel)
00000000  local     .text:_USBEndpointDMADisable (.text:_USBEndpointDMADisable)
00000000  local     .text:_USBEndpointDMAEnable (.text:_USBEndpointDMAEnable)
00000000  local     .text:_USBEndpointDataAvail (.text:_USBEndpointDataAvail)
00000000  local     .text:_USBEndpointDataGet (.text:_USBEndpointDataGet)
00000000  local     .text:_USBEndpointDataPut (.text:_USBEndpointDataPut)
00000000  local     .text:_USBEndpointDataSend (.text:_USBEndpointDataSend)
00000000  local     .text:_USBEndpointDataToggleClear (.text:_USBEndpointDataToggleClear)
00000000  local     .text:_USBEndpointPacketCountSet (.text:_USBEndpointPacketCountSet)
00000000  local     .text:_USBEndpointStatus (.text:_USBEndpointStatus)
00000000  local     .text:_USBFIFOAddrGet (.text:_USBFIFOAddrGet)
00000000  local     .text:_USBFIFOConfigGet (.text:_USBFIFOConfigGet)
00000000  local     .text:_USBFIFOConfigSet (.text:_USBFIFOConfigSet)
00000000  local     .text:_USBFIFOFlush (.text:_USBFIFOFlush)
00000000  local     .text:_USBFrameNumberGet (.text:_USBFrameNumberGet)
00000000  local     .text:_USBHostAddrGet (.text:_USBHostAddrGet)
00000000  local     .text:_USBHostAddrSet (.text:_USBHostAddrSet)
00000000  local     .text:_USBHostEndpointConfig (.text:_USBHostEndpointConfig)
00000000  local     .text:_USBHostEndpointDataAck (.text:_USBHostEndpointDataAck)
00000000  local     .text:_USBHostEndpointDataToggle (.text:_USBHostEndpointDataToggle)
00000000  local     .text:_USBHostEndpointStatusClear (.text:_USBHostEndpointStatusClear)
00000000  local     .text:_USBHostHubAddrGet (.text:_USBHostHubAddrGet)
00000000  local     .text:_USBHostHubAddrSet (.text:_USBHostHubAddrSet)
00000000  local     .text:_USBHostMode (.text:_USBHostMode)
00000000  local     .text:_USBHostPwrConfig (.text:_USBHostPwrConfig)
00000000  local     .text:_USBHostPwrDisable (.text:_USBHostPwrDisable)
00000000  local     .text:_USBHostPwrEnable (.text:_USBHostPwrEnable)
00000000  local     .text:_USBHostPwrFaultDisable (.text:_USBHostPwrFaultDisable)
00000000  local     .text:_USBHostPwrFaultEnable (.text:_USBHostPwrFaultEnable)
00000000  local     .text:_USBHostRequestIN (.text:_USBHostRequestIN)
00000000  local     .text:_USBHostRequestINClear (.text:_USBHostRequestINClear)
00000000  local     .text:_USBHostRequestStatus (.text:_USBHostRequestStatus)
00000000  local     .text:_USBHostReset (.text:_USBHostReset)
00000000  local     .text:_USBHostResume (.text:_USBHostResume)
00000000  local     .text:_USBHostSpeedGet (.text:_USBHostSpeedGet)
00000000  local     .text:_USBHostSuspend (.text:_USBHostSuspend)
00000000  local     .text:_USBIndexRead (.text:_USBIndexRead)
00000000  local     .text:_USBIndexWrite (.text:_USBIndexWrite)
00000000  local     .text:_USBIntDisable (.text:_USBIntDisable)
00000000  local     .text:_USBIntDisableControl (.text:_USBIntDisableControl)
00000000  local     .text:_USBIntDisableEndpoint (.text:_USBIntDisableEndpoint)
00000000  local     .text:_USBIntEnable (.text:_USBIntEnable)
00000000  local     .text:_USBIntEnableControl (.text:_USBIntEnableControl)
00000000  local     .text:_USBIntEnableEndpoint (.text:_USBIntEnableEndpoint)
00000000  local     .text:_USBIntRegister (.text:_USBIntRegister)
00000000  local     .text:_USBIntStatus (.text:_USBIntStatus)
00000000  local     .text:_USBIntStatusControl (.text:_USBIntStatusControl)
00000000  local     .text:_USBIntStatusEndpoint (.text:_USBIntStatusEndpoint)
00000000  local     .text:_USBIntUnregister (.text:_USBIntUnregister)
00000000  local     .text:_USBModeGet (.text:_USBModeGet)
00000000  local     .text:_USBNumEndpointsGet (.text:_USBNumEndpointsGet)
00000000  local     .text:_USBOTGMode (.text:_USBOTGMode)
00000000  local     .text:_USBOTGSessionRequest (.text:_USBOTGSessionRequest)
00000000  local     .text:_USBPHYPowerOff (.text:_USBPHYPowerOff)
00000000  local     .text:_USBPHYPowerOn (.text:_USBPHYPowerOn)
00000000  global    _USBDevAddrGet (.text:_USBDevAddrGet)
00000000  global    _USBDevAddrSet (.text:_USBDevAddrSet)
00000000  global    _USBDevConnect (.text:_USBDevConnect)
00000000  global    _USBDevDisconnect (.text:_USBDevDisconnect)
00000000  global    _USBDevEndpointConfigGet (.text:_USBDevEndpointConfigGet)
00000000  global    _USBDevEndpointConfigSet (.text:_USBDevEndpointConfigSet)
00000000  global    _USBDevEndpointDataAck (.text:_USBDevEndpointDataAck)
00000000  global    _USBDevEndpointStall (.text:_USBDevEndpointStall)
00000000  global    _USBDevEndpointStallClear (.text:_USBDevEndpointStallClear)
00000000  global    _USBDevEndpointStatusClear (.text:_USBDevEndpointStatusClear)
00000000  global    _USBDevMode (.text:_USBDevMode)
00000000  global    _USBEndpointDMAChannel (.text:_USBEndpointDMAChannel)
00000000  global    _USBEndpointDMADisable (.text:_USBEndpointDMADisable)
00000000  global    _USBEndpointDMAEnable (.text:_USBEndpointDMAEnable)
00000000  global    _USBEndpointDataAvail (.text:_USBEndpointDataAvail)
00000000  global    _USBEndpointDataGet (.text:_USBEndpointDataGet)
00000000  global    _USBEndpointDataPut (.text:_USBEndpointDataPut)
00000000  global    _USBEndpointDataSend (.text:_USBEndpointDataSend)
00000000  global    _USBEndpointDataToggleClear (.text:_USBEndpointDataToggleClear)
00000000  global    _USBEndpointPacketCountSet (.text:_USBEndpointPacketCountSet)
00000000  global    _USBEndpointStatus (.text:_USBEndpointStatus)
00000000  global    _USBFIFOAddrGet (.text:_USBFIFOAddrGet)
00000000  global    _USBFIFOConfigGet (.text:_USBFIFOConfigGet)
00000000  global    _USBFIFOConfigSet (.text:_USBFIFOConfigSet)
00000000  global    _USBFIFOFlush (.text:_USBFIFOFlush)
00000000  global    _USBFrameNumberGet (.text:_USBFrameNumberGet)
00000000  global    _USBHostAddrGet (.text:_USBHostAddrGet)
00000000  global    _USBHostAddrSet (.text:_USBHostAddrSet)
00000000  global    _USBHostEndpointConfig (.text:_USBHostEndpointConfig)
00000000  global    _USBHostEndpointDataAck (.text:_USBHostEndpointDataAck)
00000000  global    _USBHostEndpointDataToggle (.text:_USBHostEndpointDataToggle)
00000000  global    _USBHostEndpointStatusClear (.text:_USBHostEndpointStatusClear)
00000000  global    _USBHostHubAddrGet (.text:_USBHostHubAddrGet)
00000000  global    _USBHostHubAddrSet (.text:_USBHostHubAddrSet)
00000000  global    _USBHostMode (.text:_USBHostMode)
00000000  global    _USBHostPwrConfig (.text:_USBHostPwrConfig)
00000000  global    _USBHostPwrDisable (.text:_USBHostPwrDisable)
00000000  global    _USBHostPwrEnable (.text:_USBHostPwrEnable)
00000000  global    _USBHostPwrFaultDisable (.text:_USBHostPwrFaultDisable)
00000000  global    _USBHostPwrFaultEnable (.text:_USBHostPwrFaultEnable)
00000000  global    _USBHostRequestIN (.text:_USBHostRequestIN)
00000000  global    _USBHostRequestINClear (.text:_USBHostRequestINClear)
00000000  global    _USBHostRequestStatus (.text:_USBHostRequestStatus)
00000000  global    _USBHostReset (.text:_USBHostReset)
00000000  global    _USBHostResume (.text:_USBHostResume)
00000000  global    _USBHostSpeedGet (.text:_USBHostSpeedGet)
00000000  global    _USBHostSuspend (.text:_USBHostSuspend)
00000000  local     _USBIndexRead (.text:_USBIndexRead)
00000000  local     _USBIndexWrite (.text:_USBIndexWrite)
00000000  global    _USBIntDisable (.text:_USBIntDisable)
00000000  global    _USBIntDisableControl (.text:_USBIntDisableControl)
00000000  global    _USBIntDisableEndpoint (.text:_USBIntDisableEndpoint)
00000000  global    _USBIntEnable (.text:_USBIntEnable)
00000000  global    _USBIntEnableControl (.text:_USBIntEnableControl)
00000000  global    _USBIntEnableEndpoint (.text:_USBIntEnableEndpoint)
00000000  global    _USBIntRegister (.text:_USBIntRegister)
00000000  global    _USBIntStatus (.text:_USBIntStatus)
00000000  global    _USBIntStatusControl (.text:_USBIntStatusControl)
00000000  global    _USBIntStatusEndpoint (.text:_USBIntStatusEndpoint)
00000000  global    _USBIntUnregister (.text:_USBIntUnregister)
00000000  global    _USBModeGet (.text:_USBModeGet)
00000000  global    _USBNumEndpointsGet (.text:_USBNumEndpointsGet)
00000000  global    _USBOTGMode (.text:_USBOTGMode)
00000000  global    _USBOTGSessionRequest (.text:_USBOTGSessionRequest)
00000000  global    _USBPHYPowerOff (.text:_USBPHYPowerOff)
00000000  global    _USBPHYPowerOn (.text:_USBPHYPowerOn)


================================================================================

F2806x_GlobalVariableDefs.obj

Run/Load            
Value     Binding   Name (Section)
--------  --------  ---------------
00000000  local     .bss (.bss)
00000000  local     .data (.data)
00000000  local     .text (.text)
00007100  local     AdcRegsFile (AdcRegsFile)
00000b00  local     AdcResultFile (AdcResultFile)
00001400  local     Cla1RegsFile (Cla1RegsFile)
00006400  local     Comp1RegsFile (Comp1RegsFile)
00006420  local     Comp2RegsFile (Comp2RegsFile)
00006440  local     Comp3RegsFile (Comp3RegsFile)
00000c00  local     CpuTimer0RegsFile (CpuTimer0RegsFile)
00000c08  local     CpuTimer1RegsFile (CpuTimer1RegsFile)
00000c10  local     CpuTimer2RegsFile (CpuTimer2RegsFile)
003f7ff8  local     CsmPwlFile (CsmPwlFile)
00000ae0  local     CsmRegsFile (CsmRegsFile)
00000880  local     DevEmuRegsFile (DevEmuRegsFile)
00001000  local     DmaRegsFile (DmaRegsFile)
00006040  local     ECanaLAMRegsFile (ECanaLAMRegsFile)
000060c0  local     ECanaMOTORegsFile (ECanaMOTORegsFile)
00006080  local     ECanaMOTSRegsFile (ECanaMOTSRegsFile)
00006100  local     ECanaMboxesFile (ECanaMboxesFile)
00006000  local     ECanaRegsFile (ECanaRegsFile)
00006a00  local     ECap1RegsFile (ECap1RegsFile)
00006a20  local     ECap2RegsFile (ECap2RegsFile)
00006a40  local     ECap3RegsFile (ECap3RegsFile)
00006800  local     EPwm1RegsFile (EPwm1RegsFile)
00006840  local     EPwm2RegsFile (EPwm2RegsFile)
00006880  local     EPwm3RegsFile (EPwm3RegsFile)
000068c0  local     EPwm4RegsFile (EPwm4RegsFile)
00006900  local     EPwm5RegsFile (EPwm5RegsFile)
00006940  local     EPwm6RegsFile (EPwm6RegsFile)
00006980  local     EPwm7RegsFile (EPwm7RegsFile)
000069c0  local     EPwm8RegsFile (EPwm8RegsFile)
00006b00  local     EQep1RegsFile (EQep1RegsFile)
00006b40  local     EQep2RegsFile (EQep2RegsFile)
00000d01  local     EmuBModeVar (EmuBModeVar)
00000d00  local     EmuKeyVar (EmuKeyVar)
00000d02  local     FlashCallbackVar (FlashCallbackVar)
00000a80  local     FlashRegsFile (FlashRegsFile)
00000d04  local     FlashScalingVar (FlashScalingVar)
00006f80  local     GpioCtrlRegsFile (GpioCtrlRegsFile)
00006fc0  local     GpioDataRegsFile (GpioDataRegsFile)
00006fe0  local     GpioIntRegsFile (GpioIntRegsFile)
00006ac0  local     HRCap1RegsFile (HRCap1RegsFile)
00006ae0  local     HRCap2RegsFile (HRCap2RegsFile)
00006c80  local     HRCap3RegsFile (HRCap3RegsFile)
00006ca0  local     HRCap4RegsFile (HRCap4RegsFile)
00007900  local     I2caRegsFile (I2caRegsFile)
00005000  local     McbspaRegsFile (McbspaRegsFile)
00007060  local     NmiIntruptRegsFile (NmiIntruptRegsFile)
003d7e80  local     PartIdRegsFile (PartIdRegsFile)
00000ce0  local     PieCtrlRegsFile (PieCtrlRegsFile)
00000d00  local     PieVectTableFile (PieVectTableFile)
00007050  local     SciaRegsFile (SciaRegsFile)
00007750  local     ScibRegsFile (ScibRegsFile)
00007040  local     SpiaRegsFile (SpiaRegsFile)
00007740  local     SpibRegsFile (SpibRegsFile)
00007010  local     SysCtrlRegsFile (SysCtrlRegsFile)
00000985  local     SysPwrCtrlRegsFile (SysPwrCtrlRegsFile)
00004000  local     Usb0RegsFile (Usb0RegsFile)
00007070  local     XIntruptRegsFile (XIntruptRegsFile)
00007100  global    _AdcRegs (AdcRegsFile)
00000b00  global    _AdcResult (AdcResultFile)
00001400  global    _Cla1Regs (Cla1RegsFile)
00006400  global    _Comp1Regs (Comp1RegsFile)
00006420  global    _Comp2Regs (Comp2RegsFile)
00006440  global    _Comp3Regs (Comp3RegsFile)
00000c00  global    _CpuTimer0Regs (CpuTimer0RegsFile)
00000c08  global    _CpuTimer1Regs (CpuTimer1RegsFile)
00000c10  global    _CpuTimer2Regs (CpuTimer2RegsFile)
003f7ff8  global    _CsmPwl (CsmPwlFile)
00000ae0  global    _CsmRegs (CsmRegsFile)
00000880  global    _DevEmuRegs (DevEmuRegsFile)
00001000  global    _DmaRegs (DmaRegsFile)
00006040  global    _ECanaLAMRegs (ECanaLAMRegsFile)
000060c0  global    _ECanaMOTORegs (ECanaMOTORegsFile)
00006080  global    _ECanaMOTSRegs (ECanaMOTSRegsFile)
00006100  global    _ECanaMboxes (ECanaMboxesFile)
00006000  global    _ECanaRegs (ECanaRegsFile)
00006a00  global    _ECap1Regs (ECap1RegsFile)
00006a20  global    _ECap2Regs (ECap2RegsFile)
00006a40  global    _ECap3Regs (ECap3RegsFile)
00006800  global    _EPwm1Regs (EPwm1RegsFile)
00006840  global    _EPwm2Regs (EPwm2RegsFile)
00006880  global    _EPwm3Regs (EPwm3RegsFile)
000068c0  global    _EPwm4Regs (EPwm4RegsFile)
00006900  global    _EPwm5Regs (EPwm5RegsFile)
00006940  global    _EPwm6Regs (EPwm6RegsFile)
00006980  global    _EPwm7Regs (EPwm7RegsFile)
000069c0  global    _EPwm8Regs (EPwm8RegsFile)
00006b00  global    _EQep1Regs (EQep1RegsFile)
00006b40  global    _EQep2Regs (EQep2RegsFile)
00000d01  global    _EmuBMode (EmuBModeVar)
00000d00  global    _EmuKey (EmuKeyVar)
00000a80  global    _FlashRegs (FlashRegsFile)
00000d04  global    _Flash_CPUScaleFactor (FlashScalingVar)
00000d02  global    _Flash_CallbackPtr (FlashCallbackVar)
00006f80  global    _GpioCtrlRegs (GpioCtrlRegsFile)
00006fc0  global    _GpioDataRegs (GpioDataRegsFile)
00006fe0  global    _GpioIntRegs (GpioIntRegsFile)
00006ac0  global    _HRCap1Regs (HRCap1RegsFile)
00006ae0  global    _HRCap2Regs (HRCap2RegsFile)
00006c80  global    _HRCap3Regs (HRCap3RegsFile)
00006ca0  global    _HRCap4Regs (HRCap4RegsFile)
00007900  global    _I2caRegs (I2caRegsFile)
00005000  global    _McbspaRegs (McbspaRegsFile)
00007060  global    _NmiIntruptRegs (NmiIntruptRegsFile)
003d7e80  global    _PartIdRegs (PartIdRegsFile)
00000ce0  global    _PieCtrlRegs (PieCtrlRegsFile)
00000d00  global    _PieVectTable (PieVectTableFile)
00007050  global    _SciaRegs (SciaRegsFile)
00007750  global    _ScibRegs (ScibRegsFile)
00007040  global    _SpiaRegs (SpiaRegsFile)
00007740  global    _SpibRegs (SpibRegsFile)
00007010  global    _SysCtrlRegs (SysCtrlRegsFile)
00000985  global    _SysPwrCtrlRegs (SysPwrCtrlRegsFile)
00004000  global    _Usb0Regs (Usb0RegsFile)
00007070  global    _XIntruptRegs (XIntruptRegsFile)


================================================================================

csmon_config.obj

Run/Load            
Value     Binding   Name (Section)
--------  --------  ---------------
00000000  local     .bss (.bss)
00000000  local     .data (.data)
003ee72a  local     .econst:_asParameterList (.econst:_asParameterList)
00000000  local     .text (.text)
003ee72a  global    _asParameterList (.econst:_asParameterList)


================================================================================

<linker>

<< No Symbols Defined >>


================================================================================

CSMON_C28xx.lib : csmon.obj

Run/Load            
Value     Binding   Name (Section)
--------  --------  ---------------
003eca7d  local     $C$L1 (.text:_CSMON_bCheckValidDateTime)
003eb5c0  local     $C$L10 (.text:_CSMON_vSetupHoldingRegistersAndCoilsAddressTableFromCSMONParameterList)
003ed56c  local     $C$L100 (.text:_CSMON_vAutorizationReset)
003ed570  local     $C$L101 (.text:_CSMON_vAutorizationReset)
003ed57b  local     $C$L102 (.text:_CSMON_vAutorizationReset)
003edc3a  local     $C$L103 (.text:_CSMON_u32GetFreeRunningTimerMicroseconds)
00000008  local     $C$L104 (.text:_CSMON_eSetUpScopeParam)
00000020  local     $C$L105 (.text:_CSMON_eSetUpScopeParam)
0000003e  local     $C$L106 (.text:_CSMON_eSetUpScopeParam)
00000042  local     $C$L107 (.text:_CSMON_eSetUpScopeParam)
0000004d  local     $C$L108 (.text:_CSMON_eSetUpScopeParam)
00000052  local     $C$L109 (.text:_CSMON_eSetUpScopeParam)
003eb5c6  local     $C$L11 (.text:_CSMON_vSetupHoldingRegistersAndCoilsAddressTableFromCSMONParameterList)
00000056  local     $C$L110 (.text:_CSMON_eSetUpScopeParam)
0000005b  local     $C$L111 (.text:_CSMON_eSetUpScopeParam)
0000005c  local     $C$L112 (.text:_CSMON_eSetUpScopeParam)
0000005d  local     $C$L113 (.text:_CSMON_eSetUpScopeParam)
003ee1ab  local     $C$L114 (.text:_CSMON_eSetServerOnStatus)
003ee1ac  local     $C$L115 (.text:_CSMON_eSetServerOnStatus)
003ecbb7  local     $C$L116 (.text:_CSMON_eSetRecorderTriggerAtPosition)
003ecbba  local     $C$L117 (.text:_CSMON_eSetRecorderTriggerAtPosition)
003ecbbc  local     $C$L118 (.text:_CSMON_eSetRecorderTriggerAtPosition)
003ecbbf  local     $C$L119 (.text:_CSMON_eSetRecorderTriggerAtPosition)
003eb5cc  local     $C$L12 (.text:_CSMON_vSetupHoldingRegistersAndCoilsAddressTableFromCSMONParameterList)
003ecbca  local     $C$L120 (.text:_CSMON_eSetRecorderTriggerAtPosition)
003ecbcc  local     $C$L121 (.text:_CSMON_eSetRecorderTriggerAtPosition)
003ed04b  local     $C$L122 (.text:_CSMON_eSetRecorderConfigurationSkipSamples)
003ed05c  local     $C$L123 (.text:_CSMON_eSetRecorderConfigurationSkipSamples)
003ed05e  local     $C$L124 (.text:_CSMON_eSetRecorderConfigurationSkipSamples)
0000001b  local     $C$L125 (.text:_CSMON_eSetRecorderConfiguration)
003ed96b  local     $C$L126 (.text:_CSMON_eSetParameterListRealAddress)
003ed973  local     $C$L127 (.text:_CSMON_eSetParameterListRealAddress)
003ed2c3  local     $C$L128 (.text:_CSMON_eSetParameterInScopeAtPosition)
003ed2c6  local     $C$L129 (.text:_CSMON_eSetParameterInScopeAtPosition)
003eb5d3  local     $C$L13 (.text:_CSMON_vSetupHoldingRegistersAndCoilsAddressTableFromCSMONParameterList)
003ed2c9  local     $C$L130 (.text:_CSMON_eSetParameterInScopeAtPosition)
003ed2cb  local     $C$L131 (.text:_CSMON_eSetParameterInScopeAtPosition)
003ed296  local     $C$L132 (.text:_CSMON_eSetParameterInRecorderAtPosition)
003ed299  local     $C$L133 (.text:_CSMON_eSetParameterInRecorderAtPosition)
003ed29c  local     $C$L134 (.text:_CSMON_eSetParameterInRecorderAtPosition)
003ed29e  local     $C$L135 (.text:_CSMON_eSetParameterInRecorderAtPosition)
003edd30  local     $C$L136 (.text:_CSMON_eSetParameterCountInScope)
003edd39  local     $C$L137 (.text:_CSMON_eSetParameterCountInScope)
003edbb0  local     $C$L138 (.text:_CSMON_eSetParameterCountInRecorder)
003edbbe  local     $C$L139 (.text:_CSMON_eSetParameterCountInRecorder)
003eb5d5  local     $C$L14 (.text:_CSMON_vSetupHoldingRegistersAndCoilsAddressTableFromCSMONParameterList)
003eddfd  local     $C$L140 (.text:_CSMON_eSetFlagProcessPassed)
003ede02  local     $C$L141 (.text:_CSMON_eSetFlagProcessPassed)
00000049  local     $C$L142 (.text:_CSMON_eSetExternalRecorderUsage)
0000004b  local     $C$L143 (.text:_CSMON_eSetExternalRecorderUsage)
003ea8ea  local     $C$L144 (.text:_CSMON_eProcess)
003ea956  local     $C$L145 (.text:_CSMON_eProcess)
003ea957  local     $C$L146 (.text:_CSMON_eProcess)
003ea967  local     $C$L147 (.text:_CSMON_eProcess)
003ea97d  local     $C$L148 (.text:_CSMON_eProcess)
003ea99a  local     $C$L149 (.text:_CSMON_eProcess)
003eb5e5  local     $C$L15 (.text:_CSMON_vSetupHoldingRegistersAndCoilsAddressTableFromCSMONParameterList)
003ea99f  local     $C$L150 (.text:_CSMON_eProcess)
003ea9a2  local     $C$L151 (.text:_CSMON_eProcess)
003ea9af  local     $C$L152 (.text:_CSMON_eProcess)
003ea9c9  local     $C$L153 (.text:_CSMON_eProcess)
003ea9dc  local     $C$L154 (.text:_CSMON_eProcess)
003eaa1a  local     $C$L155 (.text:_CSMON_eProcess)
003eaa22  local     $C$L156 (.text:_CSMON_eProcess)
003eaa27  local     $C$L157 (.text:_CSMON_eProcess)
003eaa32  local     $C$L158 (.text:_CSMON_eProcess)
003eaa42  local     $C$L159 (.text:_CSMON_eProcess)
003eb5e7  local     $C$L16 (.text:_CSMON_vSetupHoldingRegistersAndCoilsAddressTableFromCSMONParameterList)
003eaa49  local     $C$L160 (.text:_CSMON_eProcess)
003eaa4a  local     $C$L161 (.text:_CSMON_eProcess)
003eb866  local     $C$L162 (.text:_CSMON_eInit)
003eb87f  local     $C$L163 (.text:_CSMON_eInit)
003eb8a0  local     $C$L164 (.text:_CSMON_eInit)
00000019  local     $C$L165 (.text:_CSMON_eGetRecorderTriggerAtPosition)
0000001b  local     $C$L166 (.text:_CSMON_eGetRecorderTriggerAtPosition)
00000012  local     $C$L167 (.text:_CSMON_eGetRecorderConfiguration)
00000009  local     $C$L168 (.text:_CSMON_eGetParameterInRecorderAtPosition)
00000019  local     $C$L169 (.text:_CSMON_eGetParameterInRecorderAtPosition)
003eb5f9  local     $C$L17 (.text:_CSMON_vSetupHoldingRegistersAndCoilsAddressTableFromCSMONParameterList)
0000001b  local     $C$L170 (.text:_CSMON_eGetParameterInRecorderAtPosition)
0000000e  local     $C$L171 (.text:_CSMON_eGetParameterCountInRecorder)
0000000f  local     $C$L172 (.text:_CSMON_bPasswordGenerateFromHash)
00000016  local     $C$L173 (.text:_CSMON_bPasswordGenerateFromHash)
00000017  local     $C$L174 (.text:_CSMON_bPasswordGenerateFromHash)
0000002d  local     $C$L175 (.text:_CSMON_bPasswordGenerateFromHash)
003eb5fb  local     $C$L18 (.text:_CSMON_vSetupHoldingRegistersAndCoilsAddressTableFromCSMONParameterList)
003eb5ff  local     $C$L19 (.text:_CSMON_vSetupHoldingRegistersAndCoilsAddressTableFromCSMONParameterList)
003ec9a4  local     $C$L2 (.text:_CSMON_vUpdateDateTimeFromApplication)
003ed314  local     $C$L20 (.text:_CSMON_vSetupHoldingRegistersAndCoilsAddressTableAccessAll)
003ed327  local     $C$L21 (.text:_CSMON_vSetupHoldingRegistersAndCoilsAddressTableAccessAll)
003ec105  local     $C$L22 (.text:_CSMON_vSetDateTimeAutorization)
003ec106  local     $C$L23 (.text:_CSMON_vSetDateTimeAutorization)
003ed115  local     $C$L24 (.text:_CSMON_vRecorderParamStartStopProcess)
003ed11d  local     $C$L25 (.text:_CSMON_vRecorderParamStartStopProcess)
003ed125  local     $C$L26 (.text:_CSMON_vRecorderParamStartStopProcess)
003ed126  local     $C$L27 (.text:_CSMON_vRecorderParamStartStopProcess)
003ed12d  local     $C$L28 (.text:_CSMON_vRecorderParamStartStopProcess)
003ed134  local     $C$L29 (.text:_CSMON_vRecorderParamStartStopProcess)
003ec9cb  local     $C$L3 (.text:_CSMON_vUpdateDateTimeFromApplication)
003ed13b  local     $C$L30 (.text:_CSMON_vRecorderParamStartStopProcess)
003ed13e  local     $C$L31 (.text:_CSMON_vRecorderParamStartStopProcess)
003ed00f  local     $C$L32 (.text:_CSMON_u16FindIndexParameterTable)
003ed025  local     $C$L33 (.text:_CSMON_u16FindIndexParameterTable)
003ed026  local     $C$L34 (.text:_CSMON_u16FindIndexParameterTable)
003ed1d7  local     $C$L35 (.text:_CSMON_u32GetRealAddressAndSizeOffsetFromParameter)
003ed1da  local     $C$L36 (.text:_CSMON_u32GetRealAddressAndSizeOffsetFromParameter)
003ea76c  local     $C$L37 (.text:_CSMON_eSetUpRecParam)
003ea7ae  local     $C$L38 (.text:_CSMON_eSetUpRecParam)
003ea7ca  local     $C$L39 (.text:_CSMON_eSetUpRecParam)
003eb561  local     $C$L4 (.text:_CSMON_vSetupHoldingRegistersAndCoilsAddressTableFromCSMONParameterList)
003ea7cf  local     $C$L40 (.text:_CSMON_eSetUpRecParam)
003ea7ff  local     $C$L41 (.text:_CSMON_eSetUpRecParam)
003ea82b  local     $C$L42 (.text:_CSMON_eSetUpRecParam)
003ea82e  local     $C$L43 (.text:_CSMON_eSetUpRecParam)
003ea833  local     $C$L44 (.text:_CSMON_eSetUpRecParam)
003ea836  local     $C$L45 (.text:_CSMON_eSetUpRecParam)
003ea83b  local     $C$L46 (.text:_CSMON_eSetUpRecParam)
003ea83e  local     $C$L47 (.text:_CSMON_eSetUpRecParam)
003ea841  local     $C$L48 (.text:_CSMON_eSetUpRecParam)
003ea843  local     $C$L49 (.text:_CSMON_eSetUpRecParam)
003eb571  local     $C$L5 (.text:_CSMON_vSetupHoldingRegistersAndCoilsAddressTableFromCSMONParameterList)
003ea845  local     $C$L50 (.text:_CSMON_eSetUpRecParam)
003ea864  local     $C$L51 (.text:_CSMON_eSetUpRecParam)
003ea86e  local     $C$L52 (.text:_CSMON_eSetUpRecParam)
003ea882  local     $C$L53 (.text:_CSMON_eSetUpRecParam)
003ea885  local     $C$L54 (.text:_CSMON_eSetUpRecParam)
003ea8a6  local     $C$L55 (.text:_CSMON_eSetUpRecParam)
003ea8aa  local     $C$L56 (.text:_CSMON_eSetUpRecParam)
003ea8b0  local     $C$L57 (.text:_CSMON_eSetUpRecParam)
003ea8b7  local     $C$L58 (.text:_CSMON_eSetUpRecParam)
003ea8d3  local     $C$L59 (.text:_CSMON_eSetUpRecParam)
003eb590  local     $C$L6 (.text:_CSMON_vSetupHoldingRegistersAndCoilsAddressTableFromCSMONParameterList)
003ea8d8  local     $C$L60 (.text:_CSMON_eSetUpRecParam)
003ea8db  local     $C$L61 (.text:_CSMON_eSetUpRecParam)
003ea8dd  local     $C$L62 (.text:_CSMON_eSetUpRecParam)
003ea8de  local     $C$L63 (.text:_CSMON_eSetUpRecParam)
003ed768  local     $C$L64 (.text:_CSMON_vRecorderParamSetupProcess)
003ed770  local     $C$L65 (.text:_CSMON_vRecorderParamSetupProcess)
003ed778  local     $C$L66 (.text:_CSMON_vRecorderParamSetupProcess)
003ed779  local     $C$L67 (.text:_CSMON_vRecorderParamSetupProcess)
003ec441  local     $C$L68 (.text:_CSMON_vPrepareFileParameterAccessList)
003ec465  local     $C$L69 (.text:_CSMON_vPrepareFileParameterAccessList)
003eb597  local     $C$L7 (.text:_CSMON_vSetupHoldingRegistersAndCoilsAddressTableFromCSMONParameterList)
003ec468  local     $C$L70 (.text:_CSMON_vPrepareFileParameterAccessList)
003ec46e  local     $C$L71 (.text:_CSMON_vPrepareFileParameterAccessList)
003ec472  local     $C$L72 (.text:_CSMON_vPrepareFileParameterAccessList)
003ec478  local     $C$L73 (.text:_CSMON_vPrepareFileParameterAccessList)
003ec47c  local     $C$L74 (.text:_CSMON_vPrepareFileParameterAccessList)
003ec481  local     $C$L75 (.text:_CSMON_vPrepareFileParameterAccessList)
003ec486  local     $C$L76 (.text:_CSMON_vPrepareFileParameterAccessList)
003ec491  local     $C$L77 (.text:_CSMON_vPrepareFileParameterAccessList)
003ec493  local     $C$L78 (.text:_CSMON_vPrepareFileParameterAccessList)
003ec4a5  local     $C$L79 (.text:_CSMON_vPrepareFileParameterAccessList)
003eb5b8  local     $C$L8 (.text:_CSMON_vSetupHoldingRegistersAndCoilsAddressTableFromCSMONParameterList)
003eb656  local     $C$L80 (.text:_CSMON_vInitParameterListRealAddressRecordTables)
003eb659  local     $C$L81 (.text:_CSMON_vInitParameterListRealAddressRecordTables)
003eb674  local     $C$L82 (.text:_CSMON_vInitParameterListRealAddressRecordTables)
003eb677  local     $C$L83 (.text:_CSMON_vInitParameterListRealAddressRecordTables)
003eb6a4  local     $C$L84 (.text:_CSMON_vInitParameterListRealAddressRecordTables)
003eb6a8  local     $C$L85 (.text:_CSMON_vInitParameterListRealAddressRecordTables)
003eb6c3  local     $C$L86 (.text:_CSMON_vInitParameterListRealAddressRecordTables)
003eb6c7  local     $C$L87 (.text:_CSMON_vInitParameterListRealAddressRecordTables)
003eaef2  local     $C$L88 (.text:_CSMON_vFileRecoderStatusFix)
003eaef7  local     $C$L89 (.text:_CSMON_vFileRecoderStatusFix)
003eb5ba  local     $C$L9 (.text:_CSMON_vSetupHoldingRegistersAndCoilsAddressTableFromCSMONParameterList)
003eaef9  local     $C$L90 (.text:_CSMON_vFileRecoderStatusFix)
003eaefc  local     $C$L91 (.text:_CSMON_vFileRecoderStatusFix)
003eaefe  local     $C$L92 (.text:_CSMON_vFileRecoderStatusFix)
003eaf7c  local     $C$L93 (.text:_CSMON_vFileRecoderStatusFix)
003eafae  local     $C$L94 (.text:_CSMON_vFileRecoderStatusFix)
003eafb4  local     $C$L95 (.text:_CSMON_vFileRecoderStatusFix)
003ed441  local     $C$L96 (.text:_CSMON_bAutorizationPasswordCheck)
003ed44e  local     $C$L97 (.text:_CSMON_bAutorizationPasswordCheck)
003ed450  local     $C$L98 (.text:_CSMON_bAutorizationPasswordCheck)
003ed451  local     $C$L99 (.text:_CSMON_bAutorizationPasswordCheck)
00000000  local     .bss (.bss)
003f08c7  local     .cinit (.cinit)
003f0d24  local     .cinit:_CSMON_abFileAutorization_RecordReadOnly (.cinit:_CSMON_abFileAutorization_RecordReadOnly)
003f0d2a  local     .cinit:_CSMON_abFileAutorization_RecordStringData (.cinit:_CSMON_abFileAutorization_RecordStringData)
003f0d30  local     .cinit:_CSMON_au16FileAutorization_RecordOffsets (.cinit:_CSMON_au16FileAutorization_RecordOffsets)
003f0cc4  local     .cinit:_CSMON_au32FileAutorization_FunctionAfterWriteFileRecord (.cinit:_CSMON_au32FileAutorization_FunctionAfterWriteFileRecord)
003f0bc9  local     .cinit:_CSMON_au8FileParameterCountElementsSizeTable (.cinit:_CSMON_au8FileParameterCountElementsSizeTable)
003f0d58  local     .cinit:_CSMON_au8FileParameterListElementsSizeTablePart1_1 (.cinit:_CSMON_au8FileParameterListElementsSizeTablePart1_1)
003f0d5c  local     .cinit:_CSMON_au8FileParameterListElementsSizeTablePart1_2 (.cinit:_CSMON_au8FileParameterListElementsSizeTablePart1_2)
003f0d60  local     .cinit:_CSMON_au8FileParameterListElementsSizeTablePart1_3 (.cinit:_CSMON_au8FileParameterListElementsSizeTablePart1_3)
003f0d64  local     .cinit:_CSMON_au8FileParameterListElementsSizeTablePart1_4 (.cinit:_CSMON_au8FileParameterListElementsSizeTablePart1_4)
003f0d68  local     .cinit:_CSMON_au8FileParameterListElementsSizeTablePart2 (.cinit:_CSMON_au8FileParameterListElementsSizeTablePart2)
003f0d6c  local     .cinit:_CSMON_au8FileParameterListElementsSizeTablePart3 (.cinit:_CSMON_au8FileParameterListElementsSizeTablePart3)
003f0d70  local     .cinit:_CSMON_au8FileParameterNumbElementsSizeTablePart16Bits (.cinit:_CSMON_au8FileParameterNumbElementsSizeTablePart16Bits)
003f0d74  local     .cinit:_CSMON_au8FileParameterNumbElementsSizeTablePart32Bits (.cinit:_CSMON_au8FileParameterNumbElementsSizeTablePart32Bits)
00000000  local     .cinit:_CSMON_au8FileParameterNumbElementsSizeTablePart64Bits (.cinit:_CSMON_au8FileParameterNumbElementsSizeTablePart64Bits)
003f0bd6  local     .cinit:_CSMON_au8FileRTCElementsSizeTable (.cinit:_CSMON_au8FileRTCElementsSizeTable)
003f0a68  local     .cinit:_CSMON_au8FileRecorderConfigElementsSizeTable (.cinit:_CSMON_au8FileRecorderConfigElementsSizeTable)
003f0ac3  local     .cinit:_CSMON_au8FileRecorderDataElementsSizeTable (.cinit:_CSMON_au8FileRecorderDataElementsSizeTable)
003f0d78  local     .cinit:_CSMON_au8FileRecorderDataElementsSizeTableUsedLength (.cinit:_CSMON_au8FileRecorderDataElementsSizeTableUsedLength)
003f0cde  local     .cinit:_CSMON_au8FileRecorderStatusElementsSizeTable (.cinit:_CSMON_au8FileRecorderStatusElementsSizeTable)
003f0a98  local     .cinit:_CSMON_au8FileScopeConfigurationElementsSizeTable (.cinit:_CSMON_au8FileScopeConfigurationElementsSizeTable)
003f0d7c  local     .cinit:_CSMON_au8FileScopeStatusElementsSizeTable (.cinit:_CSMON_au8FileScopeStatusElementsSizeTable)
00000000  local     .cinit:_CSMON_bPasswordGenerate (.cinit:_CSMON_bPasswordGenerate)
003f0b63  local     .cinit:_CSMON_sDateTime (.cinit:_CSMON_sDateTime)
003f0b72  local     .cinit:_CSMON_sDateTimeApplication (.cinit:_CSMON_sDateTimeApplication)
003f0b81  local     .cinit:_CSMON_sDateTimeDefault (.cinit:_CSMON_sDateTimeDefault)
003f0ada  local     .cinit:_CSMON_sFileAutorization (.cinit:_CSMON_sFileAutorization)
003f0d80  local     .cinit:_CSMON_sFileParameterAccessList (.cinit:_CSMON_sFileParameterAccessList)
003f0ccd  local     .cinit:_CSMON_sFileParameterCount (.cinit:_CSMON_sFileParameterCount)
003f0d36  local     .cinit:_CSMON_sFileProtocolVersion (.cinit:_CSMON_sFileProtocolVersion)
00000000  local     .cinit:_arr (.cinit:_arr)
00000000  local     .cinit:_arr2 (.cinit:_arr2)
003f0d4b  local     .cinit:_sFileParameterNumericOffsetDefault (.cinit:_sFileParameterNumericOffsetDefault)
003f0d8c  local     .cinit:_sFileParameterNumericVisualTypeDefault (.cinit:_sFileParameterNumericVisualTypeDefault)
003f0be3  local     .cinit:_sHashKey (.cinit:_sHashKey)
00000000  local     .data (.data)
0000bb40  local     .ebss (.ebss)
0000c0f0  local     .ebss:_CSMON_abFileAutorization_RecordReadOnly (.ebss:_CSMON_abFileAutorization_RecordReadOnly)
0000c0f3  local     .ebss:_CSMON_abFileAutorization_RecordStringData (.ebss:_CSMON_abFileAutorization_RecordStringData)
0000bf3e  local     .ebss:_CSMON_abFlagProcessPassed (.ebss:_CSMON_abFlagProcessPassed)
0000b940  local     .ebss:_CSMON_asFileParameterDefinitionsFromAccessLevel (.ebss:_CSMON_asFileParameterDefinitionsFromAccessLevel)
0000c0f6  local     .ebss:_CSMON_au16FileAutorization_RecordOffsets (.ebss:_CSMON_au16FileAutorization_RecordOffsets)
0000bbfa  local     .ebss:_CSMON_au32FileAutorization_FunctionAfterWriteFileRecord (.ebss:_CSMON_au32FileAutorization_FunctionAfterWriteFileRecord)
0000c00c  local     .ebss:_CSMON_au32FileParameterDefinitionsFileRecordElementsRealAddressTable (.ebss:_CSMON_au32FileParameterDefinitionsFileRecordElementsRealAddressTable)
0000bc79  local     .ebss:_CSMON_au32FileParameterDefinitionsFileRecordElementsRecordToRecordOffsetSizeBytesTable (.ebss:_CSMON_au32FileParameterDefinitionsFileRecordElementsRecordToRecordOffsetSizeBytesTable)
0000c018  local     .ebss:_CSMON_au32FileParameterDefinitionsFileRecordElementsSizeTable (.ebss:_CSMON_au32FileParameterDefinitionsFileRecordElementsSizeTable)
0000afde  local     .ebss:_CSMON_au32FileParameterNumericFileRecordElementsRealAddressTable (.ebss:_CSMON_au32FileParameterNumericFileRecordElementsRealAddressTable)
0000bfee  local     .ebss:_CSMON_au32FileParameterNumericFileRecordElementsRecordToRecordOffsetSizeBytesTable (.ebss:_CSMON_au32FileParameterNumericFileRecordElementsRecordToRecordOffsetSizeBytesTable)
0000b51a  local     .ebss:_CSMON_au32FileParameterNumericFileRecordElementsSizeTable (.ebss:_CSMON_au32FileParameterNumericFileRecordElementsSizeTable)
0000bb35  local     .ebss:_CSMON_au8FileParameterCountElementsSizeTable (.ebss:_CSMON_au8FileParameterCountElementsSizeTable)
0000c10d  local     .ebss:_CSMON_au8FileParameterListElementsSizeTablePart1_1 (.ebss:_CSMON_au8FileParameterListElementsSizeTablePart1_1)
0000c10e  local     .ebss:_CSMON_au8FileParameterListElementsSizeTablePart1_2 (.ebss:_CSMON_au8FileParameterListElementsSizeTablePart1_2)
0000c10f  local     .ebss:_CSMON_au8FileParameterListElementsSizeTablePart1_3 (.ebss:_CSMON_au8FileParameterListElementsSizeTablePart1_3)
0000c110  local     .ebss:_CSMON_au8FileParameterListElementsSizeTablePart1_4 (.ebss:_CSMON_au8FileParameterListElementsSizeTablePart1_4)
0000c111  local     .ebss:_CSMON_au8FileParameterListElementsSizeTablePart2 (.ebss:_CSMON_au8FileParameterListElementsSizeTablePart2)
0000c112  local     .ebss:_CSMON_au8FileParameterListElementsSizeTablePart3 (.ebss:_CSMON_au8FileParameterListElementsSizeTablePart3)
0000c113  local     .ebss:_CSMON_au8FileParameterNumbElementsSizeTablePart16Bits (.ebss:_CSMON_au8FileParameterNumbElementsSizeTablePart16Bits)
0000c114  local     .ebss:_CSMON_au8FileParameterNumbElementsSizeTablePart32Bits (.ebss:_CSMON_au8FileParameterNumbElementsSizeTablePart32Bits)
00000000  local     .ebss:_CSMON_au8FileParameterNumbElementsSizeTablePart64Bits (.ebss:_CSMON_au8FileParameterNumbElementsSizeTablePart64Bits)
0000bd76  local     .ebss:_CSMON_au8FileRTCElementsSizeTable (.ebss:_CSMON_au8FileRTCElementsSizeTable)
0000bb08  local     .ebss:_CSMON_au8FileRecorderConfigElementsSizeTable (.ebss:_CSMON_au8FileRecorderConfigElementsSizeTable)
0000bd62  local     .ebss:_CSMON_au8FileRecorderDataElementsSizeTable (.ebss:_CSMON_au8FileRecorderDataElementsSizeTable)
0000c115  local     .ebss:_CSMON_au8FileRecorderDataElementsSizeTableUsedLength (.ebss:_CSMON_au8FileRecorderDataElementsSizeTableUsedLength)
0000ba3c  local     .ebss:_CSMON_au8FileRecorderStatusElementsSizeTable (.ebss:_CSMON_au8FileRecorderStatusElementsSizeTable)
0000bec0  local     .ebss:_CSMON_au8FileScopeConfigurationElementsSizeTable (.ebss:_CSMON_au8FileScopeConfigurationElementsSizeTable)
0000c116  local     .ebss:_CSMON_au8FileScopeStatusElementsSizeTable (.ebss:_CSMON_au8FileScopeStatusElementsSizeTable)
00000000  local     .ebss:_CSMON_bPasswordGenerate (.ebss:_CSMON_bPasswordGenerate)
00000000  local     .ebss:_CSMON_nHashOutputLength (.ebss:_CSMON_nHashOutputLength)
0000c024  local     .ebss:_CSMON_sDateTime (.ebss:_CSMON_sDateTime)
0000c030  local     .ebss:_CSMON_sDateTimeApplication (.ebss:_CSMON_sDateTimeApplication)
0000c040  local     .ebss:_CSMON_sDateTimeDefault (.ebss:_CSMON_sDateTimeDefault)
0000bdd8  local     .ebss:_CSMON_sFileAutorization (.ebss:_CSMON_sFileAutorization)
0000ba40  local     .ebss:_CSMON_sFileParameterAccessList (.ebss:_CSMON_sFileParameterAccessList)
0000bdea  local     .ebss:_CSMON_sFileParameterCount (.ebss:_CSMON_sFileParameterCount)
0000c0f9  local     .ebss:_CSMON_sFileProtocolVersion (.ebss:_CSMON_sFileProtocolVersion)
00000000  local     .ebss:_arr (.ebss:_arr)
00000000  local     .ebss:_arr2 (.ebss:_arr2)
0000c106  local     .ebss:_sFileParameterNumericOffsetDefault (.ebss:_sFileParameterNumericOffsetDefault)
0000c11e  local     .ebss:_sFileParameterNumericVisualTypeDefault (.ebss:_sFileParameterNumericVisualTypeDefault)
0000c060  local     .ebss:_sHashKey (.ebss:_sHashKey)
0000be00  local     .ebss:_sRecConfigParam (.ebss:_sRecConfigParam)
0000bf00  local     .ebss:_sScopeConfigParam (.ebss:_sScopeConfigParam)
003f03ae  local     .econst:_CSMON_asAccessLevelPasswords (.econst:_CSMON_asAccessLevelPasswords)
003f04e2  local     .econst:_CSMON_au8FileImplementedFunctionCodes (.econst:_CSMON_au8FileImplementedFunctionCodes)
003f052c  local     .econst:_CSMON_au8FileParameterListElementsCountInPartTable (.econst:_CSMON_au8FileParameterListElementsCountInPartTable)
003f0506  local     .econst:_CSMON_au8FileParameterNumbElementsCountInPartTable (.econst:_CSMON_au8FileParameterNumbElementsCountInPartTable)
00000000  local     .text (.text)
003ed42b  local     .text:_CSMON_bAutorizationPasswordCheck (.text:_CSMON_bAutorizationPasswordCheck)
003eca28  local     .text:_CSMON_bCheckValidDateTime (.text:_CSMON_bCheckValidDateTime)
00000000  local     .text:_CSMON_bPasswordGenerateFromHash (.text:_CSMON_bPasswordGenerateFromHash)
003ee5a8  local     .text:_CSMON_eApplyParameterChanges (.text:_CSMON_eApplyParameterChanges)
00000000  local     .text:_CSMON_eGetParameterCountInRecorder (.text:_CSMON_eGetParameterCountInRecorder)
00000000  local     .text:_CSMON_eGetParameterInRecorderAtPosition (.text:_CSMON_eGetParameterInRecorderAtPosition)
00000000  local     .text:_CSMON_eGetRecorderConfiguration (.text:_CSMON_eGetRecorderConfiguration)
00000000  local     .text:_CSMON_eGetRecorderTriggerAtPosition (.text:_CSMON_eGetRecorderTriggerAtPosition)
003eb848  local     .text:_CSMON_eInit (.text:_CSMON_eInit)
003ea8e2  local     .text:_CSMON_eProcess (.text:_CSMON_eProcess)
003ee5ac  local     .text:_CSMON_eRegisterWriteParElementCallbackFunction (.text:_CSMON_eRegisterWriteParElementCallbackFunction)
003ee071  local     .text:_CSMON_eResetParameterTable (.text:_CSMON_eResetParameterTable)
003ee3af  local     .text:_CSMON_eSetAutoServiceWatchdogInternalSlowCalculationsInMainLoop (.text:_CSMON_eSetAutoServiceWatchdogInternalSlowCalculationsInMainLoop)
00000000  local     .text:_CSMON_eSetExternalRecorderUsage (.text:_CSMON_eSetExternalRecorderUsage)
003ee3b4  local     .text:_CSMON_eSetFirmwareApplicationVersion (.text:_CSMON_eSetFirmwareApplicationVersion)
003eddf6  local     .text:_CSMON_eSetFlagProcessPassed (.text:_CSMON_eSetFlagProcessPassed)
003ee5b0  local     .text:_CSMON_eSetInternalTimerPeriod (.text:_CSMON_eSetInternalTimerPeriod)
003ee3b9  local     .text:_CSMON_eSetMaxTimeInISR (.text:_CSMON_eSetMaxTimeInISR)
003ee3be  local     .text:_CSMON_eSetMinGuaranteedTimeBetweenTwoISRs (.text:_CSMON_eSetMinGuaranteedTimeBetweenTwoISRs)
003ee6d7  local     .text:_CSMON_eSetParameter (.text:_CSMON_eSetParameter)
003edba8  local     .text:_CSMON_eSetParameterCountInRecorder (.text:_CSMON_eSetParameterCountInRecorder)
003edd26  local     .text:_CSMON_eSetParameterCountInScope (.text:_CSMON_eSetParameterCountInScope)
003ed276  local     .text:_CSMON_eSetParameterInRecorderAtPosition (.text:_CSMON_eSetParameterInRecorderAtPosition)
003ed2a3  local     .text:_CSMON_eSetParameterInScopeAtPosition (.text:_CSMON_eSetParameterInScopeAtPosition)
003ee2cd  local     .text:_CSMON_eSetParameterListAccessLevel (.text:_CSMON_eSetParameterListAccessLevel)
003ee2d4  local     .text:_CSMON_eSetParameterListBitsCount (.text:_CSMON_eSetParameterListBitsCount)
003ee2db  local     .text:_CSMON_eSetParameterListDataDefault (.text:_CSMON_eSetParameterListDataDefault)
003ee2e2  local     .text:_CSMON_eSetParameterListDataMaximum (.text:_CSMON_eSetParameterListDataMaximum)
003ee2e9  local     .text:_CSMON_eSetParameterListDataMinimum (.text:_CSMON_eSetParameterListDataMinimum)
00000000  local     .text:_CSMON_eSetParameterListDataOffset (.text:_CSMON_eSetParameterListDataOffset)
003ee2f0  local     .text:_CSMON_eSetParameterListDataType (.text:_CSMON_eSetParameterListDataType)
003ee2f7  local     .text:_CSMON_eSetParameterListFunctionCode (.text:_CSMON_eSetParameterListFunctionCode)
003ed805  local     .text:_CSMON_eSetParameterListParameterID (.text:_CSMON_eSetParameterListParameterID)
003ed965  local     .text:_CSMON_eSetParameterListRealAddress (.text:_CSMON_eSetParameterListRealAddress)
003edf01  local     .text:_CSMON_eSetParameterListRegisterFlags (.text:_CSMON_eSetParameterListRegisterFlags)
003ee195  local     .text:_CSMON_eSetParameterListRegisterSize (.text:_CSMON_eSetParameterListRegisterSize)
003ee19e  local     .text:_CSMON_eSetParameterListShortNaming (.text:_CSMON_eSetParameterListShortNaming)
003ee2fe  local     .text:_CSMON_eSetParameterListValueFormat (.text:_CSMON_eSetParameterListValueFormat)
00000000  local     .text:_CSMON_eSetParameterListVisualType (.text:_CSMON_eSetParameterListVisualType)
00000000  local     .text:_CSMON_eSetParameterTableDescr (.text:_CSMON_eSetParameterTableDescr)
00000000  local     .text:_CSMON_eSetParameterTableIndex (.text:_CSMON_eSetParameterTableIndex)
00000000  local     .text:_CSMON_eSetRecorderConfiguration (.text:_CSMON_eSetRecorderConfiguration)
003ed029  local     .text:_CSMON_eSetRecorderConfigurationSkipSamples (.text:_CSMON_eSetRecorderConfigurationSkipSamples)
003ecb7f  local     .text:_CSMON_eSetRecorderTriggerAtPosition (.text:_CSMON_eSetRecorderTriggerAtPosition)
003ee1a7  local     .text:_CSMON_eSetServerOnStatus (.text:_CSMON_eSetServerOnStatus)
003ee5b4  local     .text:_CSMON_eSetTimerPeriodISRFunctionRegister (.text:_CSMON_eSetTimerPeriodISRFunctionRegister)
003ea763  local     .text:_CSMON_eSetUpRecParam (.text:_CSMON_eSetUpRecParam)
00000000  local     .text:_CSMON_eSetUpScopeParam (.text:_CSMON_eSetUpScopeParam)
00000000  local     .text:_CSMON_eSetupWriteParElementFixedArguments (.text:_CSMON_eSetupWriteParElementFixedArguments)
003ecff0  local     .text:_CSMON_u16FindIndexParameterTable (.text:_CSMON_u16FindIndexParameterTable)
003ee3c3  local     .text:_CSMON_u16ParametersAccessListIndexGenerate (.text:_CSMON_u16ParametersAccessListIndexGenerate)
003ee5b8  local     .text:_CSMON_u32GetBaudError_PPM (.text:_CSMON_u32GetBaudError_PPM)
003edc25  local     .text:_CSMON_u32GetFreeRunningTimerMicroseconds (.text:_CSMON_u32GetFreeRunningTimerMicroseconds)
003ee3c8  local     .text:_CSMON_u32GetFreeRunningTimerTicks (.text:_CSMON_u32GetFreeRunningTimerTicks)
003ee6da  local     .text:_CSMON_u32GetModbusMessageCounterRegisterRealAddress (.text:_CSMON_u32GetModbusMessageCounterRegisterRealAddress)
003ee3cd  local     .text:_CSMON_u32GetParameterAuxCheckSum (.text:_CSMON_u32GetParameterAuxCheckSum)
003ee3d2  local     .text:_CSMON_u32GetParameterCheckSum (.text:_CSMON_u32GetParameterCheckSum)
003ee3d7  local     .text:_CSMON_u32GetParameterListCheckSum (.text:_CSMON_u32GetParameterListCheckSum)
003ee3dc  local     .text:_CSMON_u32GetParameterNumbCheckSum (.text:_CSMON_u32GetParameterNumbCheckSum)
003ee3e1  local     .text:_CSMON_u32GetParameterShortNameCheckSum (.text:_CSMON_u32GetParameterShortNameCheckSum)
003ee3e6  local     .text:_CSMON_u32GetParameterStringCheckSum (.text:_CSMON_u32GetParameterStringCheckSum)
003ed1ab  local     .text:_CSMON_u32GetRealAddressAndSizeOffsetFromParameter (.text:_CSMON_u32GetRealAddressAndSizeOffsetFromParameter)
003ee5bc  local     .text:_CSMON_vAddSetupRecorderParameterMask (.text:_CSMON_vAddSetupRecorderParameterMask)
003ed55f  local     .text:_CSMON_vAutorizationReset (.text:_CSMON_vAutorizationReset)
00000000  local     .text:_CSMON_vCheckLoadRecorderTable (.text:_CSMON_vCheckLoadRecorderTable)
00000000  local     .text:_CSMON_vCheckSaveRecorderTable (.text:_CSMON_vCheckSaveRecorderTable)
003ede1c  local     .text:_CSMON_vFileParameterCountCheckSumUpdate (.text:_CSMON_vFileParameterCountCheckSumUpdate)
003eaec8  local     .text:_CSMON_vFileRecoderStatusFix (.text:_CSMON_vFileRecoderStatusFix)
003ee07e  local     .text:_CSMON_vInitHoldingRegistersTableChanges (.text:_CSMON_vInitHoldingRegistersTableChanges)
003eb604  local     .text:_CSMON_vInitParameterListRealAddressRecordTables (.text:_CSMON_vInitParameterListRealAddressRecordTables)
003ed2d0  local     .text:_CSMON_vInitRecorders (.text:_CSMON_vInitRecorders)
003ee5c0  local     .text:_CSMON_vInitScopes (.text:_CSMON_vInitScopes)
00000000  local     .text:_CSMON_vLoadRecorderConfigTrigger (.text:_CSMON_vLoadRecorderConfigTrigger)
00000000  local     .text:_CSMON_vLoadRecorderConfiguration (.text:_CSMON_vLoadRecorderConfiguration)
003ec429  local     .text:_CSMON_vPrepareFileParameterAccessList (.text:_CSMON_vPrepareFileParameterAccessList)
003ed757  local     .text:_CSMON_vRecorderParamSetupProcess (.text:_CSMON_vRecorderParamSetupProcess)
003ed109  local     .text:_CSMON_vRecorderParamStartStopProcess (.text:_CSMON_vRecorderParamStartStopProcess)
003edc85  local     .text:_CSMON_vSaveRecorderConfig (.text:_CSMON_vSaveRecorderConfig)
00000000  local     .text:_CSMON_vSaveRecorderConfigTrigger (.text:_CSMON_vSaveRecorderConfigTrigger)
00000000  local     .text:_CSMON_vSaveRecorderConfiguration (.text:_CSMON_vSaveRecorderConfiguration)
003ec077  local     .text:_CSMON_vSetDateTimeAutorization (.text:_CSMON_vSetDateTimeAutorization)
003ee3eb  local     .text:_CSMON_vSetDateTimeRequest (.text:_CSMON_vSetDateTimeRequest)
003ee6dd  local     .text:_CSMON_vSetModbusMessageCounterRegisterRealAddress (.text:_CSMON_vSetModbusMessageCounterRegisterRealAddress)
00000000  local     .text:_CSMON_vSetSetupRecorderParameterMask (.text:_CSMON_vSetSetupRecorderParameterMask)
003ee5c4  local     .text:_CSMON_vSetStartRecorderParameterMask (.text:_CSMON_vSetStartRecorderParameterMask)
00000000  local     .text:_CSMON_vSetStopRecorderParameterMask (.text:_CSMON_vSetStopRecorderParameterMask)
003ed2fd  local     .text:_CSMON_vSetupHoldingRegistersAndCoilsAddressTableAccessAll (.text:_CSMON_vSetupHoldingRegistersAndCoilsAddressTableAccessAll)
003eb52e  local     .text:_CSMON_vSetupHoldingRegistersAndCoilsAddressTableFromCSMONParameterList (.text:_CSMON_vSetupHoldingRegistersAndCoilsAddressTableFromCSMONParameterList)
00000000  local     .text:_CSMON_vSetupInputRegistersAndCoilsAddressTableAccessAll (.text:_CSMON_vSetupInputRegistersAndCoilsAddressTableAccessAll)
00000000  local     .text:_CSMON_vSetupInputRegistersAndCoilsAddressTableFromCSMONParameterList (.text:_CSMON_vSetupInputRegistersAndCoilsAddressTableFromCSMONParameterList)
003ec976  local     .text:_CSMON_vUpdateDateTimeFromApplication (.text:_CSMON_vUpdateDateTimeFromApplication)
003eda2f  local     .text:_HMRECPRM_vGetDateTime (.text:_HMRECPRM_vGetDateTime)
0000c0f0  global    _CSMON_abFileAutorization_RecordReadOnly (.ebss:_CSMON_abFileAutorization_RecordReadOnly)
0000c0f3  global    _CSMON_abFileAutorization_RecordStringData (.ebss:_CSMON_abFileAutorization_RecordStringData)
0000bf3e  global    _CSMON_abFlagProcessPassed (.ebss:_CSMON_abFlagProcessPassed)
003f03ae  global    _CSMON_asAccessLevelPasswords (.econst:_CSMON_asAccessLevelPasswords)
0000b940  global    _CSMON_asFileParameterDefinitionsFromAccessLevel (.ebss:_CSMON_asFileParameterDefinitionsFromAccessLevel)
0000c0f6  global    _CSMON_au16FileAutorization_RecordOffsets (.ebss:_CSMON_au16FileAutorization_RecordOffsets)
0000bbfa  global    _CSMON_au32FileAutorization_FunctionAfterWriteFileRecord (.ebss:_CSMON_au32FileAutorization_FunctionAfterWriteFileRecord)
0000c00c  global    _CSMON_au32FileParameterDefinitionsFileRecordElementsRealAddressTable (.ebss:_CSMON_au32FileParameterDefinitionsFileRecordElementsRealAddressTable)
0000bc79  global    _CSMON_au32FileParameterDefinitionsFileRecordElementsRecordToRecordOffsetSizeBytesTable (.ebss:_CSMON_au32FileParameterDefinitionsFileRecordElementsRecordToRecordOffsetSizeBytesTable)
0000c018  global    _CSMON_au32FileParameterDefinitionsFileRecordElementsSizeTable (.ebss:_CSMON_au32FileParameterDefinitionsFileRecordElementsSizeTable)
0000afde  global    _CSMON_au32FileParameterNumericFileRecordElementsRealAddressTable (.ebss:_CSMON_au32FileParameterNumericFileRecordElementsRealAddressTable)
0000bfee  global    _CSMON_au32FileParameterNumericFileRecordElementsRecordToRecordOffsetSizeBytesTable (.ebss:_CSMON_au32FileParameterNumericFileRecordElementsRecordToRecordOffsetSizeBytesTable)
0000b51a  global    _CSMON_au32FileParameterNumericFileRecordElementsSizeTable (.ebss:_CSMON_au32FileParameterNumericFileRecordElementsSizeTable)
003f04e2  global    _CSMON_au8FileImplementedFunctionCodes (.econst:_CSMON_au8FileImplementedFunctionCodes)
0000bb35  global    _CSMON_au8FileParameterCountElementsSizeTable (.ebss:_CSMON_au8FileParameterCountElementsSizeTable)
003f052c  global    _CSMON_au8FileParameterListElementsCountInPartTable (.econst:_CSMON_au8FileParameterListElementsCountInPartTable)
0000c10d  global    _CSMON_au8FileParameterListElementsSizeTablePart1_1 (.ebss:_CSMON_au8FileParameterListElementsSizeTablePart1_1)
0000c10e  global    _CSMON_au8FileParameterListElementsSizeTablePart1_2 (.ebss:_CSMON_au8FileParameterListElementsSizeTablePart1_2)
0000c10f  global    _CSMON_au8FileParameterListElementsSizeTablePart1_3 (.ebss:_CSMON_au8FileParameterListElementsSizeTablePart1_3)
0000c110  global    _CSMON_au8FileParameterListElementsSizeTablePart1_4 (.ebss:_CSMON_au8FileParameterListElementsSizeTablePart1_4)
0000c111  global    _CSMON_au8FileParameterListElementsSizeTablePart2 (.ebss:_CSMON_au8FileParameterListElementsSizeTablePart2)
0000c112  global    _CSMON_au8FileParameterListElementsSizeTablePart3 (.ebss:_CSMON_au8FileParameterListElementsSizeTablePart3)
003f0506  global    _CSMON_au8FileParameterNumbElementsCountInPartTable (.econst:_CSMON_au8FileParameterNumbElementsCountInPartTable)
0000c113  global    _CSMON_au8FileParameterNumbElementsSizeTablePart16Bits (.ebss:_CSMON_au8FileParameterNumbElementsSizeTablePart16Bits)
0000c114  global    _CSMON_au8FileParameterNumbElementsSizeTablePart32Bits (.ebss:_CSMON_au8FileParameterNumbElementsSizeTablePart32Bits)
00000000  global    _CSMON_au8FileParameterNumbElementsSizeTablePart64Bits (.ebss:_CSMON_au8FileParameterNumbElementsSizeTablePart64Bits)
0000bd76  global    _CSMON_au8FileRTCElementsSizeTable (.ebss:_CSMON_au8FileRTCElementsSizeTable)
0000bb08  global    _CSMON_au8FileRecorderConfigElementsSizeTable (.ebss:_CSMON_au8FileRecorderConfigElementsSizeTable)
0000bd62  global    _CSMON_au8FileRecorderDataElementsSizeTable (.ebss:_CSMON_au8FileRecorderDataElementsSizeTable)
0000c115  global    _CSMON_au8FileRecorderDataElementsSizeTableUsedLength (.ebss:_CSMON_au8FileRecorderDataElementsSizeTableUsedLength)
0000ba3c  global    _CSMON_au8FileRecorderStatusElementsSizeTable (.ebss:_CSMON_au8FileRecorderStatusElementsSizeTable)
0000bec0  global    _CSMON_au8FileScopeConfigurationElementsSizeTable (.ebss:_CSMON_au8FileScopeConfigurationElementsSizeTable)
0000c116  global    _CSMON_au8FileScopeStatusElementsSizeTable (.ebss:_CSMON_au8FileScopeStatusElementsSizeTable)
003ed42b  global    _CSMON_bAutorizationPasswordCheck (.text:_CSMON_bAutorizationPasswordCheck)
003eca28  global    _CSMON_bCheckValidDateTime (.text:_CSMON_bCheckValidDateTime)
0000bb46  global    _CSMON_bGetDateTimeAutorization (.ebss)
0000bb48  global    _CSMON_bGetDateTimeRequest (.ebss)
00000000  global    _CSMON_bPasswordGenerate (.ebss:_CSMON_bPasswordGenerate)
00000000  global    _CSMON_bPasswordGenerateFromHash (.text:_CSMON_bPasswordGenerateFromHash)
0000bb4b  global    _CSMON_bResetMaxMeasure (.ebss)
0000bb62  global    _CSMON_bRunningInitialization (.ebss)
0000bb47  global    _CSMON_bSetDateTimeRequest (.ebss)
0000bb56  global    _CSMON_bUseAccessLevelForHoldingRegistersAndCoils (.ebss)
0000bb57  global    _CSMON_bUseAccessLevelForInputRegistersAndCoils (.ebss)
0000bb5f  global    _CSMON_bUseDisconnectOnTimeout (.ebss)
0000bb4d  global    _CSMON_bWatchdogCalcNeeded (.ebss)
003ee5a8  global    _CSMON_eApplyParameterChanges (.text:_CSMON_eApplyParameterChanges)
00000000  global    _CSMON_eGetParameterCountInRecorder (.text:_CSMON_eGetParameterCountInRecorder)
00000000  global    _CSMON_eGetParameterInRecorderAtPosition (.text:_CSMON_eGetParameterInRecorderAtPosition)
00000000  global    _CSMON_eGetRecorderConfiguration (.text:_CSMON_eGetRecorderConfiguration)
00000000  global    _CSMON_eGetRecorderTriggerAtPosition (.text:_CSMON_eGetRecorderTriggerAtPosition)
003eb848  global    _CSMON_eInit (.text:_CSMON_eInit)
003ea8e2  global    _CSMON_eProcess (.text:_CSMON_eProcess)
003ee5ac  global    _CSMON_eRegisterWriteParElementCallbackFunction (.text:_CSMON_eRegisterWriteParElementCallbackFunction)
003ee071  global    _CSMON_eResetParameterTable (.text:_CSMON_eResetParameterTable)
003ee3af  global    _CSMON_eSetAutoServiceWatchdogInternalSlowCalculationsInMainLoop (.text:_CSMON_eSetAutoServiceWatchdogInternalSlowCalculationsInMainLoop)
00000000  global    _CSMON_eSetExternalRecorderUsage (.text:_CSMON_eSetExternalRecorderUsage)
003ee3b4  global    _CSMON_eSetFirmwareApplicationVersion (.text:_CSMON_eSetFirmwareApplicationVersion)
003eddf6  global    _CSMON_eSetFlagProcessPassed (.text:_CSMON_eSetFlagProcessPassed)
003ee5b0  global    _CSMON_eSetInternalTimerPeriod (.text:_CSMON_eSetInternalTimerPeriod)
003ee3b9  global    _CSMON_eSetMaxTimeInISR (.text:_CSMON_eSetMaxTimeInISR)
003ee3be  global    _CSMON_eSetMinGuaranteedTimeBetweenTwoISRs (.text:_CSMON_eSetMinGuaranteedTimeBetweenTwoISRs)
003ee6d7  global    _CSMON_eSetParameter (.text:_CSMON_eSetParameter)
003edba8  global    _CSMON_eSetParameterCountInRecorder (.text:_CSMON_eSetParameterCountInRecorder)
003edd26  global    _CSMON_eSetParameterCountInScope (.text:_CSMON_eSetParameterCountInScope)
003ed276  global    _CSMON_eSetParameterInRecorderAtPosition (.text:_CSMON_eSetParameterInRecorderAtPosition)
003ed2a3  global    _CSMON_eSetParameterInScopeAtPosition (.text:_CSMON_eSetParameterInScopeAtPosition)
003ee2cd  global    _CSMON_eSetParameterListAccessLevel (.text:_CSMON_eSetParameterListAccessLevel)
003ee2d4  global    _CSMON_eSetParameterListBitsCount (.text:_CSMON_eSetParameterListBitsCount)
003ee2db  global    _CSMON_eSetParameterListDataDefault (.text:_CSMON_eSetParameterListDataDefault)
003ee2e2  global    _CSMON_eSetParameterListDataMaximum (.text:_CSMON_eSetParameterListDataMaximum)
003ee2e9  global    _CSMON_eSetParameterListDataMinimum (.text:_CSMON_eSetParameterListDataMinimum)
00000000  global    _CSMON_eSetParameterListDataOffset (.text:_CSMON_eSetParameterListDataOffset)
003ee2f0  global    _CSMON_eSetParameterListDataType (.text:_CSMON_eSetParameterListDataType)
003ee2f7  global    _CSMON_eSetParameterListFunctionCode (.text:_CSMON_eSetParameterListFunctionCode)
003ed805  global    _CSMON_eSetParameterListParameterID (.text:_CSMON_eSetParameterListParameterID)
003ed965  global    _CSMON_eSetParameterListRealAddress (.text:_CSMON_eSetParameterListRealAddress)
003edf01  global    _CSMON_eSetParameterListRegisterFlags (.text:_CSMON_eSetParameterListRegisterFlags)
003ee195  global    _CSMON_eSetParameterListRegisterSize (.text:_CSMON_eSetParameterListRegisterSize)
003ee19e  global    _CSMON_eSetParameterListShortNaming (.text:_CSMON_eSetParameterListShortNaming)
003ee2fe  global    _CSMON_eSetParameterListValueFormat (.text:_CSMON_eSetParameterListValueFormat)
00000000  global    _CSMON_eSetParameterListVisualType (.text:_CSMON_eSetParameterListVisualType)
00000000  global    _CSMON_eSetParameterTableDescr (.text:_CSMON_eSetParameterTableDescr)
00000000  global    _CSMON_eSetParameterTableIndex (.text:_CSMON_eSetParameterTableIndex)
00000000  global    _CSMON_eSetRecorderConfiguration (.text:_CSMON_eSetRecorderConfiguration)
003ed029  global    _CSMON_eSetRecorderConfigurationSkipSamples (.text:_CSMON_eSetRecorderConfigurationSkipSamples)
003ecb7f  global    _CSMON_eSetRecorderTriggerAtPosition (.text:_CSMON_eSetRecorderTriggerAtPosition)
003ee1a7  global    _CSMON_eSetServerOnStatus (.text:_CSMON_eSetServerOnStatus)
003ee5b4  global    _CSMON_eSetTimerPeriodISRFunctionRegister (.text:_CSMON_eSetTimerPeriodISRFunctionRegister)
003ea763  global    _CSMON_eSetUpRecParam (.text:_CSMON_eSetUpRecParam)
00000000  global    _CSMON_eSetUpScopeParam (.text:_CSMON_eSetUpScopeParam)
00000000  global    _CSMON_eSetupWriteParElementFixedArguments (.text:_CSMON_eSetupWriteParElementFixedArguments)
00000000  global    _CSMON_nHashOutputLength (.ebss:_CSMON_nHashOutputLength)
0000bbbe  global    _CSMON_pasFileParameterListAccessLevel (.ebss)
0000bbc0  global    _CSMON_pasFileParameterListBitsCount (.ebss)
0000bbbc  global    _CSMON_pasFileParameterListFunctionCode (.ebss)
0000bbba  global    _CSMON_pasFileParameterListModbusAddress (.ebss)
0000bbb8  global    _CSMON_pasFileParameterListValueAccessKeyFl (.ebss)
0000bbb6  global    _CSMON_pasFileParameterListValueAccessKeyID (.ebss)
0000bbc6  global    _CSMON_pasFileParameterNumbDataType (.ebss)
0000bbca  global    _CSMON_pasFileParameterNumbDefault (.ebss)
0000bbce  global    _CSMON_pasFileParameterNumbMaximum (.ebss)
0000bbcc  global    _CSMON_pasFileParameterNumbMinimum (.ebss)
0000bbd0  global    _CSMON_pasFileParameterNumbMultply (.ebss)
0000bbd2  global    _CSMON_pasFileParameterNumbOffset (.ebss)
0000bbc8  global    _CSMON_pasFileParameterNumbVisualType (.ebss)
0000bbc4  global    _CSMON_pu32HoldingRegistersAccessTableInRam (.ebss)
0000bbc2  global    _CSMON_pu32HoldingRegistersAddressTable (.ebss)
0000bbb0  global    _CSMON_s32MaxTimeProcessAllowedCalc_Ticks (.ebss)
0000c024  global    _CSMON_sDateTime (.ebss:_CSMON_sDateTime)
0000c030  global    _CSMON_sDateTimeApplication (.ebss:_CSMON_sDateTimeApplication)
0000c040  global    _CSMON_sDateTimeDefault (.ebss:_CSMON_sDateTimeDefault)
0000bdd8  global    _CSMON_sFileAutorization (.ebss:_CSMON_sFileAutorization)
0000ba40  global    _CSMON_sFileParameterAccessList (.ebss:_CSMON_sFileParameterAccessList)
0000bdea  global    _CSMON_sFileParameterCount (.ebss:_CSMON_sFileParameterCount)
0000bb5e  global    _CSMON_sFileParameterDefinitionsElementOffset (.ebss)
0000c0f9  global    _CSMON_sFileProtocolVersion (.ebss:_CSMON_sFileProtocolVersion)
0000bb58  global    _CSMON_u16CurrentAccessLevelPrev (.ebss)
0000bb59  global    _CSMON_u16FileParameterFillCount (.ebss)
0000bb5b  global    _CSMON_u16FileParameterListCount (.ebss)
0000bb5c  global    _CSMON_u16FileParameterNameCount (.ebss)
0000bb5d  global    _CSMON_u16FileParameterNumeric (.ebss)
0000bb5a  global    _CSMON_u16FileParameterUseMaxCnt (.ebss)
003ecff0  global    _CSMON_u16FindIndexParameterTable (.text:_CSMON_u16FindIndexParameterTable)
0000bb40  global    _CSMON_u16MaskSetupRecorderParam (.ebss)
0000bb41  global    _CSMON_u16MaskStartRecorderParam (.ebss)
0000bb42  global    _CSMON_u16MaskStopRecorderParam (.ebss)
0000bb4f  global    _CSMON_u16MaxTimeInISR_usec (.ebss)
0000bb51  global    _CSMON_u16MaxTimeTillWdtClear_usec (.ebss)
0000bb52  global    _CSMON_u16MinTimeProcessAllowedNeeded_usec (.ebss)
0000bb50  global    _CSMON_u16MinTimeProcessExit_usec (.ebss)
0000bb61  global    _CSMON_u16NoMessageTimeoutOld_msec (.ebss)
0000bb60  global    _CSMON_u16NoMessageTimeout_msec (.ebss)
003ee3c3  global    _CSMON_u16ParametersAccessListIndexGenerate (.text:_CSMON_u16ParametersAccessListIndexGenerate)
0000bb49  global    _CSMON_u16SCIErrorPercent (.ebss)
0000bb4e  global    _CSMON_u16WatchdogPrescaler (.ebss)
0000bb88  global    _CSMON_u32FreeRunTimerAccessChangeBegin (.ebss)
0000bb8a  global    _CSMON_u32FreeRunTimerAccessChangeEnd (.ebss)
0000bb8c  global    _CSMON_u32FreeRunTimerAccessChangeMax (.ebss)
0000bb70  global    _CSMON_u32FreeRunTimerCheckSumListBegin (.ebss)
0000bb72  global    _CSMON_u32FreeRunTimerCheckSumListEnd (.ebss)
0000bb74  global    _CSMON_u32FreeRunTimerCheckSumListMax (.ebss)
0000bb76  global    _CSMON_u32FreeRunTimerCheckSumNameBegin (.ebss)
0000bb78  global    _CSMON_u32FreeRunTimerCheckSumNameEnd (.ebss)
0000bb7a  global    _CSMON_u32FreeRunTimerCheckSumNameMax (.ebss)
0000bb7c  global    _CSMON_u32FreeRunTimerCheckSumNumbBegin (.ebss)
0000bb7e  global    _CSMON_u32FreeRunTimerCheckSumNumbEnd (.ebss)
0000bb80  global    _CSMON_u32FreeRunTimerCheckSumNumbMax (.ebss)
0000bb82  global    _CSMON_u32FreeRunTimerCheckSumStrgBegin (.ebss)
0000bb84  global    _CSMON_u32FreeRunTimerCheckSumStrgEnd (.ebss)
0000bb86  global    _CSMON_u32FreeRunTimerCheckSumStrgMax (.ebss)
0000bbd8  global    _CSMON_u32FreeRunTimerDiff (.ebss)
0000bbd4  global    _CSMON_u32FreeRunTimerNow (.ebss)
0000bb92  global    _CSMON_u32FreeRunTimerPasswordHashBegin (.ebss)
0000bb94  global    _CSMON_u32FreeRunTimerPasswordHashEnd (.ebss)
0000bb96  global    _CSMON_u32FreeRunTimerPasswordHashMax (.ebss)
0000bb8e  global    _CSMON_u32FreeRunTimerPrepareFileParameterAccessListEnd (.ebss)
0000bb90  global    _CSMON_u32FreeRunTimerPrepareFileParameterAccessListMax (.ebss)
0000bbd6  global    _CSMON_u32FreeRunTimerPrev (.ebss)
0000bb98  global    _CSMON_u32FreeRunTimerProcessBegin (.ebss)
0000bb9c  global    _CSMON_u32FreeRunTimerProcessEnd (.ebss)
0000bb9e  global    _CSMON_u32FreeRunTimerProcessMax (.ebss)
0000bb9a  global    _CSMON_u32FreeRunTimerProcessNow (.ebss)
003ee5b8  global    _CSMON_u32GetBaudError_PPM (.text:_CSMON_u32GetBaudError_PPM)
003edc25  global    _CSMON_u32GetFreeRunningTimerMicroseconds (.text:_CSMON_u32GetFreeRunningTimerMicroseconds)
003ee3c8  global    _CSMON_u32GetFreeRunningTimerTicks (.text:_CSMON_u32GetFreeRunningTimerTicks)
003ee6da  global    _CSMON_u32GetModbusMessageCounterRegisterRealAddress (.text:_CSMON_u32GetModbusMessageCounterRegisterRealAddress)
003ee3cd  global    _CSMON_u32GetParameterAuxCheckSum (.text:_CSMON_u32GetParameterAuxCheckSum)
003ee3d2  global    _CSMON_u32GetParameterCheckSum (.text:_CSMON_u32GetParameterCheckSum)
003ee3d7  global    _CSMON_u32GetParameterListCheckSum (.text:_CSMON_u32GetParameterListCheckSum)
003ee3dc  global    _CSMON_u32GetParameterNumbCheckSum (.text:_CSMON_u32GetParameterNumbCheckSum)
003ee3e1  global    _CSMON_u32GetParameterShortNameCheckSum (.text:_CSMON_u32GetParameterShortNameCheckSum)
003ee3e6  global    _CSMON_u32GetParameterStringCheckSum (.text:_CSMON_u32GetParameterStringCheckSum)
003ed1ab  global    _CSMON_u32GetRealAddressAndSizeOffsetFromParameter (.text:_CSMON_u32GetRealAddressAndSizeOffsetFromParameter)
0000bba4  global    _CSMON_u32MaxTimeInISR_Ticks (.ebss)
0000bbb2  global    _CSMON_u32MaxTimeProcessAllowed_Ticks (.ebss)
0000bba6  global    _CSMON_u32MaxTimeProcess_Ticks (.ebss)
0000bba8  global    _CSMON_u32MaxTimeTillWdtClearISRs (.ebss)
0000bbac  global    _CSMON_u32MaxTimeTillWdtClear_Ticks (.ebss)
0000bbae  global    _CSMON_u32MinTimeProcessAllowedNeeded_Ticks (.ebss)
0000bbaa  global    _CSMON_u32MinTimeProcessExit_Ticks (.ebss)
0000bbda  global    _CSMON_u32NoMessageTime (.ebss)
0000bbdc  global    _CSMON_u32NoMessageTimeout_Ticks (.ebss)
0000bb6c  global    _CSMON_u32SCIErrorPPM (.ebss)
0000bb6e  global    _CSMON_u32ServiceWatchdogTimes (.ebss)
0000bba2  global    _CSMON_u32WatchdogPeriod_Ticks (.ebss)
0000bba0  global    _CSMON_u32WatchdogPeriod_usec (.ebss)
003ee5bc  global    _CSMON_vAddSetupRecorderParameterMask (.text:_CSMON_vAddSetupRecorderParameterMask)
003ed55f  global    _CSMON_vAutorizationReset (.text:_CSMON_vAutorizationReset)
00000000  global    _CSMON_vCheckLoadRecorderTable (.text:_CSMON_vCheckLoadRecorderTable)
00000000  global    _CSMON_vCheckSaveRecorderTable (.text:_CSMON_vCheckSaveRecorderTable)
003ede1c  global    _CSMON_vFileParameterCountCheckSumUpdate (.text:_CSMON_vFileParameterCountCheckSumUpdate)
003eaec8  global    _CSMON_vFileRecoderStatusFix (.text:_CSMON_vFileRecoderStatusFix)
003ee07e  global    _CSMON_vInitHoldingRegistersTableChanges (.text:_CSMON_vInitHoldingRegistersTableChanges)
003eb604  global    _CSMON_vInitParameterListRealAddressRecordTables (.text:_CSMON_vInitParameterListRealAddressRecordTables)
003ed2d0  global    _CSMON_vInitRecorders (.text:_CSMON_vInitRecorders)
003ee5c0  global    _CSMON_vInitScopes (.text:_CSMON_vInitScopes)
00000000  global    _CSMON_vLoadRecorderConfigTrigger (.text:_CSMON_vLoadRecorderConfigTrigger)
00000000  global    _CSMON_vLoadRecorderConfiguration (.text:_CSMON_vLoadRecorderConfiguration)
003ec429  global    _CSMON_vPrepareFileParameterAccessList (.text:_CSMON_vPrepareFileParameterAccessList)
003ed757  global    _CSMON_vRecorderParamSetupProcess (.text:_CSMON_vRecorderParamSetupProcess)
003ed109  global    _CSMON_vRecorderParamStartStopProcess (.text:_CSMON_vRecorderParamStartStopProcess)
003edc85  global    _CSMON_vSaveRecorderConfig (.text:_CSMON_vSaveRecorderConfig)
00000000  global    _CSMON_vSaveRecorderConfigTrigger (.text:_CSMON_vSaveRecorderConfigTrigger)
00000000  global    _CSMON_vSaveRecorderConfiguration (.text:_CSMON_vSaveRecorderConfiguration)
003ec077  global    _CSMON_vSetDateTimeAutorization (.text:_CSMON_vSetDateTimeAutorization)
003ee3eb  global    _CSMON_vSetDateTimeRequest (.text:_CSMON_vSetDateTimeRequest)
003ee6dd  global    _CSMON_vSetModbusMessageCounterRegisterRealAddress (.text:_CSMON_vSetModbusMessageCounterRegisterRealAddress)
00000000  global    _CSMON_vSetSetupRecorderParameterMask (.text:_CSMON_vSetSetupRecorderParameterMask)
003ee5c4  global    _CSMON_vSetStartRecorderParameterMask (.text:_CSMON_vSetStartRecorderParameterMask)
00000000  global    _CSMON_vSetStopRecorderParameterMask (.text:_CSMON_vSetStopRecorderParameterMask)
003ed2fd  global    _CSMON_vSetupHoldingRegistersAndCoilsAddressTableAccessAll (.text:_CSMON_vSetupHoldingRegistersAndCoilsAddressTableAccessAll)
003eb52e  global    _CSMON_vSetupHoldingRegistersAndCoilsAddressTableFromCSMONParameterList (.text:_CSMON_vSetupHoldingRegistersAndCoilsAddressTableFromCSMONParameterList)
00000000  global    _CSMON_vSetupInputRegistersAndCoilsAddressTableAccessAll (.text:_CSMON_vSetupInputRegistersAndCoilsAddressTableAccessAll)
00000000  global    _CSMON_vSetupInputRegistersAndCoilsAddressTableFromCSMONParameterList (.text:_CSMON_vSetupInputRegistersAndCoilsAddressTableFromCSMONParameterList)
003ec976  global    _CSMON_vUpdateDateTimeFromApplication (.text:_CSMON_vUpdateDateTimeFromApplication)
003eda2f  global    _HMRECPRM_vGetDateTime (.text:_HMRECPRM_vGetDateTime)
00000000  global    _arr (.ebss:_arr)
00000000  global    _arr2 (.ebss:_arr2)
0000bb4c  global    _bRunOnceGetSavedRecorderState (.ebss)
0000bb4a  global    _bServiceWatchdog (.ebss)
0000bb55  global    _bSkipProcessFlag (.ebss)
0000bb63  global    _eModbusDefaultCommandRead (.ebss)
0000bb65  global    _eModbusDefaultCommandReadArray (.ebss)
0000bb64  global    _eModbusDefaultCommandWrite (.ebss)
0000bb66  global    _eModbusDefaultCommandWriteArray (.ebss)
0000bb43  global    _eResponseCodeStartRecParam0 (.ebss)
0000bb44  global    _eResponseCodeStartRecParam1 (.ebss)
0000bb45  global    _eResponseCodeStartRecParam2 (.ebss)
0000c106  global    _sFileParameterNumericOffsetDefault (.ebss:_sFileParameterNumericOffsetDefault)
0000c11e  global    _sFileParameterNumericVisualTypeDefault (.ebss:_sFileParameterNumericVisualTypeDefault)
0000c060  global    _sHashKey (.ebss:_sHashKey)
0000be00  global    _sRecConfigParam (.ebss:_sRecConfigParam)
0000bf00  global    _sScopeConfigParam (.ebss:_sScopeConfigParam)
0000bb67  global    _u16ArrayReadAsHolding (.ebss)
0000bb53  global    _u16SkipProcessCounter (.ebss)
0000bb54  global    _u16SkipProcessTag (.ebss)
0000bb6a  global    _u32FreeRunTimerSysClkDiv (.ebss)
0000bb68  global    _u32FreeRunTimerSysClkMHz (.ebss)
0000bbb4  global    _u32NumericDummy (.ebss)


================================================================================

CSMON_C28xx.lib : modbusreg.obj

Run/Load            
Value     Binding   Name (Section)
--------  --------  ---------------
003ede75  local     $C$L1 (.text:_MODBUSREG_FileShortNameElementSizeandAddressUpdateInit)
003e92a5  local     $C$L10 (.text:_MODBUSREG_AddressTablesInit)
003e92a9  local     $C$L11 (.text:_MODBUSREG_AddressTablesInit)
003e932c  local     $C$L12 (.text:_MODBUSREG_AddressTablesInit)
003e9330  local     $C$L13 (.text:_MODBUSREG_AddressTablesInit)
003e93b1  local     $C$L14 (.text:_MODBUSREG_AddressTablesInit)
003e93b5  local     $C$L15 (.text:_MODBUSREG_AddressTablesInit)
003e9435  local     $C$L16 (.text:_MODBUSREG_AddressTablesInit)
003e9439  local     $C$L17 (.text:_MODBUSREG_AddressTablesInit)
003e94c9  local     $C$L18 (.text:_MODBUSREG_AddressTablesInit)
003e94cd  local     $C$L19 (.text:_MODBUSREG_AddressTablesInit)
003ee13a  local     $C$L2 (.text:_MODBUSREG_vDataZero)
003e9544  local     $C$L20 (.text:_MODBUSREG_AddressTablesInit)
003e9548  local     $C$L21 (.text:_MODBUSREG_AddressTablesInit)
003e95cb  local     $C$L22 (.text:_MODBUSREG_AddressTablesInit)
003e95cf  local     $C$L23 (.text:_MODBUSREG_AddressTablesInit)
003e9657  local     $C$L24 (.text:_MODBUSREG_AddressTablesInit)
003e965b  local     $C$L25 (.text:_MODBUSREG_AddressTablesInit)
003e96a5  local     $C$L26 (.text:_MODBUSREG_AddressTablesInit)
003e96b6  local     $C$L27 (.text:_MODBUSREG_AddressTablesInit)
003e977c  local     $C$L28 (.text:_MODBUSREG_AddressTablesInit)
003e9780  local     $C$L29 (.text:_MODBUSREG_AddressTablesInit)
003ee140  local     $C$L3 (.text:_MODBUSREG_vDataZero)
003e9804  local     $C$L30 (.text:_MODBUSREG_AddressTablesInit)
003e9808  local     $C$L31 (.text:_MODBUSREG_AddressTablesInit)
003ede79  local     $C$L32 (.text:_MODBUSREG_vFileDenyAccess)
003ede84  local     $C$L33 (.text:_MODBUSREG_vFileDenyAccess)
003ee0b5  local     $C$L34 (.text:_MODBUSREG_vFileAllowAccess)
003ecafa  local     $C$L35 (.text:_MODBUSREG_FileRecorderExternalUpdateInit)
003ecb0c  local     $C$L36 (.text:_MODBUSREG_FileRecorderExternalUpdateInit)
003ecb27  local     $C$L37 (.text:_MODBUSREG_FileRecorderExternalUpdateInit)
003ed7bf  local     $C$L38 (.text:_MODBUSREG_FileRecorderElementSizeTableUsedSizeUpdateInit)
003e9168  local     $C$L4 (.text:_MODBUSREG_AddressTablesInit)
003e916c  local     $C$L5 (.text:_MODBUSREG_AddressTablesInit)
003e91ce  local     $C$L6 (.text:_MODBUSREG_AddressTablesInit)
003e91d2  local     $C$L7 (.text:_MODBUSREG_AddressTablesInit)
003e9232  local     $C$L8 (.text:_MODBUSREG_AddressTablesInit)
003e9236  local     $C$L9 (.text:_MODBUSREG_AddressTablesInit)
00000000  local     .bss (.bss)
003f09cc  local     .cinit (.cinit)
003f0d88  local     .cinit:_MODBUSREG_asFileTable (.cinit:_MODBUSREG_asFileTable)
003f0ce5  local     .cinit:_MODBUSREG_au8DeviceIDMajorMinorRevision (.cinit:_MODBUSREG_au8DeviceIDMajorMinorRevision)
003f0b90  local     .cinit:_MODBUSREG_au8DeviceIDModelName (.cinit:_MODBUSREG_au8DeviceIDModelName)
003f0cec  local     .cinit:_MODBUSREG_au8DeviceIDProductCode (.cinit:_MODBUSREG_au8DeviceIDProductCode)
003f0bf0  local     .cinit:_MODBUSREG_au8DeviceIDProductName (.cinit:_MODBUSREG_au8DeviceIDProductName)
003f0b17  local     .cinit:_MODBUSREG_au8DeviceIDUserApplicationName (.cinit:_MODBUSREG_au8DeviceIDUserApplicationName)
003f0bfc  local     .cinit:_MODBUSREG_au8DeviceIDUserReserve0 (.cinit:_MODBUSREG_au8DeviceIDUserReserve0)
003f0c08  local     .cinit:_MODBUSREG_au8DeviceIDUserReserve1 (.cinit:_MODBUSREG_au8DeviceIDUserReserve1)
003f0c14  local     .cinit:_MODBUSREG_au8DeviceIDUserReserve2 (.cinit:_MODBUSREG_au8DeviceIDUserReserve2)
003f0c20  local     .cinit:_MODBUSREG_au8DeviceIDVendorName (.cinit:_MODBUSREG_au8DeviceIDVendorName)
003f0b2a  local     .cinit:_MODBUSREG_au8DeviceIDVendorUrl (.cinit:_MODBUSREG_au8DeviceIDVendorUrl)
003f0b3d  local     .cinit:_MODBUSREG_au8ServerIDData (.cinit:_MODBUSREG_au8ServerIDData)
00000000  local     .data (.data)
0000ba08  local     .ebss (.ebss)
0000ac00  local     .ebss:_MODBUSREG_asFileTable (.ebss:_MODBUSREG_asFileTable)
0000beea  local     .ebss:_MODBUSREG_au8DeviceIDMajorMinorRevision (.ebss:_MODBUSREG_au8DeviceIDMajorMinorRevision)
0000bf2a  local     .ebss:_MODBUSREG_au8DeviceIDModelName (.ebss:_MODBUSREG_au8DeviceIDModelName)
0000bf40  local     .ebss:_MODBUSREG_au8DeviceIDProductCode (.ebss:_MODBUSREG_au8DeviceIDProductCode)
0000bf50  local     .ebss:_MODBUSREG_au8DeviceIDProductName (.ebss:_MODBUSREG_au8DeviceIDProductName)
0000bf60  local     .ebss:_MODBUSREG_au8DeviceIDUserApplicationName (.ebss:_MODBUSREG_au8DeviceIDUserApplicationName)
0000bf70  local     .ebss:_MODBUSREG_au8DeviceIDUserReserve0 (.ebss:_MODBUSREG_au8DeviceIDUserReserve0)
0000bf80  local     .ebss:_MODBUSREG_au8DeviceIDUserReserve1 (.ebss:_MODBUSREG_au8DeviceIDUserReserve1)
0000bf90  local     .ebss:_MODBUSREG_au8DeviceIDUserReserve2 (.ebss:_MODBUSREG_au8DeviceIDUserReserve2)
0000bfa0  local     .ebss:_MODBUSREG_au8DeviceIDVendorName (.ebss:_MODBUSREG_au8DeviceIDVendorName)
0000bfb0  local     .ebss:_MODBUSREG_au8DeviceIDVendorUrl (.ebss:_MODBUSREG_au8DeviceIDVendorUrl)
0000bfc0  local     .ebss:_MODBUSREG_au8ServerIDData (.ebss:_MODBUSREG_au8ServerIDData)
00008c00  local     .ebss:_MODBUSREG_u32RegisterAccessTableInRam (.ebss:_MODBUSREG_u32RegisterAccessTableInRam)
00000000  local     .text (.text)
003e9133  local     .text:_MODBUSREG_AddressTablesInit (.text:_MODBUSREG_AddressTablesInit)
00000000  local     .text:_MODBUSREG_FileParameterListAddressUpdateInit (.text:_MODBUSREG_FileParameterListAddressUpdateInit)
00000000  local     .text:_MODBUSREG_FileParameterNumbAddressUpdateInit (.text:_MODBUSREG_FileParameterNumbAddressUpdateInit)
003ed79d  local     .text:_MODBUSREG_FileRecorderElementSizeTableUsedSizeUpdateInit (.text:_MODBUSREG_FileRecorderElementSizeTableUsedSizeUpdateInit)
003ecad6  local     .text:_MODBUSREG_FileRecorderExternalUpdateInit (.text:_MODBUSREG_FileRecorderExternalUpdateInit)
003ede64  local     .text:_MODBUSREG_FileShortNameElementSizeandAddressUpdateInit (.text:_MODBUSREG_FileShortNameElementSizeandAddressUpdateInit)
003ee650  local     .text:_MODBUSREG_u16GetHoldRegFillCount (.text:_MODBUSREG_u16GetHoldRegFillCount)
00000000  local     .text:_MODBUSREG_u16GetHoldRegUsedCount (.text:_MODBUSREG_u16GetHoldRegUsedCount)
003ee654  local     .text:_MODBUSREG_u16GetTableRegisterFlagsElementOffset (.text:_MODBUSREG_u16GetTableRegisterFlagsElementOffset)
003ee658  local     .text:_MODBUSREG_u16GetTableRegisterSizeElementOffset (.text:_MODBUSREG_u16GetTableRegisterSizeElementOffset)
003ee65c  local     .text:_MODBUSREG_u16GetTableVirtAddressElementOffset (.text:_MODBUSREG_u16GetTableVirtAddressElementOffset)
003ee6e6  local     .text:_MODBUSREG_u32GetAddressMessageCounterThisDevice (.text:_MODBUSREG_u32GetAddressMessageCounterThisDevice)
003ee660  local     .text:_MODBUSREG_u32GetRegisterAccessTableInRam (.text:_MODBUSREG_u32GetRegisterAccessTableInRam)
003ee664  local     .text:_MODBUSREG_u32GetTableRegisterFlags (.text:_MODBUSREG_u32GetTableRegisterFlags)
003ee668  local     .text:_MODBUSREG_u32GetTableRegisterSize (.text:_MODBUSREG_u32GetTableRegisterSize)
003ee66c  local     .text:_MODBUSREG_u32GetTableVirtAddress (.text:_MODBUSREG_u32GetTableVirtAddress)
003ee136  local     .text:_MODBUSREG_vDataZero (.text:_MODBUSREG_vDataZero)
003ee0b2  local     .text:_MODBUSREG_vFileAllowAccess (.text:_MODBUSREG_vFileAllowAccess)
003ede76  local     .text:_MODBUSREG_vFileDenyAccess (.text:_MODBUSREG_vFileDenyAccess)
003ec7a4  local     .text:_MODBUSREG_vInit (.text:_MODBUSREG_vInit)
003ee321  local     .text:_MODBUSREG_vInitHoldingRegistersTableChanges (.text:_MODBUSREG_vInitHoldingRegistersTableChanges)
003ed4ef  local     .text:_MODBUSREG_vInitHoldingRegistersTableChangesExternalList (.text:_MODBUSREG_vInitHoldingRegistersTableChangesExternalList)
00000000  local     .text:_MODBUSREG_vProcess (.text:_MODBUSREG_vProcess)
003ee6e9  local     .text:_MODBUSREG_vSetAddressMessageCounterThisDevice (.text:_MODBUSREG_vSetAddressMessageCounterThisDevice)
003ee670  local     .text:_MODBUSREG_vSetFileAutorization_FunctionAfterWriteFileRecordTable (.text:_MODBUSREG_vSetFileAutorization_FunctionAfterWriteFileRecordTable)
003ee674  local     .text:_MODBUSREG_vSetFileParamCount_FunctionBeforeReadFileRecord (.text:_MODBUSREG_vSetFileParamCount_FunctionBeforeReadFileRecord)
003ee678  local     .text:_MODBUSREG_vSetFileRTC_FunctionAfterReadFileRecord (.text:_MODBUSREG_vSetFileRTC_FunctionAfterReadFileRecord)
003ee67c  local     .text:_MODBUSREG_vSetFileRTC_FunctionAfterWriteFileRecord (.text:_MODBUSREG_vSetFileRTC_FunctionAfterWriteFileRecord)
003ee680  local     .text:_MODBUSREG_vSetFileRecConfig_FunctionAfterWriteFileRecord (.text:_MODBUSREG_vSetFileRecConfig_FunctionAfterWriteFileRecord)
003ee684  local     .text:_MODBUSREG_vSetFileRecStatus_FunctionIndexGenerationFileRecord (.text:_MODBUSREG_vSetFileRecStatus_FunctionIndexGenerationFileRecord)
003ee688  local     .text:_MODBUSREG_vSetHoldRegFillCount (.text:_MODBUSREG_vSetHoldRegFillCount)
00000000  local     .text:_MODBUSREG_vSetModbusParamCount (.text:_MODBUSREG_vSetModbusParamCount)
00000000  local     .text:_MODBUSREG_vSetParamAuxAddress (.text:_MODBUSREG_vSetParamAuxAddress)
003ee68c  local     .text:_MODBUSREG_vSetParamCount (.text:_MODBUSREG_vSetParamCount)
003ee690  local     .text:_MODBUSREG_vSetParamListAddress (.text:_MODBUSREG_vSetParamListAddress)
003ee694  local     .text:_MODBUSREG_vSetParamNumbAddress (.text:_MODBUSREG_vSetParamNumbAddress)
003ee698  local     .text:_MODBUSREG_vSetParamRecorderConfigAddress (.text:_MODBUSREG_vSetParamRecorderConfigAddress)
00000000  local     .text:_MODBUSREG_vSetParamReservedAddress (.text:_MODBUSREG_vSetParamReservedAddress)
003ee69c  local     .text:_MODBUSREG_vSetParamScopeConfigAddress (.text:_MODBUSREG_vSetParamScopeConfigAddress)
00000000  local     .text:_MODBUSREG_vSetParamStringAddress (.text:_MODBUSREG_vSetParamStringAddress)
003ee4e5  local     .text:_MODBUSREG_vSetTableNameAddress (.text:_MODBUSREG_vSetTableNameAddress)
00000000  local     .text:_MODBUSREG_vSetTableProcessFuncInRam (.text:_MODBUSREG_vSetTableProcessFuncInRam)
003ee4ea  local     .text:_MODBUSREG_vSetTableRealAddressInRam (.text:_MODBUSREG_vSetTableRealAddressInRam)
003ee4ef  local     .text:_MODBUSREG_vSetTableRegisterFlags (.text:_MODBUSREG_vSetTableRegisterFlags)
003ee4f4  local     .text:_MODBUSREG_vSetTableRegisterSize (.text:_MODBUSREG_vSetTableRegisterSize)
003ee4f9  local     .text:_MODBUSREG_vSetTableVirtAddress (.text:_MODBUSREG_vSetTableVirtAddress)
0000ba0d  global    _CoilTest (.ebss)
0000ba0e  global    _HMMODBUS_u16RegisterAddressTableControlParametersStartIndex (.ebss)
0000ba0c  global    _InputCoilDummy (.ebss)
0000ba0b  global    _InputRegisterDummy (.ebss)
003e9133  global    _MODBUSREG_AddressTablesInit (.text:_MODBUSREG_AddressTablesInit)
00000000  global    _MODBUSREG_FileParameterListAddressUpdateInit (.text:_MODBUSREG_FileParameterListAddressUpdateInit)
00000000  global    _MODBUSREG_FileParameterNumbAddressUpdateInit (.text:_MODBUSREG_FileParameterNumbAddressUpdateInit)
003ed79d  global    _MODBUSREG_FileRecorderElementSizeTableUsedSizeUpdateInit (.text:_MODBUSREG_FileRecorderElementSizeTableUsedSizeUpdateInit)
003ecad6  global    _MODBUSREG_FileRecorderExternalUpdateInit (.text:_MODBUSREG_FileRecorderExternalUpdateInit)
003ede64  global    _MODBUSREG_FileShortNameElementSizeandAddressUpdateInit (.text:_MODBUSREG_FileShortNameElementSizeandAddressUpdateInit)
0000ac00  global    _MODBUSREG_asFileTable (.ebss:_MODBUSREG_asFileTable)
0000beea  global    _MODBUSREG_au8DeviceIDMajorMinorRevision (.ebss:_MODBUSREG_au8DeviceIDMajorMinorRevision)
0000bf2a  global    _MODBUSREG_au8DeviceIDModelName (.ebss:_MODBUSREG_au8DeviceIDModelName)
0000bf40  global    _MODBUSREG_au8DeviceIDProductCode (.ebss:_MODBUSREG_au8DeviceIDProductCode)
0000bf50  global    _MODBUSREG_au8DeviceIDProductName (.ebss:_MODBUSREG_au8DeviceIDProductName)
0000bf60  global    _MODBUSREG_au8DeviceIDUserApplicationName (.ebss:_MODBUSREG_au8DeviceIDUserApplicationName)
0000bf70  global    _MODBUSREG_au8DeviceIDUserReserve0 (.ebss:_MODBUSREG_au8DeviceIDUserReserve0)
0000bf80  global    _MODBUSREG_au8DeviceIDUserReserve1 (.ebss:_MODBUSREG_au8DeviceIDUserReserve1)
0000bf90  global    _MODBUSREG_au8DeviceIDUserReserve2 (.ebss:_MODBUSREG_au8DeviceIDUserReserve2)
0000bfa0  global    _MODBUSREG_au8DeviceIDVendorName (.ebss:_MODBUSREG_au8DeviceIDVendorName)
0000bfb0  global    _MODBUSREG_au8DeviceIDVendorUrl (.ebss:_MODBUSREG_au8DeviceIDVendorUrl)
0000bfc0  global    _MODBUSREG_au8ServerIDData (.ebss:_MODBUSREG_au8ServerIDData)
0000ba22  global    _MODBUSREG_pu32TableNameAddress (.ebss)
0000ba3a  global    _MODBUSREG_pu32TableProcessFunc (.ebss)
0000ba38  global    _MODBUSREG_pu32TableRealAddress (.ebss)
0000ba36  global    _MODBUSREG_pu32TableRegisterFlags (.ebss)
0000ba34  global    _MODBUSREG_pu32TableRegisterSize (.ebss)
0000ba32  global    _MODBUSREG_pu32TableVirtAddress (.ebss)
0000ba19  global    _MODBUSREG_u16FileTableParameterListIndex (.ebss)
0000ba1a  global    _MODBUSREG_u16FileTableParameterNumbIndex (.ebss)
0000ba17  global    _MODBUSREG_u16FileTableRecorderIndex (.ebss)
0000ba18  global    _MODBUSREG_u16FileTableShortNameIndex (.ebss)
003ee650  global    _MODBUSREG_u16GetHoldRegFillCount (.text:_MODBUSREG_u16GetHoldRegFillCount)
00000000  global    _MODBUSREG_u16GetHoldRegUsedCount (.text:_MODBUSREG_u16GetHoldRegUsedCount)
003ee654  global    _MODBUSREG_u16GetTableRegisterFlagsElementOffset (.text:_MODBUSREG_u16GetTableRegisterFlagsElementOffset)
003ee658  global    _MODBUSREG_u16GetTableRegisterSizeElementOffset (.text:_MODBUSREG_u16GetTableRegisterSizeElementOffset)
003ee65c  global    _MODBUSREG_u16GetTableVirtAddressElementOffset (.text:_MODBUSREG_u16GetTableVirtAddressElementOffset)
0000ba0f  global    _MODBUSREG_u16HoldRegFillCount (.ebss)
0000ba11  global    _MODBUSREG_u16HoldRegListCount (.ebss)
0000ba10  global    _MODBUSREG_u16HoldRegUsedCount (.ebss)
0000ba08  global    _MODBUSREG_u16ModbusParamCount (.ebss)
0000ba09  global    _MODBUSREG_u16ParamCount (.ebss)
0000ba0a  global    _MODBUSREG_u16TableNameAddressOffset (.ebss)
0000ba16  global    _MODBUSREG_u16TableProcessFuncOffset (.ebss)
0000ba15  global    _MODBUSREG_u16TableRealAddressOffset (.ebss)
0000ba14  global    _MODBUSREG_u16TableRegisterFlagsOffset (.ebss)
0000ba13  global    _MODBUSREG_u16TableRegisterSizeOffset (.ebss)
0000ba12  global    _MODBUSREG_u16TableVirtAddressOffset (.ebss)
0000ba2c  global    _MODBUSREG_u32FileAutorization_FunctionAfterWriteFileRecordTable (.ebss)
0000ba2a  global    _MODBUSREG_u32FileParamCount_FunctionBeforeReadFileRecord (.ebss)
0000ba28  global    _MODBUSREG_u32FileRTC_FunctionAfterReadFileRecord (.ebss)
0000ba26  global    _MODBUSREG_u32FileRTC_FunctionAfterWriteFileRecord (.ebss)
0000ba30  global    _MODBUSREG_u32FileRecConfig_FunctionAfterWriteFileRecord (.ebss)
0000ba2e  global    _MODBUSREG_u32FileRecStatus_FunctionIndexGenerationFileRecord (.ebss)
003ee6e6  global    _MODBUSREG_u32GetAddressMessageCounterThisDevice (.text:_MODBUSREG_u32GetAddressMessageCounterThisDevice)
003ee660  global    _MODBUSREG_u32GetRegisterAccessTableInRam (.text:_MODBUSREG_u32GetRegisterAccessTableInRam)
003ee664  global    _MODBUSREG_u32GetTableRegisterFlags (.text:_MODBUSREG_u32GetTableRegisterFlags)
003ee668  global    _MODBUSREG_u32GetTableRegisterSize (.text:_MODBUSREG_u32GetTableRegisterSize)
003ee66c  global    _MODBUSREG_u32GetTableVirtAddress (.text:_MODBUSREG_u32GetTableVirtAddress)
0000ba20  global    _MODBUSREG_u32ParamListAddress (.ebss)
0000ba24  global    _MODBUSREG_u32ParamNumbAddress (.ebss)
0000ba1c  global    _MODBUSREG_u32ParamRecorderConfigAddress (.ebss)
0000ba1e  global    _MODBUSREG_u32ParamScopeConfigAddress (.ebss)
00008c00  global    _MODBUSREG_u32RegisterAccessTableInRam (.ebss:_MODBUSREG_u32RegisterAccessTableInRam)
003ee136  global    _MODBUSREG_vDataZero (.text:_MODBUSREG_vDataZero)
003ee0b2  global    _MODBUSREG_vFileAllowAccess (.text:_MODBUSREG_vFileAllowAccess)
003ede76  global    _MODBUSREG_vFileDenyAccess (.text:_MODBUSREG_vFileDenyAccess)
003ec7a4  global    _MODBUSREG_vInit (.text:_MODBUSREG_vInit)
003ee321  global    _MODBUSREG_vInitHoldingRegistersTableChanges (.text:_MODBUSREG_vInitHoldingRegistersTableChanges)
003ed4ef  global    _MODBUSREG_vInitHoldingRegistersTableChangesExternalList (.text:_MODBUSREG_vInitHoldingRegistersTableChangesExternalList)
00000000  global    _MODBUSREG_vProcess (.text:_MODBUSREG_vProcess)
003ee6e9  global    _MODBUSREG_vSetAddressMessageCounterThisDevice (.text:_MODBUSREG_vSetAddressMessageCounterThisDevice)
003ee670  global    _MODBUSREG_vSetFileAutorization_FunctionAfterWriteFileRecordTable (.text:_MODBUSREG_vSetFileAutorization_FunctionAfterWriteFileRecordTable)
003ee674  global    _MODBUSREG_vSetFileParamCount_FunctionBeforeReadFileRecord (.text:_MODBUSREG_vSetFileParamCount_FunctionBeforeReadFileRecord)
003ee678  global    _MODBUSREG_vSetFileRTC_FunctionAfterReadFileRecord (.text:_MODBUSREG_vSetFileRTC_FunctionAfterReadFileRecord)
003ee67c  global    _MODBUSREG_vSetFileRTC_FunctionAfterWriteFileRecord (.text:_MODBUSREG_vSetFileRTC_FunctionAfterWriteFileRecord)
003ee680  global    _MODBUSREG_vSetFileRecConfig_FunctionAfterWriteFileRecord (.text:_MODBUSREG_vSetFileRecConfig_FunctionAfterWriteFileRecord)
003ee684  global    _MODBUSREG_vSetFileRecStatus_FunctionIndexGenerationFileRecord (.text:_MODBUSREG_vSetFileRecStatus_FunctionIndexGenerationFileRecord)
003ee688  global    _MODBUSREG_vSetHoldRegFillCount (.text:_MODBUSREG_vSetHoldRegFillCount)
00000000  global    _MODBUSREG_vSetModbusParamCount (.text:_MODBUSREG_vSetModbusParamCount)
00000000  global    _MODBUSREG_vSetParamAuxAddress (.text:_MODBUSREG_vSetParamAuxAddress)
003ee68c  global    _MODBUSREG_vSetParamCount (.text:_MODBUSREG_vSetParamCount)
003ee690  global    _MODBUSREG_vSetParamListAddress (.text:_MODBUSREG_vSetParamListAddress)
003ee694  global    _MODBUSREG_vSetParamNumbAddress (.text:_MODBUSREG_vSetParamNumbAddress)
003ee698  global    _MODBUSREG_vSetParamRecorderConfigAddress (.text:_MODBUSREG_vSetParamRecorderConfigAddress)
00000000  global    _MODBUSREG_vSetParamReservedAddress (.text:_MODBUSREG_vSetParamReservedAddress)
003ee69c  global    _MODBUSREG_vSetParamScopeConfigAddress (.text:_MODBUSREG_vSetParamScopeConfigAddress)
00000000  global    _MODBUSREG_vSetParamStringAddress (.text:_MODBUSREG_vSetParamStringAddress)
003ee4e5  global    _MODBUSREG_vSetTableNameAddress (.text:_MODBUSREG_vSetTableNameAddress)
00000000  global    _MODBUSREG_vSetTableProcessFuncInRam (.text:_MODBUSREG_vSetTableProcessFuncInRam)
003ee4ea  global    _MODBUSREG_vSetTableRealAddressInRam (.text:_MODBUSREG_vSetTableRealAddressInRam)
003ee4ef  global    _MODBUSREG_vSetTableRegisterFlags (.text:_MODBUSREG_vSetTableRegisterFlags)
003ee4f4  global    _MODBUSREG_vSetTableRegisterSize (.text:_MODBUSREG_vSetTableRegisterSize)
003ee4f9  global    _MODBUSREG_vSetTableVirtAddress (.text:_MODBUSREG_vSetTableVirtAddress)


================================================================================

CSMON_C28xx.lib : gpio.obj

Run/Load            
Value     Binding   Name (Section)
--------  --------  ---------------
003ec8e0  local     $C$L1 (.text:_GPIO_setPinConfigOutput)
003ec8e5  local     $C$L2 (.text:_GPIO_setPinConfigOutput)
003ec8e7  local     $C$L3 (.text:_GPIO_setPinConfigOutput)
003ec8fd  local     $C$L4 (.text:_GPIO_setPinConfigOutput)
003ec918  local     $C$L5 (.text:_GPIO_setPinConfigOutput)
003ec919  local     $C$L6 (.text:_GPIO_setPinConfigOutput)
003ec91a  local     $C$L7 (.text:_GPIO_setPinConfigOutput)
00000000  local     .bss (.bss)
00000000  local     .data (.data)
00000000  local     .text (.text)
003ec8c2  local     .text:_GPIO_setPinConfigOutput (.text:_GPIO_setPinConfigOutput)
003ec8c2  global    _GPIO_setPinConfigOutput (.text:_GPIO_setPinConfigOutput)


================================================================================

CSMON_C28xx.lib : sci.obj

Run/Load            
Value     Binding   Name (Section)
--------  --------  ---------------
0000000a  local     $C$L1 (.text:_SCI_writeCharArray)
00000006  local     $C$L10 (.text:_SCI_getInterruptStatus)
00000009  local     $C$L11 (.text:_SCI_getInterruptStatus)
0000000d  local     $C$L12 (.text:_SCI_getInterruptStatus)
0000000e  local     $C$L13 (.text:_SCI_getInterruptStatus)
00000012  local     $C$L14 (.text:_SCI_getInterruptStatus)
00000016  local     $C$L15 (.text:_SCI_getInterruptStatus)
00000019  local     $C$L16 (.text:_SCI_getInterruptStatus)
0000001c  local     $C$L17 (.text:_SCI_getInterruptStatus)
0000001f  local     $C$L18 (.text:_SCI_getInterruptStatus)
003edb7a  local     $C$L19 (.text:_SCI_enableInterrupt)
00000012  local     $C$L2 (.text:_SCI_writeCharArray)
003edb7e  local     $C$L20 (.text:_SCI_enableInterrupt)
003edb82  local     $C$L21 (.text:_SCI_enableInterrupt)
003edb88  local     $C$L22 (.text:_SCI_enableInterrupt)
003edb8d  local     $C$L23 (.text:_SCI_enableInterrupt)
003edb60  local     $C$L24 (.text:_SCI_disableInterrupt)
003edb64  local     $C$L25 (.text:_SCI_disableInterrupt)
003edb68  local     $C$L26 (.text:_SCI_disableInterrupt)
003edb6e  local     $C$L27 (.text:_SCI_disableInterrupt)
003edb73  local     $C$L28 (.text:_SCI_disableInterrupt)
003eda57  local     $C$L29 (.text:_SCI_clearInterruptStatus)
00000016  local     $C$L3 (.text:_SCI_writeCharArray)
003eda5b  local     $C$L30 (.text:_SCI_clearInterruptStatus)
003eda61  local     $C$L31 (.text:_SCI_clearInterruptStatus)
003eda66  local     $C$L32 (.text:_SCI_clearInterruptStatus)
00000021  local     $C$L4 (.text:_SCI_writeCharArray)
0000000a  local     $C$L5 (.text:_SCI_readCharArray)
00000012  local     $C$L6 (.text:_SCI_readCharArray)
00000015  local     $C$L7 (.text:_SCI_readCharArray)
0000001f  local     $C$L8 (.text:_SCI_readCharArray)
00000005  local     $C$L9 (.text:_SCI_getInterruptStatus)
00000000  local     .bss (.bss)
00000000  local     .data (.data)
00000000  local     .text (.text)
003eda4b  local     .text:_SCI_clearInterruptStatus (.text:_SCI_clearInterruptStatus)
003edb5a  local     .text:_SCI_disableInterrupt (.text:_SCI_disableInterrupt)
003edb74  local     .text:_SCI_enableInterrupt (.text:_SCI_enableInterrupt)
00000000  local     .text:_SCI_getInterruptStatus (.text:_SCI_getInterruptStatus)
00000000  local     .text:_SCI_readCharArray (.text:_SCI_readCharArray)
00000000  local     .text:_SCI_setConfig (.text:_SCI_setConfig)
00000000  local     .text:_SCI_writeCharArray (.text:_SCI_writeCharArray)
003eda4b  global    _SCI_clearInterruptStatus (.text:_SCI_clearInterruptStatus)
003edb5a  global    _SCI_disableInterrupt (.text:_SCI_disableInterrupt)
003edb74  global    _SCI_enableInterrupt (.text:_SCI_enableInterrupt)
00000000  global    _SCI_getInterruptStatus (.text:_SCI_getInterruptStatus)
00000000  global    _SCI_readCharArray (.text:_SCI_readCharArray)
00000000  global    _SCI_setConfig (.text:_SCI_setConfig)
00000000  global    _SCI_writeCharArray (.text:_SCI_writeCharArray)


================================================================================

CSMON_C28xx.lib : tmr_drv.obj

Run/Load            
Value     Binding   Name (Section)
--------  --------  ---------------
003ecfaa  local     $C$L1 (.text:_configCPUTimer)
003ebc09  local     $C$L10 (.text:_TMR2_ISR)
003ebc0e  local     $C$L11 (.text:_TMR2_ISR)
003ebc11  local     $C$L12 (.text:_TMR2_ISR)
003ebc36  local     $C$L13 (.text:_TMR2_ISR)
003ebc3b  local     $C$L14 (.text:_TMR2_ISR)
003ebc3e  local     $C$L15 (.text:_TMR2_ISR)
003ebc4d  local     $C$L16 (.text:_TMR2_ISR)
003ee200  local     $C$L17 (.text:_TIMER_vResetTimerMainFunctionDelayCounter)
003ecfae  local     $C$L2 (.text:_configCPUTimer)
003ecfb1  local     $C$L3 (.text:_configCPUTimer)
003ebbd7  local     $C$L4 (.text:_TMR2_ISR)
003ebbd9  local     $C$L5 (.text:_TMR2_ISR)
003ebbdb  local     $C$L6 (.text:_TMR2_ISR)
003ebbdc  local     $C$L7 (.text:_TMR2_ISR)
003ebbde  local     $C$L8 (.text:_TMR2_ISR)
003ebbe7  local     $C$L9 (.text:_TMR2_ISR)
00000000  local     .bss (.bss)
003f0bbc  local     .cinit (.cinit)
003f0c79  local     .cinit:_pfDelayedFunction (.cinit:_pfDelayedFunction)
003f0c84  local     .cinit:_pfDelayedFunction_u8 (.cinit:_pfDelayedFunction_u8)
00000000  local     .data (.data)
0000bfe0  local     .ebss (.ebss)
0000c0a8  local     .ebss:_pfDelayedFunction (.ebss:_pfDelayedFunction)
0000c0b0  local     .ebss:_pfDelayedFunction_u8 (.ebss:_pfDelayedFunction_u8)
0000c0e0  local     .ebss:_u16TimerMainDelayedData (.ebss:_u16TimerMainDelayedData)
0000c0e4  local     .ebss:_u16TimerMainFunctionDelay (.ebss:_u16TimerMainFunctionDelay)
0000c0e8  local     .ebss:_u16TimerMainFunctionDelayCompare (.ebss:_u16TimerMainFunctionDelayCompare)
0000c0ec  local     .ebss:_u16TimerMainFunctionDelayCounter (.ebss:_u16TimerMainFunctionDelayCounter)
00000000  local     .text (.text)
003ee348  local     .text:_TIMER_u16ResetTimerMainPeriod (.text:_TIMER_u16ResetTimerMainPeriod)
003ee6a0  local     .text:_TIMER_vGetTimerMainRollingCounter (.text:_TIMER_vGetTimerMainRollingCounter)
003ee1f8  local     .text:_TIMER_vResetTimerMainFunctionDelayCounter (.text:_TIMER_vResetTimerMainFunctionDelayCounter)
003ee6a4  local     .text:_TIMER_vSetupTimerMainCSMONFunction (.text:_TIMER_vSetupTimerMainCSMONFunction)
003ee53f  local     .text:_TIMER_vSetupTimerMainDelayedData (.text:_TIMER_vSetupTimerMainDelayedData)
00000000  local     .text:_TIMER_vSetupTimerMainDelayedFunction (.text:_TIMER_vSetupTimerMainDelayedFunction)
003ee201  local     .text:_TIMER_vSetupTimerMainDelayedFunctionSendData (.text:_TIMER_vSetupTimerMainDelayedFunctionSendData)
00000000  local     .text:_TIMER_vSetupTimerMainFunctionDelay (.text:_TIMER_vSetupTimerMainFunctionDelay)
003ee0bf  local     .text:_TIMER_vSetupTimerMainFunctionDelayCompare (.text:_TIMER_vSetupTimerMainFunctionDelayCompare)
003ebbb5  local     .text:_TMR2_ISR (.text:_TMR2_ISR)
003ee6a8  local     .text:_TMR_u16GetFreeRunTimerPrescaller (.text:_TMR_u16GetFreeRunTimerPrescaller)
003ed6eb  local     .text:_TMR_vInit (.text:_TMR_vInit)
003ed8a9  local     .text:_TMR_vInitCPUTimers (.text:_TMR_vInitCPUTimers)
003ecf79  local     .text:_configCPUTimer (.text:_configCPUTimer)
003ee348  global    _TIMER_u16ResetTimerMainPeriod (.text:_TIMER_u16ResetTimerMainPeriod)
003ee6a0  global    _TIMER_vGetTimerMainRollingCounter (.text:_TIMER_vGetTimerMainRollingCounter)
003ee1f8  global    _TIMER_vResetTimerMainFunctionDelayCounter (.text:_TIMER_vResetTimerMainFunctionDelayCounter)
003ee6a4  global    _TIMER_vSetupTimerMainCSMONFunction (.text:_TIMER_vSetupTimerMainCSMONFunction)
003ee53f  global    _TIMER_vSetupTimerMainDelayedData (.text:_TIMER_vSetupTimerMainDelayedData)
00000000  global    _TIMER_vSetupTimerMainDelayedFunction (.text:_TIMER_vSetupTimerMainDelayedFunction)
003ee201  global    _TIMER_vSetupTimerMainDelayedFunctionSendData (.text:_TIMER_vSetupTimerMainDelayedFunctionSendData)
00000000  global    _TIMER_vSetupTimerMainFunctionDelay (.text:_TIMER_vSetupTimerMainFunctionDelay)
003ee0bf  global    _TIMER_vSetupTimerMainFunctionDelayCompare (.text:_TIMER_vSetupTimerMainFunctionDelayCompare)
003ebbb5  global    _TMR2_ISR (.text:_TMR2_ISR)
0000bfe7  global    _TMR_u16FreeRunTimerPrescaller (.ebss)
003ee6a8  global    _TMR_u16GetFreeRunTimerPrescaller (.text:_TMR_u16GetFreeRunTimerPrescaller)
003ed6eb  global    _TMR_vInit (.text:_TMR_vInit)
003ed8a9  global    _TMR_vInitCPUTimers (.text:_TMR_vInitCPUTimers)
003ecf79  global    _configCPUTimer (.text:_configCPUTimer)
0000bfe0  global    _cpuTimer0IntCount (.ebss)
0000bfe1  global    _cpuTimer1IntCount (.ebss)
0000bfe2  global    _cpuTimer2IntCount (.ebss)
0000bfe8  global    _hours (.ebss)
0000bfe9  global    _minutes (.ebss)
0000bfec  global    _pfCSMONFunction (.ebss)
0000c0a8  global    _pfDelayedFunction (.ebss:_pfDelayedFunction)
0000c0b0  global    _pfDelayedFunction_u8 (.ebss:_pfDelayedFunction_u8)
0000bfeb  global    _second_Passed (.ebss)
0000bfea  global    _seconds (.ebss)
0000bfe5  global    _u16SecondCounter (.ebss)
0000bfe4  global    _u16SecondPeriod (.ebss)
0000c0e0  global    _u16TimerMainDelayedData (.ebss:_u16TimerMainDelayedData)
0000c0e4  global    _u16TimerMainFunctionDelay (.ebss:_u16TimerMainFunctionDelay)
0000c0e8  global    _u16TimerMainFunctionDelayCompare (.ebss:_u16TimerMainFunctionDelayCompare)
0000c0ec  global    _u16TimerMainFunctionDelayCounter (.ebss:_u16TimerMainFunctionDelayCounter)
0000bfe6  global    _u16TimerMainISRCounter (.ebss)
0000bfe3  global    _u16TimerMainPeriod (.ebss)


================================================================================

CSMON_C28xx.lib : uart_drv.obj

Run/Load            
Value     Binding   Name (Section)
--------  --------  ---------------
003ed105  local     $C$L1 (.text:_UART_ReadDataRx)
003ed107  local     $C$L2 (.text:_UART_ReadDataRx)
003ec8ad  local     $C$L3 (.text:_UART_RXInterrupt)
003ec8b1  local     $C$L4 (.text:_UART_RXInterrupt)
003ec8be  local     $C$L5 (.text:_UART_RXInterrupt)
003edf9d  local     $C$L6 (.text:_UART_IsTxEmpty)
00000000  local     .bss (.bss)
003f0d54  local     .cinit (.cinit)
003f0cf3  local     .cinit:_UARTRxBufferRDCount (.cinit:_UARTRxBufferRDCount)
003f0cfa  local     .cinit:_UARTRxBufferRDIndex (.cinit:_UARTRxBufferRDIndex)
003f0d01  local     .cinit:_UARTRxBufferWRCount (.cinit:_UARTRxBufferWRCount)
003f0d08  local     .cinit:_UARTRxBufferWRIndex (.cinit:_UARTRxBufferWRIndex)
003f0c6e  local     .cinit:_UART_RXIntOverflowCounter (.cinit:_UART_RXIntOverflowCounter)
00000000  local     .cinit:_UART_RXOverflowCounter (.cinit:_UART_RXOverflowCounter)
003f0c9a  local     .cinit:_u32TimeDiffLast (.cinit:_u32TimeDiffLast)
003f0ca5  local     .cinit:_u32TimeDiffNow (.cinit:_u32TimeDiffNow)
003f0cb0  local     .cinit:_u32TimeDiffRead (.cinit:_u32TimeDiffRead)
00000000  local     .data (.data)
0000c10c  local     .ebss (.ebss)
0000a800  local     .ebss:_UARTRxBuffer (.ebss:_UARTRxBuffer)
0000befa  local     .ebss:_UARTRxBufferRDCount (.ebss:_UARTRxBufferRDCount)
0000bf3a  local     .ebss:_UARTRxBufferRDIndex (.ebss:_UARTRxBufferRDIndex)
00009000  local     .ebss:_UARTRxBufferTimeDiff (.ebss:_UARTRxBufferTimeDiff)
0000bffc  local     .ebss:_UARTRxBufferWRCount (.ebss:_UARTRxBufferWRCount)
0000c03c  local     .ebss:_UARTRxBufferWRIndex (.ebss:_UARTRxBufferWRIndex)
0000c0a0  local     .ebss:_UART_RXIntOverflowCounter (.ebss:_UART_RXIntOverflowCounter)
00000000  local     .ebss:_UART_RXOverflowCounter (.ebss:_UART_RXOverflowCounter)
00000000  local     .ebss:_UART_sHandle (.ebss:_UART_sHandle)
0000c0b8  local     .ebss:_u32TimeDiffLast (.ebss:_u32TimeDiffLast)
0000c0c0  local     .ebss:_u32TimeDiffNow (.ebss:_u32TimeDiffNow)
0000c0c8  local     .ebss:_u32TimeDiffRead (.ebss:_u32TimeDiffRead)
00000000  local     .text (.text)
003ee354  local     .text:_UART_GetChar (.text:_UART_GetChar)
00000000  local     .text:_UART_IsRxReady (.text:_UART_IsRxReady)
003edf90  local     .text:_UART_IsTxEmpty (.text:_UART_IsTxEmpty)
00000000  local     .text:_UART_IsTxReady (.text:_UART_IsTxReady)
003ee20a  local     .text:_UART_PutChar (.text:_UART_PutChar)
00000000  local     .text:_UART_PutNextAddress (.text:_UART_PutNextAddress)
003ec865  local     .text:_UART_RXInterrupt (.text:_UART_RXInterrupt)
003ed0d1  local     .text:_UART_ReadDataRx (.text:_UART_ReadDataRx)
003ee0cc  local     .text:_UART_ReadDataRxAvailable (.text:_UART_ReadDataRxAvailable)
003ee213  local     .text:_UART_ReadDataRxTimeDiff (.text:_UART_ReadDataRxTimeDiff)
00000000  local     .text:_UART_RxDis (.text:_UART_RxDis)
00000000  local     .text:_UART_RxEna (.text:_UART_RxEna)
003ee6ec  local     .text:_UART_TXInterrupt (.text:_UART_TXInterrupt)
00000000  local     .text:_UART_TransmitDisable (.text:_UART_TransmitDisable)
00000000  local     .text:_UART_TransmitEnable (.text:_UART_TransmitEnable)
003ee6fd  local     .text:_UART_TxDis (.text:_UART_TxDis)
003ee6fe  local     .text:_UART_TxEna (.text:_UART_TxEna)
003ede88  local     .text:_UART_TxIntDis (.text:_UART_TxIntDis)
003ede9a  local     .text:_UART_TxIntEna (.text:_UART_TxIntEna)
00000000  local     .text:_UART_bUseSCIA_On_USB_Connector (.text:_UART_bUseSCIA_On_USB_Connector)
003edbda  local     .text:_UART_vInit (.text:_UART_vInit)
00000000  local     .text:_UART_vReset (.text:_UART_vReset)
0000a800  global    _UARTRxBuffer (.ebss:_UARTRxBuffer)
0000befa  global    _UARTRxBufferRDCount (.ebss:_UARTRxBufferRDCount)
0000bf3a  global    _UARTRxBufferRDIndex (.ebss:_UARTRxBufferRDIndex)
00009000  global    _UARTRxBufferTimeDiff (.ebss:_UARTRxBufferTimeDiff)
0000bffc  global    _UARTRxBufferWRCount (.ebss:_UARTRxBufferWRCount)
0000c03c  global    _UARTRxBufferWRIndex (.ebss:_UARTRxBufferWRIndex)
003ee354  global    _UART_GetChar (.text:_UART_GetChar)
00000000  global    _UART_IsRxReady (.text:_UART_IsRxReady)
003edf90  global    _UART_IsTxEmpty (.text:_UART_IsTxEmpty)
00000000  global    _UART_IsTxReady (.text:_UART_IsTxReady)
003ee20a  global    _UART_PutChar (.text:_UART_PutChar)
00000000  global    _UART_PutNextAddress (.text:_UART_PutNextAddress)
0000c0a0  global    _UART_RXIntOverflowCounter (.ebss:_UART_RXIntOverflowCounter)
003ec865  global    _UART_RXInterrupt (.text:_UART_RXInterrupt)
00000000  global    _UART_RXOverflowCounter (.ebss:_UART_RXOverflowCounter)
003ed0d1  global    _UART_ReadDataRx (.text:_UART_ReadDataRx)
003ee0cc  global    _UART_ReadDataRxAvailable (.text:_UART_ReadDataRxAvailable)
003ee213  global    _UART_ReadDataRxTimeDiff (.text:_UART_ReadDataRxTimeDiff)
00000000  global    _UART_RxDis (.text:_UART_RxDis)
00000000  global    _UART_RxEna (.text:_UART_RxEna)
003ee6ec  global    _UART_TXInterrupt (.text:_UART_TXInterrupt)
00000000  global    _UART_TransmitDisable (.text:_UART_TransmitDisable)
00000000  global    _UART_TransmitEnable (.text:_UART_TransmitEnable)
003ee6fd  global    _UART_TxDis (.text:_UART_TxDis)
003ee6fe  global    _UART_TxEna (.text:_UART_TxEna)
003ede88  global    _UART_TxIntDis (.text:_UART_TxIntDis)
003ede9a  global    _UART_TxIntEna (.text:_UART_TxIntEna)
00000000  global    _UART_bUseSCIA_On_USB_Connector (.text:_UART_bUseSCIA_On_USB_Connector)
00000000  global    _UART_sHandle (.ebss:_UART_sHandle)
003edbda  global    _UART_vInit (.text:_UART_vInit)
00000000  global    _UART_vReset (.text:_UART_vReset)
0000c10c  global    _bUseSCIA_On_USB (.ebss)
0000c0b8  global    _u32TimeDiffLast (.ebss:_u32TimeDiffLast)
0000c0c0  global    _u32TimeDiffNow (.ebss:_u32TimeDiffNow)
0000c0c8  global    _u32TimeDiffRead (.ebss:_u32TimeDiffRead)


================================================================================

CSMON_C28xx.lib : hmdrv.obj

Run/Load            
Value     Binding   Name (Section)
--------  --------  ---------------
003ed891  local     $C$L1 (.text:_HMDRV_vProcess)
0000000a  local     $C$L10 (.text:_HMDRV_CopyToBufferInternalSingleCoil)
003ec2e9  local     $C$L100 (.text:_HMDRV_CopyFromBufferInternalModbus)
003ec2f7  local     $C$L101 (.text:_HMDRV_CopyFromBufferInternalModbus)
003ec300  local     $C$L102 (.text:_HMDRV_CopyFromBufferInternalModbus)
003ec30f  local     $C$L103 (.text:_HMDRV_CopyFromBufferInternalModbus)
003ec313  local     $C$L104 (.text:_HMDRV_CopyFromBufferInternalModbus)
003ec31f  local     $C$L105 (.text:_HMDRV_CopyFromBufferInternalModbus)
0000000e  local     $C$L106 (.text:_HMDRV_CopyFromBufferInternalCoil)
0000001a  local     $C$L107 (.text:_HMDRV_CopyFromBufferInternalCoil)
0000001f  local     $C$L108 (.text:_HMDRV_CopyFromBufferInternalCoil)
00000039  local     $C$L109 (.text:_HMDRV_CopyFromBufferInternalCoil)
0000000c  local     $C$L11 (.text:_HMDRV_CopyToBufferInternalModbusSingleCoil)
003ecf08  local     $C$L110 (.text:_HMDRV_CopyFromBufferInternal)
003ecf0c  local     $C$L111 (.text:_HMDRV_CopyFromBufferInternal)
003ecf1b  local     $C$L112 (.text:_HMDRV_CopyFromBufferInternal)
003ecf21  local     $C$L113 (.text:_HMDRV_CopyFromBufferInternal)
003ecf2a  local     $C$L114 (.text:_HMDRV_CopyFromBufferInternal)
003ecf39  local     $C$L115 (.text:_HMDRV_CopyFromBufferInternal)
003ecf3a  local     $C$L116 (.text:_HMDRV_CopyFromBufferInternal)
0000000a  local     $C$L117 (.text:_HMDRV_AddressToBufferBigEndian)
00000019  local     $C$L118 (.text:_HMDRV_AddressToBufferBigEndian)
003edae0  local     $C$L119 (.text:_HMDRV_AddressToBuffer)
00000012  local     $C$L12 (.text:_HMDRV_CopyToBufferInternalModbusSingleCoil)
003edaef  local     $C$L120 (.text:_HMDRV_AddressToBuffer)
003edd46  local     $C$L121 (.text:_HMDRV_AddressFromBufferBigEndian)
003edd4f  local     $C$L122 (.text:_HMDRV_AddressFromBufferBigEndian)
00000014  local     $C$L13 (.text:_HMDRV_CopyToBufferInternalModbusSingleCoil)
0000000e  local     $C$L14 (.text:_HMDRV_CopyToBufferInternalModbusCoil)
00000020  local     $C$L15 (.text:_HMDRV_CopyToBufferInternalModbusCoil)
00000028  local     $C$L16 (.text:_HMDRV_CopyToBufferInternalModbusCoil)
003ebf5b  local     $C$L17 (.text:_HMDRV_CopyToBufferInternalModbus)
003ebf65  local     $C$L18 (.text:_HMDRV_CopyToBufferInternalModbus)
003ebf6f  local     $C$L19 (.text:_HMDRV_CopyToBufferInternalModbus)
003ed8a8  local     $C$L2 (.text:_HMDRV_vProcess)
003ebf74  local     $C$L20 (.text:_HMDRV_CopyToBufferInternalModbus)
003ebf75  local     $C$L21 (.text:_HMDRV_CopyToBufferInternalModbus)
003ebf79  local     $C$L22 (.text:_HMDRV_CopyToBufferInternalModbus)
003ebf7b  local     $C$L23 (.text:_HMDRV_CopyToBufferInternalModbus)
003ebf86  local     $C$L24 (.text:_HMDRV_CopyToBufferInternalModbus)
003ebf8f  local     $C$L25 (.text:_HMDRV_CopyToBufferInternalModbus)
003ebfa0  local     $C$L26 (.text:_HMDRV_CopyToBufferInternalModbus)
003ebfa5  local     $C$L27 (.text:_HMDRV_CopyToBufferInternalModbus)
003ebfb0  local     $C$L28 (.text:_HMDRV_CopyToBufferInternalModbus)
003ebfb4  local     $C$L29 (.text:_HMDRV_CopyToBufferInternalModbus)
00000009  local     $C$L3 (.text:_HMDRV_vDebugSend)
003ebfb8  local     $C$L30 (.text:_HMDRV_CopyToBufferInternalModbus)
003ebfb9  local     $C$L31 (.text:_HMDRV_CopyToBufferInternalModbus)
003ebfc7  local     $C$L32 (.text:_HMDRV_CopyToBufferInternalModbus)
003ebfcc  local     $C$L33 (.text:_HMDRV_CopyToBufferInternalModbus)
003ebfcd  local     $C$L34 (.text:_HMDRV_CopyToBufferInternalModbus)
003ebfd5  local     $C$L35 (.text:_HMDRV_CopyToBufferInternalModbus)
003ebfd7  local     $C$L36 (.text:_HMDRV_CopyToBufferInternalModbus)
003ebfe1  local     $C$L37 (.text:_HMDRV_CopyToBufferInternalModbus)
003ebfe3  local     $C$L38 (.text:_HMDRV_CopyToBufferInternalModbus)
0000000e  local     $C$L39 (.text:_HMDRV_CopyToBufferInternalCoil)
003edfa5  local     $C$L4 (.text:_HMDRV_GetStringLengthInternal)
0000001a  local     $C$L40 (.text:_HMDRV_CopyToBufferInternalCoil)
0000001e  local     $C$L41 (.text:_HMDRV_CopyToBufferInternalCoil)
00000036  local     $C$L42 (.text:_HMDRV_CopyToBufferInternalCoil)
003ed1eb  local     $C$L43 (.text:_HMDRV_CopyToBufferInternal)
003ed1f8  local     $C$L44 (.text:_HMDRV_CopyToBufferInternal)
003ed1fe  local     $C$L45 (.text:_HMDRV_CopyToBufferInternal)
003ed203  local     $C$L46 (.text:_HMDRV_CopyToBufferInternal)
003ed20f  local     $C$L47 (.text:_HMDRV_CopyToBufferInternal)
003ed214  local     $C$L48 (.text:_HMDRV_CopyToBufferInternal)
003ebed1  local     $C$L49 (.text:_HMDRV_CopyMemory)
003edfab  local     $C$L5 (.text:_HMDRV_GetStringLengthInternal)
003ebedb  local     $C$L50 (.text:_HMDRV_CopyMemory)
003ebef7  local     $C$L51 (.text:_HMDRV_CopyMemory)
003ebefd  local     $C$L52 (.text:_HMDRV_CopyMemory)
003ebf06  local     $C$L53 (.text:_HMDRV_CopyMemory)
003ebf0a  local     $C$L54 (.text:_HMDRV_CopyMemory)
003ebf10  local     $C$L55 (.text:_HMDRV_CopyMemory)
003ebf1f  local     $C$L56 (.text:_HMDRV_CopyMemory)
003ebf27  local     $C$L57 (.text:_HMDRV_CopyMemory)
003ebf32  local     $C$L58 (.text:_HMDRV_CopyMemory)
003ebf52  local     $C$L59 (.text:_HMDRV_CopyMemory)
003ede30  local     $C$L6 (.text:_HMDRV_GetStringLengthFromWordInternal)
003ed4cd  local     $C$L60 (.text:_HMDRV_CopyFromBufferInternalWithMaskModbus)
003ed4d9  local     $C$L61 (.text:_HMDRV_CopyFromBufferInternalWithMaskModbus)
003ed4e9  local     $C$L62 (.text:_HMDRV_CopyFromBufferInternalWithMaskModbus)
003ed4ee  local     $C$L63 (.text:_HMDRV_CopyFromBufferInternalWithMaskModbus)
003ed830  local     $C$L64 (.text:_HMDRV_CopyFromBufferInternalWithMask)
003ed83c  local     $C$L65 (.text:_HMDRV_CopyFromBufferInternalWithMask)
003ed846  local     $C$L66 (.text:_HMDRV_CopyFromBufferInternalWithMask)
00000009  local     $C$L67 (.text:_HMDRV_CopyFromBufferInternalSingleCoil)
0000000b  local     $C$L68 (.text:_HMDRV_CopyFromBufferInternalSingleCoil)
0000000e  local     $C$L69 (.text:_HMDRV_CopyFromBufferInternalModbusSingleCoil)
003ede32  local     $C$L7 (.text:_HMDRV_GetStringLengthFromWordInternal)
0000000f  local     $C$L70 (.text:_HMDRV_CopyFromBufferInternalModbusSingleCoil)
0000001b  local     $C$L71 (.text:_HMDRV_CopyFromBufferInternalModbusSingleCoil)
00000025  local     $C$L72 (.text:_HMDRV_CopyFromBufferInternalModbusSingleCoil)
00000014  local     $C$L73 (.text:_HMDRV_CopyFromBufferInternalModbusCoil)
0000001c  local     $C$L74 (.text:_HMDRV_CopyFromBufferInternalModbusCoil)
00000020  local     $C$L75 (.text:_HMDRV_CopyFromBufferInternalModbusCoil)
003eb9e2  local     $C$L76 (.text:_HMDRV_CopyFromBufferInternalModbusBitField)
003eb9ee  local     $C$L77 (.text:_HMDRV_CopyFromBufferInternalModbusBitField)
003eb9ef  local     $C$L78 (.text:_HMDRV_CopyFromBufferInternalModbusBitField)
003eb9f3  local     $C$L79 (.text:_HMDRV_CopyFromBufferInternalModbusBitField)
003ede3e  local     $C$L8 (.text:_HMDRV_GetStringLengthFromWordInternal)
003eb9f4  local     $C$L80 (.text:_HMDRV_CopyFromBufferInternalModbusBitField)
003eb9f8  local     $C$L81 (.text:_HMDRV_CopyFromBufferInternalModbusBitField)
003eba06  local     $C$L82 (.text:_HMDRV_CopyFromBufferInternalModbusBitField)
003eba16  local     $C$L83 (.text:_HMDRV_CopyFromBufferInternalModbusBitField)
003eba20  local     $C$L84 (.text:_HMDRV_CopyFromBufferInternalModbusBitField)
003eba31  local     $C$L85 (.text:_HMDRV_CopyFromBufferInternalModbusBitField)
003eba3b  local     $C$L86 (.text:_HMDRV_CopyFromBufferInternalModbusBitField)
003eba49  local     $C$L87 (.text:_HMDRV_CopyFromBufferInternalModbusBitField)
003eba4c  local     $C$L88 (.text:_HMDRV_CopyFromBufferInternalModbusBitField)
003eba50  local     $C$L89 (.text:_HMDRV_CopyFromBufferInternalModbusBitField)
00000008  local     $C$L9 (.text:_HMDRV_CopyToBufferInternalSingleCoil)
003eba55  local     $C$L90 (.text:_HMDRV_CopyFromBufferInternalModbusBitField)
003eba60  local     $C$L91 (.text:_HMDRV_CopyFromBufferInternalModbusBitField)
003ec2af  local     $C$L92 (.text:_HMDRV_CopyFromBufferInternalModbus)
003ec2bb  local     $C$L93 (.text:_HMDRV_CopyFromBufferInternalModbus)
003ec2bc  local     $C$L94 (.text:_HMDRV_CopyFromBufferInternalModbus)
003ec2c0  local     $C$L95 (.text:_HMDRV_CopyFromBufferInternalModbus)
003ec2c1  local     $C$L96 (.text:_HMDRV_CopyFromBufferInternalModbus)
003ec2c5  local     $C$L97 (.text:_HMDRV_CopyFromBufferInternalModbus)
003ec2d3  local     $C$L98 (.text:_HMDRV_CopyFromBufferInternalModbus)
003ec2e3  local     $C$L99 (.text:_HMDRV_CopyFromBufferInternalModbus)
00000000  local     .bss (.bss)
003f0aef  local     .cinit (.cinit)
00000000  local     .data (.data)
0000b536  local     .ebss (.ebss)
00000000  local     .text (.text)
003edbc1  local     .text:_HMDRV_AddressFromBuffer (.text:_HMDRV_AddressFromBuffer)
003edd3c  local     .text:_HMDRV_AddressFromBufferBigEndian (.text:_HMDRV_AddressFromBufferBigEndian)
003edad6  local     .text:_HMDRV_AddressToBuffer (.text:_HMDRV_AddressToBuffer)
00000000  local     .text:_HMDRV_AddressToBufferBigEndian (.text:_HMDRV_AddressToBufferBigEndian)
003ecefd  local     .text:_HMDRV_CopyFromBufferInternal (.text:_HMDRV_CopyFromBufferInternal)
00000000  local     .text:_HMDRV_CopyFromBufferInternalCoil (.text:_HMDRV_CopyFromBufferInternalCoil)
003ec2a0  local     .text:_HMDRV_CopyFromBufferInternalModbus (.text:_HMDRV_CopyFromBufferInternalModbus)
003eb9ba  local     .text:_HMDRV_CopyFromBufferInternalModbusBitField (.text:_HMDRV_CopyFromBufferInternalModbusBitField)
00000000  local     .text:_HMDRV_CopyFromBufferInternalModbusCoil (.text:_HMDRV_CopyFromBufferInternalModbusCoil)
00000000  local     .text:_HMDRV_CopyFromBufferInternalModbusSingleCoil (.text:_HMDRV_CopyFromBufferInternalModbusSingleCoil)
00000000  local     .text:_HMDRV_CopyFromBufferInternalSingleCoil (.text:_HMDRV_CopyFromBufferInternalSingleCoil)
003ed826  local     .text:_HMDRV_CopyFromBufferInternalWithMask (.text:_HMDRV_CopyFromBufferInternalWithMask)
003ed4c9  local     .text:_HMDRV_CopyFromBufferInternalWithMaskModbus (.text:_HMDRV_CopyFromBufferInternalWithMaskModbus)
003ee246  local     .text:_HMDRV_CopyFromBufferWithMaskModbus (.text:_HMDRV_CopyFromBufferWithMaskModbus)
003ebec1  local     .text:_HMDRV_CopyMemory (.text:_HMDRV_CopyMemory)
003ed1e0  local     .text:_HMDRV_CopyToBufferInternal (.text:_HMDRV_CopyToBufferInternal)
00000000  local     .text:_HMDRV_CopyToBufferInternalCoil (.text:_HMDRV_CopyToBufferInternalCoil)
003ebf53  local     .text:_HMDRV_CopyToBufferInternalModbus (.text:_HMDRV_CopyToBufferInternalModbus)
00000000  local     .text:_HMDRV_CopyToBufferInternalModbusCoil (.text:_HMDRV_CopyToBufferInternalModbusCoil)
00000000  local     .text:_HMDRV_CopyToBufferInternalModbusSingleCoil (.text:_HMDRV_CopyToBufferInternalModbusSingleCoil)
00000000  local     .text:_HMDRV_CopyToBufferInternalSingleCoil (.text:_HMDRV_CopyToBufferInternalSingleCoil)
003ede2e  local     .text:_HMDRV_GetStringLengthFromWordInternal (.text:_HMDRV_GetStringLengthFromWordInternal)
003edf9f  local     .text:_HMDRV_GetStringLengthInternal (.text:_HMDRV_GetStringLengthInternal)
003ee5c8  local     .text:_HMDRV_SetExAddr (.text:_HMDRV_SetExAddr)
003ee5cc  local     .text:_HMDRV_u32GetDeviceSYSCLKFreq (.text:_HMDRV_u32GetDeviceSYSCLKFreq)
003ee5d0  local     .text:_HMDRV_u32GetSCIErrorPPM (.text:_HMDRV_u32GetSCIErrorPPM)
00000000  local     .text:_HMDRV_vDebugSend (.text:_HMDRV_vDebugSend)
003eb6ca  local     .text:_HMDRV_vInit (.text:_HMDRV_vInit)
003ed889  local     .text:_HMDRV_vProcess (.text:_HMDRV_vProcess)
003ed4a2  local     .text:_sci_echoback_init (.text:_sci_echoback_init)
003ee18b  local     .text:_sci_fifo_init (.text:_sci_fifo_init)
003edbc1  global    _HMDRV_AddressFromBuffer (.text:_HMDRV_AddressFromBuffer)
003edd3c  global    _HMDRV_AddressFromBufferBigEndian (.text:_HMDRV_AddressFromBufferBigEndian)
003edad6  global    _HMDRV_AddressToBuffer (.text:_HMDRV_AddressToBuffer)
00000000  global    _HMDRV_AddressToBufferBigEndian (.text:_HMDRV_AddressToBufferBigEndian)
003ecefd  global    _HMDRV_CopyFromBufferInternal (.text:_HMDRV_CopyFromBufferInternal)
00000000  global    _HMDRV_CopyFromBufferInternalCoil (.text:_HMDRV_CopyFromBufferInternalCoil)
003ec2a0  global    _HMDRV_CopyFromBufferInternalModbus (.text:_HMDRV_CopyFromBufferInternalModbus)
003eb9ba  global    _HMDRV_CopyFromBufferInternalModbusBitField (.text:_HMDRV_CopyFromBufferInternalModbusBitField)
00000000  global    _HMDRV_CopyFromBufferInternalModbusCoil (.text:_HMDRV_CopyFromBufferInternalModbusCoil)
00000000  global    _HMDRV_CopyFromBufferInternalModbusSingleCoil (.text:_HMDRV_CopyFromBufferInternalModbusSingleCoil)
00000000  global    _HMDRV_CopyFromBufferInternalSingleCoil (.text:_HMDRV_CopyFromBufferInternalSingleCoil)
003ed826  global    _HMDRV_CopyFromBufferInternalWithMask (.text:_HMDRV_CopyFromBufferInternalWithMask)
003ed4c9  global    _HMDRV_CopyFromBufferInternalWithMaskModbus (.text:_HMDRV_CopyFromBufferInternalWithMaskModbus)
003ee246  global    _HMDRV_CopyFromBufferWithMaskModbus (.text:_HMDRV_CopyFromBufferWithMaskModbus)
003ebec1  global    _HMDRV_CopyMemory (.text:_HMDRV_CopyMemory)
003ed1e0  global    _HMDRV_CopyToBufferInternal (.text:_HMDRV_CopyToBufferInternal)
00000000  global    _HMDRV_CopyToBufferInternalCoil (.text:_HMDRV_CopyToBufferInternalCoil)
003ebf53  global    _HMDRV_CopyToBufferInternalModbus (.text:_HMDRV_CopyToBufferInternalModbus)
00000000  global    _HMDRV_CopyToBufferInternalModbusCoil (.text:_HMDRV_CopyToBufferInternalModbusCoil)
00000000  global    _HMDRV_CopyToBufferInternalModbusSingleCoil (.text:_HMDRV_CopyToBufferInternalModbusSingleCoil)
00000000  global    _HMDRV_CopyToBufferInternalSingleCoil (.text:_HMDRV_CopyToBufferInternalSingleCoil)
003ede2e  global    _HMDRV_GetStringLengthFromWordInternal (.text:_HMDRV_GetStringLengthFromWordInternal)
003edf9f  global    _HMDRV_GetStringLengthInternal (.text:_HMDRV_GetStringLengthInternal)
003ee5c8  global    _HMDRV_SetExAddr (.text:_HMDRV_SetExAddr)
003ee5cc  global    _HMDRV_u32GetDeviceSYSCLKFreq (.text:_HMDRV_u32GetDeviceSYSCLKFreq)
003ee5d0  global    _HMDRV_u32GetSCIErrorPPM (.text:_HMDRV_u32GetSCIErrorPPM)
0000b53c  global    _HMDRV_u32SCIErrorPPM (.ebss)
00000000  global    _HMDRV_vDebugSend (.text:_HMDRV_vDebugSend)
003eb6ca  global    _HMDRV_vInit (.text:_HMDRV_vInit)
003ed889  global    _HMDRV_vProcess (.text:_HMDRV_vProcess)
0000b536  local     _pcm_bNextAddrIsEx (.ebss)
003ed4a2  global    _sci_echoback_init (.text:_sci_echoback_init)
003ee18b  global    _sci_fifo_init (.text:_sci_fifo_init)
0000b538  global    _u32DeviceLSPCLKFreq (.ebss)
0000b53a  global    _u32DeviceLSPCLKFreqRoundAndMinErrorBaud (.ebss)
0000b53e  global    _u32DeviceSYSCLKFreq (.ebss)


================================================================================

CSMON_C28xx.lib : hmlib.obj

Run/Load            
Value     Binding   Name (Section)
--------  --------  ---------------
00000004  local     $C$L1 (.text:_HMLIB_vRecorderParam)
00000006  local     $C$L10 (.text:_HMLIB_GetRecParamSampleSize)
00000006  local     $C$L11 (.text:_HMLIB_GetRecParamBufferSize)
00000006  local     $C$L12 (.text:_HMLIB_GetRecParamBuffAddress)
0000000d  local     $C$L13 (.text:_HMLIB_GetRecParamBuffAddress)
0000000b  local     $C$L14 (.text:_HMLIB_GetRecBufferSize)
00000006  local     $C$L15 (.text:_HMLIB_GetRecBuffAddress)
0000000d  local     $C$L16 (.text:_HMLIB_GetRecBuffAddress)
0000000b  local     $C$L2 (.text:_HMLIB_vRecorder)
003edc4b  local     $C$L3 (.text:_HMLIB_vProcessSCITXISRWithIndex)
003edc52  local     $C$L4 (.text:_HMLIB_vProcessSCITXISRWithIndex)
003edc54  local     $C$L5 (.text:_HMLIB_vProcessSCITXISRWithIndex)
003eddb0  local     $C$L6 (.text:_HMLIB_vProcessFastTD)
003eddb8  local     $C$L7 (.text:_HMLIB_vProcessFastTD)
003ee0e2  local     $C$L8 (.text:_HMLIB_vProcess)
00000006  local     $C$L9 (.text:_HMLIB_GetRecSampleSize)
00000000  local     .bss (.bss)
003f0cd6  local     .cinit (.cinit)
00000000  local     .data (.data)
0000be7e  local     .ebss (.ebss)
00000000  local     .text (.text)
00000000  local     .text:_HMLIB_GetRecBuffAddress (.text:_HMLIB_GetRecBuffAddress)
00000000  local     .text:_HMLIB_GetRecBufferSize (.text:_HMLIB_GetRecBufferSize)
00000000  local     .text:_HMLIB_GetRecParamBuffAddress (.text:_HMLIB_GetRecParamBuffAddress)
00000000  local     .text:_HMLIB_GetRecParamBufferSize (.text:_HMLIB_GetRecParamBufferSize)
00000000  local     .text:_HMLIB_GetRecParamSampleSize (.text:_HMLIB_GetRecParamSampleSize)
00000000  local     .text:_HMLIB_GetRecSampleSize (.text:_HMLIB_GetRecSampleSize)
00000000  local     .text:_HMLIB_vDebugSend (.text:_HMLIB_vDebugSend)
003ed77a  local     .text:_HMLIB_vInit (.text:_HMLIB_vInit)
003ee1b0  local     .text:_HMLIB_vInitRecParamBuff (.text:_HMLIB_vInitRecParamBuff)
003ee0d9  local     .text:_HMLIB_vProcess (.text:_HMLIB_vProcess)
003ee305  local     .text:_HMLIB_vProcessDifferentPorts (.text:_HMLIB_vProcessDifferentPorts)
003edda6  local     .text:_HMLIB_vProcessFastTD (.text:_HMLIB_vProcessFastTD)
003ee30c  local     .text:_HMLIB_vProcessRecorders (.text:_HMLIB_vProcessRecorders)
00000000  local     .text:_HMLIB_vProcessSCITXISR (.text:_HMLIB_vProcessSCITXISR)
003edc3d  local     .text:_HMLIB_vProcessSCITXISRWithIndex (.text:_HMLIB_vProcessSCITXISRWithIndex)
003ee490  local     .text:_HMLIB_vProcessSamePort (.text:_HMLIB_vProcessSamePort)
00000000  local     .text:_HMLIB_vRecorder (.text:_HMLIB_vRecorder)
003ee495  local     .text:_HMLIB_vRecorder0 (.text:_HMLIB_vRecorder0)
00000000  local     .text:_HMLIB_vRecorder1 (.text:_HMLIB_vRecorder1)
00000000  local     .text:_HMLIB_vRecorder2 (.text:_HMLIB_vRecorder2)
00000000  local     .text:_HMLIB_vRecorderParam (.text:_HMLIB_vRecorderParam)
003ee5d4  local     .text:_HMLIB_vRecorderParam0 (.text:_HMLIB_vRecorderParam0)
00000000  local     .text:_HMLIB_vRecorderParam1 (.text:_HMLIB_vRecorderParam1)
00000000  local     .text:_HMLIB_vRecorderParam2 (.text:_HMLIB_vRecorderParam2)
003ee6e0  local     .text:_HMLIB_vRecorderParamTimeSync (.text:_HMLIB_vRecorderParamTimeSync)
00000000  local     .text:_HMLIB_vRecorderSetTimeBase (.text:_HMLIB_vRecorderSetTimeBase)
00000000  local     .text:_HMLIB_vScopeDataUpdate (.text:_HMLIB_vScopeDataUpdate)
00000000  local     .text:_HMLIB_vScopeParamDataUpdate (.text:_HMLIB_vScopeParamDataUpdate)
00000000  local     .text:_HMLIB_vSetPortIndexHexMon (.text:_HMLIB_vSetPortIndexHexMon)
00000000  local     .text:_HMLIB_vSetPortIndexModBus (.text:_HMLIB_vSetPortIndexModBus)
00000000  global    _HMLIB_GetRecBuffAddress (.text:_HMLIB_GetRecBuffAddress)
00000000  global    _HMLIB_GetRecBufferSize (.text:_HMLIB_GetRecBufferSize)
00000000  global    _HMLIB_GetRecParamBuffAddress (.text:_HMLIB_GetRecParamBuffAddress)
00000000  global    _HMLIB_GetRecParamBufferSize (.text:_HMLIB_GetRecParamBufferSize)
00000000  global    _HMLIB_GetRecParamSampleSize (.text:_HMLIB_GetRecParamSampleSize)
00000000  global    _HMLIB_GetRecSampleSize (.text:_HMLIB_GetRecSampleSize)
00000000  global    _HMLIB_vDebugSend (.text:_HMLIB_vDebugSend)
003ed77a  global    _HMLIB_vInit (.text:_HMLIB_vInit)
003ee1b0  global    _HMLIB_vInitRecParamBuff (.text:_HMLIB_vInitRecParamBuff)
003ee0d9  global    _HMLIB_vProcess (.text:_HMLIB_vProcess)
003ee305  global    _HMLIB_vProcessDifferentPorts (.text:_HMLIB_vProcessDifferentPorts)
003edda6  global    _HMLIB_vProcessFastTD (.text:_HMLIB_vProcessFastTD)
003ee30c  global    _HMLIB_vProcessRecorders (.text:_HMLIB_vProcessRecorders)
00000000  global    _HMLIB_vProcessSCITXISR (.text:_HMLIB_vProcessSCITXISR)
003edc3d  global    _HMLIB_vProcessSCITXISRWithIndex (.text:_HMLIB_vProcessSCITXISRWithIndex)
003ee490  global    _HMLIB_vProcessSamePort (.text:_HMLIB_vProcessSamePort)
00000000  global    _HMLIB_vRecorder (.text:_HMLIB_vRecorder)
003ee495  global    _HMLIB_vRecorder0 (.text:_HMLIB_vRecorder0)
00000000  global    _HMLIB_vRecorder1 (.text:_HMLIB_vRecorder1)
00000000  global    _HMLIB_vRecorder2 (.text:_HMLIB_vRecorder2)
00000000  global    _HMLIB_vRecorderParam (.text:_HMLIB_vRecorderParam)
003ee5d4  global    _HMLIB_vRecorderParam0 (.text:_HMLIB_vRecorderParam0)
00000000  global    _HMLIB_vRecorderParam1 (.text:_HMLIB_vRecorderParam1)
00000000  global    _HMLIB_vRecorderParam2 (.text:_HMLIB_vRecorderParam2)
003ee6e0  global    _HMLIB_vRecorderParamTimeSync (.text:_HMLIB_vRecorderParamTimeSync)
00000000  global    _HMLIB_vRecorderSetTimeBase (.text:_HMLIB_vRecorderSetTimeBase)
00000000  global    _HMLIB_vScopeDataUpdate (.text:_HMLIB_vScopeDataUpdate)
00000000  global    _HMLIB_vScopeParamDataUpdate (.text:_HMLIB_vScopeParamDataUpdate)
00000000  global    _HMLIB_vSetPortIndexHexMon (.text:_HMLIB_vSetPortIndexHexMon)
00000000  global    _HMLIB_vSetPortIndexModBus (.text:_HMLIB_vSetPortIndexModBus)
0000be7e  local     _u8SCIHexMonIndex (.ebss)
0000be7f  local     _u8SCIModBusIndex (.ebss)


================================================================================

CSMON_C28xx.lib : hmmodbus.obj

Run/Load            
Value     Binding   Name (Section)
--------  --------  ---------------
003ecf5a  local     $C$L1 (.text:_vSetStartSampleIndex)
003eda6f  local     $C$L10 (.text:_vSetIndexFileTable)
003ea1a8  local     $C$L100 (.text:_HMMODBUS_WriteFileRecord)
003ea1ab  local     $C$L101 (.text:_HMMODBUS_WriteFileRecord)
003ea1c2  local     $C$L102 (.text:_HMMODBUS_WriteFileRecord)
003ea1cc  local     $C$L103 (.text:_HMMODBUS_WriteFileRecord)
003ea1cf  local     $C$L104 (.text:_HMMODBUS_WriteFileRecord)
003ea1dd  local     $C$L105 (.text:_HMMODBUS_WriteFileRecord)
003ea1f8  local     $C$L106 (.text:_HMMODBUS_WriteFileRecord)
003ea1f9  local     $C$L107 (.text:_HMMODBUS_WriteFileRecord)
003ea216  local     $C$L108 (.text:_HMMODBUS_WriteFileRecord)
003ea247  local     $C$L109 (.text:_HMMODBUS_WriteFileRecord)
003eda7e  local     $C$L11 (.text:_vSetIndexFileTable)
003ea275  local     $C$L110 (.text:_HMMODBUS_WriteFileRecord)
003ea279  local     $C$L111 (.text:_HMMODBUS_WriteFileRecord)
003ea280  local     $C$L112 (.text:_HMMODBUS_WriteFileRecord)
003ea2a3  local     $C$L113 (.text:_HMMODBUS_WriteFileRecord)
003ea2b9  local     $C$L114 (.text:_HMMODBUS_WriteFileRecord)
003ea2d4  local     $C$L115 (.text:_HMMODBUS_WriteFileRecord)
003ea2d6  local     $C$L116 (.text:_HMMODBUS_WriteFileRecord)
003ea2df  local     $C$L117 (.text:_HMMODBUS_WriteFileRecord)
003ea2e1  local     $C$L118 (.text:_HMMODBUS_WriteFileRecord)
003ea2e6  local     $C$L119 (.text:_HMMODBUS_WriteFileRecord)
003eda7f  local     $C$L12 (.text:_vSetIndexFileTable)
003ea2f1  local     $C$L120 (.text:_HMMODBUS_WriteFileRecord)
003ea2f3  local     $C$L121 (.text:_HMMODBUS_WriteFileRecord)
003ea31b  local     $C$L122 (.text:_HMMODBUS_WriteFileRecord)
003ea320  local     $C$L123 (.text:_HMMODBUS_WriteFileRecord)
003ea327  local     $C$L124 (.text:_HMMODBUS_WriteFileRecord)
003ea331  local     $C$L125 (.text:_HMMODBUS_WriteFileRecord)
003ea338  local     $C$L126 (.text:_HMMODBUS_WriteFileRecord)
003ea349  local     $C$L127 (.text:_HMMODBUS_WriteFileRecord)
003ea34b  local     $C$L128 (.text:_HMMODBUS_WriteFileRecord)
003ea364  local     $C$L129 (.text:_HMMODBUS_WriteFileRecord)
003ec9ef  local     $C$L13 (.text:_vSetElementsSize)
003ea3ae  local     $C$L130 (.text:_HMMODBUS_WriteFileRecord)
003ea3be  local     $C$L131 (.text:_HMMODBUS_WriteFileRecord)
003ea3d9  local     $C$L132 (.text:_HMMODBUS_WriteFileRecord)
003ea3fb  local     $C$L133 (.text:_HMMODBUS_WriteFileRecord)
003ea425  local     $C$L134 (.text:_HMMODBUS_WriteFileRecord)
003ea42d  local     $C$L135 (.text:_HMMODBUS_WriteFileRecord)
003ea43d  local     $C$L136 (.text:_HMMODBUS_WriteFileRecord)
003ea43f  local     $C$L137 (.text:_HMMODBUS_WriteFileRecord)
003ea443  local     $C$L138 (.text:_HMMODBUS_WriteFileRecord)
003ea467  local     $C$L139 (.text:_HMMODBUS_WriteFileRecord)
003ec9f3  local     $C$L14 (.text:_vSetElementsSize)
003ea486  local     $C$L140 (.text:_HMMODBUS_WriteFileRecord)
003ea493  local     $C$L141 (.text:_HMMODBUS_WriteFileRecord)
003ea499  local     $C$L142 (.text:_HMMODBUS_WriteFileRecord)
003ea4a2  local     $C$L143 (.text:_HMMODBUS_WriteFileRecord)
003ea4b3  local     $C$L144 (.text:_HMMODBUS_WriteFileRecord)
003ea4d4  local     $C$L145 (.text:_HMMODBUS_WriteFileRecord)
003ea4d6  local     $C$L146 (.text:_HMMODBUS_WriteFileRecord)
003ea4f3  local     $C$L147 (.text:_HMMODBUS_WriteFileRecord)
003ea4f7  local     $C$L148 (.text:_HMMODBUS_WriteFileRecord)
003ea4fa  local     $C$L149 (.text:_HMMODBUS_WriteFileRecord)
003ec9fe  local     $C$L15 (.text:_vSetElementsSize)
003ea517  local     $C$L150 (.text:_HMMODBUS_WriteFileRecord)
003ea543  local     $C$L151 (.text:_HMMODBUS_WriteFileRecord)
003ea54c  local     $C$L152 (.text:_HMMODBUS_WriteFileRecord)
003ea555  local     $C$L153 (.text:_HMMODBUS_WriteFileRecord)
003ea570  local     $C$L154 (.text:_HMMODBUS_WriteFileRecord)
003ea57a  local     $C$L155 (.text:_HMMODBUS_WriteFileRecord)
003ea58e  local     $C$L156 (.text:_HMMODBUS_WriteFileRecord)
003ea5a7  local     $C$L157 (.text:_HMMODBUS_WriteFileRecord)
003ea5b3  local     $C$L158 (.text:_HMMODBUS_WriteFileRecord)
003e8048  local     $C$L159 (.text:_HMMODBUS_ReadFileRecord)
003eca08  local     $C$L16 (.text:_vSetElementsSize)
003e8079  local     $C$L160 (.text:_HMMODBUS_ReadFileRecord)
003e8080  local     $C$L161 (.text:_HMMODBUS_ReadFileRecord)
003e8087  local     $C$L162 (.text:_HMMODBUS_ReadFileRecord)
003e808e  local     $C$L163 (.text:_HMMODBUS_ReadFileRecord)
003e80e9  local     $C$L164 (.text:_HMMODBUS_ReadFileRecord)
003e80fb  local     $C$L165 (.text:_HMMODBUS_ReadFileRecord)
003e8105  local     $C$L166 (.text:_HMMODBUS_ReadFileRecord)
003e810b  local     $C$L167 (.text:_HMMODBUS_ReadFileRecord)
003e8115  local     $C$L168 (.text:_HMMODBUS_ReadFileRecord)
003e8124  local     $C$L169 (.text:_HMMODBUS_ReadFileRecord)
003eca09  local     $C$L17 (.text:_vSetElementsSize)
003e812e  local     $C$L170 (.text:_HMMODBUS_ReadFileRecord)
003e8199  local     $C$L171 (.text:_HMMODBUS_ReadFileRecord)
003e81a1  local     $C$L172 (.text:_HMMODBUS_ReadFileRecord)
003e81a8  local     $C$L173 (.text:_HMMODBUS_ReadFileRecord)
003e81bd  local     $C$L174 (.text:_HMMODBUS_ReadFileRecord)
003e81d7  local     $C$L175 (.text:_HMMODBUS_ReadFileRecord)
003e81e5  local     $C$L176 (.text:_HMMODBUS_ReadFileRecord)
003e81f8  local     $C$L177 (.text:_HMMODBUS_ReadFileRecord)
003e81fb  local     $C$L178 (.text:_HMMODBUS_ReadFileRecord)
003e8215  local     $C$L179 (.text:_HMMODBUS_ReadFileRecord)
003eca0f  local     $C$L18 (.text:_vSetElementsSize)
003e821f  local     $C$L180 (.text:_HMMODBUS_ReadFileRecord)
003e8222  local     $C$L181 (.text:_HMMODBUS_ReadFileRecord)
003e8230  local     $C$L182 (.text:_HMMODBUS_ReadFileRecord)
003e824d  local     $C$L183 (.text:_HMMODBUS_ReadFileRecord)
003e827e  local     $C$L184 (.text:_HMMODBUS_ReadFileRecord)
003e82ad  local     $C$L185 (.text:_HMMODBUS_ReadFileRecord)
003e82b1  local     $C$L186 (.text:_HMMODBUS_ReadFileRecord)
003e82b8  local     $C$L187 (.text:_HMMODBUS_ReadFileRecord)
003e82db  local     $C$L188 (.text:_HMMODBUS_ReadFileRecord)
003e82f4  local     $C$L189 (.text:_HMMODBUS_ReadFileRecord)
003eca10  local     $C$L19 (.text:_vSetElementsSize)
003e830f  local     $C$L190 (.text:_HMMODBUS_ReadFileRecord)
003e8311  local     $C$L191 (.text:_HMMODBUS_ReadFileRecord)
003e831a  local     $C$L192 (.text:_HMMODBUS_ReadFileRecord)
003e8320  local     $C$L193 (.text:_HMMODBUS_ReadFileRecord)
003e8324  local     $C$L194 (.text:_HMMODBUS_ReadFileRecord)
003e832f  local     $C$L195 (.text:_HMMODBUS_ReadFileRecord)
003e8331  local     $C$L196 (.text:_HMMODBUS_ReadFileRecord)
003e836d  local     $C$L197 (.text:_HMMODBUS_ReadFileRecord)
003e837a  local     $C$L198 (.text:_HMMODBUS_ReadFileRecord)
003e83a6  local     $C$L199 (.text:_HMMODBUS_ReadFileRecord)
003ecf74  local     $C$L2 (.text:_vSetStartSampleIndex)
003eca11  local     $C$L20 (.text:_vSetElementsSize)
003e83ba  local     $C$L200 (.text:_HMMODBUS_ReadFileRecord)
003e83bc  local     $C$L201 (.text:_HMMODBUS_ReadFileRecord)
003e83e5  local     $C$L202 (.text:_HMMODBUS_ReadFileRecord)
003e83ed  local     $C$L203 (.text:_HMMODBUS_ReadFileRecord)
003e8404  local     $C$L204 (.text:_HMMODBUS_ReadFileRecord)
003e840c  local     $C$L205 (.text:_HMMODBUS_ReadFileRecord)
003e8414  local     $C$L206 (.text:_HMMODBUS_ReadFileRecord)
003e841c  local     $C$L207 (.text:_HMMODBUS_ReadFileRecord)
003e841e  local     $C$L208 (.text:_HMMODBUS_ReadFileRecord)
003e841f  local     $C$L209 (.text:_HMMODBUS_ReadFileRecord)
003eca1b  local     $C$L21 (.text:_vSetElementsSize)
003e842a  local     $C$L210 (.text:_HMMODBUS_ReadFileRecord)
003e842f  local     $C$L211 (.text:_HMMODBUS_ReadFileRecord)
003e8439  local     $C$L212 (.text:_HMMODBUS_ReadFileRecord)
003e844e  local     $C$L213 (.text:_HMMODBUS_ReadFileRecord)
003e8461  local     $C$L214 (.text:_HMMODBUS_ReadFileRecord)
003e846a  local     $C$L215 (.text:_HMMODBUS_ReadFileRecord)
003e8471  local     $C$L216 (.text:_HMMODBUS_ReadFileRecord)
003e8478  local     $C$L217 (.text:_HMMODBUS_ReadFileRecord)
003e8488  local     $C$L218 (.text:_HMMODBUS_ReadFileRecord)
003e848d  local     $C$L219 (.text:_HMMODBUS_ReadFileRecord)
003eca1c  local     $C$L22 (.text:_vSetElementsSize)
003e8494  local     $C$L220 (.text:_HMMODBUS_ReadFileRecord)
003e84a1  local     $C$L221 (.text:_HMMODBUS_ReadFileRecord)
003e84b3  local     $C$L222 (.text:_HMMODBUS_ReadFileRecord)
003e84c1  local     $C$L223 (.text:_HMMODBUS_ReadFileRecord)
003e84c3  local     $C$L224 (.text:_HMMODBUS_ReadFileRecord)
003e84ce  local     $C$L225 (.text:_HMMODBUS_ReadFileRecord)
003e84d8  local     $C$L226 (.text:_HMMODBUS_ReadFileRecord)
003e84e7  local     $C$L227 (.text:_HMMODBUS_ReadFileRecord)
003e84f5  local     $C$L228 (.text:_HMMODBUS_ReadFileRecord)
003e84f7  local     $C$L229 (.text:_HMMODBUS_ReadFileRecord)
003eca1f  local     $C$L23 (.text:_vSetElementsSize)
003e8509  local     $C$L230 (.text:_HMMODBUS_ReadFileRecord)
003e8542  local     $C$L231 (.text:_HMMODBUS_ReadFileRecord)
003e855d  local     $C$L232 (.text:_HMMODBUS_ReadFileRecord)
003e8570  local     $C$L233 (.text:_HMMODBUS_ReadFileRecord)
003e857b  local     $C$L234 (.text:_HMMODBUS_ReadFileRecord)
003e85b1  local     $C$L235 (.text:_HMMODBUS_ReadFileRecord)
003e85b4  local     $C$L236 (.text:_HMMODBUS_ReadFileRecord)
003e85bb  local     $C$L237 (.text:_HMMODBUS_ReadFileRecord)
003e85c1  local     $C$L238 (.text:_HMMODBUS_ReadFileRecord)
003e85d0  local     $C$L239 (.text:_HMMODBUS_ReadFileRecord)
003eca23  local     $C$L24 (.text:_vSetElementsSize)
003e85d5  local     $C$L240 (.text:_HMMODBUS_ReadFileRecord)
003e85df  local     $C$L241 (.text:_HMMODBUS_ReadFileRecord)
003e8604  local     $C$L242 (.text:_HMMODBUS_ReadFileRecord)
003e860c  local     $C$L243 (.text:_HMMODBUS_ReadFileRecord)
003e8618  local     $C$L244 (.text:_HMMODBUS_ReadFileRecord)
003e861a  local     $C$L245 (.text:_HMMODBUS_ReadFileRecord)
003e861e  local     $C$L246 (.text:_HMMODBUS_ReadFileRecord)
003e8643  local     $C$L247 (.text:_HMMODBUS_ReadFileRecord)
003e865c  local     $C$L248 (.text:_HMMODBUS_ReadFileRecord)
003e86ce  local     $C$L249 (.text:_HMMODBUS_ReadFileRecord)
003edcea  local     $C$L25 (.text:_vSetBufferAddressStart)
003e86d1  local     $C$L250 (.text:_HMMODBUS_ReadFileRecord)
003e86e9  local     $C$L251 (.text:_HMMODBUS_ReadFileRecord)
003e86fc  local     $C$L252 (.text:_HMMODBUS_ReadFileRecord)
003e8702  local     $C$L253 (.text:_HMMODBUS_ReadFileRecord)
003e8706  local     $C$L254 (.text:_HMMODBUS_ReadFileRecord)
003e8734  local     $C$L255 (.text:_HMMODBUS_ReadFileRecord)
003e873c  local     $C$L256 (.text:_HMMODBUS_ReadFileRecord)
003e873f  local     $C$L257 (.text:_HMMODBUS_ReadFileRecord)
003e8758  local     $C$L258 (.text:_HMMODBUS_ReadFileRecord)
003e876b  local     $C$L259 (.text:_HMMODBUS_ReadFileRecord)
003edcf4  local     $C$L26 (.text:_vSetBufferAddressStart)
003e877c  local     $C$L260 (.text:_HMMODBUS_ReadFileRecord)
003e879b  local     $C$L261 (.text:_HMMODBUS_ReadFileRecord)
003e879c  local     $C$L262 (.text:_HMMODBUS_ReadFileRecord)
003e87b0  local     $C$L263 (.text:_HMMODBUS_ReadFileRecord)
003e87c3  local     $C$L264 (.text:_HMMODBUS_ReadFileRecord)
003e87cb  local     $C$L265 (.text:_HMMODBUS_ReadFileRecord)
003e8800  local     $C$L266 (.text:_HMMODBUS_ReadFileRecord)
003e8809  local     $C$L267 (.text:_HMMODBUS_ReadFileRecord)
003e881e  local     $C$L268 (.text:_HMMODBUS_ReadFileRecord)
003e8820  local     $C$L269 (.text:_HMMODBUS_ReadFileRecord)
003edf3f  local     $C$L27 (.text:_bIsValidEndAddressInBuffer)
003e8838  local     $C$L270 (.text:_HMMODBUS_ReadFileRecord)
003e884d  local     $C$L271 (.text:_HMMODBUS_ReadFileRecord)
003e8867  local     $C$L272 (.text:_HMMODBUS_ReadFileRecord)
003e8880  local     $C$L273 (.text:_HMMODBUS_ReadFileRecord)
003e889c  local     $C$L274 (.text:_HMMODBUS_ReadFileRecord)
003eaffe  local     $C$L275 (.text:_HMMODBUS_WriteHoldingRegister)
003eb00e  local     $C$L276 (.text:_HMMODBUS_WriteHoldingRegister)
003eb059  local     $C$L277 (.text:_HMMODBUS_WriteHoldingRegister)
003eb06c  local     $C$L278 (.text:_HMMODBUS_WriteHoldingRegister)
003eb084  local     $C$L279 (.text:_HMMODBUS_WriteHoldingRegister)
003ee107  local     $C$L28 (.text:_u32FixAddressCircleBufferOverflow)
003eb090  local     $C$L280 (.text:_HMMODBUS_WriteHoldingRegister)
003eb0a1  local     $C$L281 (.text:_HMMODBUS_WriteHoldingRegister)
003eb0a5  local     $C$L282 (.text:_HMMODBUS_WriteHoldingRegister)
003eb0d2  local     $C$L283 (.text:_HMMODBUS_ReadHoldingRegister)
003eb0d5  local     $C$L284 (.text:_HMMODBUS_ReadHoldingRegister)
003eb110  local     $C$L285 (.text:_HMMODBUS_ReadHoldingRegister)
003eb123  local     $C$L286 (.text:_HMMODBUS_ReadHoldingRegister)
003eb13d  local     $C$L287 (.text:_HMMODBUS_ReadHoldingRegister)
003eb14f  local     $C$L288 (.text:_HMMODBUS_ReadHoldingRegister)
003eb164  local     $C$L289 (.text:_HMMODBUS_ReadHoldingRegister)
003ee058  local     $C$L29 (.text:_u32FitAddressCircleBufferInside)
003eb17d  local     $C$L290 (.text:_HMMODBUS_ReadHoldingRegister)
003eb18d  local     $C$L291 (.text:_HMMODBUS_ReadHoldingRegister)
003eb18f  local     $C$L292 (.text:_HMMODBUS_ReadHoldingRegister)
003e88d2  local     $C$L293 (.text:_HMMODBUS_bDecoder_OPT)
003e88da  local     $C$L294 (.text:_HMMODBUS_bDecoder_OPT)
003e8979  local     $C$L295 (.text:_HMMODBUS_bDecoder_OPT)
003e897f  local     $C$L296 (.text:_HMMODBUS_bDecoder_OPT)
003e8992  local     $C$L297 (.text:_HMMODBUS_bDecoder_OPT)
003e899c  local     $C$L298 (.text:_HMMODBUS_bDecoder_OPT)
003e89a6  local     $C$L299 (.text:_HMMODBUS_bDecoder_OPT)
003ecf78  local     $C$L3 (.text:_vSetStartSampleIndex)
003ee05c  local     $C$L30 (.text:_u32FitAddressCircleBufferInside)
003e89b0  local     $C$L300 (.text:_HMMODBUS_bDecoder_OPT)
003e89ba  local     $C$L301 (.text:_HMMODBUS_bDecoder_OPT)
003e89c4  local     $C$L302 (.text:_HMMODBUS_bDecoder_OPT)
003e89ce  local     $C$L303 (.text:_HMMODBUS_bDecoder_OPT)
003e89d8  local     $C$L304 (.text:_HMMODBUS_bDecoder_OPT)
003e89e2  local     $C$L305 (.text:_HMMODBUS_bDecoder_OPT)
003e89eb  local     $C$L306 (.text:_HMMODBUS_bDecoder_OPT)
003e8a13  local     $C$L307 (.text:_HMMODBUS_bDecoder_OPT)
003e8a86  local     $C$L308 (.text:_HMMODBUS_bDecoder_OPT)
003e8a99  local     $C$L309 (.text:_HMMODBUS_bDecoder_OPT)
003edf5f  local     $C$L31 (.text:_u32BytesModbusToBytesMemory)
003e8adf  local     $C$L310 (.text:_HMMODBUS_bDecoder_OPT)
003e8af2  local     $C$L311 (.text:_HMMODBUS_bDecoder_OPT)
003e8b2c  local     $C$L312 (.text:_HMMODBUS_bDecoder_OPT)
003e8b9f  local     $C$L313 (.text:_HMMODBUS_bDecoder_OPT)
003e8bb2  local     $C$L314 (.text:_HMMODBUS_bDecoder_OPT)
003e8bf8  local     $C$L315 (.text:_HMMODBUS_bDecoder_OPT)
003e8c0b  local     $C$L316 (.text:_HMMODBUS_bDecoder_OPT)
003e8c51  local     $C$L317 (.text:_HMMODBUS_bDecoder_OPT)
003e8c64  local     $C$L318 (.text:_HMMODBUS_bDecoder_OPT)
003e8c9e  local     $C$L319 (.text:_HMMODBUS_bDecoder_OPT)
003edf4f  local     $C$L32 (.text:_u32BytesMemoryToBytesModbus)
003e8d10  local     $C$L320 (.text:_HMMODBUS_bDecoder_OPT)
003e8d23  local     $C$L321 (.text:_HMMODBUS_bDecoder_OPT)
003e8d69  local     $C$L322 (.text:_HMMODBUS_bDecoder_OPT)
003e8d7c  local     $C$L323 (.text:_HMMODBUS_bDecoder_OPT)
003e8db3  local     $C$L324 (.text:_HMMODBUS_bDecoder_OPT)
003e8dc2  local     $C$L325 (.text:_HMMODBUS_bDecoder_OPT)
003e8dd5  local     $C$L326 (.text:_HMMODBUS_bDecoder_OPT)
003e8dda  local     $C$L327 (.text:_HMMODBUS_bDecoder_OPT)
003e8ddf  local     $C$L328 (.text:_HMMODBUS_bDecoder_OPT)
003e8df1  local     $C$L329 (.text:_HMMODBUS_bDecoder_OPT)
003ee160  local     $C$L33 (.text:_bIsValidIndexFileTable)
003e8df3  local     $C$L330 (.text:_HMMODBUS_bDecoder_OPT)
003e8e3c  local     $C$L331 (.text:_HMMODBUS_bDecoder_OPT)
003e8e67  local     $C$L332 (.text:_HMMODBUS_bDecoder_OPT)
003e8e6a  local     $C$L333 (.text:_HMMODBUS_bDecoder_OPT)
003e8ea5  local     $C$L334 (.text:_HMMODBUS_bDecoder_OPT)
003e8eb8  local     $C$L335 (.text:_HMMODBUS_bDecoder_OPT)
003e8ed3  local     $C$L336 (.text:_HMMODBUS_bDecoder_OPT)
003e8ee8  local     $C$L337 (.text:_HMMODBUS_bDecoder_OPT)
003e8eee  local     $C$L338 (.text:_HMMODBUS_bDecoder_OPT)
003e8f03  local     $C$L339 (.text:_HMMODBUS_bDecoder_OPT)
003edbfc  local     $C$L34 (.text:_bGetFileReadAccess)
003e8f1f  local     $C$L340 (.text:_HMMODBUS_bDecoder_OPT)
003e8f22  local     $C$L341 (.text:_HMMODBUS_bDecoder_OPT)
003e8f5d  local     $C$L342 (.text:_HMMODBUS_bDecoder_OPT)
003e8fc0  local     $C$L343 (.text:_HMMODBUS_bDecoder_OPT)
003e8fc5  local     $C$L344 (.text:_HMMODBUS_bDecoder_OPT)
003e8ff9  local     $C$L345 (.text:_HMMODBUS_bDecoder_OPT)
003e9033  local     $C$L346 (.text:_HMMODBUS_bDecoder_OPT)
003e9043  local     $C$L347 (.text:_HMMODBUS_bDecoder_OPT)
003e907b  local     $C$L348 (.text:_HMMODBUS_bDecoder_OPT)
003e908d  local     $C$L349 (.text:_HMMODBUS_bDecoder_OPT)
003eaca9  local     $C$L35 (.text:_HMMODBUS_vSetFreeRunTimerPrescaller)
003e909d  local     $C$L350 (.text:_HMMODBUS_bDecoder_OPT)
003e90a2  local     $C$L351 (.text:_HMMODBUS_bDecoder_OPT)
003e90eb  local     $C$L352 (.text:_HMMODBUS_bDecoder_OPT)
003e910e  local     $C$L353 (.text:_HMMODBUS_bDecoder_OPT)
003e9110  local     $C$L354 (.text:_HMMODBUS_bDecoder_OPT)
003e9112  local     $C$L355 (.text:_HMMODBUS_bDecoder_OPT)
003e9115  local     $C$L356 (.text:_HMMODBUS_bDecoder_OPT)
003e9118  local     $C$L357 (.text:_HMMODBUS_bDecoder_OPT)
003e911b  local     $C$L358 (.text:_HMMODBUS_bDecoder_OPT)
003e911d  local     $C$L359 (.text:_HMMODBUS_bDecoder_OPT)
003ecd25  local     $C$L36 (.text:_HMMODBUS_vSendResponse)
003e912e  local     $C$L360 (.text:_HMMODBUS_bDecoder_OPT)
003ed0cf  local     $C$L361 (.text:_HMMODBUS_bDecoderInit_OPT)
003eaa68  local     $C$L362 (.text:_HMMODBUS_Rx)
003eaa8e  local     $C$L363 (.text:_HMMODBUS_Rx)
003eaaa2  local     $C$L364 (.text:_HMMODBUS_Rx)
003eaaa6  local     $C$L365 (.text:_HMMODBUS_Rx)
003eaaaa  local     $C$L366 (.text:_HMMODBUS_Rx)
003eaac4  local     $C$L367 (.text:_HMMODBUS_Rx)
003eaaca  local     $C$L368 (.text:_HMMODBUS_Rx)
003eaacd  local     $C$L369 (.text:_HMMODBUS_Rx)
003ecd2e  local     $C$L37 (.text:_HMMODBUS_vSendResponse)
003eaad6  local     $C$L370 (.text:_HMMODBUS_Rx)
003eaad9  local     $C$L371 (.text:_HMMODBUS_Rx)
003eaadb  local     $C$L372 (.text:_HMMODBUS_Rx)
003eaae0  local     $C$L373 (.text:_HMMODBUS_Rx)
003eaae3  local     $C$L374 (.text:_HMMODBUS_Rx)
003eaae5  local     $C$L375 (.text:_HMMODBUS_Rx)
003eaae8  local     $C$L376 (.text:_HMMODBUS_Rx)
003eaaea  local     $C$L377 (.text:_HMMODBUS_Rx)
003eaaee  local     $C$L378 (.text:_HMMODBUS_Rx)
003eab16  local     $C$L379 (.text:_HMMODBUS_Rx)
003ecd39  local     $C$L38 (.text:_HMMODBUS_vSendResponse)
003eab2a  local     $C$L380 (.text:_HMMODBUS_Rx)
003eab39  local     $C$L381 (.text:_HMMODBUS_Rx)
003eab48  local     $C$L382 (.text:_HMMODBUS_Rx)
003eab4a  local     $C$L383 (.text:_HMMODBUS_Rx)
003eab56  local     $C$L384 (.text:_HMMODBUS_Rx)
003eab59  local     $C$L385 (.text:_HMMODBUS_Rx)
003eab5b  local     $C$L386 (.text:_HMMODBUS_Rx)
003eab60  local     $C$L387 (.text:_HMMODBUS_Rx)
003eab6c  local     $C$L388 (.text:_HMMODBUS_Rx)
003eab7b  local     $C$L389 (.text:_HMMODBUS_Rx)
003edcad  local     $C$L39 (.text:_HMMODBUS_vProcessTxDelay)
003eab8f  local     $C$L390 (.text:_HMMODBUS_Rx)
003eab90  local     $C$L391 (.text:_HMMODBUS_Rx)
003ec612  local     $C$L392 (.text:_HMMODBUS_vProcessSCI)
003ec617  local     $C$L393 (.text:_HMMODBUS_vProcessSCI)
003ec646  local     $C$L394 (.text:_HMMODBUS_vProcessSCI)
003ec653  local     $C$L395 (.text:_HMMODBUS_vProcessSCI)
003ec661  local     $C$L396 (.text:_HMMODBUS_vProcessSCI)
003ec668  local     $C$L397 (.text:_HMMODBUS_vProcessSCI)
003ec66f  local     $C$L398 (.text:_HMMODBUS_vProcessSCI)
003ee11f  local     $C$L399 (.text:_HMMODBUS_vProcessFastTD)
003ed942  local     $C$L4 (.text:_vSetSampleSize)
003edcb0  local     $C$L40 (.text:_HMMODBUS_vProcessTxDelay)
00000020  local     $C$L400 (.text:_HMMODBUS_CopyToBufferSingleCoil)
00000023  local     $C$L401 (.text:_HMMODBUS_CopyToBufferSingleCoil)
0000000c  local     $C$L402 (.text:_HMMODBUS_CopyToBufferCoil)
00000030  local     $C$L403 (.text:_HMMODBUS_CopyToBufferCoil)
00000038  local     $C$L404 (.text:_HMMODBUS_CopyToBufferCoil)
0000003b  local     $C$L405 (.text:_HMMODBUS_CopyToBufferCoil)
00000044  local     $C$L406 (.text:_HMMODBUS_CopyToBufferCoil)
0000004e  local     $C$L407 (.text:_HMMODBUS_CopyToBufferCoil)
00000050  local     $C$L408 (.text:_HMMODBUS_CopyToBufferCoil)
00000059  local     $C$L409 (.text:_HMMODBUS_CopyToBufferCoil)
003edcb2  local     $C$L41 (.text:_HMMODBUS_vProcessTxDelay)
0000005e  local     $C$L410 (.text:_HMMODBUS_CopyToBufferCoil)
00000023  local     $C$L411 (.text:_HMMODBUS_CopyFromBufferSingleCoil)
00000029  local     $C$L412 (.text:_HMMODBUS_CopyFromBufferSingleCoil)
0000002b  local     $C$L413 (.text:_HMMODBUS_CopyFromBufferSingleCoil)
0000000e  local     $C$L414 (.text:_HMMODBUS_CopyFromBufferCoil)
0000002c  local     $C$L415 (.text:_HMMODBUS_CopyFromBufferCoil)
00000041  local     $C$L416 (.text:_HMMODBUS_CopyFromBufferCoil)
00000045  local     $C$L417 (.text:_HMMODBUS_CopyFromBufferCoil)
0000004a  local     $C$L418 (.text:_HMMODBUS_CopyFromBufferCoil)
0000004e  local     $C$L419 (.text:_HMMODBUS_CopyFromBufferCoil)
003ed994  local     $C$L42 (.text:_HMMODBUS_Tx)
00000051  local     $C$L420 (.text:_HMMODBUS_CopyFromBufferCoil)
0000005a  local     $C$L421 (.text:_HMMODBUS_CopyFromBufferCoil)
00000005  local     $C$L422 (.text:_HMMODBUS_CopyFileRecordFromBuffer)
00000009  local     $C$L423 (.text:_HMMODBUS_CopyFileRecordFromBuffer)
0000000b  local     $C$L424 (.text:_HMMODBUS_CopyFileRecordFromBuffer)
0000000f  local     $C$L425 (.text:_HMMODBUS_CopyFileRecordFromBuffer)
003edb1f  local     $C$L43 (.text:_HMMODBUS_vProcessSCITXISR)
003edb24  local     $C$L44 (.text:_HMMODBUS_vProcessSCITXISR)
003ee1c9  local     $C$L45 (.text:_HMMODBUS_vProcessRxDelay)
003ed217  local     $C$L46 (.text:_HMMODBUS_Listen)
003ed21e  local     $C$L47 (.text:_HMMODBUS_Listen)
003ed224  local     $C$L48 (.text:_HMMODBUS_Listen)
003ed23a  local     $C$L49 (.text:_HMMODBUS_Listen)
003ed8e4  local     $C$L5 (.text:_vSetSampleCountBuffer)
003ebc79  local     $C$L50 (.text:_HMMODBUS_GetRealRegisterAddressAndSize)
003ebc7a  local     $C$L51 (.text:_HMMODBUS_GetRealRegisterAddressAndSize)
003ebc95  local     $C$L52 (.text:_HMMODBUS_GetRealRegisterAddressAndSize)
003ebc9c  local     $C$L53 (.text:_HMMODBUS_GetRealRegisterAddressAndSize)
003ebcbd  local     $C$L54 (.text:_HMMODBUS_GetRealRegisterAddressAndSize)
003ebcc4  local     $C$L55 (.text:_HMMODBUS_GetRealRegisterAddressAndSize)
003ebcc6  local     $C$L56 (.text:_HMMODBUS_GetRealRegisterAddressAndSize)
003ebccb  local     $C$L57 (.text:_HMMODBUS_GetRealRegisterAddressAndSize)
003ebcd6  local     $C$L58 (.text:_HMMODBUS_GetRealRegisterAddressAndSize)
003ebce0  local     $C$L59 (.text:_HMMODBUS_GetRealRegisterAddressAndSize)
003ed8e5  local     $C$L6 (.text:_vSetSampleCountBuffer)
003ebcf0  local     $C$L60 (.text:_HMMODBUS_GetRealRegisterAddressAndSize)
003ec70c  local     $C$L61 (.text:_HMMODBUS_CopyFromBuffer)
003ec72e  local     $C$L62 (.text:_HMMODBUS_CopyFromBuffer)
003ec731  local     $C$L63 (.text:_HMMODBUS_CopyFromBuffer)
003ec736  local     $C$L64 (.text:_HMMODBUS_CopyFromBuffer)
003ec739  local     $C$L65 (.text:_HMMODBUS_CopyFromBuffer)
003ec73b  local     $C$L66 (.text:_HMMODBUS_CopyFromBuffer)
003ecdc5  local     $C$L67 (.text:_HMMODBUS_CopyToBuffer)
003ecdc8  local     $C$L68 (.text:_HMMODBUS_CopyToBuffer)
003ecddc  local     $C$L69 (.text:_HMMODBUS_CopyToBuffer)
003ed718  local     $C$L7 (.text:_vSetSampleCountAvailable)
003ecde2  local     $C$L70 (.text:_HMMODBUS_CopyToBuffer)
003ecde6  local     $C$L71 (.text:_HMMODBUS_CopyToBuffer)
003ecde7  local     $C$L72 (.text:_HMMODBUS_CopyToBuffer)
003ecc88  local     $C$L73 (.text:_HMMODBUS_GetRegisterFunction)
003ecc89  local     $C$L74 (.text:_HMMODBUS_GetRegisterFunction)
003ecca3  local     $C$L75 (.text:_HMMODBUS_GetRegisterFunction)
003ecca8  local     $C$L76 (.text:_HMMODBUS_GetRegisterFunction)
003eccb2  local     $C$L77 (.text:_HMMODBUS_GetRegisterFunction)
003eccbc  local     $C$L78 (.text:_HMMODBUS_GetRegisterFunction)
003e9f75  local     $C$L79 (.text:_HMMODBUS_WriteFileRecord)
003ed72c  local     $C$L8 (.text:_vSetSampleCountAvailable)
003e9ff9  local     $C$L80 (.text:_HMMODBUS_WriteFileRecord)
003ea000  local     $C$L81 (.text:_HMMODBUS_WriteFileRecord)
003ea006  local     $C$L82 (.text:_HMMODBUS_WriteFileRecord)
003ea031  local     $C$L83 (.text:_HMMODBUS_WriteFileRecord)
003ea061  local     $C$L84 (.text:_HMMODBUS_WriteFileRecord)
003ea076  local     $C$L85 (.text:_HMMODBUS_WriteFileRecord)
003ea08e  local     $C$L86 (.text:_HMMODBUS_WriteFileRecord)
003ea0ad  local     $C$L87 (.text:_HMMODBUS_WriteFileRecord)
003ea0ae  local     $C$L88 (.text:_HMMODBUS_WriteFileRecord)
003ea0c2  local     $C$L89 (.text:_HMMODBUS_WriteFileRecord)
003ed72f  local     $C$L9 (.text:_vSetSampleCountAvailable)
003ea0d5  local     $C$L90 (.text:_HMMODBUS_WriteFileRecord)
003ea0dd  local     $C$L91 (.text:_HMMODBUS_WriteFileRecord)
003ea125  local     $C$L92 (.text:_HMMODBUS_WriteFileRecord)
003ea12e  local     $C$L93 (.text:_HMMODBUS_WriteFileRecord)
003ea153  local     $C$L94 (.text:_HMMODBUS_WriteFileRecord)
003ea15d  local     $C$L95 (.text:_HMMODBUS_WriteFileRecord)
003ea168  local     $C$L96 (.text:_HMMODBUS_WriteFileRecord)
003ea18b  local     $C$L97 (.text:_HMMODBUS_WriteFileRecord)
003ea192  local     $C$L98 (.text:_HMMODBUS_WriteFileRecord)
003ea1a4  local     $C$L99 (.text:_HMMODBUS_WriteFileRecord)
00000000  local     .bss (.bss)
003f0536  local     .cinit (.cinit)
003f0d84  local     .cinit:_HMMODBUS_u32RegisterAddressDummyuSize (.cinit:_HMMODBUS_u32RegisterAddressDummyuSize)
00000000  local     .data (.data)
0000b400  local     .ebss (.ebss)
0000b540  local     .ebss:_HMMODBUS_anTxCheckSum (.ebss:_HMMODBUS_anTxCheckSum)
0000c04c  local     .ebss:_HMMODBUS_nFilePrimaryAddrWriteLast (.ebss:_HMMODBUS_nFilePrimaryAddrWriteLast)
0000b640  local     .ebss:_HMMODBUS_pCommBufferRx (.ebss:_HMMODBUS_pCommBufferRx)
0000b740  local     .ebss:_HMMODBUS_pCommBufferTx (.ebss:_HMMODBUS_pCommBufferTx)
0000c117  local     .ebss:_HMMODBUS_u32RegisterAddressDummyuSize (.ebss:_HMMODBUS_u32RegisterAddressDummyuSize)
0000c118  local     .ebss:_HMMODBUS_wFlags (.ebss:_HMMODBUS_wFlags)
0000c119  local     .ebss:_HMMODBUS_wFlagsRxTx (.ebss:_HMMODBUS_wFlagsRxTx)
0000c056  local     .ebss:_HMMOSBUS_nFileWriteAddrReadLast (.ebss:_HMMOSBUS_nFileWriteAddrReadLast)
0000b200  local     .ebss:_u32ModbusTimeoutBuffer (.ebss:_u32ModbusTimeoutBuffer)
003f002a  local     .econst:.string:_auchCRCHi (.econst:.string:_auchCRCHi)
003f012a  local     .econst:.string:_auchCRCLo (.econst:.string:_auchCRCLo)
00000000  local     .text (.text)
003edf81  local     .text:_HMMODBUS_CalcCRC (.text:_HMMODBUS_CalcCRC)
00000000  local     .text:_HMMODBUS_CopyFileRecordFromBuffer (.text:_HMMODBUS_CopyFileRecordFromBuffer)
003ec6d9  local     .text:_HMMODBUS_CopyFromBuffer (.text:_HMMODBUS_CopyFromBuffer)
00000000  local     .text:_HMMODBUS_CopyFromBufferCoil (.text:_HMMODBUS_CopyFromBufferCoil)
00000000  local     .text:_HMMODBUS_CopyFromBufferSingleCoil (.text:_HMMODBUS_CopyFromBufferSingleCoil)
003ecda5  local     .text:_HMMODBUS_CopyToBuffer (.text:_HMMODBUS_CopyToBuffer)
00000000  local     .text:_HMMODBUS_CopyToBufferCoil (.text:_HMMODBUS_CopyToBufferCoil)
00000000  local     .text:_HMMODBUS_CopyToBufferSingleCoil (.text:_HMMODBUS_CopyToBufferSingleCoil)
003eddba  local     .text:_HMMODBUS_DelayedTx (.text:_HMMODBUS_DelayedTx)
003ebc58  local     .text:_HMMODBUS_GetRealRegisterAddressAndSize (.text:_HMMODBUS_GetRealRegisterAddressAndSize)
003ecc71  local     .text:_HMMODBUS_GetRegisterFunction (.text:_HMMODBUS_GetRegisterFunction)
003ed215  local     .text:_HMMODBUS_Listen (.text:_HMMODBUS_Listen)
003e8000  local     .text:_HMMODBUS_ReadFileRecord (.text:_HMMODBUS_ReadFileRecord)
003eb0a8  local     .text:_HMMODBUS_ReadHoldingRegister (.text:_HMMODBUS_ReadHoldingRegister)
003eaa4c  local     .text:_HMMODBUS_Rx (.text:_HMMODBUS_Rx)
003ed982  local     .text:_HMMODBUS_Tx (.text:_HMMODBUS_Tx)
003e9f46  local     .text:_HMMODBUS_WriteFileRecord (.text:_HMMODBUS_WriteFileRecord)
003eafb9  local     .text:_HMMODBUS_WriteHoldingRegister (.text:_HMMODBUS_WriteHoldingRegister)
003ed099  local     .text:_HMMODBUS_bDecoderInit_OPT (.text:_HMMODBUS_bDecoderInit_OPT)
003e88a0  local     .text:_HMMODBUS_bDecoder_OPT (.text:_HMMODBUS_bDecoder_OPT)
003ee49a  local     .text:_HMMODBUS_bGetReceivedMessage (.text:_HMMODBUS_bGetReceivedMessage)
003ee5d8  local     .text:_HMMODBUS_u32GetAddressMessageCounterThisDevice (.text:_HMMODBUS_u32GetAddressMessageCounterThisDevice)
00000000  local     .text:_HMMODBUS_u32GetFreeRunTimerReceivedMessage (.text:_HMMODBUS_u32GetFreeRunTimerReceivedMessage)
003ee49f  local     .text:_HMMODBUS_vFileTable (.text:_HMMODBUS_vFileTable)
00000000  local     .text:_HMMODBUS_vFileTableSetValidRecord (.text:_HMMODBUS_vFileTableSetValidRecord)
003ed8e9  local     .text:_HMMODBUS_vInit (.text:_HMMODBUS_vInit)
003ee115  local     .text:_HMMODBUS_vProcessFastTD (.text:_HMMODBUS_vProcessFastTD)
003ee1b9  local     .text:_HMMODBUS_vProcessFreeTimer (.text:_HMMODBUS_vProcessFreeTimer)
003ee1c2  local     .text:_HMMODBUS_vProcessRxDelay (.text:_HMMODBUS_vProcessRxDelay)
003ec609  local     .text:_HMMODBUS_vProcessSCI (.text:_HMMODBUS_vProcessSCI)
003edb0c  local     .text:_HMMODBUS_vProcessSCITXISR (.text:_HMMODBUS_vProcessSCITXISR)
003edc9c  local     .text:_HMMODBUS_vProcessTxDelay (.text:_HMMODBUS_vProcessTxDelay)
003ecd0d  local     .text:_HMMODBUS_vSendResponse (.text:_HMMODBUS_vSendResponse)
003ee5dc  local     .text:_HMMODBUS_vSetAddressMessageCounterThisDevice (.text:_HMMODBUS_vSetAddressMessageCounterThisDevice)
003ee5e0  local     .text:_HMMODBUS_vSetDeviceIDMajorMinorRevision (.text:_HMMODBUS_vSetDeviceIDMajorMinorRevision)
003ee5e4  local     .text:_HMMODBUS_vSetDeviceIDMajorMinorRevisionLength (.text:_HMMODBUS_vSetDeviceIDMajorMinorRevisionLength)
003ee5e8  local     .text:_HMMODBUS_vSetDeviceIDModelName (.text:_HMMODBUS_vSetDeviceIDModelName)
003ee5ec  local     .text:_HMMODBUS_vSetDeviceIDModelNameLength (.text:_HMMODBUS_vSetDeviceIDModelNameLength)
003ee5f0  local     .text:_HMMODBUS_vSetDeviceIDProductCode (.text:_HMMODBUS_vSetDeviceIDProductCode)
003ee5f4  local     .text:_HMMODBUS_vSetDeviceIDProductCodeLength (.text:_HMMODBUS_vSetDeviceIDProductCodeLength)
003ee5f8  local     .text:_HMMODBUS_vSetDeviceIDProductName (.text:_HMMODBUS_vSetDeviceIDProductName)
003ee5fc  local     .text:_HMMODBUS_vSetDeviceIDProductNameLength (.text:_HMMODBUS_vSetDeviceIDProductNameLength)
003ee600  local     .text:_HMMODBUS_vSetDeviceIDUserApplicationName (.text:_HMMODBUS_vSetDeviceIDUserApplicationName)
003ee604  local     .text:_HMMODBUS_vSetDeviceIDUserApplicationNameLength (.text:_HMMODBUS_vSetDeviceIDUserApplicationNameLength)
003ee608  local     .text:_HMMODBUS_vSetDeviceIDUserReserve0 (.text:_HMMODBUS_vSetDeviceIDUserReserve0)
003ee60c  local     .text:_HMMODBUS_vSetDeviceIDUserReserve0Length (.text:_HMMODBUS_vSetDeviceIDUserReserve0Length)
003ee610  local     .text:_HMMODBUS_vSetDeviceIDUserReserve1 (.text:_HMMODBUS_vSetDeviceIDUserReserve1)
003ee614  local     .text:_HMMODBUS_vSetDeviceIDUserReserve1Length (.text:_HMMODBUS_vSetDeviceIDUserReserve1Length)
003ee618  local     .text:_HMMODBUS_vSetDeviceIDUserReserve2 (.text:_HMMODBUS_vSetDeviceIDUserReserve2)
003ee61c  local     .text:_HMMODBUS_vSetDeviceIDUserReserve2Length (.text:_HMMODBUS_vSetDeviceIDUserReserve2Length)
003ee620  local     .text:_HMMODBUS_vSetDeviceIDVendorName (.text:_HMMODBUS_vSetDeviceIDVendorName)
003ee624  local     .text:_HMMODBUS_vSetDeviceIDVendorNameLength (.text:_HMMODBUS_vSetDeviceIDVendorNameLength)
003ee628  local     .text:_HMMODBUS_vSetDeviceIDVendorUrl (.text:_HMMODBUS_vSetDeviceIDVendorUrl)
003ee62c  local     .text:_HMMODBUS_vSetDeviceIDVendorUrlLength (.text:_HMMODBUS_vSetDeviceIDVendorUrlLength)
003eab92  local     .text:_HMMODBUS_vSetFreeRunTimerPrescaller (.text:_HMMODBUS_vSetFreeRunTimerPrescaller)
00000000  local     .text:_HMMODBUS_vSetPortIndex (.text:_HMMODBUS_vSetPortIndex)
003ee630  local     .text:_HMMODBUS_vSetServerIDDataAddress (.text:_HMMODBUS_vSetServerIDDataAddress)
003ee634  local     .text:_HMMODBUS_vSetServerIDLength (.text:_HMMODBUS_vSetServerIDLength)
003ee638  local     .text:_HMMODBUS_vSetServerIDNumber (.text:_HMMODBUS_vSetServerIDNumber)
003ee63c  local     .text:_HMMODBUS_vSetServerOnStatus (.text:_HMMODBUS_vSetServerOnStatus)
003ee640  local     .text:_HMMODBUS_vSetupHoldingRegistersAccessTableInRam (.text:_HMMODBUS_vSetupHoldingRegistersAccessTableInRam)
003ee24e  local     .text:_HMMODBUS_vSetupHoldingRegistersProcessFuncTable (.text:_HMMODBUS_vSetupHoldingRegistersProcessFuncTable)
003ee256  local     .text:_HMMODBUS_vSetupHoldingRegistersRealAddressTable (.text:_HMMODBUS_vSetupHoldingRegistersRealAddressTable)
003ee25e  local     .text:_HMMODBUS_vSetupHoldingRegistersRegisterFlagsTable (.text:_HMMODBUS_vSetupHoldingRegistersRegisterFlagsTable)
003ee266  local     .text:_HMMODBUS_vSetupHoldingRegistersRegisterSizeTable (.text:_HMMODBUS_vSetupHoldingRegistersRegisterSizeTable)
003ee26e  local     .text:_HMMODBUS_vSetupHoldingRegistersVirtAddressTable (.text:_HMMODBUS_vSetupHoldingRegistersVirtAddressTable)
003ede40  local     .text:_HMMODBUS_vSetupRegisterDummy (.text:_HMMODBUS_vSetupRegisterDummy)
003ee644  local     .text:_HMMODBUS_vSetupWriteParElementCallbackFunction (.text:_HMMODBUS_vSetupWriteParElementCallbackFunction)
00000000  local     .text:_HMMODBUS_vSetupWriteParElementFixedArguments (.text:_HMMODBUS_vSetupWriteParElementFixedArguments)
003ee6ac  local     .text:_bGetElementsDifference (.text:_bGetElementsDifference)
003edbf3  local     .text:_bGetFileReadAccess (.text:_bGetFileReadAccess)
003edf31  local     .text:_bIsValidEndAddressInBuffer (.text:_bIsValidEndAddressInBuffer)
003ee157  local     .text:_bIsValidIndexFileTable (.text:_bIsValidIndexFileTable)
003ee6b0  local     .text:_u16GetIndexFileTable (.text:_u16GetIndexFileTable)
003edf41  local     .text:_u32BytesMemoryToBytesModbus (.text:_u32BytesMemoryToBytesModbus)
003edf51  local     .text:_u32BytesModbusToBytesMemory (.text:_u32BytesModbusToBytesMemory)
003ee055  local     .text:_u32FitAddressCircleBufferInside (.text:_u32FitAddressCircleBufferInside)
003ee0fd  local     .text:_u32FixAddressCircleBufferOverflow (.text:_u32FixAddressCircleBufferOverflow)
003ee6b4  local     .text:_u32GetBufferAddressStart (.text:_u32GetBufferAddressStart)
003ee6b8  local     .text:_u32GetBufferSize (.text:_u32GetBufferSize)
00000000  local     .text:_u32GetElementsSizeMemory (.text:_u32GetElementsSizeMemory)
00000000  local     .text:_u32GetElementsSizeModbus (.text:_u32GetElementsSizeModbus)
003ee6bc  local     .text:_u32GetSampleCountAvailable (.text:_u32GetSampleCountAvailable)
003ee6c0  local     .text:_u32GetSampleCountBuffer (.text:_u32GetSampleCountBuffer)
003ee6c4  local     .text:_u32GetStartSampleIndex (.text:_u32GetStartSampleIndex)
003ee6c8  local     .text:_u8GetSampleSize (.text:_u8GetSampleSize)
003edce1  local     .text:_vSetBufferAddressStart (.text:_vSetBufferAddressStart)
003ee6cc  local     .text:_vSetBufferAddressStartFromFunction (.text:_vSetBufferAddressStartFromFunction)
003ee6d0  local     .text:_vSetBufferSize (.text:_vSetBufferSize)
003ec9cf  local     .text:_vSetElementsSize (.text:_vSetElementsSize)
003eda67  local     .text:_vSetIndexFileTable (.text:_vSetIndexFileTable)
003ed70f  local     .text:_vSetSampleCountAvailable (.text:_vSetSampleCountAvailable)
003ed8c9  local     .text:_vSetSampleCountBuffer (.text:_vSetSampleCountBuffer)
003ed927  local     .text:_vSetSampleSize (.text:_vSetSampleSize)
003ecf3c  local     .text:_vSetStartSampleIndex (.text:_vSetStartSampleIndex)
003edf81  global    _HMMODBUS_CalcCRC (.text:_HMMODBUS_CalcCRC)
00000000  global    _HMMODBUS_CopyFileRecordFromBuffer (.text:_HMMODBUS_CopyFileRecordFromBuffer)
003ec6d9  global    _HMMODBUS_CopyFromBuffer (.text:_HMMODBUS_CopyFromBuffer)
00000000  global    _HMMODBUS_CopyFromBufferCoil (.text:_HMMODBUS_CopyFromBufferCoil)
00000000  global    _HMMODBUS_CopyFromBufferSingleCoil (.text:_HMMODBUS_CopyFromBufferSingleCoil)
003ecda5  global    _HMMODBUS_CopyToBuffer (.text:_HMMODBUS_CopyToBuffer)
00000000  global    _HMMODBUS_CopyToBufferCoil (.text:_HMMODBUS_CopyToBufferCoil)
00000000  global    _HMMODBUS_CopyToBufferSingleCoil (.text:_HMMODBUS_CopyToBufferSingleCoil)
003eddba  global    _HMMODBUS_DelayedTx (.text:_HMMODBUS_DelayedTx)
003ebc58  global    _HMMODBUS_GetRealRegisterAddressAndSize (.text:_HMMODBUS_GetRealRegisterAddressAndSize)
003ecc71  global    _HMMODBUS_GetRegisterFunction (.text:_HMMODBUS_GetRegisterFunction)
003ed215  global    _HMMODBUS_Listen (.text:_HMMODBUS_Listen)
003e8000  global    _HMMODBUS_ReadFileRecord (.text:_HMMODBUS_ReadFileRecord)
003eb0a8  global    _HMMODBUS_ReadHoldingRegister (.text:_HMMODBUS_ReadHoldingRegister)
003eaa4c  global    _HMMODBUS_Rx (.text:_HMMODBUS_Rx)
003ed982  global    _HMMODBUS_Tx (.text:_HMMODBUS_Tx)
003e9f46  global    _HMMODBUS_WriteFileRecord (.text:_HMMODBUS_WriteFileRecord)
003eafb9  global    _HMMODBUS_WriteHoldingRegister (.text:_HMMODBUS_WriteHoldingRegister)
0000b540  global    _HMMODBUS_anTxCheckSum (.ebss:_HMMODBUS_anTxCheckSum)
003ed099  global    _HMMODBUS_bDecoderInit_OPT (.text:_HMMODBUS_bDecoderInit_OPT)
003e88a0  global    _HMMODBUS_bDecoder_OPT (.text:_HMMODBUS_bDecoder_OPT)
003ee49a  global    _HMMODBUS_bGetReceivedMessage (.text:_HMMODBUS_bGetReceivedMessage)
0000b407  global    _HMMODBUS_bOverflowReached (.ebss)
0000b416  global    _HMMODBUS_bReceivedMessage (.ebss)
0000c04c  global    _HMMODBUS_nFilePrimaryAddrWriteLast (.ebss:_HMMODBUS_nFilePrimaryAddrWriteLast)
0000b402  global    _HMMODBUS_nLastResponseCmd (.ebss)
0000b403  global    _HMMODBUS_nLastResponseCode (.ebss)
0000b405  global    _HMMODBUS_nRxCheckSum (.ebss)
0000b404  global    _HMMODBUS_nRxTodo (.ebss)
0000b401  global    _HMMODBUS_nRxTodoEcho (.ebss)
0000b4de  global    _HMMODBUS_nSizeReadRequestLoopLeft (.ebss)
0000b406  global    _HMMODBUS_nTxCheckSum (.ebss)
0000b400  global    _HMMODBUS_nTxTodo (.ebss)
0000b640  global    _HMMODBUS_pCommBufferRx (.ebss:_HMMODBUS_pCommBufferRx)
0000b740  global    _HMMODBUS_pCommBufferTx (.ebss:_HMMODBUS_pCommBufferTx)
0000b46c  global    _HMMODBUS_pRxBuff (.ebss)
0000b46a  global    _HMMODBUS_pTxBuff (.ebss)
0000b48a  global    _HMMODBUS_pasFileAddressTable (.ebss)
0000b46e  global    _HMMODBUS_pu32HoldingRegisterAccessTableInRam (.ebss)
0000b4b0  global    _HMMODBUS_pu8ReadDeviceIDMajorMinorRevision (.ebss)
0000b4b6  global    _HMMODBUS_pu8ReadDeviceIDModelName (.ebss)
0000b4ae  global    _HMMODBUS_pu8ReadDeviceIDProductCode (.ebss)
0000b4b4  global    _HMMODBUS_pu8ReadDeviceIDProductName (.ebss)
0000b4b8  global    _HMMODBUS_pu8ReadDeviceIDUserApplicationName (.ebss)
0000b4ba  global    _HMMODBUS_pu8ReadDeviceIDUserReserve0 (.ebss)
0000b4bc  global    _HMMODBUS_pu8ReadDeviceIDUserReserve1 (.ebss)
0000b4be  global    _HMMODBUS_pu8ReadDeviceIDUserReserve2 (.ebss)
0000b4ac  global    _HMMODBUS_pu8ReadDeviceIDVendorName (.ebss)
0000b4b2  global    _HMMODBUS_pu8ReadDeviceIDVendorUrl (.ebss)
0000b4aa  global    _HMMODBUS_pu8ReadServerIDDatAdr (.ebss)
0000b412  global    _HMMODBUS_u16HoldingRegisterProcessFuncTableOffset (.ebss)
0000b413  global    _HMMODBUS_u16HoldingRegisterProcessFuncTableSize (.ebss)
0000b410  global    _HMMODBUS_u16HoldingRegisterRealAddressTableOffset (.ebss)
0000b411  global    _HMMODBUS_u16HoldingRegisterRealAddressTableSize (.ebss)
0000b40e  global    _HMMODBUS_u16HoldingRegisterRegisterFlagsTableOffset (.ebss)
0000b40f  global    _HMMODBUS_u16HoldingRegisterRegisterFlagsTableSize (.ebss)
0000b40c  global    _HMMODBUS_u16HoldingRegisterRegisterSizeTableOffset (.ebss)
0000b40d  global    _HMMODBUS_u16HoldingRegisterRegisterSizeTableSize (.ebss)
0000b40a  global    _HMMODBUS_u16HoldingRegisterVirtAddressTableOffset (.ebss)
0000b40b  global    _HMMODBUS_u16HoldingRegisterVirtAddressTableSize (.ebss)
0000b4d8  global    _HMMODBUS_u32DebugAddrReadFileCircle (.ebss)
0000b4d6  global    _HMMODBUS_u32DebugAddrReadFileCircleTooFarAddress (.ebss)
0000b4da  global    _HMMODBUS_u32DebugAddrReadFileForRead (.ebss)
0000b4dc  global    _HMMODBUS_u32DebugAddrReadFileForReadLooped (.ebss)
0000b4d2  global    _HMMODBUS_u32DebugAddrReadFileFromAddress (.ebss)
0000b4d0  global    _HMMODBUS_u32DebugAddrReadFileFromIndex (.ebss)
0000b4ce  global    _HMMODBUS_u32DebugAddrReadFileReal (.ebss)
0000b4d4  global    _HMMODBUS_u32DebugAddrReadPlusOffset (.ebss)
0000b48e  global    _HMMODBUS_u32DeviceSYSCLKFreq (.ebss)
0000b48c  global    _HMMODBUS_u32FileCount (.ebss)
0000b488  global    _HMMODBUS_u32FreeRunTimerReceivedMessage (.ebss)
003ee5d8  global    _HMMODBUS_u32GetAddressMessageCounterThisDevice (.text:_HMMODBUS_u32GetAddressMessageCounterThisDevice)
00000000  global    _HMMODBUS_u32GetFreeRunTimerReceivedMessage (.text:_HMMODBUS_u32GetFreeRunTimerReceivedMessage)
0000b472  global    _HMMODBUS_u32HoldingRegisterAddressTableInRamSize (.ebss)
0000b470  global    _HMMODBUS_u32HoldingRegisterAddressTableSize (.ebss)
0000b47c  global    _HMMODBUS_u32HoldingRegisterProcessFuncTable (.ebss)
0000b47a  global    _HMMODBUS_u32HoldingRegisterRealAddressTable (.ebss)
0000b478  global    _HMMODBUS_u32HoldingRegisterRegisterFlagsTable (.ebss)
0000b476  global    _HMMODBUS_u32HoldingRegisterRegisterSizeTable (.ebss)
0000b474  global    _HMMODBUS_u32HoldingRegisterVirtAddressTable (.ebss)
0000b415  global    _HMMODBUS_u32RegisterAddressDummyVirtAddress (.ebss)
0000c117  global    _HMMODBUS_u32RegisterAddressDummyuSize (.ebss:_HMMODBUS_u32RegisterAddressDummyuSize)
0000b486  global    _HMMODBUS_u32RegisterAddressInRamDummyProcessFunc (.ebss)
0000b484  global    _HMMODBUS_u32RegisterAddressInRamDummyRealAddress (.ebss)
0000b47e  global    _HMMODBUS_u32TxDelayCounter (.ebss)
0000b409  global    _HMMODBUS_u8DeviceAddress (.ebss)
0000b423  global    _HMMODBUS_u8ReadDeviceIDConfLvl (.ebss)
0000b422  global    _HMMODBUS_u8ReadDeviceIDConfLvlMask (.ebss)
0000b426  global    _HMMODBUS_u8ReadDeviceIDMajorMinorRevisionLength (.ebss)
0000b429  global    _HMMODBUS_u8ReadDeviceIDModelNameLength (.ebss)
0000b425  global    _HMMODBUS_u8ReadDeviceIDProductCodeLength (.ebss)
0000b428  global    _HMMODBUS_u8ReadDeviceIDProductNameLength (.ebss)
0000b42a  global    _HMMODBUS_u8ReadDeviceIDUserApplicationNameLength (.ebss)
0000b42b  global    _HMMODBUS_u8ReadDeviceIDUserReserve0Length (.ebss)
0000b42c  global    _HMMODBUS_u8ReadDeviceIDUserReserve1Length (.ebss)
0000b42d  global    _HMMODBUS_u8ReadDeviceIDUserReserve2Length (.ebss)
0000b424  global    _HMMODBUS_u8ReadDeviceIDVendorNameLength (.ebss)
0000b427  global    _HMMODBUS_u8ReadDeviceIDVendorUrlLength (.ebss)
0000b41f  global    _HMMODBUS_u8ReadServerIDLength (.ebss)
0000b420  global    _HMMODBUS_u8ReadServerIDNumber (.ebss)
0000b421  global    _HMMODBUS_u8ReadServerOnStatus (.ebss)
003ee49f  global    _HMMODBUS_vFileTable (.text:_HMMODBUS_vFileTable)
00000000  global    _HMMODBUS_vFileTableSetValidRecord (.text:_HMMODBUS_vFileTableSetValidRecord)
003ed8e9  global    _HMMODBUS_vInit (.text:_HMMODBUS_vInit)
003ee115  global    _HMMODBUS_vProcessFastTD (.text:_HMMODBUS_vProcessFastTD)
003ee1b9  global    _HMMODBUS_vProcessFreeTimer (.text:_HMMODBUS_vProcessFreeTimer)
003ee1c2  global    _HMMODBUS_vProcessRxDelay (.text:_HMMODBUS_vProcessRxDelay)
003ec609  global    _HMMODBUS_vProcessSCI (.text:_HMMODBUS_vProcessSCI)
003edb0c  global    _HMMODBUS_vProcessSCITXISR (.text:_HMMODBUS_vProcessSCITXISR)
003edc9c  global    _HMMODBUS_vProcessTxDelay (.text:_HMMODBUS_vProcessTxDelay)
003ecd0d  global    _HMMODBUS_vSendResponse (.text:_HMMODBUS_vSendResponse)
003ee5dc  global    _HMMODBUS_vSetAddressMessageCounterThisDevice (.text:_HMMODBUS_vSetAddressMessageCounterThisDevice)
003ee5e0  global    _HMMODBUS_vSetDeviceIDMajorMinorRevision (.text:_HMMODBUS_vSetDeviceIDMajorMinorRevision)
003ee5e4  global    _HMMODBUS_vSetDeviceIDMajorMinorRevisionLength (.text:_HMMODBUS_vSetDeviceIDMajorMinorRevisionLength)
003ee5e8  global    _HMMODBUS_vSetDeviceIDModelName (.text:_HMMODBUS_vSetDeviceIDModelName)
003ee5ec  global    _HMMODBUS_vSetDeviceIDModelNameLength (.text:_HMMODBUS_vSetDeviceIDModelNameLength)
003ee5f0  global    _HMMODBUS_vSetDeviceIDProductCode (.text:_HMMODBUS_vSetDeviceIDProductCode)
003ee5f4  global    _HMMODBUS_vSetDeviceIDProductCodeLength (.text:_HMMODBUS_vSetDeviceIDProductCodeLength)
003ee5f8  global    _HMMODBUS_vSetDeviceIDProductName (.text:_HMMODBUS_vSetDeviceIDProductName)
003ee5fc  global    _HMMODBUS_vSetDeviceIDProductNameLength (.text:_HMMODBUS_vSetDeviceIDProductNameLength)
003ee600  global    _HMMODBUS_vSetDeviceIDUserApplicationName (.text:_HMMODBUS_vSetDeviceIDUserApplicationName)
003ee604  global    _HMMODBUS_vSetDeviceIDUserApplicationNameLength (.text:_HMMODBUS_vSetDeviceIDUserApplicationNameLength)
003ee608  global    _HMMODBUS_vSetDeviceIDUserReserve0 (.text:_HMMODBUS_vSetDeviceIDUserReserve0)
003ee60c  global    _HMMODBUS_vSetDeviceIDUserReserve0Length (.text:_HMMODBUS_vSetDeviceIDUserReserve0Length)
003ee610  global    _HMMODBUS_vSetDeviceIDUserReserve1 (.text:_HMMODBUS_vSetDeviceIDUserReserve1)
003ee614  global    _HMMODBUS_vSetDeviceIDUserReserve1Length (.text:_HMMODBUS_vSetDeviceIDUserReserve1Length)
003ee618  global    _HMMODBUS_vSetDeviceIDUserReserve2 (.text:_HMMODBUS_vSetDeviceIDUserReserve2)
003ee61c  global    _HMMODBUS_vSetDeviceIDUserReserve2Length (.text:_HMMODBUS_vSetDeviceIDUserReserve2Length)
003ee620  global    _HMMODBUS_vSetDeviceIDVendorName (.text:_HMMODBUS_vSetDeviceIDVendorName)
003ee624  global    _HMMODBUS_vSetDeviceIDVendorNameLength (.text:_HMMODBUS_vSetDeviceIDVendorNameLength)
003ee628  global    _HMMODBUS_vSetDeviceIDVendorUrl (.text:_HMMODBUS_vSetDeviceIDVendorUrl)
003ee62c  global    _HMMODBUS_vSetDeviceIDVendorUrlLength (.text:_HMMODBUS_vSetDeviceIDVendorUrlLength)
003eab92  global    _HMMODBUS_vSetFreeRunTimerPrescaller (.text:_HMMODBUS_vSetFreeRunTimerPrescaller)
00000000  global    _HMMODBUS_vSetPortIndex (.text:_HMMODBUS_vSetPortIndex)
003ee630  global    _HMMODBUS_vSetServerIDDataAddress (.text:_HMMODBUS_vSetServerIDDataAddress)
003ee634  global    _HMMODBUS_vSetServerIDLength (.text:_HMMODBUS_vSetServerIDLength)
003ee638  global    _HMMODBUS_vSetServerIDNumber (.text:_HMMODBUS_vSetServerIDNumber)
003ee63c  global    _HMMODBUS_vSetServerOnStatus (.text:_HMMODBUS_vSetServerOnStatus)
003ee640  global    _HMMODBUS_vSetupHoldingRegistersAccessTableInRam (.text:_HMMODBUS_vSetupHoldingRegistersAccessTableInRam)
003ee24e  global    _HMMODBUS_vSetupHoldingRegistersProcessFuncTable (.text:_HMMODBUS_vSetupHoldingRegistersProcessFuncTable)
003ee256  global    _HMMODBUS_vSetupHoldingRegistersRealAddressTable (.text:_HMMODBUS_vSetupHoldingRegistersRealAddressTable)
003ee25e  global    _HMMODBUS_vSetupHoldingRegistersRegisterFlagsTable (.text:_HMMODBUS_vSetupHoldingRegistersRegisterFlagsTable)
003ee266  global    _HMMODBUS_vSetupHoldingRegistersRegisterSizeTable (.text:_HMMODBUS_vSetupHoldingRegistersRegisterSizeTable)
003ee26e  global    _HMMODBUS_vSetupHoldingRegistersVirtAddressTable (.text:_HMMODBUS_vSetupHoldingRegistersVirtAddressTable)
003ede40  global    _HMMODBUS_vSetupRegisterDummy (.text:_HMMODBUS_vSetupRegisterDummy)
003ee644  global    _HMMODBUS_vSetupWriteParElementCallbackFunction (.text:_HMMODBUS_vSetupWriteParElementCallbackFunction)
00000000  global    _HMMODBUS_vSetupWriteParElementFixedArguments (.text:_HMMODBUS_vSetupWriteParElementFixedArguments)
0000c118  global    _HMMODBUS_wFlags (.ebss:_HMMODBUS_wFlags)
0000c119  global    _HMMODBUS_wFlagsRxTx (.ebss:_HMMODBUS_wFlagsRxTx)
0000b482  global    _HMMOSBUS_nDummy (.ebss)
0000c056  global    _HMMOSBUS_nFileWriteAddrReadLast (.ebss:_HMMOSBUS_nFileWriteAddrReadLast)
0000b480  global    _HMMOSBUS_nFileWritePrimaryAddrReadLast (.ebss)
003f002a  global    _auchCRCHi (.econst:.string:_auchCRCHi)
003f012a  global    _auchCRCLo (.econst:.string:_auchCRCLo)
0000b43d  global    _bBadSizeCalculation (.ebss)
0000b418  global    _bBareRamTable (.ebss)
0000b43c  global    _bElementsDifference (.ebss)
0000b440  global    _bException (.ebss)
0000b463  global    _bFileFirstRequest (.ebss)
003ee6ac  global    _bGetElementsDifference (.text:_bGetElementsDifference)
003edbf3  global    _bGetFileReadAccess (.text:_bGetFileReadAccess)
0000b41c  global    _bHoldingRegTableBareRam (.ebss)
0000b41b  global    _bHoldingRegTableSorted (.ebss)
0000b417  global    _bInputRegsGlobal (.ebss)
003edf31  global    _bIsValidEndAddressInBuffer (.text:_bIsValidEndAddressInBuffer)
003ee157  global    _bIsValidIndexFileTable (.text:_bIsValidIndexFileTable)
0000b41a  global    _bLengthException (.ebss)
0000b432  global    _bNeedResetBackup (.ebss)
0000b442  global    _bParameterTroughFile (.ebss)
0000b44d  global    _bReadOnlyFile (.ebss)
0000b441  global    _bResult (.ebss)
0000b43f  global    _bStringDataExpected (.ebss)
0000b43e  global    _bStringNullTerminationPossible (.ebss)
0000b419  global    _bUsedDummyDataAddressInResponseData (.ebss)
0000b42e  global    _eElementFixedArgument (.ebss)
0000b461  global    _eException (.ebss)
0000b4f4  global    _nAddrFuncExecute (.ebss)
0000b444  global    _nAddrQueue (.ebss)
0000b502  global    _nAddrRead (.ebss)
0000b4ee  global    _nAddrWrite (.ebss)
0000b451  global    _nBytesRead (.ebss)
0000b456  global    _nBytesResponseTotal (.ebss)
0000b45d  global    _nCmd (.ebss)
0000b4fc  global    _nCurrentElementTableIndex (.ebss)
0000b443  global    _nDeviceAddress (.ebss)
0000b445  global    _nFileNumber (.ebss)
0000b460  global    _nIDCode (.ebss)
0000b518  local     _nLastTimerValue$1 (.ebss)
0000b44b  global    _nLoopCount (.ebss)
0000b449  global    _nLoopIndex (.ebss)
0000b44a  global    _nLoopIndex2 (.ebss)
0000b466  global    _nLoopIndexedRequest (.ebss)
0000b44f  global    _nRecordNumber (.ebss)
0000b464  global    _nRecordNumberRequest (.ebss)
0000b45a  global    _nReferenceType (.ebss)
0000b44e  global    _nResponseBytes (.ebss)
0000b4f8  global    _nSizeAllRecords (.ebss)
0000b455  global    _nSizeBytes (.ebss)
0000b457  global    _nSizeCurrentRecord (.ebss)
0000b4f6  global    _nSizeOffset (.ebss)
0000b4fe  global    _nSizeOffsetAdd (.ebss)
0000b4fa  global    _nSizeOffsetCurrentRecord (.ebss)
0000b50e  global    _nSizeOffsetMultiplier (.ebss)
0000b510  global    _nSizeOffsetRequestMultMode (.ebss)
0000b450  global    _nSizeRead (.ebss)
0000b446  global    _nSizeReadBits (.ebss)
0000b45c  global    _nSizeReadBytes (.ebss)
0000b452  global    _nSizeReadCheck (.ebss)
0000b454  global    _nSizeReadCheckMemory (.ebss)
0000b453  global    _nSizeReadRequest (.ebss)
0000b465  global    _nSizeReadRequestLoop (.ebss)
0000b458  global    _nSizeWrite (.ebss)
0000b44c  global    _nSizeWriteBits (.ebss)
0000b45b  global    _nSizeWriteBytes (.ebss)
0000b459  global    _nSizeWriteBytesAllParts (.ebss)
0000b45e  global    _nSubCmd (.ebss)
0000b45f  global    _nSubCmdDiag (.ebss)
0000b512  global    _nTimeTickDelayModbus (.ebss)
0000b516  global    _nTimeTickDelayModbusMax (.ebss)
0000b514  global    _nTimeTickDelayModbusMin (.ebss)
0000b508  global    _pMessageIn (.ebss)
0000b50c  global    _pMessageInCopy (.ebss)
0000b50a  global    _pMessageOut (.ebss)
0000b506  global    _pResponseEnd (.ebss)
0000b504  global    _pResponseStart (.ebss)
0000b500  global    _pfIndexGeneration (.ebss)
0000b4c0  global    _pfWriteParElementCallbackFunction (.ebss)
0000b4cc  global    _pu16ModbusCompleteReceiveMessageCounterThisDevice (.ebss)
0000b4f0  global    _pu8ElementSizeTable (.ebss)
0000b4f2  global    _pu8ElementSizeTablePtr (.ebss)
0000b4c6  global    _realRxByteDelay (.ebss)
0000b4c8  global    _realRxByteDelayLastFail (.ebss)
0000b433  global    _realRxByteDelayLastFailBytesReceived (.ebss)
0000b430  global    _u16DataModeFixedArgument (.ebss)
0000b447  global    _u16ElementSize (.ebss)
0000b41d  global    _u16FreeRunTimerPrescaller (.ebss)
003ee6b0  global    _u16GetIndexFileTable (.text:_u16GetIndexFileTable)
0000b43a  global    _u16IndexFileTable (.ebss)
0000b462  global    _u16LastFileNumberRequest (.ebss)
0000b438  global    _u16ModbusBadCSReceiveMessageCounter (.ebss)
0000b439  global    _u16ModbusBadTimeoutReceiveMessageCounter (.ebss)
0000b437  global    _u16ModbusBufferOverflowReceiveMessageCounter (.ebss)
0000b435  global    _u16ModbusCompleteReceiveMessageCounter (.ebss)
0000b436  global    _u16ModbusCompleteReceiveMessageCounterThisDevice (.ebss)
0000b41e  global    _u16ModbusMinMessToMess_usec (.ebss)
0000b434  global    _u16ModbusStartedReceiveMessageCounter (.ebss)
0000b42f  global    _u16NoStoreFixedArgument (.ebss)
0000b431  global    _u16PasswordFixedArgument (.ebss)
0000b414  global    _u16RegisterAddressDummyValue (.ebss)
0000b4e0  global    _u32BufferAddressStart (.ebss)
0000b4e2  global    _u32BufferSize (.ebss)
003edf41  global    _u32BytesMemoryToBytesModbus (.text:_u32BytesMemoryToBytesModbus)
003edf51  global    _u32BytesModbusToBytesMemory (.text:_u32BytesModbusToBytesMemory)
0000b468  global    _u32Dummy (.ebss)
0000b4a0  global    _u32ElementSizeTableB326_0 (.ebss)
0000b4a4  global    _u32ElementSizeTableB326_1 (.ebss)
0000b4a8  global    _u32ElementSizeTableB326_2 (.ebss)
0000b49e  global    _u32ElementSizeTableD384_0 (.ebss)
0000b4a2  global    _u32ElementSizeTableD384_1 (.ebss)
0000b4a6  global    _u32ElementSizeTableD384_2 (.ebss)
0000b4ec  global    _u32ElementsSizeMemory (.ebss)
0000b4ea  global    _u32ElementsSizeModbus (.ebss)
003ee055  global    _u32FitAddressCircleBufferInside (.text:_u32FitAddressCircleBufferInside)
003ee0fd  global    _u32FixAddressCircleBufferOverflow (.text:_u32FixAddressCircleBufferOverflow)
003ee6b4  global    _u32GetBufferAddressStart (.text:_u32GetBufferAddressStart)
003ee6b8  global    _u32GetBufferSize (.text:_u32GetBufferSize)
00000000  global    _u32GetElementsSizeMemory (.text:_u32GetElementsSizeMemory)
00000000  global    _u32GetElementsSizeModbus (.text:_u32GetElementsSizeModbus)
003ee6bc  global    _u32GetSampleCountAvailable (.text:_u32GetSampleCountAvailable)
003ee6c0  global    _u32GetSampleCountBuffer (.text:_u32GetSampleCountBuffer)
003ee6c4  global    _u32GetStartSampleIndex (.text:_u32GetStartSampleIndex)
0000b490  global    _u32ModbusMaxByteToByte (.ebss)
0000b496  global    _u32ModbusMaxByteToByteExact (.ebss)
0000b492  global    _u32ModbusMaxMessToMess (.ebss)
0000b498  global    _u32ModbusMaxMessToMessExact (.ebss)
0000b494  global    _u32ModbusMinMessToMess (.ebss)
0000b49a  global    _u32ModbusTimeout (.ebss)
0000b200  global    _u32ModbusTimeoutBuffer (.ebss:_u32ModbusTimeoutBuffer)
0000b4c2  global    _u32ModbusTimeoutBufferIndex (.ebss)
0000b4c4  global    _u32RxTimeout (.ebss)
0000b4ca  global    _u32RxTimeoutLastFail (.ebss)
0000b4e6  global    _u32SampleCountAvailable (.ebss)
0000b4e4  global    _u32SampleCountBuffer (.ebss)
0000b4e8  global    _u32StartSampleIndex (.ebss)
0000b49c  global    _u32WrongElementSizeTable (.ebss)
0000b448  global    _u8ElementSize (.ebss)
003ee6c8  global    _u8GetSampleSize (.text:_u8GetSampleSize)
0000b43b  global    _u8SampleSize (.ebss)
0000b408  global    _u8UartModBusIndex (.ebss)
003edce1  global    _vSetBufferAddressStart (.text:_vSetBufferAddressStart)
003ee6cc  global    _vSetBufferAddressStartFromFunction (.text:_vSetBufferAddressStartFromFunction)
003ee6d0  global    _vSetBufferSize (.text:_vSetBufferSize)
003ec9cf  global    _vSetElementsSize (.text:_vSetElementsSize)
003eda67  global    _vSetIndexFileTable (.text:_vSetIndexFileTable)
003ed70f  global    _vSetSampleCountAvailable (.text:_vSetSampleCountAvailable)
003ed8c9  global    _vSetSampleCountBuffer (.text:_vSetSampleCountBuffer)
003ed927  global    _vSetSampleSize (.text:_vSetSampleSize)
003ecf3c  global    _vSetStartSampleIndex (.text:_vSetStartSampleIndex)


================================================================================

CSMON_C28xx.lib : hmprotocol.obj

Run/Load            
Value     Binding   Name (Section)
--------  --------  ---------------
003f0514  local     $C$FSL1 (.econst:.string)
003ec686  local     $C$L1 (.text:_HMPROTOCOL_GetBoardInfo)
003eb1a6  local     $C$L10 (.text:_HMPROTOCOL_bDecoder)
003eb1c4  local     $C$L11 (.text:_HMPROTOCOL_bDecoder)
003eb1cc  local     $C$L12 (.text:_HMPROTOCOL_bDecoder)
003eb1d9  local     $C$L13 (.text:_HMPROTOCOL_bDecoder)
003eb1e7  local     $C$L14 (.text:_HMPROTOCOL_bDecoder)
003eb1ef  local     $C$L15 (.text:_HMPROTOCOL_bDecoder)
003eb1f4  local     $C$L16 (.text:_HMPROTOCOL_bDecoder)
003eb1fa  local     $C$L17 (.text:_HMPROTOCOL_bDecoder)
003eb1ff  local     $C$L18 (.text:_HMPROTOCOL_bDecoder)
003eb205  local     $C$L19 (.text:_HMPROTOCOL_bDecoder)
003ec69b  local     $C$L2 (.text:_HMPROTOCOL_GetBoardInfo)
003eb209  local     $C$L20 (.text:_HMPROTOCOL_bDecoder)
003eb20f  local     $C$L21 (.text:_HMPROTOCOL_bDecoder)
003eb213  local     $C$L22 (.text:_HMPROTOCOL_bDecoder)
003eb219  local     $C$L23 (.text:_HMPROTOCOL_bDecoder)
003eb21d  local     $C$L24 (.text:_HMPROTOCOL_bDecoder)
003eb222  local     $C$L25 (.text:_HMPROTOCOL_bDecoder)
003eb228  local     $C$L26 (.text:_HMPROTOCOL_bDecoder)
003eb22b  local     $C$L27 (.text:_HMPROTOCOL_bDecoder)
003eb22e  local     $C$L28 (.text:_HMPROTOCOL_bDecoder)
003eb231  local     $C$L29 (.text:_HMPROTOCOL_bDecoder)
003ec69e  local     $C$L3 (.text:_HMPROTOCOL_GetBoardInfo)
003eb23a  local     $C$L30 (.text:_HMPROTOCOL_bDecoder)
003eb241  local     $C$L31 (.text:_HMPROTOCOL_bDecoder)
003eb243  local     $C$L32 (.text:_HMPROTOCOL_bDecoder)
003eb246  local     $C$L33 (.text:_HMPROTOCOL_bDecoder)
003eb24e  local     $C$L34 (.text:_HMPROTOCOL_bDecoder)
003eb253  local     $C$L35 (.text:_HMPROTOCOL_bDecoder)
003eb257  local     $C$L36 (.text:_HMPROTOCOL_bDecoder)
003eb25b  local     $C$L37 (.text:_HMPROTOCOL_bDecoder)
003eb25f  local     $C$L38 (.text:_HMPROTOCOL_bDecoder)
003eb263  local     $C$L39 (.text:_HMPROTOCOL_bDecoder)
003ec6c1  local     $C$L4 (.text:_HMPROTOCOL_GetBoardInfo)
003eb267  local     $C$L40 (.text:_HMPROTOCOL_bDecoder)
003eb26a  local     $C$L41 (.text:_HMPROTOCOL_bDecoder)
003eb26b  local     $C$L42 (.text:_HMPROTOCOL_bDecoder)
003eb26e  local     $C$L43 (.text:_HMPROTOCOL_bDecoder)
003eb275  local     $C$L44 (.text:_HMPROTOCOL_bDecoder)
003ec6c9  local     $C$L5 (.text:_HMPROTOCOL_GetBoardInfo)
003ec6d0  local     $C$L6 (.text:_HMPROTOCOL_GetBoardInfo)
003ed597  local     $C$L7 (.text:_HMPROTOCOL_ReadMem)
003ed5a3  local     $C$L8 (.text:_HMPROTOCOL_ReadMem)
003eb1a3  local     $C$L9 (.text:_HMPROTOCOL_bDecoder)
00000000  local     .bss (.bss)
003f0b03  local     .cinit (.cinit)
00000000  local     .data (.data)
0000affa  local     .ebss (.ebss)
003f0514  local     .econst:.string (.econst:.string)
00000000  local     .text (.text)
003ec671  local     .text:_HMPROTOCOL_GetBoardInfo (.text:_HMPROTOCOL_GetBoardInfo)
003ed583  local     .text:_HMPROTOCOL_ReadMem (.text:_HMPROTOCOL_ReadMem)
003edcb3  local     .text:_HMPROTOCOL_WriteMem (.text:_HMPROTOCOL_WriteMem)
003edcca  local     .text:_HMPROTOCOL_WriteMemMask (.text:_HMPROTOCOL_WriteMemMask)
003eb191  local     .text:_HMPROTOCOL_bDecoder (.text:_HMPROTOCOL_bDecoder)
003ee6fb  local     .text:_HMPROTOCOL_vInit (.text:_HMPROTOCOL_vInit)
00000000  local     .text:_HMPROTOCOL_vRecorderSetTimeBase (.text:_HMPROTOCOL_vRecorderSetTimeBase)
003ec671  global    _HMPROTOCOL_GetBoardInfo (.text:_HMPROTOCOL_GetBoardInfo)
003ed583  global    _HMPROTOCOL_ReadMem (.text:_HMPROTOCOL_ReadMem)
003edcb3  global    _HMPROTOCOL_WriteMem (.text:_HMPROTOCOL_WriteMem)
003edcca  global    _HMPROTOCOL_WriteMemMask (.text:_HMPROTOCOL_WriteMemMask)
003eb191  global    _HMPROTOCOL_bDecoder (.text:_HMPROTOCOL_bDecoder)
003ee6fb  global    _HMPROTOCOL_vInit (.text:_HMPROTOCOL_vInit)
00000000  global    _HMPROTOCOL_vRecorderSetTimeBase (.text:_HMPROTOCOL_vRecorderSetTimeBase)
0000affc  global    _bRecorderParameterUsage (.ebss)
0000affd  global    _bScopeParameterUsage (.ebss)
0000afff  global    _breakData (.ebss)
0000affa  global    _nRecorderFreemasterIndex (.ebss)
0000affb  global    _nScopePrmFreemasterIndex (.ebss)
0000affe  global    _u16TimeBase (.ebss)


================================================================================

CSMON_C28xx.lib : hmrec.obj

Run/Load            
Value     Binding   Name (Section)
--------  --------  ---------------
003ee1e5  local     $C$L1 (.text:_HMREC_TriggerRec)
003ec79f  local     $C$L10 (.text:_HMREC_vProcess)
003ec7a0  local     $C$L11 (.text:_HMREC_vProcess)
003ec7a1  local     $C$L12 (.text:_HMREC_vProcess)
003ee0b0  local     $C$L13 (.text:_HMREC_StopRec)
003ee0b1  local     $C$L14 (.text:_HMREC_StopRec)
003edd8d  local     $C$L15 (.text:_HMREC_StartRec)
003edd8f  local     $C$L16 (.text:_HMREC_StartRec)
003eb94c  local     $C$L17 (.text:_HMREC_SetUpRec)
003eb96a  local     $C$L18 (.text:_HMREC_SetUpRec)
003eb96d  local     $C$L19 (.text:_HMREC_SetUpRec)
003ec74d  local     $C$L2 (.text:_HMREC_vProcess)
003eb972  local     $C$L20 (.text:_HMREC_SetUpRec)
003eb975  local     $C$L21 (.text:_HMREC_SetUpRec)
003eb97a  local     $C$L22 (.text:_HMREC_SetUpRec)
003eb97d  local     $C$L23 (.text:_HMREC_SetUpRec)
003eb97f  local     $C$L24 (.text:_HMREC_SetUpRec)
003eb981  local     $C$L25 (.text:_HMREC_SetUpRec)
003eb991  local     $C$L26 (.text:_HMREC_SetUpRec)
003eb994  local     $C$L27 (.text:_HMREC_SetUpRec)
003eb9af  local     $C$L28 (.text:_HMREC_SetUpRec)
003eb9b3  local     $C$L29 (.text:_HMREC_SetUpRec)
003ec75e  local     $C$L3 (.text:_HMREC_vProcess)
003eb9b5  local     $C$L30 (.text:_HMREC_SetUpRec)
00000007  local     $C$L31 (.text:_HMREC_IsInRecBuffer)
003ed9d2  local     $C$L32 (.text:_HMREC_GetRecBuffFreemaster)
003ed9d5  local     $C$L33 (.text:_HMREC_GetRecBuffFreemaster)
003ed9d7  local     $C$L34 (.text:_HMREC_GetRecBuffFreemaster)
00000009  local     $C$L35 (.text:_HMREC_GetRecBuffCheckCode)
003ec772  local     $C$L4 (.text:_HMREC_vProcess)
003ec77c  local     $C$L5 (.text:_HMREC_vProcess)
003ec780  local     $C$L6 (.text:_HMREC_vProcess)
003ec782  local     $C$L7 (.text:_HMREC_vProcess)
003ec788  local     $C$L8 (.text:_HMREC_vProcess)
003ec78a  local     $C$L9 (.text:_HMREC_vProcess)
00000000  local     .bss (.bss)
00000000  local     .data (.data)
0000bb3f  local     .ebss (.ebss)
00009800  local     .ebss:_au8RecBuffer0 (.ebss:_au8RecBuffer0)
0000bd80  local     .ebss:_sRecHandle (.ebss:_sRecHandle)
00000000  local     .text (.text)
003ee6f3  local     .text:_HMREC_AbortRec (.text:_HMREC_AbortRec)
003ee001  local     .text:_HMREC_Compare16S (.text:_HMREC_Compare16S)
003ee00f  local     .text:_HMREC_Compare16U (.text:_HMREC_Compare16U)
003ee01d  local     .text:_HMREC_Compare32S (.text:_HMREC_Compare32S)
003ee02b  local     .text:_HMREC_Compare32U (.text:_HMREC_Compare32U)
003ee039  local     .text:_HMREC_Compare8S (.text:_HMREC_Compare8S)
003ee047  local     .text:_HMREC_Compare8U (.text:_HMREC_Compare8U)
003edd67  local     .text:_HMREC_Comparefloat (.text:_HMREC_Comparefloat)
00000000  local     .text:_HMREC_GetRecBuffAddress (.text:_HMREC_GetRecBuffAddress)
00000000  local     .text:_HMREC_GetRecBuffCheckCode (.text:_HMREC_GetRecBuffCheckCode)
003ed9bc  local     .text:_HMREC_GetRecBuffFreemaster (.text:_HMREC_GetRecBuffFreemaster)
00000000  local     .text:_HMREC_GetRecBuffIndex (.text:_HMREC_GetRecBuffIndex)
003ee6f5  local     .text:_HMREC_GetRecBuffSize (.text:_HMREC_GetRecBuffSize)
00000000  local     .text:_HMREC_GetRecSampleSize (.text:_HMREC_GetRecSampleSize)
003ee181  local     .text:_HMREC_GetRecStatus (.text:_HMREC_GetRecStatus)
00000000  local     .text:_HMREC_IsInRecBuffer (.text:_HMREC_IsInRecBuffer)
003eb902  local     .text:_HMREC_SetUpRec (.text:_HMREC_SetUpRec)
003ee342  local     .text:_HMREC_SetUpRecBuff (.text:_HMREC_SetUpRecBuff)
003edd7c  local     .text:_HMREC_StartRec (.text:_HMREC_StartRec)
003ee0a5  local     .text:_HMREC_StopRec (.text:_HMREC_StopRec)
003ee1dd  local     .text:_HMREC_TriggerRec (.text:_HMREC_TriggerRec)
003ee2be  local     .text:_HMREC_vInit (.text:_HMREC_vInit)
003ec740  local     .text:_HMREC_vProcess (.text:_HMREC_vProcess)
003ee6f3  global    _HMREC_AbortRec (.text:_HMREC_AbortRec)
003ee001  local     _HMREC_Compare16S (.text:_HMREC_Compare16S)
003ee00f  local     _HMREC_Compare16U (.text:_HMREC_Compare16U)
003ee01d  local     _HMREC_Compare32S (.text:_HMREC_Compare32S)
003ee02b  local     _HMREC_Compare32U (.text:_HMREC_Compare32U)
003ee039  local     _HMREC_Compare8S (.text:_HMREC_Compare8S)
003ee047  local     _HMREC_Compare8U (.text:_HMREC_Compare8U)
003edd67  local     _HMREC_Comparefloat (.text:_HMREC_Comparefloat)
00000000  global    _HMREC_GetRecBuffAddress (.text:_HMREC_GetRecBuffAddress)
00000000  global    _HMREC_GetRecBuffCheckCode (.text:_HMREC_GetRecBuffCheckCode)
003ed9bc  global    _HMREC_GetRecBuffFreemaster (.text:_HMREC_GetRecBuffFreemaster)
00000000  global    _HMREC_GetRecBuffIndex (.text:_HMREC_GetRecBuffIndex)
003ee6f5  global    _HMREC_GetRecBuffSize (.text:_HMREC_GetRecBuffSize)
00000000  global    _HMREC_GetRecSampleSize (.text:_HMREC_GetRecSampleSize)
003ee181  global    _HMREC_GetRecStatus (.text:_HMREC_GetRecStatus)
00000000  global    _HMREC_IsInRecBuffer (.text:_HMREC_IsInRecBuffer)
003eb902  global    _HMREC_SetUpRec (.text:_HMREC_SetUpRec)
003ee342  global    _HMREC_SetUpRecBuff (.text:_HMREC_SetUpRecBuff)
003edd7c  global    _HMREC_StartRec (.text:_HMREC_StartRec)
003ee0a5  global    _HMREC_StopRec (.text:_HMREC_StopRec)
003ee1dd  global    _HMREC_TriggerRec (.text:_HMREC_TriggerRec)
0000bb3f  global    _HMREC_u16FailSnapshotWrite (.ebss)
003ee2be  global    _HMREC_vInit (.text:_HMREC_vInit)
003ec740  global    _HMREC_vProcess (.text:_HMREC_vProcess)
00009800  global    _au8RecBuffer0 (.ebss:_au8RecBuffer0)
0000bd80  global    _sRecHandle (.ebss:_sRecHandle)


================================================================================

CSMON_C28xx.lib : hmrecparam.obj

Run/Load            
Value     Binding   Name (Section)
--------  --------  ---------------
00000029  local     $C$L1 (.text:_RecorderTimeFromRTCTime)
003eb2a6  local     $C$L10 (.text:_HMRECPRM_vProcess)
003eb2c4  local     $C$L11 (.text:_HMRECPRM_vProcess)
003eb2d8  local     $C$L12 (.text:_HMRECPRM_vProcess)
003eb2e2  local     $C$L13 (.text:_HMRECPRM_vProcess)
003eb2e6  local     $C$L14 (.text:_HMRECPRM_vProcess)
003eb2eb  local     $C$L15 (.text:_HMRECPRM_vProcess)
003eb2f5  local     $C$L16 (.text:_HMRECPRM_vProcess)
003eb314  local     $C$L17 (.text:_HMRECPRM_vProcess)
003eb319  local     $C$L18 (.text:_HMRECPRM_vProcess)
003eb327  local     $C$L19 (.text:_HMRECPRM_vProcess)
003ed382  local     $C$L2 (.text:_RecorderTimeFromLocalDateTime)
003eb32e  local     $C$L20 (.text:_HMRECPRM_vProcess)
003eb334  local     $C$L21 (.text:_HMRECPRM_vProcess)
003eb343  local     $C$L22 (.text:_HMRECPRM_vProcess)
003eb35c  local     $C$L23 (.text:_HMRECPRM_vProcess)
003eb35e  local     $C$L24 (.text:_HMRECPRM_vProcess)
0000000a  local     $C$L25 (.text:_HMRECPRM_vInitParam)
0000000d  local     $C$L26 (.text:_HMRECPRM_vInitParam)
003edde0  local     $C$L27 (.text:_HMRECPRM_StopRecParam)
003edde1  local     $C$L28 (.text:_HMRECPRM_StopRecParam)
003ee0a3  local     $C$L29 (.text:_HMRECPRM_StopRec)
00000037  local     $C$L3 (.text:_RecorderDateFromRTCDate)
003ee0a4  local     $C$L30 (.text:_HMRECPRM_StopRec)
003ecd05  local     $C$L31 (.text:_HMRECPRM_StartRecParam)
003ecd09  local     $C$L32 (.text:_HMRECPRM_StartRecParam)
003ecd0b  local     $C$L33 (.text:_HMRECPRM_StartRecParam)
003edb3c  local     $C$L34 (.text:_HMRECPRM_StartRec)
003edb3e  local     $C$L35 (.text:_HMRECPRM_StartRec)
003eb7d8  local     $C$L36 (.text:_HMRECPRM_SetUpRec)
003eb7f6  local     $C$L37 (.text:_HMRECPRM_SetUpRec)
003eb7f9  local     $C$L38 (.text:_HMRECPRM_SetUpRec)
003eb7fe  local     $C$L39 (.text:_HMRECPRM_SetUpRec)
003ed5c9  local     $C$L4 (.text:_RecorderDateFromLocalDateTime)
003eb801  local     $C$L40 (.text:_HMRECPRM_SetUpRec)
003eb806  local     $C$L41 (.text:_HMRECPRM_SetUpRec)
003eb809  local     $C$L42 (.text:_HMRECPRM_SetUpRec)
003eb80b  local     $C$L43 (.text:_HMRECPRM_SetUpRec)
003eb80d  local     $C$L44 (.text:_HMRECPRM_SetUpRec)
003eb81f  local     $C$L45 (.text:_HMRECPRM_SetUpRec)
003eb822  local     $C$L46 (.text:_HMRECPRM_SetUpRec)
003eb83d  local     $C$L47 (.text:_HMRECPRM_SetUpRec)
003eb841  local     $C$L48 (.text:_HMRECPRM_SetUpRec)
003eb843  local     $C$L49 (.text:_HMRECPRM_SetUpRec)
003ec218  local     $C$L5 (.text:_HMRECPRM_SetUpRecParamStatusDateTime)
00000007  local     $C$L50 (.text:_HMRECPRM_IsInRecBuffer)
00000016  local     $C$L51 (.text:_HMRECPRM_GetRecBuffFreemasterParam)
00000019  local     $C$L52 (.text:_HMRECPRM_GetRecBuffFreemasterParam)
0000001b  local     $C$L53 (.text:_HMRECPRM_GetRecBuffFreemasterParam)
003ed9b5  local     $C$L54 (.text:_HMRECPRM_GetRecBuffFreemaster)
003ed9b8  local     $C$L55 (.text:_HMRECPRM_GetRecBuffFreemaster)
003ed9ba  local     $C$L56 (.text:_HMRECPRM_GetRecBuffFreemaster)
00000009  local     $C$L57 (.text:_HMRECPRM_GetRecBuffCheckCodeParam)
00000009  local     $C$L58 (.text:_HMRECPRM_GetRecBuffCheckCode)
003ecd95  local     $C$L6 (.text:_HMRECPRM_vTimeSync)
003ecd96  local     $C$L7 (.text:_HMRECPRM_vTimeSync)
003ecda3  local     $C$L8 (.text:_HMRECPRM_vTimeSync)
003ee0fb  local     $C$L9 (.text:_HMRECPRM_TriggerRec)
00000000  local     .bss (.bss)
003f0c2c  local     .cinit:_HMRECPRM_sDateTime (.cinit:_HMRECPRM_sDateTime)
003f0b50  local     .cinit:_sRecStatusParam (.cinit:_sRecStatusParam)
003f0c8f  local     .cinit:_sRecStatusParamInternal (.cinit:_sRecStatusParamInternal)
00000000  local     .cinit:_sRecTimeBase (.cinit:_sRecTimeBase)
00000000  local     .data (.data)
0000bebe  local     .ebss (.ebss)
0000bcf8  local     .ebss:_HMRECPRM_sDateTime (.ebss:_HMRECPRM_sDateTime)
0000c0fc  local     .ebss:_MAIN_sDate (.ebss:_MAIN_sDate)
00000000  local     .ebss:_MAIN_sDateI2C (.ebss:_MAIN_sDateI2C)
0000c0fe  local     .ebss:_MAIN_sTime (.ebss:_MAIN_sTime)
00000000  local     .ebss:_MAIN_sTimeI2C (.ebss:_MAIN_sTimeI2C)
0000c11a  local     .ebss:_abRecorderJustStopped (.ebss:_abRecorderJustStopped)
0000c11b  local     .ebss:_abRecorderRunning (.ebss:_abRecorderRunning)
0000a000  local     .ebss:_au8RecParamBuffer0 (.ebss:_au8RecParamBuffer0)
0000bbde  local     .ebss:_sRecExternParam (.ebss:_sRecExternParam)
0000bd00  local     .ebss:_sRecHandleParam (.ebss:_sRecHandleParam)
0000bfd0  local     .ebss:_sRecStatusParam (.ebss:_sRecStatusParam)
0000c06a  local     .ebss:_sRecStatusParamInternal (.ebss:_sRecStatusParamInternal)
00000000  local     .ebss:_sRecTimeBase (.ebss:_sRecTimeBase)
0000c108  local     .ebss:_u32RecorderLastFreeCounter (.ebss:_u32RecorderLastFreeCounter)
0000c10a  local     .ebss:_u32RecorderMicroSec (.ebss:_u32RecorderMicroSec)
00000000  local     .text (.text)
003ed384  local     .text:_FillTimeData (.text:_FillTimeData)
003ee6ef  local     .text:_HMRECPRM_AbortRec (.text:_HMRECPRM_AbortRec)
003ee16d  local     .text:_HMRECPRM_ClrLastStopDetectionToRecorderStopSamplesCounter (.text:_HMRECPRM_ClrLastStopDetectionToRecorderStopSamplesCounter)
003edfad  local     .text:_HMRECPRM_Compare16S (.text:_HMRECPRM_Compare16S)
003edfbb  local     .text:_HMRECPRM_Compare16U (.text:_HMRECPRM_Compare16U)
003edfc9  local     .text:_HMRECPRM_Compare32S (.text:_HMRECPRM_Compare32S)
003edfd7  local     .text:_HMRECPRM_Compare32U (.text:_HMRECPRM_Compare32U)
003edfe5  local     .text:_HMRECPRM_Compare8S (.text:_HMRECPRM_Compare8S)
003edff3  local     .text:_HMRECPRM_Compare8U (.text:_HMRECPRM_Compare8U)
003ede52  local     .text:_HMRECPRM_CompareBOOL (.text:_HMRECPRM_CompareBOOL)
003edd52  local     .text:_HMRECPRM_Comparefloat (.text:_HMRECPRM_Comparefloat)
00000000  local     .text:_HMRECPRM_GetBufferRecParamAddress (.text:_HMRECPRM_GetBufferRecParamAddress)
003ee0e5  local     .text:_HMRECPRM_GetBufferRecParamPtrAddress (.text:_HMRECPRM_GetBufferRecParamPtrAddress)
003ee1cb  local     .text:_HMRECPRM_GetExternBufferRecParamLastPointedAddress (.text:_HMRECPRM_GetExternBufferRecParamLastPointedAddress)
003ee1d4  local     .text:_HMRECPRM_GetExternBufferRecParamPtrAddress (.text:_HMRECPRM_GetExternBufferRecParamPtrAddress)
003ee276  local     .text:_HMRECPRM_GetExternRecParamAddress (.text:_HMRECPRM_GetExternRecParamAddress)
003ee27e  local     .text:_HMRECPRM_GetExternRecParamPtrMaximumUsedSampleCount (.text:_HMRECPRM_GetExternRecParamPtrMaximumUsedSampleCount)
003ee286  local     .text:_HMRECPRM_GetExternRecParamPtrSampleSize (.text:_HMRECPRM_GetExternRecParamPtrSampleSize)
00000000  local     .text:_HMRECPRM_GetRecBuffAddress (.text:_HMRECPRM_GetRecBuffAddress)
00000000  local     .text:_HMRECPRM_GetRecBuffCheckCode (.text:_HMRECPRM_GetRecBuffCheckCode)
00000000  local     .text:_HMRECPRM_GetRecBuffCheckCodeParam (.text:_HMRECPRM_GetRecBuffCheckCodeParam)
003ed99f  local     .text:_HMRECPRM_GetRecBuffFreemaster (.text:_HMRECPRM_GetRecBuffFreemaster)
00000000  local     .text:_HMRECPRM_GetRecBuffFreemasterParam (.text:_HMRECPRM_GetRecBuffFreemasterParam)
00000000  local     .text:_HMRECPRM_GetRecBuffIndex (.text:_HMRECPRM_GetRecBuffIndex)
003ee6f1  local     .text:_HMRECPRM_GetRecBuffSize (.text:_HMRECPRM_GetRecBuffSize)
003ee28e  local     .text:_HMRECPRM_GetRecParamPtrAvailableSampleCount (.text:_HMRECPRM_GetRecParamPtrAvailableSampleCount)
003ee296  local     .text:_HMRECPRM_GetRecParamPtrLastSampleIndex (.text:_HMRECPRM_GetRecParamPtrLastSampleIndex)
003ee29e  local     .text:_HMRECPRM_GetRecParamPtrMaximumUsedSampleCount (.text:_HMRECPRM_GetRecParamPtrMaximumUsedSampleCount)
003ee2a6  local     .text:_HMRECPRM_GetRecParamPtrSampleSize (.text:_HMRECPRM_GetRecParamPtrSampleSize)
00000000  local     .text:_HMRECPRM_GetRecSampleSize (.text:_HMRECPRM_GetRecSampleSize)
003ee177  local     .text:_HMRECPRM_GetRecStatus (.text:_HMRECPRM_GetRecStatus)
00000000  local     .text:_HMRECPRM_GetRecStatusParam (.text:_HMRECPRM_GetRecStatusParam)
00000000  local     .text:_HMRECPRM_GetStatusInternalRecParamAddress (.text:_HMRECPRM_GetStatusInternalRecParamAddress)
003ee2ae  local     .text:_HMRECPRM_GetStatusRecParamAddress (.text:_HMRECPRM_GetStatusRecParamAddress)
003ee6e3  local     .text:_HMRECPRM_GetTimeBase (.text:_HMRECPRM_GetTimeBase)
00000000  local     .text:_HMRECPRM_IsInRecBuffer (.text:_HMRECPRM_IsInRecBuffer)
003ee08b  local     .text:_HMRECPRM_IsJustStopped (.text:_HMRECPRM_IsJustStopped)
003ee120  local     .text:_HMRECPRM_IsRunning (.text:_HMRECPRM_IsRunning)
00000000  local     .text:_HMRECPRM_SetTimeBase (.text:_HMRECPRM_SetTimeBase)
003eb78c  local     .text:_HMRECPRM_SetUpRec (.text:_HMRECPRM_SetUpRec)
003ee33c  local     .text:_HMRECPRM_SetUpRecBuff (.text:_HMRECPRM_SetUpRecBuff)
003ec192  local     .text:_HMRECPRM_SetUpRecParamStatusDateTime (.text:_HMRECPRM_SetUpRecParamStatusDateTime)
003edb26  local     .text:_HMRECPRM_StartRec (.text:_HMRECPRM_StartRec)
003eccbf  local     .text:_HMRECPRM_StartRecParam (.text:_HMRECPRM_StartRecParam)
003ee098  local     .text:_HMRECPRM_StopRec (.text:_HMRECPRM_StopRec)
003eddce  local     .text:_HMRECPRM_StopRecParam (.text:_HMRECPRM_StopRecParam)
003ee0f1  local     .text:_HMRECPRM_TriggerRec (.text:_HMRECPRM_TriggerRec)
003ee4a4  local     .text:_HMRECPRM_vDisableAllStopDetections (.text:_HMRECPRM_vDisableAllStopDetections)
003ee2b6  local     .text:_HMRECPRM_vInit (.text:_HMRECPRM_vInit)
00000000  local     .text:_HMRECPRM_vInitParam (.text:_HMRECPRM_vInitParam)
003eb27a  local     .text:_HMRECPRM_vProcess (.text:_HMRECPRM_vProcess)
003ee313  local     .text:_HMRECPRM_vResetAllStopDetections (.text:_HMRECPRM_vResetAllStopDetections)
003ecd59  local     .text:_HMRECPRM_vTimeSync (.text:_HMRECPRM_vTimeSync)
003ed5a7  local     .text:_RecorderDateFromLocalDateTime (.text:_RecorderDateFromLocalDateTime)
00000000  local     .text:_RecorderDateFromRTCDate (.text:_RecorderDateFromRTCDate)
003ed357  local     .text:_RecorderTimeFromLocalDateTime (.text:_RecorderTimeFromLocalDateTime)
00000000  local     .text:_RecorderTimeFromRTCTime (.text:_RecorderTimeFromRTCTime)
003ed384  global    _FillTimeData (.text:_FillTimeData)
003ee6ef  global    _HMRECPRM_AbortRec (.text:_HMRECPRM_AbortRec)
003ee16d  global    _HMRECPRM_ClrLastStopDetectionToRecorderStopSamplesCounter (.text:_HMRECPRM_ClrLastStopDetectionToRecorderStopSamplesCounter)
003edfad  global    _HMRECPRM_Compare16S (.text:_HMRECPRM_Compare16S)
003edfbb  global    _HMRECPRM_Compare16U (.text:_HMRECPRM_Compare16U)
003edfc9  global    _HMRECPRM_Compare32S (.text:_HMRECPRM_Compare32S)
003edfd7  global    _HMRECPRM_Compare32U (.text:_HMRECPRM_Compare32U)
003edfe5  global    _HMRECPRM_Compare8S (.text:_HMRECPRM_Compare8S)
003edff3  global    _HMRECPRM_Compare8U (.text:_HMRECPRM_Compare8U)
003ede52  global    _HMRECPRM_CompareBOOL (.text:_HMRECPRM_CompareBOOL)
003edd52  global    _HMRECPRM_Comparefloat (.text:_HMRECPRM_Comparefloat)
00000000  global    _HMRECPRM_GetBufferRecParamAddress (.text:_HMRECPRM_GetBufferRecParamAddress)
003ee0e5  global    _HMRECPRM_GetBufferRecParamPtrAddress (.text:_HMRECPRM_GetBufferRecParamPtrAddress)
003ee1cb  global    _HMRECPRM_GetExternBufferRecParamLastPointedAddress (.text:_HMRECPRM_GetExternBufferRecParamLastPointedAddress)
003ee1d4  global    _HMRECPRM_GetExternBufferRecParamPtrAddress (.text:_HMRECPRM_GetExternBufferRecParamPtrAddress)
003ee276  global    _HMRECPRM_GetExternRecParamAddress (.text:_HMRECPRM_GetExternRecParamAddress)
003ee27e  global    _HMRECPRM_GetExternRecParamPtrMaximumUsedSampleCount (.text:_HMRECPRM_GetExternRecParamPtrMaximumUsedSampleCount)
003ee286  global    _HMRECPRM_GetExternRecParamPtrSampleSize (.text:_HMRECPRM_GetExternRecParamPtrSampleSize)
00000000  global    _HMRECPRM_GetRecBuffAddress (.text:_HMRECPRM_GetRecBuffAddress)
00000000  global    _HMRECPRM_GetRecBuffCheckCode (.text:_HMRECPRM_GetRecBuffCheckCode)
00000000  global    _HMRECPRM_GetRecBuffCheckCodeParam (.text:_HMRECPRM_GetRecBuffCheckCodeParam)
003ed99f  global    _HMRECPRM_GetRecBuffFreemaster (.text:_HMRECPRM_GetRecBuffFreemaster)
00000000  global    _HMRECPRM_GetRecBuffFreemasterParam (.text:_HMRECPRM_GetRecBuffFreemasterParam)
00000000  global    _HMRECPRM_GetRecBuffIndex (.text:_HMRECPRM_GetRecBuffIndex)
003ee6f1  global    _HMRECPRM_GetRecBuffSize (.text:_HMRECPRM_GetRecBuffSize)
003ee28e  global    _HMRECPRM_GetRecParamPtrAvailableSampleCount (.text:_HMRECPRM_GetRecParamPtrAvailableSampleCount)
003ee296  global    _HMRECPRM_GetRecParamPtrLastSampleIndex (.text:_HMRECPRM_GetRecParamPtrLastSampleIndex)
003ee29e  global    _HMRECPRM_GetRecParamPtrMaximumUsedSampleCount (.text:_HMRECPRM_GetRecParamPtrMaximumUsedSampleCount)
003ee2a6  global    _HMRECPRM_GetRecParamPtrSampleSize (.text:_HMRECPRM_GetRecParamPtrSampleSize)
00000000  global    _HMRECPRM_GetRecSampleSize (.text:_HMRECPRM_GetRecSampleSize)
003ee177  global    _HMRECPRM_GetRecStatus (.text:_HMRECPRM_GetRecStatus)
00000000  global    _HMRECPRM_GetRecStatusParam (.text:_HMRECPRM_GetRecStatusParam)
00000000  global    _HMRECPRM_GetStatusInternalRecParamAddress (.text:_HMRECPRM_GetStatusInternalRecParamAddress)
003ee2ae  global    _HMRECPRM_GetStatusRecParamAddress (.text:_HMRECPRM_GetStatusRecParamAddress)
003ee6e3  global    _HMRECPRM_GetTimeBase (.text:_HMRECPRM_GetTimeBase)
00000000  global    _HMRECPRM_IsInRecBuffer (.text:_HMRECPRM_IsInRecBuffer)
003ee08b  global    _HMRECPRM_IsJustStopped (.text:_HMRECPRM_IsJustStopped)
003ee120  global    _HMRECPRM_IsRunning (.text:_HMRECPRM_IsRunning)
00000000  global    _HMRECPRM_SetTimeBase (.text:_HMRECPRM_SetTimeBase)
003eb78c  global    _HMRECPRM_SetUpRec (.text:_HMRECPRM_SetUpRec)
003ee33c  global    _HMRECPRM_SetUpRecBuff (.text:_HMRECPRM_SetUpRecBuff)
003ec192  global    _HMRECPRM_SetUpRecParamStatusDateTime (.text:_HMRECPRM_SetUpRecParamStatusDateTime)
003edb26  global    _HMRECPRM_StartRec (.text:_HMRECPRM_StartRec)
003eccbf  global    _HMRECPRM_StartRecParam (.text:_HMRECPRM_StartRecParam)
003ee098  global    _HMRECPRM_StopRec (.text:_HMRECPRM_StopRec)
003eddce  global    _HMRECPRM_StopRecParam (.text:_HMRECPRM_StopRecParam)
003ee0f1  global    _HMRECPRM_TriggerRec (.text:_HMRECPRM_TriggerRec)
0000bcf8  global    _HMRECPRM_sDateTime (.ebss:_HMRECPRM_sDateTime)
003ee4a4  global    _HMRECPRM_vDisableAllStopDetections (.text:_HMRECPRM_vDisableAllStopDetections)
003ee2b6  global    _HMRECPRM_vInit (.text:_HMRECPRM_vInit)
00000000  global    _HMRECPRM_vInitParam (.text:_HMRECPRM_vInitParam)
003eb27a  global    _HMRECPRM_vProcess (.text:_HMRECPRM_vProcess)
003ee313  global    _HMRECPRM_vResetAllStopDetections (.text:_HMRECPRM_vResetAllStopDetections)
003ecd59  global    _HMRECPRM_vTimeSync (.text:_HMRECPRM_vTimeSync)
0000c0fc  global    _MAIN_sDate (.ebss:_MAIN_sDate)
00000000  global    _MAIN_sDateI2C (.ebss:_MAIN_sDateI2C)
0000c0fe  global    _MAIN_sTime (.ebss:_MAIN_sTime)
00000000  global    _MAIN_sTimeI2C (.ebss:_MAIN_sTimeI2C)
0000bebe  global    _MAIN_u32FreeCounter (.ebss)
003ed5a7  global    _RecorderDateFromLocalDateTime (.text:_RecorderDateFromLocalDateTime)
00000000  global    _RecorderDateFromRTCDate (.text:_RecorderDateFromRTCDate)
003ed357  global    _RecorderTimeFromLocalDateTime (.text:_RecorderTimeFromLocalDateTime)
00000000  global    _RecorderTimeFromRTCTime (.text:_RecorderTimeFromRTCTime)
0000c11a  global    _abRecorderJustStopped (.ebss:_abRecorderJustStopped)
0000c11b  global    _abRecorderRunning (.ebss:_abRecorderRunning)
0000a000  global    _au8RecParamBuffer0 (.ebss:_au8RecParamBuffer0)
0000bbde  global    _sRecExternParam (.ebss:_sRecExternParam)
0000bd00  global    _sRecHandleParam (.ebss:_sRecHandleParam)
0000bfd0  global    _sRecStatusParam (.ebss:_sRecStatusParam)
0000c06a  global    _sRecStatusParamInternal (.ebss:_sRecStatusParamInternal)
00000000  global    _sRecTimeBase (.ebss:_sRecTimeBase)
0000c108  global    _u32RecorderLastFreeCounter (.ebss:_u32RecorderLastFreeCounter)
0000c10a  global    _u32RecorderMicroSec (.ebss:_u32RecorderMicroSec)


================================================================================

CSMON_C28xx.lib : hmscope.obj

Run/Load            
Value     Binding   Name (Section)
--------  --------  ---------------
003ecfcd  local     $C$L1 (.text:_HMSCOPE_SetUpScope)
003ed170  local     $C$L10 (.text:_HMSCOPE_ReadScope)
003ecfe1  local     $C$L2 (.text:_HMSCOPE_SetUpScope)
003ecfe4  local     $C$L3 (.text:_HMSCOPE_SetUpScope)
003ecfe9  local     $C$L4 (.text:_HMSCOPE_SetUpScope)
003ecfeb  local     $C$L5 (.text:_HMSCOPE_SetUpScope)
003ed14b  local     $C$L6 (.text:_HMSCOPE_ReadScope)
003ed14f  local     $C$L7 (.text:_HMSCOPE_ReadScope)
003ed15b  local     $C$L8 (.text:_HMSCOPE_ReadScope)
003ed16b  local     $C$L9 (.text:_HMSCOPE_ReadScope)
00000000  local     .bss (.bss)
00000000  local     .data (.data)
0000bc7f  local     .ebss (.ebss)
0000be40  local     .ebss:_sScopeHandle (.ebss:_sScopeHandle)
00000000  local     .text (.text)
003ed13f  local     .text:_HMSCOPE_ReadScope (.text:_HMSCOPE_ReadScope)
003ecfb5  local     .text:_HMSCOPE_SetUpScope (.text:_HMSCOPE_SetUpScope)
00000000  local     .text:_HMSCOPE_vInit (.text:_HMSCOPE_vInit)
00000000  local     .text:_HMSCOPE_vSetDataChangeFlag (.text:_HMSCOPE_vSetDataChangeFlag)
0000bc7f  global    _DataChangedFlag (.ebss)
003ed13f  global    _HMSCOPE_ReadScope (.text:_HMSCOPE_ReadScope)
003ecfb5  global    _HMSCOPE_SetUpScope (.text:_HMSCOPE_SetUpScope)
00000000  global    _HMSCOPE_vInit (.text:_HMSCOPE_vInit)
00000000  global    _HMSCOPE_vSetDataChangeFlag (.text:_HMSCOPE_vSetDataChangeFlag)
0000be40  local     _sScopeHandle (.ebss:_sScopeHandle)


================================================================================

CSMON_C28xx.lib : hmscopeparam.obj

Run/Load            
Value     Binding   Name (Section)
--------  --------  ---------------
00000020  local     $C$L1 (.text:_HMSCOPE_ReadScopeParam)
003ece2c  local     $C$L10 (.text:_HMSCOPEPRM_SetUpScope)
003ece2e  local     $C$L11 (.text:_HMSCOPEPRM_SetUpScope)
003ece8c  local     $C$L12 (.text:_HMSCOPEPRM_ReadScope)
003ece91  local     $C$L13 (.text:_HMSCOPEPRM_ReadScope)
003ecea1  local     $C$L14 (.text:_HMSCOPEPRM_ReadScope)
003eceb2  local     $C$L15 (.text:_HMSCOPEPRM_ReadScope)
003eceb6  local     $C$L16 (.text:_HMSCOPEPRM_ReadScope)
00000023  local     $C$L2 (.text:_HMSCOPE_ReadScopeParam)
00000044  local     $C$L3 (.text:_HMSCOPE_ReadScopeParam)
0000005d  local     $C$L4 (.text:_HMSCOPE_ReadScopeParam)
0000005f  local     $C$L5 (.text:_HMSCOPE_ReadScopeParam)
00000061  local     $C$L6 (.text:_HMSCOPE_ReadScopeParam)
003ece0e  local     $C$L7 (.text:_HMSCOPEPRM_SetUpScope)
003ece25  local     $C$L8 (.text:_HMSCOPEPRM_SetUpScope)
003ece28  local     $C$L9 (.text:_HMSCOPEPRM_SetUpScope)
00000000  local     .bss (.bss)
003f0d50  local     .cinit (.cinit)
00000000  local     .cinit:_nSizeBytesScopeBuffer (.cinit:_nSizeBytesScopeBuffer)
003f0d46  local     .cinit:_pBufferScope (.cinit:_pBufferScope)
00000000  local     .data (.data)
0000befe  local     .ebss (.ebss)
00000000  local     .ebss:_HMSCOPEPRM_u8Buffer (.ebss:_HMSCOPEPRM_u8Buffer)
00000000  local     .ebss:_nSizeBytesScopeBuffer (.ebss:_nSizeBytesScopeBuffer)
0000c104  local     .ebss:_pBufferScope (.ebss:_pBufferScope)
0000be80  local     .ebss:_sScopeHandlePrm (.ebss:_sScopeHandlePrm)
0000c11f  local     .ebss:_sScopeStatusParam (.ebss:_sScopeStatusParam)
00000000  local     .text (.text)
003ee1e6  local     .text:_HMSCOPEPRM_GetBufferScopeParamAddress (.text:_HMSCOPEPRM_GetBufferScopeParamAddress)
003ee31a  local     .text:_HMSCOPEPRM_GetStatusScopeParamAddress (.text:_HMSCOPEPRM_GetStatusScopeParamAddress)
003ece78  local     .text:_HMSCOPEPRM_ReadScope (.text:_HMSCOPEPRM_ReadScope)
003ecdec  local     .text:_HMSCOPEPRM_SetUpScope (.text:_HMSCOPEPRM_SetUpScope)
00000000  local     .text:_HMSCOPEPRM_vInit (.text:_HMSCOPEPRM_vInit)
00000000  local     .text:_HMSCOPEPRM_vInitBufferParam (.text:_HMSCOPEPRM_vInitBufferParam)
00000000  local     .text:_HMSCOPEPRM_vSetDataChangeFlag (.text:_HMSCOPEPRM_vSetDataChangeFlag)
00000000  local     .text:_HMSCOPE_ReadScopeParam (.text:_HMSCOPE_ReadScopeParam)
0000befe  global    _DataChangedParamFlag (.ebss)
003ee1e6  global    _HMSCOPEPRM_GetBufferScopeParamAddress (.text:_HMSCOPEPRM_GetBufferScopeParamAddress)
003ee31a  global    _HMSCOPEPRM_GetStatusScopeParamAddress (.text:_HMSCOPEPRM_GetStatusScopeParamAddress)
003ece78  global    _HMSCOPEPRM_ReadScope (.text:_HMSCOPEPRM_ReadScope)
003ecdec  global    _HMSCOPEPRM_SetUpScope (.text:_HMSCOPEPRM_SetUpScope)
00000000  global    _HMSCOPEPRM_u8Buffer (.ebss:_HMSCOPEPRM_u8Buffer)
00000000  global    _HMSCOPEPRM_vInit (.text:_HMSCOPEPRM_vInit)
00000000  global    _HMSCOPEPRM_vInitBufferParam (.text:_HMSCOPEPRM_vInitBufferParam)
00000000  global    _HMSCOPEPRM_vSetDataChangeFlag (.text:_HMSCOPEPRM_vSetDataChangeFlag)
00000000  global    _HMSCOPE_ReadScopeParam (.text:_HMSCOPE_ReadScopeParam)
0000beff  global    _nScopeIndexFreemaster (.ebss)
00000000  global    _nSizeBytesScopeBuffer (.ebss:_nSizeBytesScopeBuffer)
0000c104  global    _pBufferScope (.ebss:_pBufferScope)
0000be80  global    _sScopeHandlePrm (.ebss:_sScopeHandlePrm)
0000c11f  global    _sScopeStatusParam (.ebss:_sScopeStatusParam)


================================================================================

CSMON_C28xx.lib : hmserial.obj

Run/Load            
Value     Binding   Name (Section)
--------  --------  ---------------
003ed17e  local     $C$L1 (.text:_HMSERIAL_vSendResponse)
003ed49b  local     $C$L10 (.text:_HMSERIAL_vProcessSCITXISR)
003ed4a0  local     $C$L11 (.text:_HMSERIAL_vProcessSCITXISR)
003ed32c  local     $C$L12 (.text:_HMSERIAL_Listen)
003ed333  local     $C$L13 (.text:_HMSERIAL_Listen)
003ed339  local     $C$L14 (.text:_HMSERIAL_Listen)
003ed349  local     $C$L15 (.text:_HMSERIAL_Listen)
003ec5c2  local     $C$L16 (.text:_HMSERIAL_Rx)
003ec5c6  local     $C$L17 (.text:_HMSERIAL_Rx)
003ec5cb  local     $C$L18 (.text:_HMSERIAL_Rx)
003ec5d9  local     $C$L19 (.text:_HMSERIAL_Rx)
003ed188  local     $C$L2 (.text:_HMSERIAL_vSendResponse)
003ec5e4  local     $C$L20 (.text:_HMSERIAL_Rx)
003ec5f6  local     $C$L21 (.text:_HMSERIAL_Rx)
003ec5f8  local     $C$L22 (.text:_HMSERIAL_Rx)
003ec602  local     $C$L23 (.text:_HMSERIAL_Rx)
003ec607  local     $C$L24 (.text:_HMSERIAL_Rx)
003ed258  local     $C$L25 (.text:_HMSERIAL_vProcessSCIFreemasterOnly)
003ed266  local     $C$L26 (.text:_HMSERIAL_vProcessSCIFreemasterOnly)
003ed26d  local     $C$L27 (.text:_HMSERIAL_vProcessSCIFreemasterOnly)
003ed274  local     $C$L28 (.text:_HMSERIAL_vProcessSCIFreemasterOnly)
003ec4dd  local     $C$L29 (.text:_HMSERIAL_vProcessSCI)
003ed522  local     $C$L3 (.text:_HMSERIAL_Tx)
003ec4ea  local     $C$L30 (.text:_HMSERIAL_vProcessSCI)
003ec4f8  local     $C$L31 (.text:_HMSERIAL_vProcessSCI)
003ec50b  local     $C$L32 (.text:_HMSERIAL_vProcessSCI)
003ec517  local     $C$L33 (.text:_HMSERIAL_vProcessSCI)
003ec51d  local     $C$L34 (.text:_HMSERIAL_vProcessSCI)
003ec524  local     $C$L35 (.text:_HMSERIAL_vProcessSCI)
003ee135  local     $C$L36 (.text:_HMSERIAL_vProcessFastTD)
003ed532  local     $C$L4 (.text:_HMSERIAL_Tx)
003ed538  local     $C$L5 (.text:_HMSERIAL_Tx)
003edb53  local     $C$L6 (.text:_HMSERIAL_vProcessSCITXISRFreemasterOnly)
003edb58  local     $C$L7 (.text:_HMSERIAL_vProcessSCITXISRFreemasterOnly)
003ed48d  local     $C$L8 (.text:_HMSERIAL_vProcessSCITXISR)
003ed493  local     $C$L9 (.text:_HMSERIAL_vProcessSCITXISR)
00000000  local     .bss (.bss)
003f0cbb  local     .cinit (.cinit)
00000000  local     .data (.data)
0000c000  local     .ebss (.ebss)
0000bc00  local     .ebss:_pcm_pCommBuffer (.ebss:_pcm_pCommBuffer)
0000c11c  local     .ebss:_pcm_wFlags (.ebss:_pcm_wFlags)
0000c11d  local     .ebss:_pcm_wFlagsRxTx (.ebss:_pcm_wFlagsRxTx)
00000000  local     .text (.text)
003edde2  local     .text:_HMSERIAL_DelayedTx (.text:_HMSERIAL_DelayedTx)
003ed32a  local     .text:_HMSERIAL_Listen (.text:_HMSERIAL_Listen)
003ec59f  local     .text:_HMSERIAL_Rx (.text:_HMSERIAL_Rx)
003ed515  local     .text:_HMSERIAL_Tx (.text:_HMSERIAL_Tx)
003edebd  local     .text:_HMSERIAL_vInit (.text:_HMSERIAL_vInit)
003ee12b  local     .text:_HMSERIAL_vProcessFastTD (.text:_HMSERIAL_vProcessFastTD)
003ee1ef  local     .text:_HMSERIAL_vProcessFreeTimer (.text:_HMSERIAL_vProcessFreeTimer)
003ec4a8  local     .text:_HMSERIAL_vProcessSCI (.text:_HMSERIAL_vProcessSCI)
003ed248  local     .text:_HMSERIAL_vProcessSCIFreemasterOnly (.text:_HMSERIAL_vProcessSCIFreemasterOnly)
003ed47b  local     .text:_HMSERIAL_vProcessSCITXISR (.text:_HMSERIAL_vProcessSCITXISR)
003edb40  local     .text:_HMSERIAL_vProcessSCITXISRFreemasterOnly (.text:_HMSERIAL_vProcessSCITXISRFreemasterOnly)
003ed175  local     .text:_HMSERIAL_vSendResponse (.text:_HMSERIAL_vSendResponse)
00000000  local     .text:_HMSERIAL_vSetPortIndex (.text:_HMSERIAL_vSetPortIndex)
003edde2  global    _HMSERIAL_DelayedTx (.text:_HMSERIAL_DelayedTx)
003ed32a  local     _HMSERIAL_Listen (.text:_HMSERIAL_Listen)
003ec59f  global    _HMSERIAL_Rx (.text:_HMSERIAL_Rx)
003ed515  global    _HMSERIAL_Tx (.text:_HMSERIAL_Tx)
003edebd  global    _HMSERIAL_vInit (.text:_HMSERIAL_vInit)
003ee12b  global    _HMSERIAL_vProcessFastTD (.text:_HMSERIAL_vProcessFastTD)
003ee1ef  global    _HMSERIAL_vProcessFreeTimer (.text:_HMSERIAL_vProcessFreeTimer)
003ec4a8  global    _HMSERIAL_vProcessSCI (.text:_HMSERIAL_vProcessSCI)
003ed248  global    _HMSERIAL_vProcessSCIFreemasterOnly (.text:_HMSERIAL_vProcessSCIFreemasterOnly)
003ed47b  global    _HMSERIAL_vProcessSCITXISR (.text:_HMSERIAL_vProcessSCITXISR)
003edb40  global    _HMSERIAL_vProcessSCITXISRFreemasterOnly (.text:_HMSERIAL_vProcessSCITXISRFreemasterOnly)
003ed175  global    _HMSERIAL_vSendResponse (.text:_HMSERIAL_vSendResponse)
00000000  global    _HMSERIAL_vSetPortIndex (.text:_HMSERIAL_vSetPortIndex)
0000c00a  local     _nLastTimerValue$1 (.ebss)
0000c003  global    _pcm_nRxCheckSum (.ebss)
0000c002  global    _pcm_nRxTodo (.ebss)
0000c001  global    _pcm_nRxTodoEcho (.ebss)
0000c000  global    _pcm_nTxTodo (.ebss)
0000bc00  global    _pcm_pCommBuffer (.ebss:_pcm_pCommBuffer)
0000c008  global    _pcm_pRxBuff (.ebss)
0000c006  global    _pcm_pTxBuff (.ebss)
0000c11c  global    _pcm_wFlags (.ebss:_pcm_wFlags)
0000c11d  global    _pcm_wFlagsRxTx (.ebss:_pcm_wFlagsRxTx)
0000c004  global    _u8UartIndex (.ebss)


================================================================================

CSMON_C28xx.lib : Hash.obj

Run/Load            
Value     Binding   Name (Section)
--------  --------  ---------------
00000003  local     $C$L1 (.text:_InitPrimeInd)
000000e4  local     $C$L10 (.text:_Hash)
000000f7  local     $C$L11 (.text:_Hash)
000000fe  local     $C$L12 (.text:_Hash)
0000010e  local     $C$L13 (.text:_Hash)
00000110  local     $C$L14 (.text:_Hash)
00000111  local     $C$L15 (.text:_Hash)
00000119  local     $C$L16 (.text:_Hash)
0000011a  local     $C$L17 (.text:_Hash)
00000126  local     $C$L18 (.text:_Hash)
00000127  local     $C$L19 (.text:_Hash)
00000015  local     $C$L2 (.text:_Hash)
00000166  local     $C$L20 (.text:_Hash)
0000016d  local     $C$L21 (.text:_Hash)
00000172  local     $C$L22 (.text:_Hash)
00000180  local     $C$L23 (.text:_Hash)
0000001c  local     $C$L3 (.text:_Hash)
00000023  local     $C$L4 (.text:_Hash)
00000029  local     $C$L5 (.text:_Hash)
00000030  local     $C$L6 (.text:_Hash)
00000039  local     $C$L7 (.text:_Hash)
0000003d  local     $C$L8 (.text:_Hash)
00000045  local     $C$L9 (.text:_Hash)
00000000  local     .bss (.bss)
00000000  local     .data (.data)
00000000  local     .ebss:_primeIndArr (.ebss:_primeIndArr)
00000000  local     .econst:.string:_noPrime8 (.econst:.string:_noPrime8)
00000000  local     .econst:.string:_prime8 (.econst:.string:_prime8)
00000000  local     .text (.text)
00000000  local     .text:_Hash (.text:_Hash)
00000000  local     .text:_InitPrimeInd (.text:_InitPrimeInd)
00000000  global    _Hash (.text:_Hash)
00000000  local     _InitPrimeInd (.text:_InitPrimeInd)
00000000  local     _noPrime8 (.econst:.string:_noPrime8)
00000000  local     _prime8 (.econst:.string:_prime8)
00000000  global    _primeIndArr (.ebss:_primeIndArr)


================================================================================

CSMON_C28xx.lib : cputimer.obj

Run/Load            
Value     Binding   Name (Section)
--------  --------  ---------------
00000000  local     .bss (.bss)
00000000  local     .data (.data)
00000000  local     .text (.text)
003ee336  local     .text:_CPUTimer_setEmulationMode (.text:_CPUTimer_setEmulationMode)
003ee336  global    _CPUTimer_setEmulationMode (.text:_CPUTimer_setEmulationMode)


================================================================================

CSMON_C28xx.lib : sci_drv.obj

Run/Load            
Value     Binding   Name (Section)
--------  --------  ---------------
00000013  local     $C$L1 (.text:_SCI_vErrorResetProcess)
0000002b  local     $C$L2 (.text:_SCI_vErrorResetProcess)
00000000  local     .bss (.bss)
00000000  local     .data (.data)
00000000  local     .ebss:_SCI_ErrorRx (.ebss:_SCI_ErrorRx)
00000000  local     .text (.text)
003ed613  local     .text:_SCIA_RXFIFOISR (.text:_SCIA_RXFIFOISR)
003ed637  local     .text:_SCIA_TXFIFOISR (.text:_SCIA_TXFIFOISR)
003ed6a3  local     .text:_SCIB_RXFIFOISR (.text:_SCIB_RXFIFOISR)
003ed6c7  local     .text:_SCIB_TXFIFOISR (.text:_SCIB_TXFIFOISR)
003ee14c  local     .text:_SCI_eGetModuleIndexFromBase (.text:_SCI_eGetModuleIndexFromBase)
003ee32f  local     .text:_SCI_u32GetBaseFromModuleIndex (.text:_SCI_u32GetBaseFromModuleIndex)
00000000  local     .text:_SCI_vErrorResetProcess (.text:_SCI_vErrorResetProcess)
00000000  local     .text:_SCI_vInitFIFO (.text:_SCI_vInitFIFO)
00000000  local     .text:_SCI_vInitFIFORegisters (.text:_SCI_vInitFIFORegisters)
003ed613  global    _SCIA_RXFIFOISR (.text:_SCIA_RXFIFOISR)
003ed637  global    _SCIA_TXFIFOISR (.text:_SCIA_TXFIFOISR)
003ed6a3  global    _SCIB_RXFIFOISR (.text:_SCIB_RXFIFOISR)
003ed6c7  global    _SCIB_TXFIFOISR (.text:_SCIB_TXFIFOISR)
00000000  global    _SCI_ErrorRx (.ebss:_SCI_ErrorRx)
003ee14c  global    _SCI_eGetModuleIndexFromBase (.text:_SCI_eGetModuleIndexFromBase)
003ee32f  global    _SCI_u32GetBaseFromModuleIndex (.text:_SCI_u32GetBaseFromModuleIndex)
00000000  global    _SCI_vErrorResetProcess (.text:_SCI_vErrorResetProcess)
00000000  global    _SCI_vInitFIFO (.text:_SCI_vInitFIFO)
00000000  global    _SCI_vInitFIFORegisters (.text:_SCI_vInitFIFORegisters)


================================================================================

rts2800_ml.lib : s_sinf.c.obj

Run/Load            
Value     Binding   Name (Section)
--------  --------  ---------------
003f04da  local     $C$FL1 (.econst)
003f04de  local     $C$FL2 (.econst)
003eacc3  local     $C$L1 (.text)
003ead19  local     $C$L10 (.text)
003ead20  local     $C$L11 (.text)
003ead3a  local     $C$L12 (.text)
003ead4c  local     $C$L13 (.text)
003ead51  local     $C$L14 (.text)
003ead53  local     $C$L15 (.text)
003ead6d  local     $C$L16 (.text)
003ead87  local     $C$L17 (.text)
003ead99  local     $C$L18 (.text)
003ead9e  local     $C$L19 (.text)
003eacd3  local     $C$L2 (.text)
003eada0  local     $C$L20 (.text)
003eadb9  local     $C$L21 (.text)
003eadbb  local     $C$L22 (.text)
003eadbe  local     $C$L23 (.text)
003eacd6  local     $C$L3 (.text)
003eacee  local     $C$L4 (.text)
003ead02  local     $C$L5 (.text)
003ead06  local     $C$L6 (.text)
003ead08  local     $C$L7 (.text)
003ead0d  local     $C$L8 (.text)
003ead17  local     $C$L9 (.text)
00000000  local     .bss (.bss)
00000000  local     .data (.data)
003f04ca  local     .econst (.econst)
003eacad  local     .text (.text)
003f04ca  local     _s1pio2 (.econst)
003f04ce  local     _s2pio2 (.econst)
003f04d2  local     _s3pio2 (.econst)
003f04d6  local     _s4pio2 (.econst)
003eacad  global    _sin (.text)
003eacad  global    _sinf (.text)


================================================================================

rts2800_ml.lib : boot28.asm.obj

Run/Load            
Value     Binding   Name (Section)
--------  --------  ---------------
00000000  local     .bss (.bss)
00000000  local     .data (.data)
003fffc0  local     .reset (.reset)
00000050  local     .stack (.stack)
003ecb2b  local     .text (.text)
003ecb7b  local     BYPASS_AUTO_INIT (.text)
003ecb7b  local     DONE_INIT (.text)
003ecb5b  local     DO_BINIT (.text)
003ecb65  local     DO_PINIT (.text)
003ecb57  local     GET_ADDR (.text)
003ecb4c  local     GET_DATA (.text)
003ecb45  local     LOOP (.text)
003ecb71  local     LOOP_PINIT (.text)
003ecb53  local     START (.text)
003ecb76  local     START_PINIT (.text)
00000050  global    __stack (.stack)
003ecb2b  global    _c_int00 (.text)


================================================================================

rts2800_ml.lib : epilog28.asm.obj

Run/Load            
Value     Binding   Name (Section)
--------  --------  ---------------
00000000  local     .bss (.bss)
00000000  local     .data (.data)
003ee109  local     .text (.text)
003ee109  global    _epilog_c28x_1 (.text)
003ee10d  global    _epilog_c28x_2 (.text)


================================================================================

rts2800_ml.lib : fd_add28.asm.obj

Run/Load            
Value     Binding   Name (Section)
--------  --------  ---------------
00000000  local     .bss (.bss)
00000000  local     .data (.data)
003ebcf5  local     .text (.text)
003ebd4c  local     ADD_OP (.text)
003ebd13  local     EXP1_NZ (.text)
003ebd2d  local     EXP2_NZ (.text)
003ebcf5  global    FD$$ADD (.text)
003ebd58  local     NORMALIZE (.text)
003ebd50  local     NO_ADD (.text)
003ebd83  local     OP1_ZERO (.text)
003ebd86  local     OP2_ZERO (.text)
003ebd89  local     OVERFLOW (.text)
003ebd3c  local     PREP_ADD (.text)
003ebd7e  local     RETURN (.text)
003ebd7c  local     RETURN_VALUE (.text)
003ebd6f  local     RND64_SET_MANT$4$ (.text)
003ebd0b  local     SAVE_MN1 (.text)
003ebd25  local     SAVE_MN2 (.text)
003ebd8f  local     UNDERFLOW (.text)


================================================================================

rts2800_ml.lib : fd_mpy28.asm.obj

Run/Load            
Value     Binding   Name (Section)
--------  --------  ---------------
00000000  local     .bss (.bss)
00000000  local     .data (.data)
003ec323  local     .text (.text)
003ec323  global    FD$$MPY (.text)
003ec39e  local     OVERFLOW (.text)
003ec399  local     RETURN (.text)
003ec397  local     RETURN_VALUE (.text)
003ec389  local     RND64_SET_MANT$3$ (.text)
003ec37e  local     ROUND (.text)
003ec3a4  local     UNDERFLOW (.text)


================================================================================

rts2800_ml.lib : fd_neg28.asm.obj

Run/Load            
Value     Binding   Name (Section)
--------  --------  ---------------
00000000  local     .bss (.bss)
00000000  local     .data (.data)
003ee225  local     .text (.text)
003ee225  global    FD$$NEG (.text)
003ee22b  local     RETURN (.text)


================================================================================

rts2800_ml.lib : fd_sub28.asm.obj

Run/Load            
Value     Binding   Name (Section)
--------  --------  ---------------
00000000  local     .bss (.bss)
00000000  local     .data (.data)
003ee063  local     .text (.text)
003ee063  global    FD$$SUB (.text)


================================================================================

rts2800_ml.lib : fd_toul28.asm.obj

Run/Load            
Value     Binding   Name (Section)
--------  --------  ---------------
00000000  local     .bss (.bss)
00000000  local     .data (.data)
003edaf1  local     .text (.text)
003edaf1  global    FD$$TOUL (.text)
003edb07  local     OVERFLOW (.text)
003edb06  local     RETURN_VALUE (.text)
003edb0a  local     UNDERFLOW (.text)


================================================================================

rts2800_ml.lib : fs_add28.asm.obj

Run/Load            
Value     Binding   Name (Section)
--------  --------  ---------------
00000000  local     .bss (.bss)
00000000  local     .data (.data)
003ec527  local     .text (.text)
003ec52c  global    FS$$ADD (.text)
003ec527  global    FS$$SUB (.text)
003ec55b  local     NORMALIZE (.text)
003ec565  local     NO_CARRY (.text)
003ec57a  local     OP1_GT_OP2 (.text)
003ec541  local     OP1_NONNEG (.text)
003ec590  local     OP1_ZERO (.text)
003ec585  local     OP2_GT_OP1 (.text)
003ec553  local     OP2_NONNEG (.text)
003ec592  local     OP2_ZERO (.text)
003ec594  local     OVERFLOW (.text)
003ec59c  local     RES_ZERO (.text)
003ec592  local     RETURN_OP1 (.text)
003ec590  local     RETURN_OP2 (.text)
003ec577  local     RETURN_VALUE (.text)
003ec59c  local     UNDERFLOW (.text)


================================================================================

rts2800_ml.lib : fs_cmp28.asm.obj

Run/Load            
Value     Binding   Name (Section)
--------  --------  ---------------
00000000  local     .bss (.bss)
00000000  local     .data (.data)
003edcf8  local     .text (.text)
003edd01  local     CHECK_SIGNS (.text)
003edd0e  local     DONE (.text)
003edcf8  global    FS$$CMP (.text)
003edcfe  local     OP1_GT_OP2 (.text)
003edd05  local     OP1_NONNEG (.text)
003edd08  local     OP2_NONNEG (.text)
003edd00  local     OPS_EQ (.text)


================================================================================

rts2800_ml.lib : fs_div28.asm.obj

Run/Load            
Value     Binding   Name (Section)
--------  --------  ---------------
00000000  local     .bss (.bss)
00000000  local     .data (.data)
003ec3a6  local     .text (.text)
003ec3a6  global    FS$$DIV (.text)
003ec407  local     OP1_ZERO (.text)
003ec41c  local     OP2_ZERO (.text)
003ec40d  local     OVERFLOW (.text)
003ec407  local     RETURN_VALUE (.text)
003ec419  local     UNDERFLOW (.text)


================================================================================

rts2800_ml.lib : fs_mpy28.asm.obj

Run/Load            
Value     Binding   Name (Section)
--------  --------  ---------------
00000000  local     .bss (.bss)
00000000  local     .data (.data)
003ec91c  local     .text (.text)
003ec91c  global    FS$$MPY (.text)
003ec958  local     NORMALIZED (.text)
003ec968  local     OP_ZERO (.text)
003ec96e  local     OVERFLOW (.text)
003ec968  local     RETURN_VALUE (.text)
003ec973  local     UNDERFLOW (.text)


================================================================================

rts2800_ml.lib : fs_neg28.asm.obj

Run/Load            
Value     Binding   Name (Section)
--------  --------  ---------------
00000000  local     .bss (.bss)
00000000  local     .data (.data)
003ee5a3  local     .text (.text)
003ee5a7  local     CALL_ADD (.text)
003ee5a3  global    FS$$NEG (.text)


================================================================================

rts2800_ml.lib : fs_toi28.asm.obj

Run/Load            
Value     Binding   Name (Section)
--------  --------  ---------------
00000000  local     .bss (.bss)
00000000  local     .data (.data)
003ed53a  local     .text (.text)
003ed53a  global    FS$$TOI (.text)
003ed558  local     OVERFLOW (.text)
003ed555  local     POSITIVE (.text)
003ed555  local     RETURN (.text)
003ed556  local     UNDERFLOW (.text)
003ed555  local     ZERO (.text)


================================================================================

rts2800_ml.lib : fs_tol28.asm.obj

Run/Load            
Value     Binding   Name (Section)
--------  --------  ---------------
00000000  local     .bss (.bss)
00000000  local     .data (.data)
003ed402  local     .text (.text)
003ed402  global    FS$$TOL (.text)
003ed423  local     OVERFLOW (.text)
003ed41f  local     POSITIVE (.text)
003ed41f  local     RETURN (.text)
003ed41c  local     TEST_SIGN (.text)
003ed41b  local     TEST_SIGN1 (.text)
003ed420  local     UNDERFLOW (.text)
003ed41f  local     ZERO (.text)


================================================================================

rts2800_ml.lib : fs_tou28.asm.obj

Run/Load            
Value     Binding   Name (Section)
--------  --------  ---------------
00000000  local     .bss (.bss)
00000000  local     .data (.data)
003ed9d9  local     .text (.text)
003ed9d9  global    FS$$TOU (.text)
003ed9f1  local     NEGATIVE (.text)
003ed9f3  local     OVERFLOW (.text)
003ed9f0  local     RETURN (.text)
003ed9f1  local     UNDERFLOW (.text)
003ed9f0  local     ZERO (.text)


================================================================================

rts2800_ml.lib : fs_toul28.asm.obj

Run/Load            
Value     Binding   Name (Section)
--------  --------  ---------------
00000000  local     .bss (.bss)
00000000  local     .data (.data)
003ed868  local     .text (.text)
003ed868  global    FS$$TOUL (.text)
003ed886  local     NEGATIVE (.text)
003ed881  local     OVERFLOW (.text)
003ed880  local     RETURN (.text)
003ed87f  local     RETURN1 (.text)
003ed886  local     UNDERFLOW (.text)


================================================================================

rts2800_ml.lib : ll_div28.asm.obj

Run/Load            
Value     Binding   Name (Section)
--------  --------  ---------------
003eadcf  local     $10 (.text)
003eaddb  local     $15 (.text)
003eae10  local     $20 (.text)
003eae0a  local     $25 (.text)
003eae16  local     $30 (.text)
003eae44  local     $35 (.text)
003eae73  local     $40 (.text)
003eadd5  local     $5_$2 (.text)
00000000  local     .bss (.bss)
00000000  local     .data (.data)
003eadc1  local     .text (.text)
003eade5  local     CHECK_SIGN1 (.text)
003eae20  local     CHECK_SIGN2 (.text)
003eae58  local     DGT3 (.text)
003eae5a  local     DIVUDenHighZero (.text)
003eadef  local     EQ0 (.text)
003eadea  local     EQ1 (.text)
003eae28  local     EQ2 (.text)
003eae53  local     EQ3 (.text)
003eae84  local     EQ4 (.text)
003eadc1  global    LL$$DIV (.text)
003eadfd  global    LL$$MOD (.text)
003eaea3  local     LOOP (.text)
003eae92  local     MAINDIV (.text)
003eaeb1  local     MD_NEQ (.text)
003eae86  local     MODUDenHighZero (.text)
003eade8  local     RET1 (.text)
003eae23  local     RET2 (.text)
003eae51  local     RET3 (.text)
003eae80  local     RET4 (.text)
003eae25  local     RET_NUM1 (.text)
003eae82  local     RET_NUM2 (.text)
003eadf1  local     SDIVUDenHighZero (.text)
003eaebb  local     SKIP (.text)
003eaebd  local     SKIP1 (.text)
003eae2b  local     SMODUDenHighZero (.text)
003eae37  global    ULL$$DIV (.text)
003eae66  global    ULL$$MOD (.text)


================================================================================

rts2800_ml.lib : u_div28.asm.obj

Run/Load            
Value     Binding   Name (Section)
--------  --------  ---------------
00000000  local     .bss (.bss)
00000000  local     .data (.data)
003ee162  local     .text (.text)
003ee162  global    U$$DIV (.text)
003ee167  global    U$$MOD (.text)


================================================================================

rts2800_ml.lib : u_tofd28.asm.obj

Run/Load            
Value     Binding   Name (Section)
--------  --------  ---------------
00000000  local     .bss (.bss)
00000000  local     .data (.data)
003edd0f  local     .text (.text)
003edd1c  local     NORMALIZE (.text)
003edd24  local     OP_ZERO (.text)
003edd1e  local     PACK (.text)
003edd23  local     RETURN (.text)
003edd21  local     RETURN_VALUE (.text)
003edd0f  global    U$$TOFD (.text)


================================================================================

rts2800_ml.lib : u_tofs28.asm.obj

Run/Load            
Value     Binding   Name (Section)
--------  --------  ---------------
00000000  local     .bss (.bss)
00000000  local     .data (.data)
003edf71  local     .text (.text)
003edf80  local     RESTORE (.text)
003edf71  global    U$$TOFS (.text)
003edf80  local     ZERO (.text)


================================================================================

rts2800_ml.lib : l_tofs28.asm.obj

Run/Load            
Value     Binding   Name (Section)
--------  --------  ---------------
00000000  local     .bss (.bss)
00000000  local     .data (.data)
003edb8e  local     .text (.text)
003edb8e  global    L$$TOFS (.text)
003edba4  local     OVERFLOW (.text)
003edba3  local     RETURN (.text)
003edba3  local     ZERO (.text)


================================================================================

rts2800_ml.lib : ul_tofs28.asm.obj

Run/Load            
Value     Binding   Name (Section)
--------  --------  ---------------
00000000  local     .bss (.bss)
00000000  local     .data (.data)
003ede09  local     .text (.text)
003ede11  local     LEFT_SHIFT (.text)
003ede13  local     PACK (.text)
003ede1b  local     RETURN (.text)
003ede09  global    UL$$TOFS (.text)
003ede1b  local     ZERO (.text)


================================================================================

rts2800_ml.lib : prolog28.asm.obj

Run/Load            
Value     Binding   Name (Section)
--------  --------  ---------------
00000000  local     .bss (.bss)
00000000  local     .data (.data)
003edc0c  local     .text (.text)
003edc0c  global    _prolog_c28x_1 (.text)
003edc10  global    _prolog_c28x_2 (.text)
003edc18  global    _prolog_c28x_3 (.text)


================================================================================

rts2800_ml.lib : fs_tofd28.asm.obj

Run/Load            
Value     Binding   Name (Section)
--------  --------  ---------------
00000000  local     .bss (.bss)
00000000  local     .data (.data)
003eda83  local     .text (.text)
003eda83  global    FS$$TOFD (.text)
003eda97  local     OVERFLOW (.text)
003eda96  local     RETURN (.text)
003eda94  local     RETURN_VALUE (.text)
003eda9d  local     UNDERFLOW (.text)


================================================================================

rts2800_ml.lib : fd_div28.asm.obj

Run/Load            
Value     Binding   Name (Section)
--------  --------  ---------------
003ec143  local     $1_$3 (.text)
003ec14e  local     $2_$3 (.text)
00000000  local     .bss (.bss)
00000000  local     .data (.data)
003ec107  local     .text (.text)
003ec15d  local     DIV_END (.text)
003ec13e  local     DIV_START (.text)
003ec107  global    FD$$DIV (.text)
003ec160  local     NORMALIZE (.text)
003ec18a  local     OVERFLOW (.text)
003ec185  local     RETURN (.text)
003ec183  local     RETURN_VALUE (.text)
003ec175  local     RND64_SET_MANT$3$ (.text)
003ec169  local     ROUND (.text)
003ec190  local     UNDERFLOW (.text)


================================================================================

rts2800_ml.lib : cpy_tbl.c.obj

Run/Load            
Value     Binding   Name (Section)
--------  --------  ---------------
003ed73b  local     $C$L1 (.text)
003ed74e  local     $C$L2 (.text)
003ed74f  local     $C$L3 (.text)
00000000  local     .bss (.bss)
00000000  local     .data (.data)
003ed733  local     .text (.text)
003ed733  global    _copy_in (.text)


================================================================================

rts2800_ml.lib : memcpy.c.obj

Run/Load            
Value     Binding   Name (Section)
--------  --------  ---------------
003ed9fc  local     $C$L1 (.text)
003eda00  local     $C$L2 (.text)
003eda07  local     $C$L3 (.text)
003eda09  local     $C$L4 (.text)
003eda11  local     $C$L5 (.text)
00000000  local     .bss (.bss)
00000000  local     .data (.data)
003ed9f6  local     .text (.text)
003ed9f6  global    _memcpy (.text)


================================================================================

rts2800_ml.lib : pre_init.c.obj

Run/Load            
Value     Binding   Name (Section)
--------  --------  ---------------
00000000  local     .bss (.bss)
00000000  local     .data (.data)
003ee6f9  local     .text (.text)
003ee6f9  global    __system_pre_init (.text)


================================================================================

rts2800_ml.lib : startup.c.obj

Run/Load            
Value     Binding   Name (Section)
--------  --------  ---------------
00000000  local     .bss (.bss)
00000000  local     .data (.data)
003ee6ff  local     .text (.text)
003ee6ff  global    __system_post_cinit (.text)


================================================================================

rts2800_ml.lib : e_rem_pio2f.c.obj

Run/Load            
Value     Binding   Name (Section)
--------  --------  ---------------
003f049e  local     $C$FL1 (.econst)
003f04a2  local     $C$FL2 (.econst)
003f04a6  local     $C$FL3 (.econst)
003f04aa  local     $C$FL4 (.econst)
003ebb71  local     $C$L1 (.text)
003ebb7f  local     $C$L2 (.text)
003ebbab  local     $C$L3 (.text)
003ebbb0  local     $C$L4 (.text)
00000000  local     .bss (.bss)
00000000  local     .data (.data)
003f0492  local     .econst (.econst)
003ebb0e  local     .text (.text)
003ebb0e  global    ___rem_pio2f (.text)
003f0492  local     _invpio2 (.econst)
003f0496  local     _pio2_1 (.econst)
003f049a  local     _pio2_1t (.econst)


================================================================================

rts2800_ml.lib : k_rem_pio2.c.obj

Run/Load            
Value     Binding   Name (Section)
--------  --------  ---------------
003f040e  local     $C$FL1 (.econst)
003f0412  local     $C$FL2 (.econst)
003f0416  local     $C$FL3 (.econst)
003f041a  local     $C$FL4 (.econst)
003f041e  local     $C$FL5 (.econst)
003f0422  local     $C$FL6 (.econst)
003f0426  local     $C$FL7 (.econst)
003e98dc  local     $C$L1 (.text)
003e9996  local     $C$L10 (.text)
003e99c3  local     $C$L11 (.text)
003e99e3  local     $C$L12 (.text)
003e9a08  local     $C$L13 (.text)
003e9a27  local     $C$L14 (.text)
003e9a2e  local     $C$L15 (.text)
003e9a4b  local     $C$L16 (.text)
003e9a99  local     $C$L17 (.text)
003e9b05  local     $C$L18 (.text)
003e9b09  local     $C$L19 (.text)
003e9904  local     $C$L2 (.text)
003e9b17  local     $C$L20 (.text)
003e9b40  local     $C$L21 (.text)
003e9b45  local     $C$L22 (.text)
003e9b50  local     $C$L23 (.text)
003e9b5c  local     $C$L24 (.text)
003e9b61  local     $C$L25 (.text)
003e9b67  local     $C$L26 (.text)
003e9b84  local     $C$L27 (.text)
003e9b90  local     $C$L28 (.text)
003e9bbb  local     $C$L29 (.text)
003e990f  local     $C$L3 (.text)
003e9be9  local     $C$L30 (.text)
003e9c34  local     $C$L31 (.text)
003e9c39  local     $C$L32 (.text)
003e9c51  local     $C$L33 (.text)
003e9c5b  local     $C$L34 (.text)
003e9c6a  local     $C$L35 (.text)
003e9c74  local     $C$L36 (.text)
003e9c8f  local     $C$L37 (.text)
003e9c9f  local     $C$L38 (.text)
003e9ca1  local     $C$L39 (.text)
003e991b  local     $C$L4 (.text)
003e9cc1  local     $C$L40 (.text)
003e9ce9  local     $C$L41 (.text)
003e9d00  local     $C$L42 (.text)
003e9d14  local     $C$L43 (.text)
003e9d42  local     $C$L44 (.text)
003e9d60  local     $C$L45 (.text)
003e9d7e  local     $C$L46 (.text)
003e9dcd  local     $C$L47 (.text)
003e9e07  local     $C$L48 (.text)
003e9e1f  local     $C$L49 (.text)
003e992c  local     $C$L5 (.text)
003e9e30  local     $C$L50 (.text)
003e9e4d  local     $C$L51 (.text)
003e9e68  local     $C$L52 (.text)
003e9e7b  local     $C$L53 (.text)
003e9e8c  local     $C$L54 (.text)
003e9e9a  local     $C$L55 (.text)
003e9ea4  local     $C$L56 (.text)
003e9ec5  local     $C$L57 (.text)
003e9ed6  local     $C$L58 (.text)
003e9ee4  local     $C$L59 (.text)
003e9938  local     $C$L6 (.text)
003e9eee  local     $C$L60 (.text)
003e9ef8  local     $C$L61 (.text)
003e9f0b  local     $C$L62 (.text)
003e9f1c  local     $C$L63 (.text)
003e9f2a  local     $C$L64 (.text)
003e9f34  local     $C$L65 (.text)
003e9f3d  local     $C$L66 (.text)
003e9955  local     $C$L7 (.text)
003e997a  local     $C$L8 (.text)
003e998f  local     $C$L9 (.text)
00000000  local     .bss (.bss)
00000000  local     .data (.data)
003f03fe  local     .econst (.econst)
003f0452  local     .econst:_PIo2 (.econst:_PIo2)
003f0532  local     .econst:_init_jk (.econst:_init_jk)
003f032a  local     .econst:_ipio2 (.econst:_ipio2)
003e98ae  local     .text (.text)
003f0452  local     _PIo2 (.econst:_PIo2)
003e98ae  global    ___kernel_rem_pio2 (.text)
003f0532  local     _init_jk (.econst:_init_jk)
003f032a  local     _ipio2 (.econst:_ipio2)
003f0402  local     _one (.econst)
003f0406  local     _two24 (.econst)
003f040a  local     _twon24 (.econst)
003f03fe  local     _zero (.econst)


================================================================================

rts2800_ml.lib : exit.c.obj

Run/Load            
Value     Binding   Name (Section)
--------  --------  ---------------
003ed3da  local     $C$L1 (.text)
003ed3ed  local     $C$L2 (.text)
003ed3f8  local     $C$L3 (.text)
003ed3fe  local     $C$L4 (.text)
00000000  local     .bss (.bss)
003f0bae  local     .cinit (.cinit)
00000000  local     .data (.data)
0000bdfa  local     .ebss (.ebss)
003ed3d9  local     .text (.text)
003ed3d9  global    C$$EXIT (.text)
0000bdfc  global    ___TI_cleanup_ptr (.ebss)
0000bdfe  global    ___TI_dtors_ptr (.ebss)
0000bdfa  global    ___TI_enable_exit_profile_output (.ebss)
003ed3d9  global    _abort (.text)
003ed3db  global    _exit (.text)


================================================================================

rts2800_ml.lib : _lock.c.obj

Run/Load            
Value     Binding   Name (Section)
--------  --------  ---------------
00000000  local     .bss (.bss)
003f0d3c  local     .cinit:__lock (.cinit:__lock)
003f0d41  local     .cinit:__unlock (.cinit:__unlock)
00000000  local     .data (.data)
0000c100  local     .ebss:__lock (.ebss:__lock)
0000c102  local     .ebss:__unlock (.ebss:__unlock)
003ee21c  local     .text (.text)
0000c100  global    __lock (.ebss:__lock)
003ee224  global    __nop (.text)
003ee220  global    __register_lock (.text)
003ee21c  global    __register_unlock (.text)
0000c102  global    __unlock (.ebss:__unlock)


================================================================================

rts2800_ml.lib : args_main.c.obj

Run/Load            
Value     Binding   Name (Section)
--------  --------  ---------------
003edefb  local     $C$L1 (.text)
003edefe  local     $C$L2 (.text)
00000000  local     .bss (.bss)
00000000  local     .data (.data)
003edef0  local     .text (.text)
003edef0  global    __args_main (.text)


================================================================================

rts2800_ml.lib : s_floor.c.obj

Run/Load            
Value     Binding   Name (Section)
--------  --------  ---------------
003f0524  local     $C$FL1 (.econst)
003f0528  local     $C$FL2 (.econst)
003eb3ba  local     $C$L1 (.text)
003eb412  local     $C$L10 (.text)
003eb432  local     $C$L11 (.text)
003eb434  local     $C$L12 (.text)
003eb440  local     $C$L13 (.text)
003eb445  local     $C$L14 (.text)
003eb3bf  local     $C$L2 (.text)
003eb3c0  local     $C$L3 (.text)
003eb3c8  local     $C$L4 (.text)
003eb3db  local     $C$L5 (.text)
003eb3ea  local     $C$L6 (.text)
003eb3ed  local     $C$L7 (.text)
003eb409  local     $C$L8 (.text)
003eb40f  local     $C$L9 (.text)
00000000  local     .bss (.bss)
00000000  local     .data (.data)
003f0520  local     .econst (.econst)
003eb362  local     .text (.text)
003eb362  global    _floorl (.text)
003f0520  local     _huge (.econst)


================================================================================

rts2800_ml.lib : s_scalbn.c.obj

Run/Load            
Value     Binding   Name (Section)
--------  --------  ---------------
003f04ba  local     $C$FL1 (.econst)
003f04be  local     $C$FL2 (.econst)
003f04c2  local     $C$FL3 (.econst)
003f04c6  local     $C$FL4 (.econst)
003eba8a  local     $C$L1 (.text)
003ebaa3  local     $C$L2 (.text)
003ebab5  local     $C$L3 (.text)
003ebac0  local     $C$L4 (.text)
003ebad5  local     $C$L5 (.text)
003ebadb  local     $C$L6 (.text)
003ebae6  local     $C$L7 (.text)
003ebb06  local     $C$L8 (.text)
003ebb0a  local     $C$L9 (.text)
00000000  local     .bss (.bss)
00000000  local     .data (.data)
003f04ae  local     .econst (.econst)
003eba64  local     .text (.text)
003eba64  global    _ldexpl (.text)
003eba64  global    _scalbnl (.text)
003f04b6  local     _tiny (.econst)
003f04ae  local     _two54 (.econst)
003f04b2  local     _twom54 (.econst)


================================================================================

rts2800_ml.lib : s_copysign.c.obj

Run/Load            
Value     Binding   Name (Section)
--------  --------  ---------------
003ed7e1  local     $C$L1 (.text)
00000000  local     .bss (.bss)
00000000  local     .data (.data)
003ed7c0  local     .text (.text)
003ed7c0  global    _copysignl (.text)


================================================================================

rts2800_ml.lib : k_cosf.c.obj

Run/Load            
Value     Binding   Name (Section)
--------  --------  ---------------
003f043e  local     $C$FL1 (.econst)
003f0442  local     $C$FL2 (.econst)
003f0446  local     $C$FL3 (.econst)
003f044a  local     $C$FL4 (.econst)
003f044e  local     $C$FL5 (.econst)
00000000  local     .bss (.bss)
00000000  local     .data (.data)
003f042a  local     .econst (.econst)
003ec219  local     .text (.text)
003f042e  local     _C0 (.econst)
003f0432  local     _C1 (.econst)
003f0436  local     _C2 (.econst)
003f043a  local     _C3 (.econst)
003ec219  global    ___kernel_cosdf (.text)
003f042a  local     _one (.econst)


================================================================================

rts2800_ml.lib : k_sinf.c.obj

Run/Load            
Value     Binding   Name (Section)
--------  --------  ---------------
003f0482  local     $C$FL1 (.econst)
003f0486  local     $C$FL2 (.econst)
003f048a  local     $C$FL3 (.econst)
003f048e  local     $C$FL4 (.econst)
00000000  local     .bss (.bss)
00000000  local     .data (.data)
003f0472  local     .econst (.econst)
003ebfe5  local     .text (.text)
003f0472  local     _S1 (.econst)
003f0476  local     _S2 (.econst)
003f047a  local     _S3 (.econst)
003f047e  local     _S4 (.econst)
003ebfe5  global    ___kernel_sindf (.text)


================================================================================

rts2800_ml.lib : fd_cmp28.asm.obj

Run/Load            
Value     Binding   Name (Section)
--------  --------  ---------------
00000000  local     .bss (.bss)
00000000  local     .data (.data)
003ed3af  local     .text (.text)
003ed3bf  local     CHECK_INF (.text)
003ed3af  global    FD$$CMP (.text)
003ed3d6  local     NO_NEG (.text)
003ed3d7  local     OP_EQUAL (.text)
003ed3cf  local     RETURN (.text)


================================================================================

rts2800_ml.lib : fd_tol28.asm.obj

Run/Load            
Value     Binding   Name (Section)
--------  --------  ---------------
00000000  local     .bss (.bss)
00000000  local     .data (.data)
003ed946  local     .text (.text)
003ed946  global    FD$$TOL (.text)
003ed95f  local     OVERFLOW (.text)
003ed95e  local     RETURN_VALUE (.text)
003ed963  local     UNDERFLOW (.text)


================================================================================

rts2800_ml.lib : ll_aox28.asm.obj

Run/Load            
Value     Binding   Name (Section)
--------  --------  ---------------
00000000  local     .bss (.bss)
00000000  local     .data (.data)
003edc6d  local     .text (.text)
003edc6d  global    LL$$AND (.text)
003edc75  global    LL$$OR (.text)
003edc7d  global    LL$$XOR (.text)


================================================================================

rts2800_ml.lib : i_div28.asm.obj

Run/Load            
Value     Binding   Name (Section)
--------  --------  ---------------
00000000  local     .bss (.bss)
00000000  local     .data (.data)
003ed7e3  local     .text (.text)
003ed7e3  global    I$$DIV (.text)
003ed7f4  global    I$$MOD (.text)
003ed7f3  local     RET1 (.text)
003ed803  local     RET2 (.text)


================================================================================

rts2800_ml.lib : l_tofd28.asm.obj

Run/Load            
Value     Binding   Name (Section)
--------  --------  ---------------
003edaad  local     $10 (.text)
00000000  local     .bss (.bss)
00000000  local     .data (.data)
003eda9f  local     .text (.text)
003eda9f  global    L$$TOFD (.text)
003edab9  local     OP_ZERO (.text)
003edab8  local     RETURN (.text)
003edab6  local     RETURN_VALUE (.text)


================================================================================

rts2800_ml.lib : fd_tofs28.asm.obj

Run/Load            
Value     Binding   Name (Section)
--------  --------  ---------------
00000000  local     .bss (.bss)
00000000  local     .data (.data)
003ed847  local     .text (.text)
003ed854  local     EXP_EVAL (.text)
003ed847  global    FD$$TOFS (.text)
003ed860  local     OVERFLOW (.text)
003ed85f  local     RETURN_VALUE (.text)
003ed866  local     UNDERFLOW (.text)


================================================================================

rts2800_ml.lib : errno.c.obj

Run/Load            
Value     Binding   Name (Section)
--------  --------  ---------------
00000000  local     .bss (.bss)
003f0d90  local     .cinit (.cinit)
00000000  local     .data (.data)
0000c120  local     .ebss (.ebss)
00000000  local     .text (.text)
0000c120  global    _errno (.ebss)


================================================================================

