******************************************************************************
             TMS320C2000 Linker PC v22.6.0                     
******************************************************************************
>> Linked Sat Sep 24 23:22:15 2022

OUTPUT FILE NAME:   <../../../04_Output_Files/Motor28062/TEST_CSMON_C28xx.out>
ENTRY POINT SYMBOL: "_c_int00"  address: 003f0ecd


MEMORY CONFIGURATION

         name            origin    length      used     unused   attr    fill
----------------------  --------  ---------  --------  --------  ----  --------
PAGE 0:
  RAML0                 00008000   00000800  00000008  000007f8  RWIX
  RAML1                 00008800   00000400  00000000  00000400  RWIX
  OTP                   003d7800   00000400  00000000  00000400  RWIX
  FLASH_APP             003e8000   0000bf80  0000b55a  00000a26  RWIX
  CSM_RSVD              003f7f80   00000076  00000076  00000000  RWIX
  BEGIN                 003f7ff6   00000002  00000000  00000002  RWIX
  CSM_PWL_P0            003f7ff8   00000008  00000008  00000000  RWIX
  FPUTABLES             003fd590   000006a0  00000000  000006a0  RWIX
  IQTABLES              003fdf00   00000b50  00000000  00000b50  RWIX
  IQTABLES2             003fea50   0000008c  00000000  0000008c  RWIX
  IQTABLES3             003feadc   000000aa  00000000  000000aa  RWIX
  ROM                   003ff3b0   00000c10  00000000  00000c10  RWIX
  RESET                 003fffc0   00000002  00000000  00000002  RWIX
  VECTORS               003fffc2   0000003e  00000000  0000003e  RWIX

PAGE 1:
  BOOT_RSVD             00000000   00000050  00000000  00000050  RWIX
  RAMM0                 00000050   000003b0  00000380  00000030  RWIX
  RAMM1                 00000400   00000400  00000000  00000400  RWIX
  DEV_EMU               00000880   00000105  00000004  00000101  RWIX
  SYS_PWR_CTL           00000985   00000003  00000003  00000000  RWIX
  FLASH_REGS            00000a80   00000060  00000008  00000058  RWIX
  CSM                   00000ae0   00000020  00000010  00000010  RWIX
  ADC_RESULT            00000b00   00000020  00000010  00000010  RWIX
  CPU_TIMER0            00000c00   00000008  00000008  00000000  RWIX
  CPU_TIMER1            00000c08   00000008  00000008  00000000  RWIX
  CPU_TIMER2            00000c10   00000008  00000008  00000000  RWIX
  PIE_CTRL              00000ce0   00000020  0000001a  00000006  RWIX
  PIE_VECT              00000d00   00000100  00000100  00000000  RWIX
  DMA                   00001000   00000200  000000e0  00000120  RWIX
  CLA1                  00001400   00000080  00000040  00000040  RWIX
  USB0                  00004000   00001000  00000454  00000bac  RWIX
  McBSPA                00005000   00000040  00000024  0000001c  RWIX
  ECANA                 00006000   00000040  00000034  0000000c  RWIX
  ECANA_LAM             00006040   00000040  00000040  00000000  RWIX
  ECANA_MOTS            00006080   00000040  00000040  00000000  RWIX
  ECANA_MOTO            000060c0   00000040  00000040  00000000  RWIX
  ECANA_MBOX            00006100   00000100  00000100  00000000  RWIX
  COMP1                 00006400   00000020  00000014  0000000c  RWIX
  COMP2                 00006420   00000020  00000014  0000000c  RWIX
  COMP3                 00006440   00000020  00000014  0000000c  RWIX
  EPWM1                 00006800   00000040  00000040  00000000  RWIX
  EPWM2                 00006840   00000040  00000040  00000000  RWIX
  EPWM3                 00006880   00000040  00000040  00000000  RWIX
  EPWM4                 000068c0   00000040  00000040  00000000  RWIX
  EPWM5                 00006900   00000040  00000040  00000000  RWIX
  EPWM6                 00006940   00000040  00000040  00000000  RWIX
  EPWM7                 00006980   00000040  00000040  00000000  RWIX
  EPWM8                 000069c0   00000040  00000040  00000000  RWIX
  ECAP1                 00006a00   00000020  00000020  00000000  RWIX
  ECAP2                 00006a20   00000020  00000020  00000000  RWIX
  ECAP3                 00006a40   00000020  00000020  00000000  RWIX
  HRCAP1                00006ac0   00000020  00000020  00000000  RWIX
  HRCAP2                00006ae0   00000020  00000020  00000000  RWIX
  EQEP1                 00006b00   00000040  00000022  0000001e  RWIX
  EQEP2                 00006b40   00000040  00000022  0000001e  RWIX
  HRCAP3                00006c80   00000020  00000020  00000000  RWIX
  HRCAP4                00006ca0   00000020  00000020  00000000  RWIX
  GPIOCTRL              00006f80   00000040  00000040  00000000  RWIX
  GPIODAT               00006fc0   00000020  00000020  00000000  RWIX
  GPIOINT               00006fe0   00000020  00000020  00000000  RWIX
  SYSTEM                00007010   00000030  00000030  00000000  RWIX
  SPIA                  00007040   00000010  00000010  00000000  RWIX
  SCIA                  00007050   00000010  00000010  00000000  RWIX
  NMIINTRUPT            00007060   00000010  00000010  00000000  RWIX
  XINTRUPT              00007070   00000010  00000010  00000000  RWIX
  ADC                   00007100   00000080  00000050  00000030  RWIX
  SPIB                  00007740   00000010  00000010  00000000  RWIX
  SCIB                  00007750   00000010  00000010  00000000  RWIX
  I2CA                  00007900   00000040  00000022  0000001e  RWIX
  RAML2                 00008c00   00000400  00000000  00000400  RWIX
  RAML3                 00009000   00001000  00000000  00001000  RWIX
  RAML4                 0000a000   00002000  00002000  00000000  RWIX
  RAML5                 0000c000   00002000  00001c59  000003a7  RWIX
  RAML6                 0000e000   00002000  00000000  00002000  RWIX
  RAML7                 00010000   00002000  00000000  00002000  RWIX
  RAML8                 00012000   00002000  00000000  00002000  RWIX
  USB_RAM               00040000   00000800  00000000  00000800  RWIX
  PARTID                003d7e80   00000001  00000001  00000000  RWIX
  CSM_PWL               003f7ff8   00000008  00000008  00000000  RWIX


SECTION ALLOCATION MAP

 output                                  attributes/
section   page    origin      length       input sections
--------  ----  ----------  ----------   ----------------
.cinit     0    003f2bc8    00000973     
                  003f2bc8    0000021f     CSMON_C28xx.lib : hmmodbus.obj (.cinit)
                  003f2de7    00000154     main.obj (.cinit)
                  003f2f3b    00000131     CSMON_C28xx.lib : csmon.obj (.cinit)
                  003f306c    000000c3                     : modbusreg.obj (.cinit:_QueueTestTable)
                  003f312f    00000078                     : modbusreg.obj (.cinit)
                  003f31a7    0000003f                     : csmon.obj (.cinit:_CSMON_au8FileRecorderDataElementsSizeTable)
                  003f31e6    00000033                     : hmrecparam.obj (.cinit:_sRecStatusParam)
                  003f3219    00000030                     : csmon.obj (.cinit:_CSMON_au8FileRecorderConfigElementsSizeTable)
                  003f3249    0000002b                     : csmon.obj (.cinit:_CSMON_au8FileScopeConfigurationElementsSizeTable)
                  003f3274    00000028     io_drv.obj (.cinit)
                  003f329c    00000026     rtc_drv.obj (.cinit)
                  003f32c2    0000001f     CSMON_C28xx.lib : hmrecparam.obj (.cinit:_sRecStatusParamInternal)
                  003f32e1    00000016     main.obj (.cinit:_sExternalRecoderHandle)
                  003f32f7    00000014     CSMON_C28xx.lib : hmdrv.obj (.cinit)
                  003f330b    00000014                     : hmprotocol.obj (.cinit)
                  003f331f    00000013                     : modbusreg.obj (.cinit:_MODBUSREG_au8DeviceIDUserApplicationName)
                  003f3332    00000013                     : modbusreg.obj (.cinit:_MODBUSREG_au8DeviceIDVendorUrl)
                  003f3345    00000013                     : modbusreg.obj (.cinit:_MODBUSREG_au8ServerIDData)
                  003f3358    0000000f                     : modbusreg.obj (.cinit:_MODBUSREG_au8DeviceIDModelName)
                  003f3367    0000000f     device.obj (.cinit)
                  003f3376    0000000e     rts2800_ml.lib : exit.c.obj (.cinit)
                  003f3384    0000000d     CSMON_C28xx.lib : csmon.obj (.cinit:_CSMON_au8FileParameterCountElementsSizeTable)
                  003f3391    0000000d                     : csmon.obj (.cinit:_CSMON_au8FileRTCElementsSizeTable)
                  003f339e    0000000d     tmr_drv.obj (.cinit)
                  003f33ab    0000000c     CSMON_C28xx.lib : csmon.obj (.cinit:_CSMON_au8FileParameterNumericElementsSizeTable)
                  003f33b7    0000000c                     : modbusreg.obj (.cinit:_MODBUSREG_au8DeviceIDProductName)
                  003f33c3    0000000c                     : modbusreg.obj (.cinit:_MODBUSREG_au8DeviceIDUserReserve0)
                  003f33cf    0000000c                     : modbusreg.obj (.cinit:_MODBUSREG_au8DeviceIDUserReserve1)
                  003f33db    0000000c                     : modbusreg.obj (.cinit:_MODBUSREG_au8DeviceIDUserReserve2)
                  003f33e7    0000000c                     : modbusreg.obj (.cinit:_MODBUSREG_au8DeviceIDVendorName)
                  003f33f3    0000000b                     : hmrecparam.obj (.cinit)
                  003f33fe    0000000b     uart_driver.obj (.cinit:_UART_DRV_RXIntOverflowCounter)
                  003f3409    0000000b     uart_driver.obj (.cinit:_UART_DRV_u32TimeDiffLast)
                  003f3414    0000000b     uart_driver.obj (.cinit:_UART_DRV_u32TimeDiffNow)
                  003f341f    0000000b     uart_driver.obj (.cinit:_UART_DRV_u32TimeDiffRead)
                  003f342a    0000000b     CSMON_C28xx.lib : uart_drv.obj (.cinit:_UART_RXIntOverflowCounter)
                  003f3435    0000000b     tmr_drv.obj (.cinit:_pfDelayedFunction)
                  003f3440    0000000b     tmr_drv.obj (.cinit:_pfDelayedFunction_u8)
                  003f344b    0000000b     CSMON_C28xx.lib : uart_drv.obj (.cinit:_u32TimeDiffLast)
                  003f3456    0000000b                     : uart_drv.obj (.cinit:_u32TimeDiffNow)
                  003f3461    0000000b                     : uart_drv.obj (.cinit:_u32TimeDiffRead)
                  003f346c    00000009                     : hmserial.obj (.cinit)
                  003f3475    00000009                     : csmon.obj (.cinit:_CSMON_au32FileAutorization_FunctionAfterWriteFileRecord)
                  003f347e    00000009                     : hmscopeparam.obj (.cinit:_pBufferScope)
                  003f3487    00000008                     : hmlib.obj (.cinit)
                  003f348f    00000007                     : csmon.obj (.cinit:_CSMON_au8FileParameterListElementsSizeTablePart1)
                  003f3496    00000007                     : csmon.obj (.cinit:_CSMON_au8FileRecorderStatusElementsSizeTable)
                  003f349d    00000007                     : modbusreg.obj (.cinit:_MODBUSREG_au8DeviceIDMajorMinorRevision)
                  003f34a4    00000007                     : modbusreg.obj (.cinit:_MODBUSREG_au8DeviceIDProductCode)
                  003f34ab    00000007                     : uart_drv.obj (.cinit:_UARTRxBufferRDCount)
                  003f34b2    00000007                     : uart_drv.obj (.cinit:_UARTRxBufferRDIndex)
                  003f34b9    00000007                     : uart_drv.obj (.cinit:_UARTRxBufferWRCount)
                  003f34c0    00000007                     : uart_drv.obj (.cinit:_UARTRxBufferWRIndex)
                  003f34c7    00000007     uart_driver.obj (.cinit:_UART_DRV_RxBufferRDCount)
                  003f34ce    00000007     uart_driver.obj (.cinit:_UART_DRV_RxBufferRDIndex)
                  003f34d5    00000007     uart_driver.obj (.cinit:_UART_DRV_RxBufferWRCount)
                  003f34dc    00000007     uart_driver.obj (.cinit:_UART_DRV_RxBufferWRIndex)
                  003f34e3    00000006     CSMON_C28xx.lib : csmon.obj (.cinit:_CSMON_abFileAutorization_RecordReadOnly)
                  003f34e9    00000006                     : csmon.obj (.cinit:_CSMON_abFileAutorization_RecordStringData)
                  003f34ef    00000006                     : csmon.obj (.cinit:_CSMON_au16FileAutorization_RecordOffsets)
                  003f34f5    00000006                     : csmon.obj (.cinit:_CSMON_au8FileRecorderDataElementsSizeTableUsedLength)
                  003f34fb    00000006                     : hmscopeparam.obj (.cinit:_nSizeBytesScopeBuffer)
                  003f3501    00000005                     : modbusreg.obj (.cinit:_HMMODBUS_u32CoilAddressTableInRam)
                  003f3506    00000005                     : modbusreg.obj (.cinit:_MODBUSREG_sInputCoilAddressTableInRam)
                  003f350b    00000005     rts2800_ml.lib : _lock.c.obj (.cinit:__lock)
                  003f3510    00000005                    : _lock.c.obj (.cinit:__unlock)
                  003f3515    00000004     CSMON_C28xx.lib : hmscopeparam.obj (.cinit)
                  003f3519    00000004                     : uart_drv.obj (.cinit)
                  003f351d    00000004                     : csmon.obj (.cinit:_CSMON_au8FileParameterListElementsSizeTablePart2)
                  003f3521    00000004                     : csmon.obj (.cinit:_CSMON_au8FileParameterListElementsSizeTablePart3)
                  003f3525    00000004                     : csmon.obj (.cinit:_CSMON_au8FileScopeStatusElementsSizeTable)
                  003f3529    00000004                     : modbusreg.obj (.cinit:_MODBUSREG_asFileTable)
                  003f352d    00000004                     : modbusreg.obj (.cinit:_MODBUSREG_asQueueTable)
                  003f3531    00000004                     : hmrecparam.obj (.cinit:_sRecTimeBase)
                  003f3535    00000004     rts2800_ml.lib : errno.c.obj (.cinit)
                  003f3539    00000002     --HOLE-- [fill = 0]

.pinit     0    003e8000    00000000     UNINITIALIZED

.text      0    003e8000    00009261     
                  003e8000    00002140     CSMON_C28xx.lib : hmmodbus.obj (.text)
                  003ea140    00001f04                     : csmon.obj (.text)
                  003ec044    00000d7a                     : modbusreg.obj (.text)
                  003ecdbe    00000983                     : hmdrv.obj (.text)
                  003ed741    00000698     rts2800_ml.lib : k_rem_pio2.c.obj (.text)
                  003eddd9    00000606     CSMON_C28xx.lib : hmrecparam.obj (.text)
                  003ee3df    000004de     main.obj (.text)
                  003ee8bd    00000444     sysctl.obj (.text)
                  003eed01    00000242     CSMON_C28xx.lib : Hash.obj (.text)
                  003eef43    0000021f                     : hmrec.obj (.text)
                  003ef162    00000202                     : hmserial.obj (.text)
                  003ef364    000001cc     F2806x_DefaultIsr.obj (.text:retain)
                  003ef530    000001bf     CSMON_C28xx.lib : hmprotocol.obj (.text)
                  003ef6ef    0000019a                     : uart_drv.obj (.text)
                  003ef889    00000192     F2806x_SysCtrl.obj (.text)
                  003efa1b    0000018c     gpio.obj (.text)
                  003efba7    00000177     interrupt.obj (.text)
                  003efd1e    00000155     CSMON_C28xx.lib : hmlib.obj (.text)
                  003efe73    0000013c                     : hmscopeparam.obj (.text)
                  003effaf    00000130     uart_driver.obj (.text)
                  003f00df    00000114     rts2800_ml.lib : s_sinf.c.obj (.text)
                  003f01f3    00000107                    : ll_div28.asm.obj (.text)
                  003f02fa    000000ea     tmr_drv.obj (.text)
                  003f03e4    000000e8     rts2800_ml.lib : s_floor.c.obj (.text)
                  003f04cc    000000d3     sci.obj (.text)
                  003f059f    000000ae     tmr_drv.obj (.text:retain)
                  003f064d    000000aa     rts2800_ml.lib : s_scalbn.c.obj (.text)
                  003f06f7    000000a7                    : e_rem_pio2f.c.obj (.text)
                  003f079e    0000009c                    : fd_add28.asm.obj (.text)
                  003f083a    00000094     sci_driver.obj (.text)
                  003f08ce    00000092     rts2800_ml.lib : k_sinf.c.obj (.text)
                  003f0960    00000090     sci_driver.obj (.text:retain)
                  003f09f0    00000090     sci_drv.obj (.text:retain)
                  003f0a80    0000008f     sci_drv.obj (.text)
                  003f0b0f    0000008b     rts2800_ml.lib : fd_div28.asm.obj (.text)
                  003f0b9a    00000087                    : k_cosf.c.obj (.text)
                  003f0c21    00000083                    : fd_mpy28.asm.obj (.text)
                  003f0ca4    00000083                    : fs_div28.asm.obj (.text)
                  003f0d27    00000078                    : fs_add28.asm.obj (.text)
                  003f0d9f    00000071     CSMON_C28xx.lib : hmscope.obj (.text)
                  003f0e10    00000063     int_drv.obj (.text)
                  003f0e73    0000005a     rts2800_ml.lib : fs_mpy28.asm.obj (.text)
                  003f0ecd    00000054                    : boot28.asm.obj (.text)
                  003f0f21    0000002a                    : fd_cmp28.asm.obj (.text)
                  003f0f4b    00000029                    : exit.c.obj (.text)
                  003f0f74    00000029                    : fs_tol28.asm.obj (.text)
                  003f0f9d    00000028     F2806x_PieCtrl.obj (.text)
                  003f0fc5    00000025     rts2800_ml.lib : fs_toi28.asm.obj (.text)
                  003f0fea    00000024                    : cpy_tbl.c.obj (.text)
                  003f100e    00000023                    : s_copysign.c.obj (.text)
                  003f1031    00000022                    : i_div28.asm.obj (.text)
                  003f1053    00000021                    : fd_tofs28.asm.obj (.text)
                  003f1074    00000021                    : fs_toul28.asm.obj (.text)
                  003f1095    0000001f                    : fd_tol28.asm.obj (.text)
                  003f10b4    0000001e     device.obj (.text)
                  003f10d2    0000001d     rts2800_ml.lib : fs_tou28.asm.obj (.text)
                  003f10ef    0000001d                    : memcpy.c.obj (.text)
                  003f110c    0000001c                    : fs_tofd28.asm.obj (.text)
                  003f1128    0000001c                    : l_tofd28.asm.obj (.text)
                  003f1144    0000001b                    : fd_toul28.asm.obj (.text)
                  003f115f    0000001a                    : l_tofs28.asm.obj (.text)
                  003f1179    00000018                    : ll_aox28.asm.obj (.text)
                  003f1191    00000017                    : fs_cmp28.asm.obj (.text)
                  003f11a8    00000017                    : u_tofd28.asm.obj (.text)
                  003f11bf    00000015     F2806x_Gpio.obj (.text)
                  003f11d4    00000013     rts2800_ml.lib : ul_tofs28.asm.obj (.text)
                  003f11e7    00000011     F2806x_PieVect.obj (.text)
                  003f11f8    00000011     rts2800_ml.lib : args_main.c.obj (.text)
                  003f1209    00000010                    : u_tofs28.asm.obj (.text)
                  003f1219    0000000e                    : fd_sub28.asm.obj (.text)
                  003f1227    0000000b                    : u_div28.asm.obj (.text)
                  003f1232    00000009                    : _lock.c.obj (.text)
                  003f123b    00000009                    : fd_neg28.asm.obj (.text)
                  003f1244    00000007     F2806x_DisInt.obj (.text)
                  003f124b    00000006     cputimer.obj (.text)
                  003f1251    00000005     interrupt.obj (.text:retain)
                  003f1256    00000005     rts2800_ml.lib : fs_neg28.asm.obj (.text)
                  003f125b    00000003     F2806x_DBGIER.obj (.text)
                  003f125e    00000002     rts2800_ml.lib : pre_init.c.obj (.text)
                  003f1260    00000001                    : startup.c.obj (.text)

ramfuncs   0    003f1261    00000008     RUN ADDR = 00008000
                  003f1261    00000004     sysctl.obj (ramfuncs)
                  003f1265    00000004     F2806x_usDelay.obj (ramfuncs)

csm_rsvd   0    003f7f80    00000076     
                  003f7f80    00000076     F2806x_CSMPasswords.obj (csm_rsvd)

csmpasswds 
*          0    003f7ff8    00000008     
                  003f7ff8    00000008     F2806x_CSMPasswords.obj (csmpasswds)

.stack     1    00000050    00000380     UNINITIALIZED
                  00000050    00000380     --HOLE--

.econst    0    003f126a    0000195e     
                  003f126a    00001400     main.obj (.econst:_asParameterList)
                  003f266a    00000100     CSMON_C28xx.lib : hmmodbus.obj (.econst:.string:_auchCRCHi)
                  003f276a    00000100                     : hmmodbus.obj (.econst:.string:_auchCRCLo)
                  003f286a    00000100     F2806x_PieVect.obj (.econst:_PieVectTableInit)
                  003f296a    00000084     rts2800_ml.lib : k_rem_pio2.c.obj (.econst:_ipio2)
                  003f29ee    00000050     CSMON_C28xx.lib : csmon.obj (.econst:_CSMON_asAccessLevelPasswords)
                  003f2a3e    0000002c     rts2800_ml.lib : k_rem_pio2.c.obj (.econst)
                  003f2a6a    00000028                    : k_cosf.c.obj (.econst)
                  003f2a92    00000020                    : k_rem_pio2.c.obj (.econst:_PIo2)
                  003f2ab2    00000020                    : k_sinf.c.obj (.econst)
                  003f2ad2    0000001f     CSMON_C28xx.lib : Hash.obj (.econst:.string:_noPrime8)
                  003f2af1    0000001d                     : Hash.obj (.econst:.string:_prime8)
                  003f2b0e    0000001c     rts2800_ml.lib : e_rem_pio2f.c.obj (.econst)
                  003f2b2a    0000001c                    : s_scalbn.c.obj (.econst)
                  003f2b46    00000018     CSMON_C28xx.lib : csmon.obj (.econst:_$P$T45$2)
                  003f2b5e    00000018     rts2800_ml.lib : s_sinf.c.obj (.econst)
                  003f2b76    00000014     CSMON_C28xx.lib : csmon.obj (.econst:_CSMON_au8FileImplementedFunctionCodes)
                  003f2b8a    00000010     main.obj (.econst)
                  003f2b9a    0000000c     CSMON_C28xx.lib : hmprotocol.obj (.econst:.string)
                  003f2ba6    0000000c     rts2800_ml.lib : s_floor.c.obj (.econst)
                  003f2bb2    00000006     CSMON_C28xx.lib : csmon.obj (.econst:_$P$T44$1)
                  003f2bb8    00000004     rts2800_ml.lib : k_rem_pio2.c.obj (.econst:_init_jk)
                  003f2bbc    00000003     CSMON_C28xx.lib : csmon.obj (.econst:_CSMON_au8FileParameterListElementsCountInPartTable)
                  003f2bbf    00000003                     : modbusreg.obj (.econst:_HMMODBUS_u32CoilAddressTable)
                  003f2bc2    00000003                     : modbusreg.obj (.econst:_MODBUSREG_sInputCoilAddressTable)
                  003f2bc5    00000003                     : modbusreg.obj (.econst:_MODBUSREG_sInputRegisterAddressTable)

.switch    0    003f353c    00000020     
                  003f353c    00000020     CSMON_C28xx.lib : csmon.obj (.switch:_CSMON_eSetParameter)

.reset     0    003fffc0    00000002     DSECT
                  003fffc0    00000002     rts2800_ml.lib : boot28.asm.obj (.reset)

vectors    0    003fffc2    00000000     DSECT

DevEmuRegsFile 
*          1    00000880    00000004     UNINITIALIZED
                  00000880    00000004     F2806x_GlobalVariableDefs.obj (DevEmuRegsFile)

SysPwrCtrlRegsFile 
*          1    00000985    00000003     UNINITIALIZED
                  00000985    00000003     F2806x_GlobalVariableDefs.obj (SysPwrCtrlRegsFile)

FlashRegsFile 
*          1    00000a80    00000008     UNINITIALIZED
                  00000a80    00000008     F2806x_GlobalVariableDefs.obj (FlashRegsFile)

CsmRegsFile 
*          1    00000ae0    00000010     UNINITIALIZED
                  00000ae0    00000010     F2806x_GlobalVariableDefs.obj (CsmRegsFile)

AdcResultFile 
*          1    00000b00    00000010     UNINITIALIZED
                  00000b00    00000010     F2806x_GlobalVariableDefs.obj (AdcResultFile)

CpuTimer0RegsFile 
*          1    00000c00    00000008     UNINITIALIZED
                  00000c00    00000008     F2806x_GlobalVariableDefs.obj (CpuTimer0RegsFile)

CpuTimer1RegsFile 
*          1    00000c08    00000008     UNINITIALIZED
                  00000c08    00000008     F2806x_GlobalVariableDefs.obj (CpuTimer1RegsFile)

CpuTimer2RegsFile 
*          1    00000c10    00000008     UNINITIALIZED
                  00000c10    00000008     F2806x_GlobalVariableDefs.obj (CpuTimer2RegsFile)

PieCtrlRegsFile 
*          1    00000ce0    0000001a     UNINITIALIZED
                  00000ce0    0000001a     F2806x_GlobalVariableDefs.obj (PieCtrlRegsFile)

PieVectTableFile 
*          1    00000d00    00000100     UNINITIALIZED
                  00000d00    00000100     F2806x_GlobalVariableDefs.obj (PieVectTableFile)

EmuKeyVar 
*          1    00000d00    00000001     UNINITIALIZED
                  00000d00    00000001     F2806x_GlobalVariableDefs.obj (EmuKeyVar)

EmuBModeVar 
*          1    00000d01    00000001     UNINITIALIZED
                  00000d01    00000001     F2806x_GlobalVariableDefs.obj (EmuBModeVar)

FlashCallbackVar 
*          1    00000d02    00000002     UNINITIALIZED
                  00000d02    00000002     F2806x_GlobalVariableDefs.obj (FlashCallbackVar)

FlashScalingVar 
*          1    00000d04    00000002     UNINITIALIZED
                  00000d04    00000002     F2806x_GlobalVariableDefs.obj (FlashScalingVar)

DmaRegsFile 
*          1    00001000    000000e0     UNINITIALIZED
                  00001000    000000e0     F2806x_GlobalVariableDefs.obj (DmaRegsFile)

Cla1RegsFile 
*          1    00001400    00000040     UNINITIALIZED
                  00001400    00000040     F2806x_GlobalVariableDefs.obj (Cla1RegsFile)

Usb0RegsFile 
*          1    00004000    00000454     UNINITIALIZED
                  00004000    00000454     F2806x_GlobalVariableDefs.obj (Usb0RegsFile)

McbspaRegsFile 
*          1    00005000    00000024     UNINITIALIZED
                  00005000    00000024     F2806x_GlobalVariableDefs.obj (McbspaRegsFile)

ECanaRegsFile 
*          1    00006000    00000034     UNINITIALIZED
                  00006000    00000034     F2806x_GlobalVariableDefs.obj (ECanaRegsFile)

ECanaLAMRegsFile 
*          1    00006040    00000040     UNINITIALIZED
                  00006040    00000040     F2806x_GlobalVariableDefs.obj (ECanaLAMRegsFile)

ECanaMOTSRegsFile 
*          1    00006080    00000040     UNINITIALIZED
                  00006080    00000040     F2806x_GlobalVariableDefs.obj (ECanaMOTSRegsFile)

ECanaMOTORegsFile 
*          1    000060c0    00000040     UNINITIALIZED
                  000060c0    00000040     F2806x_GlobalVariableDefs.obj (ECanaMOTORegsFile)

ECanaMboxesFile 
*          1    00006100    00000100     UNINITIALIZED
                  00006100    00000100     F2806x_GlobalVariableDefs.obj (ECanaMboxesFile)

Comp1RegsFile 
*          1    00006400    00000014     UNINITIALIZED
                  00006400    00000014     F2806x_GlobalVariableDefs.obj (Comp1RegsFile)

Comp2RegsFile 
*          1    00006420    00000014     UNINITIALIZED
                  00006420    00000014     F2806x_GlobalVariableDefs.obj (Comp2RegsFile)

Comp3RegsFile 
*          1    00006440    00000014     UNINITIALIZED
                  00006440    00000014     F2806x_GlobalVariableDefs.obj (Comp3RegsFile)

EPwm1RegsFile 
*          1    00006800    00000040     UNINITIALIZED
                  00006800    00000040     F2806x_GlobalVariableDefs.obj (EPwm1RegsFile)

EPwm2RegsFile 
*          1    00006840    00000040     UNINITIALIZED
                  00006840    00000040     F2806x_GlobalVariableDefs.obj (EPwm2RegsFile)

EPwm3RegsFile 
*          1    00006880    00000040     UNINITIALIZED
                  00006880    00000040     F2806x_GlobalVariableDefs.obj (EPwm3RegsFile)

EPwm4RegsFile 
*          1    000068c0    00000040     UNINITIALIZED
                  000068c0    00000040     F2806x_GlobalVariableDefs.obj (EPwm4RegsFile)

EPwm5RegsFile 
*          1    00006900    00000040     UNINITIALIZED
                  00006900    00000040     F2806x_GlobalVariableDefs.obj (EPwm5RegsFile)

EPwm6RegsFile 
*          1    00006940    00000040     UNINITIALIZED
                  00006940    00000040     F2806x_GlobalVariableDefs.obj (EPwm6RegsFile)

EPwm7RegsFile 
*          1    00006980    00000040     UNINITIALIZED
                  00006980    00000040     F2806x_GlobalVariableDefs.obj (EPwm7RegsFile)

EPwm8RegsFile 
*          1    000069c0    00000040     UNINITIALIZED
                  000069c0    00000040     F2806x_GlobalVariableDefs.obj (EPwm8RegsFile)

ECap1RegsFile 
*          1    00006a00    00000020     UNINITIALIZED
                  00006a00    00000020     F2806x_GlobalVariableDefs.obj (ECap1RegsFile)

ECap2RegsFile 
*          1    00006a20    00000020     UNINITIALIZED
                  00006a20    00000020     F2806x_GlobalVariableDefs.obj (ECap2RegsFile)

ECap3RegsFile 
*          1    00006a40    00000020     UNINITIALIZED
                  00006a40    00000020     F2806x_GlobalVariableDefs.obj (ECap3RegsFile)

HRCap1RegsFile 
*          1    00006ac0    00000020     UNINITIALIZED
                  00006ac0    00000020     F2806x_GlobalVariableDefs.obj (HRCap1RegsFile)

HRCap2RegsFile 
*          1    00006ae0    00000020     UNINITIALIZED
                  00006ae0    00000020     F2806x_GlobalVariableDefs.obj (HRCap2RegsFile)

EQep1RegsFile 
*          1    00006b00    00000022     UNINITIALIZED
                  00006b00    00000022     F2806x_GlobalVariableDefs.obj (EQep1RegsFile)

EQep2RegsFile 
*          1    00006b40    00000022     UNINITIALIZED
                  00006b40    00000022     F2806x_GlobalVariableDefs.obj (EQep2RegsFile)

HRCap3RegsFile 
*          1    00006c80    00000020     UNINITIALIZED
                  00006c80    00000020     F2806x_GlobalVariableDefs.obj (HRCap3RegsFile)

HRCap4RegsFile 
*          1    00006ca0    00000020     UNINITIALIZED
                  00006ca0    00000020     F2806x_GlobalVariableDefs.obj (HRCap4RegsFile)

GpioCtrlRegsFile 
*          1    00006f80    00000040     UNINITIALIZED
                  00006f80    00000040     F2806x_GlobalVariableDefs.obj (GpioCtrlRegsFile)

GpioDataRegsFile 
*          1    00006fc0    00000020     UNINITIALIZED
                  00006fc0    00000020     F2806x_GlobalVariableDefs.obj (GpioDataRegsFile)

GpioIntRegsFile 
*          1    00006fe0    00000020     UNINITIALIZED
                  00006fe0    00000020     F2806x_GlobalVariableDefs.obj (GpioIntRegsFile)

SysCtrlRegsFile 
*          1    00007010    00000030     UNINITIALIZED
                  00007010    00000030     F2806x_GlobalVariableDefs.obj (SysCtrlRegsFile)

SpiaRegsFile 
*          1    00007040    00000010     UNINITIALIZED
                  00007040    00000010     F2806x_GlobalVariableDefs.obj (SpiaRegsFile)

SciaRegsFile 
*          1    00007050    00000010     UNINITIALIZED
                  00007050    00000010     F2806x_GlobalVariableDefs.obj (SciaRegsFile)

NmiIntruptRegsFile 
*          1    00007060    00000010     UNINITIALIZED
                  00007060    00000010     F2806x_GlobalVariableDefs.obj (NmiIntruptRegsFile)

XIntruptRegsFile 
*          1    00007070    00000010     UNINITIALIZED
                  00007070    00000010     F2806x_GlobalVariableDefs.obj (XIntruptRegsFile)

AdcRegsFile 
*          1    00007100    00000050     UNINITIALIZED
                  00007100    00000050     F2806x_GlobalVariableDefs.obj (AdcRegsFile)

SpibRegsFile 
*          1    00007740    00000010     UNINITIALIZED
                  00007740    00000010     F2806x_GlobalVariableDefs.obj (SpibRegsFile)

ScibRegsFile 
*          1    00007750    00000010     UNINITIALIZED
                  00007750    00000010     F2806x_GlobalVariableDefs.obj (ScibRegsFile)

I2caRegsFile 
*          1    00007900    00000022     UNINITIALIZED
                  00007900    00000022     F2806x_GlobalVariableDefs.obj (I2caRegsFile)

PartIdRegsFile 
*          1    003d7e80    00000001     UNINITIALIZED
                  003d7e80    00000001     F2806x_GlobalVariableDefs.obj (PartIdRegsFile)

CsmPwlFile 
*          1    003f7ff8    00000008     UNINITIALIZED
                  003f7ff8    00000008     F2806x_GlobalVariableDefs.obj (CsmPwlFile)

.ebss.1    1    0000a000    00002000     UNINITIALIZED
                  0000a000    00000800     CSMON_C28xx.lib : uart_drv.obj (.ebss:_UARTRxBufferTimeDiff)
                  0000a800    00000800                     : hmrec.obj (.ebss:_au8RecBuffer0)
                  0000b000    00000516                     : modbusreg.obj (.ebss:_MODBUSREG_asFileTable)
                  0000b516    0000002a                     : modbusreg.obj (.ebss)
                  0000b540    00000500                     : csmon.obj (.ebss)
                  0000ba40    00000400                     : csmon.obj (.ebss:_CSMON_asFileParameterDefinitionsFromAccessLevel)
                  0000be40    00000126                     : hmrecparam.obj (.ebss:_sRecHandleParam)
                  0000bf66    00000018     F2806x_CpuTimers.obj (.ebss)
                  0000bf7e    00000002     CSMON_C28xx.lib : hmlib.obj (.ebss)
                  0000bf80    0000007e                     : csmon.obj (.ebss:_sScopeConfigParam)
                  0000bffe    00000002                     : hmscopeparam.obj (.ebss)

.ebss.2    1    0000c000    00001c59     UNINITIALIZED
                  0000c000    00000400     CSMON_C28xx.lib : modbusreg.obj (.ebss:_MODBUSREG_u32RegisterAccessTableInRam)
                  0000c400    00000400                     : uart_drv.obj (.ebss:_UARTRxBuffer)
                  0000c800    00000300                     : hmscopeparam.obj (.ebss:_HMSCOPEPRM_u8Buffer)
                  0000cb00    00000200     uart_driver.obj (.ebss:_UART_DRV_RxBufferTimeDiff)
                  0000cd00    00000200     CSMON_C28xx.lib : hmmodbus.obj (.ebss:_u32ModbusTimeoutBuffer)
                  0000cf00    00000108                     : hmrec.obj (.ebss:_sRecHandle)
                  0000d008    00000030                     : hmrecparam.obj (.ebss:_sRecStatusParam)
                  0000d038    00000008     sci_driver.obj (.ebss:_SCI_DRV_ErrorRx)
                  0000d040    00000100     CSMON_C28xx.lib : hmmodbus.obj (.ebss:_HMMODBUS_anTxCheckSum)
                  0000d140    00000100                     : hmmodbus.obj (.ebss:_HMMODBUS_pCommBufferRx)
                  0000d240    00000100                     : hmmodbus.obj (.ebss:_HMMODBUS_pCommBufferTx)
                  0000d340    00000100     uart_driver.obj (.ebss:_UART_DRV_RxBuffer)
                  0000d440    000000f2     CSMON_C28xx.lib : hmmodbus.obj (.ebss)
                  0000d532    0000000e                     : hmserial.obj (.ebss)
                  0000d540    000000c0                     : modbusreg.obj (.ebss:_QueueTestTable)
                  0000d600    000000c0                     : csmon.obj (.ebss:_sRecConfigParam)
                  0000d6c0    000000ba                     : hmscopeparam.obj (.ebss:_sScopeHandlePrm)
                  0000d77a    00000006                     : hmprotocol.obj (.ebss)
                  0000d780    00000088     main.obj (.ebss)
                  0000d808    0000002d     CSMON_C28xx.lib : csmon.obj (.ebss:_CSMON_au8FileRecorderConfigElementsSizeTable)
                  0000d835    00000001                     : hmrec.obj (.ebss)
                  0000d836    0000000a                     : hmdrv.obj (.ebss)
                  0000d840    00000079                     : hmserial.obj (.ebss:_pcm_pCommBuffer)
                  0000d8b9    00000001                     : csmon.obj (.ebss:_CSMON_au8FileParameterListElementsSizeTablePart2)
                  0000d8ba    00000006                     : csmon.obj (.ebss:_CSMON_au32FileAutorization_FunctionAfterWriteFileRecord)
                  0000d8c0    00000054                     : hmrecparam.obj (.ebss:_sRecExternParam)
                  0000d914    0000002a                     : csmon.obj (.ebss:_CSMON_au8FileScopeConfigurationElementsSizeTable)
                  0000d93e    00000002                     : csmon.obj (.ebss:_CSMON_abFlagProcessPassed)
                  0000d940    00000040                     : hmscope.obj (.ebss)
                  0000d980    0000003c                     : csmon.obj (.ebss:_CSMON_au8FileRecorderDataElementsSizeTable)
                  0000d9bc    00000004                     : csmon.obj (.ebss:_CSMON_au8FileParameterListElementsSizeTablePart1)
                  0000d9c0    00000024     io_drv.obj (.ebss)
                  0000d9e4    00000016     CSMON_C28xx.lib : uart_drv.obj (.ebss)
                  0000d9fa    00000006                     : csmon.obj (.ebss:_CSMON_au32FileParameterDefinitionsFileRecordElementsRealAddressTable)
                  0000da00    00000020                     : modbusreg.obj (.ebss:_MODBUSREG_asQueueTable)
                  0000da20    0000001e                     : hmrecparam.obj (.ebss:_sRecStatusParamInternal)
                  0000da3e    00000002     rts2800_ml.lib : _lock.c.obj (.ebss:__lock)
                  0000da40    00000014     main.obj (.ebss:_sExternalRecoderHandle)
                  0000da54    00000014     rtc_drv.obj (.ebss)
                  0000da68    00000012     CSMON_C28xx.lib : hmrecparam.obj (.ebss)
                  0000da7a    00000006                     : csmon.obj (.ebss:_CSMON_au32FileParameterDefinitionsFileRecordElementsSizeTable)
                  0000da80    00000010                     : modbusreg.obj (.ebss:_MODBUSREG_au8DeviceIDMajorMinorRevision)
                  0000da90    00000010                     : modbusreg.obj (.ebss:_MODBUSREG_au8DeviceIDModelName)
                  0000daa0    00000010                     : modbusreg.obj (.ebss:_MODBUSREG_au8DeviceIDProductCode)
                  0000dab0    00000010                     : modbusreg.obj (.ebss:_MODBUSREG_au8DeviceIDProductName)
                  0000dac0    00000010                     : modbusreg.obj (.ebss:_MODBUSREG_au8DeviceIDUserApplicationName)
                  0000dad0    00000010                     : modbusreg.obj (.ebss:_MODBUSREG_au8DeviceIDUserReserve0)
                  0000dae0    00000010                     : modbusreg.obj (.ebss:_MODBUSREG_au8DeviceIDUserReserve1)
                  0000daf0    00000010                     : modbusreg.obj (.ebss:_MODBUSREG_au8DeviceIDUserReserve2)
                  0000db00    00000010                     : modbusreg.obj (.ebss:_MODBUSREG_au8DeviceIDVendorName)
                  0000db10    00000010                     : modbusreg.obj (.ebss:_MODBUSREG_au8DeviceIDVendorUrl)
                  0000db20    00000010                     : modbusreg.obj (.ebss:_MODBUSREG_au8ServerIDData)
                  0000db30    0000000e                     : Hash.obj (.ebss:_primeIndArr)
                  0000db3e    00000002     rts2800_ml.lib : _lock.c.obj (.ebss:__unlock)
                  0000db40    0000000e     tmr_drv.obj (.ebss)
                  0000db4e    0000000a     CSMON_C28xx.lib : csmon.obj (.ebss:_CSMON_au8FileParameterCountElementsSizeTable)
                  0000db58    0000000a                     : csmon.obj (.ebss:_CSMON_au8FileRTCElementsSizeTable)
                  0000db62    0000000a                     : hmmodbus.obj (.ebss:_HMMODBUS_nFilePrimaryAddrWriteLast)
                  0000db6c    0000000a                     : hmmodbus.obj (.ebss:_HMMOSBUS_nFileWriteAddrReadLast)
                  0000db76    00000009                     : csmon.obj (.ebss:_CSMON_au8FileParameterNumericElementsSizeTable)
                  0000db7f    00000001                     : csmon.obj (.ebss:_CSMON_au8FileParameterListElementsSizeTablePart3)
                  0000db80    00000008     sci_drv.obj (.ebss:_SCI_ErrorRx)
                  0000db88    00000008     uart_driver.obj (.ebss:_UART_DRV_RXIntOverflowCounter)
                  0000db90    00000008     uart_driver.obj (.ebss:_UART_DRV_u32TimeDiffLast)
                  0000db98    00000008     uart_driver.obj (.ebss:_UART_DRV_u32TimeDiffNow)
                  0000dba0    00000008     uart_driver.obj (.ebss:_UART_DRV_u32TimeDiffRead)
                  0000dba8    00000008     CSMON_C28xx.lib : uart_drv.obj (.ebss:_UART_RXIntOverflowCounter)
                  0000dbb0    00000008     tmr_drv.obj (.ebss:_pfDelayedFunction)
                  0000dbb8    00000008     tmr_drv.obj (.ebss:_pfDelayedFunction_u8)
                  0000dbc0    00000008     CSMON_C28xx.lib : uart_drv.obj (.ebss:_u32TimeDiffLast)
                  0000dbc8    00000008                     : uart_drv.obj (.ebss:_u32TimeDiffNow)
                  0000dbd0    00000008                     : uart_drv.obj (.ebss:_u32TimeDiffRead)
                  0000dbd8    00000006                     : modbusreg.obj (.ebss:_HMMODBUS_u32CoilAddressTableInRam)
                  0000dbde    00000006                     : modbusreg.obj (.ebss:_MODBUSREG_sInputCoilAddressTableInRam)
                  0000dbe4    00000006                     : hmscopeparam.obj (.ebss:_pBufferScope)
                  0000dbea    00000006                     : hmrecparam.obj (.ebss:_u32RecorderLastFreeCounter)
                  0000dbf0    00000006                     : hmrecparam.obj (.ebss:_u32RecorderMicroSec)
                  0000dbf6    00000006     device.obj (.ebss)
                  0000dbfc    00000004     CSMON_C28xx.lib : csmon.obj (.ebss:_CSMON_au8FileRecorderStatusElementsSizeTable)
                  0000dc00    00000006     rts2800_ml.lib : exit.c.obj (.ebss)
                  0000dc06    00000004     CSMON_C28xx.lib : modbusreg.obj (.ebss:_MODBUSREG_sInputRegisterAddressTableInRam)
                  0000dc0a    00000004                     : uart_drv.obj (.ebss:_UARTRxBufferRDCount)
                  0000dc0e    00000004                     : uart_drv.obj (.ebss:_UARTRxBufferRDIndex)
                  0000dc12    00000004                     : uart_drv.obj (.ebss:_UARTRxBufferWRCount)
                  0000dc16    00000004                     : uart_drv.obj (.ebss:_UARTRxBufferWRIndex)
                  0000dc1a    00000004     uart_driver.obj (.ebss:_UART_DRV_RxBufferRDCount)
                  0000dc1e    00000004     uart_driver.obj (.ebss:_UART_DRV_RxBufferRDIndex)
                  0000dc22    00000004     uart_driver.obj (.ebss:_UART_DRV_RxBufferWRCount)
                  0000dc26    00000004     uart_driver.obj (.ebss:_UART_DRV_RxBufferWRIndex)
                  0000dc2a    00000004     tmr_drv.obj (.ebss:_u16TimerMainDelayedData)
                  0000dc2e    00000004     tmr_drv.obj (.ebss:_u16TimerMainFunctionDelay)
                  0000dc32    00000004     tmr_drv.obj (.ebss:_u16TimerMainFunctionDelayCompare)
                  0000dc36    00000004     tmr_drv.obj (.ebss:_u16TimerMainFunctionDelayCounter)
                  0000dc3a    00000003     CSMON_C28xx.lib : csmon.obj (.ebss:_CSMON_abFileAutorization_RecordReadOnly)
                  0000dc3d    00000003                     : csmon.obj (.ebss:_CSMON_abFileAutorization_RecordStringData)
                  0000dc40    00000003                     : csmon.obj (.ebss:_CSMON_au16FileAutorization_RecordOffsets)
                  0000dc43    00000003                     : csmon.obj (.ebss:_CSMON_au32FileParameterDefinitionsFileRecordElementsRecordToRecordOffsetSizeBytesTable)
                  0000dc46    00000003                     : csmon.obj (.ebss:_CSMON_au8FileRecorderDataElementsSizeTableUsedLength)
                  0000dc49    00000003                     : hmrecparam.obj (.ebss:_abRecorderJustStopped)
                  0000dc4c    00000003                     : hmrecparam.obj (.ebss:_abRecorderRunning)
                  0000dc4f    00000003                     : hmscopeparam.obj (.ebss:_nSizeBytesScopeBuffer)
                  0000dc52    00000003                     : hmscopeparam.obj (.ebss:_sScopeStatusParam)
                  0000dc55    00000001                     : csmon.obj (.ebss:_CSMON_au8FileScopeStatusElementsSizeTable)
                  0000dc56    00000001                     : modbusreg.obj (.ebss:_MODBUSREG_sInputRegisterAccessTableInRam)
                  0000dc57    00000001                     : hmrecparam.obj (.ebss:_sRecTimeBase)
                  0000dc58    00000001     rts2800_ml.lib : errno.c.obj (.ebss)

MODULE SUMMARY

       Module                          code    initialized data   uninitialized data
       ------                          ----    ----------------   ------------------
    .\01_Source_Test\
       main.obj                        1246    5498               156               
    +--+-------------------------------+-------+------------------+--------------------+
       Total:                          1246    5498               156               
                                                                                    
    .\01_Source_Test\peripheral_driver\
       uart_driver.obj                 304     72                 816               
       sci_driver.obj                  292     0                  8                 
    +--+-------------------------------+-------+------------------+--------------------+
       Total:                          596     72                 824               
                                                                                    
    .\C2806x_Device\
       device.obj                      30      15                 6                 
    +--+-------------------------------+-------+------------------+--------------------+
       Total:                          30      15                 6                 
                                                                                    
    .\C2806x_LIB\common\source\
       F2806x_DefaultIsr.obj           460     0                  0                 
       F2806x_SysCtrl.obj              402     0                  0                 
       F2806x_PieVect.obj              17      256                0                 
       F2806x_CSMPasswords.obj         0       126                0                 
       F2806x_PieCtrl.obj              40      0                  0                 
       F2806x_CpuTimers.obj            0       0                  24                
       F2806x_Gpio.obj                 21      0                  0                 
       F2806x_usDelay.obj              8       0                  0                 
       F2806x_DisInt.obj               7       0                  0                 
       F2806x_DBGIER.obj               3       0                  0                 
    +--+-------------------------------+-------+------------------+--------------------+
       Total:                          958     382                24                
                                                                                    
    .\C2806x_LIB\driverlib\
       interrupt.obj                   380     0                  0                 
    +--+-------------------------------+-------+------------------+--------------------+
       Total:                          380     0                  0                 
                                                                                    
    .\C2806x_LIB\headers\source\
       F2806x_GlobalVariableDefs.obj   0       0                  3550              
    +--+-------------------------------+-------+------------------+--------------------+
       Total:                          0       0                  3550              
                                                                                    
    .\Peripheral\01_Source\TMS320F2806x\
       sysctl.obj                      1100    0                  0                 
       tmr_drv.obj                     408     35                 46                
       gpio.obj                        396     0                  0                 
       sci_drv.obj                     287     0                  8                 
       sci.obj                         211     0                  0                 
       int_drv.obj                     99      0                  0                 
       io_drv.obj                      0       40                 36                
       rtc_drv.obj                     0       38                 20                
       cputimer.obj                    6       0                  0                 
    +--+-------------------------------+-------+------------------+--------------------+
       Total:                          2507    113                110               
                                                                                    
    C:/repo_git/fw_LIB_CSMON/04_Output_Files/Motor28062/CSMON_C28xx.lib
       csmon.obj                       7940    721                2844              
       hmmodbus.obj                    8512    1055               1542              
       modbusreg.obj                   3450    488                2785              
       uart_drv.obj                    410     76                 3142              
       hmrec.obj                       543     0                  2313              
       hmdrv.obj                       2435    20                 10                
       hmrecparam.obj                  1542    97                 493               
       hmscopeparam.obj                316     19                 968               
       hmserial.obj                    514     9                  135               
       Hash.obj                        578     60                 14                
       hmprotocol.obj                  447     32                 6                 
       hmlib.obj                       341     8                  2                 
       hmscope.obj                     113     0                  64                
    +--+-------------------------------+-------+------------------+--------------------+
       Total:                          27141   2585               14318             
                                                                                    
    C:\ti\ccs1100\ccs\tools\compiler\ti-cgt-c2000_22.6.0.LTS\lib\rts2800_ml.lib
       k_rem_pio2.c.obj                1688    212                0                 
       s_sinf.c.obj                    276     24                 0                 
       ll_div28.asm.obj                263     0                  0                 
       s_floor.c.obj                   232     12                 0                 
       s_scalbn.c.obj                  170     28                 0                 
       e_rem_pio2f.c.obj               167     28                 0                 
       k_sinf.c.obj                    146     32                 0                 
       k_cosf.c.obj                    135     40                 0                 
       fd_add28.asm.obj                156     0                  0                 
       fd_div28.asm.obj                139     0                  0                 
       fd_mpy28.asm.obj                131     0                  0                 
       fs_div28.asm.obj                131     0                  0                 
       fs_add28.asm.obj                120     0                  0                 
       fs_mpy28.asm.obj                90      0                  0                 
       boot28.asm.obj                  84      0                  0                 
       exit.c.obj                      41      14                 6                 
       fd_cmp28.asm.obj                42      0                  0                 
       fs_tol28.asm.obj                41      0                  0                 
       fs_toi28.asm.obj                37      0                  0                 
       cpy_tbl.c.obj                   36      0                  0                 
       s_copysign.c.obj                35      0                  0                 
       i_div28.asm.obj                 34      0                  0                 
       fd_tofs28.asm.obj               33      0                  0                 
       fs_toul28.asm.obj               33      0                  0                 
       fd_tol28.asm.obj                31      0                  0                 
       fs_tou28.asm.obj                29      0                  0                 
       memcpy.c.obj                    29      0                  0                 
       fs_tofd28.asm.obj               28      0                  0                 
       l_tofd28.asm.obj                28      0                  0                 
       fd_toul28.asm.obj               27      0                  0                 
       l_tofs28.asm.obj                26      0                  0                 
       ll_aox28.asm.obj                24      0                  0                 
       _lock.c.obj                     9       10                 4                 
       fs_cmp28.asm.obj                23      0                  0                 
       u_tofd28.asm.obj                23      0                  0                 
       ul_tofs28.asm.obj               19      0                  0                 
       args_main.c.obj                 17      0                  0                 
       u_tofs28.asm.obj                16      0                  0                 
       fd_sub28.asm.obj                14      0                  0                 
       u_div28.asm.obj                 11      0                  0                 
       fd_neg28.asm.obj                9       0                  0                 
       errno.c.obj                     0       4                  1                 
       fs_neg28.asm.obj                5       0                  0                 
       pre_init.c.obj                  2       0                  0                 
       startup.c.obj                   1       0                  0                 
    +--+-------------------------------+-------+------------------+--------------------+
       Total:                          4631    404                11                
                                                                                    
       Stack:                          0       0                  896               
    +--+-------------------------------+-------+------------------+--------------------+
       Grand Total:                    37489   9069               19895             


GLOBAL DATA SYMBOLS: SORTED BY DATA PAGE

address     data page           name
--------    ----------------    ----
00000050       1 (00000040)     __stack

00000880      22 (00000880)     _DevEmuRegs

00000985      26 (00000980)     _SysPwrCtrlRegs

00000a80      2a (00000a80)     _FlashRegs

00000ae0      2b (00000ac0)     _CsmRegs

00000b00      2c (00000b00)     _AdcResult

00000c00      30 (00000c00)     _CpuTimer0Regs
00000c08      30 (00000c00)     _CpuTimer1Regs
00000c10      30 (00000c00)     _CpuTimer2Regs

00000ce0      33 (00000cc0)     _PieCtrlRegs

00000d00      34 (00000d00)     _EmuKey
00000d00      34 (00000d00)     _PieVectTable
00000d01      34 (00000d00)     _EmuBMode
00000d02      34 (00000d00)     _Flash_CallbackPtr
00000d04      34 (00000d00)     _Flash_CPUScaleFactor

00001000      40 (00001000)     _DmaRegs

00001400      50 (00001400)     _Cla1Regs

00004000     100 (00004000)     _Usb0Regs

00005000     140 (00005000)     _McbspaRegs

00006000     180 (00006000)     _ECanaRegs

00006040     181 (00006040)     _ECanaLAMRegs

00006080     182 (00006080)     _ECanaMOTSRegs

000060c0     183 (000060c0)     _ECanaMOTORegs

00006100     184 (00006100)     _ECanaMboxes

00006400     190 (00006400)     _Comp1Regs
00006420     190 (00006400)     _Comp2Regs

00006440     191 (00006440)     _Comp3Regs

00006800     1a0 (00006800)     _EPwm1Regs

00006840     1a1 (00006840)     _EPwm2Regs

00006880     1a2 (00006880)     _EPwm3Regs

000068c0     1a3 (000068c0)     _EPwm4Regs

00006900     1a4 (00006900)     _EPwm5Regs

00006940     1a5 (00006940)     _EPwm6Regs

00006980     1a6 (00006980)     _EPwm7Regs

000069c0     1a7 (000069c0)     _EPwm8Regs

00006a00     1a8 (00006a00)     _ECap1Regs
00006a20     1a8 (00006a00)     _ECap2Regs

00006a40     1a9 (00006a40)     _ECap3Regs

00006ac0     1ab (00006ac0)     _HRCap1Regs
00006ae0     1ab (00006ac0)     _HRCap2Regs

00006b00     1ac (00006b00)     _EQep1Regs

00006b40     1ad (00006b40)     _EQep2Regs

00006c80     1b2 (00006c80)     _HRCap3Regs
00006ca0     1b2 (00006c80)     _HRCap4Regs

00006f80     1be (00006f80)     _GpioCtrlRegs

00006fc0     1bf (00006fc0)     _GpioDataRegs
00006fe0     1bf (00006fc0)     _GpioIntRegs

00007010     1c0 (00007000)     _SysCtrlRegs

00007040     1c1 (00007040)     _SpiaRegs
00007050     1c1 (00007040)     _SciaRegs
00007060     1c1 (00007040)     _NmiIntruptRegs
00007070     1c1 (00007040)     _XIntruptRegs

00007100     1c4 (00007100)     _AdcRegs

00007740     1dd (00007740)     _SpibRegs
00007750     1dd (00007740)     _ScibRegs

00007900     1e4 (00007900)     _I2caRegs

0000a000     280 (0000a000)     _UARTRxBufferTimeDiff

0000a800     2a0 (0000a800)     _au8RecBuffer0

0000b000     2c0 (0000b000)     _MODBUSREG_asFileTable

0000b516     2d4 (0000b500)     _MODBUSREG_u16ModbusParamCount
0000b517     2d4 (0000b500)     _MODBUSREG_u16ParamCount
0000b518     2d4 (0000b500)     _InputRegisterDummy
0000b519     2d4 (0000b500)     _InputCoilDummy
0000b51a     2d4 (0000b500)     _CoilTest
0000b51b     2d4 (0000b500)     _HMMODBUS_u16RegisterAddressTableControlParametersStartIndex
0000b51c     2d4 (0000b500)     _MODBUSREG_u16HoldRegFillCount
0000b51d     2d4 (0000b500)     _MODBUSREG_u16HoldRegUsedCount
0000b51e     2d4 (0000b500)     _MODBUSREG_u16HoldRegListCount
0000b51f     2d4 (0000b500)     _MODBUSREG_u16FileTableRecorderIndex
0000b520     2d4 (0000b500)     _MODBUSREG_u32ParamRecorderConfigAddress
0000b522     2d4 (0000b500)     _MODBUSREG_u32ParamScopeConfigAddress
0000b524     2d4 (0000b500)     _MODBUSREG_u32ParamListAddress
0000b526     2d4 (0000b500)     _MODBUSREG_u32ParamNameAddress
0000b528     2d4 (0000b500)     _MODBUSREG_u32ParamNumbAddress
0000b52a     2d4 (0000b500)     _MODBUSREG_u32ParamStringAddress
0000b52c     2d4 (0000b500)     _MODBUSREG_u32ParamAuxAddress
0000b52e     2d4 (0000b500)     _MODBUSREG_u32ParamReservedAddress
0000b530     2d4 (0000b500)     _MODBUSREG_u32FileRTC_FunctionAfterWriteFileRecord
0000b532     2d4 (0000b500)     _MODBUSREG_u32FileRTC_FunctionAfterReadFileRecord
0000b534     2d4 (0000b500)     _MODBUSREG_u32FileParamCount_FunctionBeforeReadFileRecord
0000b536     2d4 (0000b500)     _MODBUSREG_u32FileAutorization_FunctionAfterWriteFileRecordTable
0000b538     2d4 (0000b500)     _MODBUSREG_u32FileRecStatus_FunctionIndexGenerationFileRecord
0000b53a     2d4 (0000b500)     _MODBUSREG_u32FileRecConfig_FunctionAfterWriteFileRecord
0000b53c     2d4 (0000b500)     _MODBUSREG_pu32RegisterAddressTable
0000b53e     2d4 (0000b500)     _MODBUSREG_pu32RegisterAddressTableInRam

0000b540     2d5 (0000b540)     _CSMON_u16MaskSetupRecorderParam
0000b541     2d5 (0000b540)     _CSMON_u16MaskStartRecorderParam
0000b542     2d5 (0000b540)     _CSMON_u16MaskStopRecorderParam
0000b543     2d5 (0000b540)     _eResponseCodeStartRecParam0
0000b544     2d5 (0000b540)     _eResponseCodeStartRecParam1
0000b545     2d5 (0000b540)     _eResponseCodeStartRecParam2
0000b546     2d5 (0000b540)     _CSMON_bGetDateTimeAutorization
0000b547     2d5 (0000b540)     _CSMON_bSetDateTimeRequest
0000b548     2d5 (0000b540)     _CSMON_bGetDateTimeRequest
0000b549     2d5 (0000b540)     _CSMON_u16SCIErrorPercent
0000b54a     2d5 (0000b540)     _bServiceWatchdog
0000b54b     2d5 (0000b540)     _CSMON_bResetMaxMeasure
0000b54c     2d5 (0000b540)     _bRunOnceGetSavedRecorderState
0000b54d     2d5 (0000b540)     _CSMON_bWatchdogCalcNeeded
0000b54e     2d5 (0000b540)     _CSMON_u16WatchdogPrescaler
0000b54f     2d5 (0000b540)     _CSMON_u16MaxTimeInISR_usec
0000b550     2d5 (0000b540)     _CSMON_u16MinTimeProcessExit_usec
0000b551     2d5 (0000b540)     _CSMON_u16MaxTimeTillWdtClear_usec
0000b552     2d5 (0000b540)     _CSMON_u16MinTimeProcessAllowedNeeded_usec
0000b553     2d5 (0000b540)     _u16SkipProcessCounter
0000b554     2d5 (0000b540)     _u16SkipProcessTag
0000b555     2d5 (0000b540)     _bSkipProcessFlag
0000b556     2d5 (0000b540)     _CSMON_bUseAccessLevelForHoldingRegistersAndCoils
0000b557     2d5 (0000b540)     _CSMON_bUseAccessLevelForInputRegistersAndCoils
0000b558     2d5 (0000b540)     _CSMON_u16CurrentAccessLevelPrev
0000b559     2d5 (0000b540)     _CSMON_u16FileParameterFillCount
0000b55a     2d5 (0000b540)     _CSMON_u16FileParameterUseMaxCnt
0000b55b     2d5 (0000b540)     _CSMON_u16FileParameterListCount
0000b55c     2d5 (0000b540)     _CSMON_u16FileParameterNameCount
0000b55d     2d5 (0000b540)     _CSMON_u16FileParameterNumeric
0000b55e     2d5 (0000b540)     _CSMON_bUseDisconnectOnTimeout
0000b55f     2d5 (0000b540)     _CSMON_u16NoMessageTimeout_msec
0000b560     2d5 (0000b540)     _CSMON_u16NoMessageTimeoutOld_msec
0000b561     2d5 (0000b540)     _CSMON_bRunningInitialization
0000b562     2d5 (0000b540)     _arr2
0000b564     2d5 (0000b540)     _u32FreeRunTimerSysClkMHz
0000b566     2d5 (0000b540)     _u32FreeRunTimerSysClkDiv
0000b568     2d5 (0000b540)     _CSMON_u32SCIErrorPPM
0000b56a     2d5 (0000b540)     _CSMON_u32FreeRunTimerCheckSumListBegin
0000b56c     2d5 (0000b540)     _CSMON_u32FreeRunTimerCheckSumListEnd
0000b56e     2d5 (0000b540)     _CSMON_u32FreeRunTimerCheckSumListMax
0000b570     2d5 (0000b540)     _CSMON_u32FreeRunTimerCheckSumNameBegin
0000b572     2d5 (0000b540)     _CSMON_u32FreeRunTimerCheckSumNameEnd
0000b574     2d5 (0000b540)     _CSMON_u32FreeRunTimerCheckSumNameMax
0000b576     2d5 (0000b540)     _CSMON_u32FreeRunTimerCheckSumNumbBegin
0000b578     2d5 (0000b540)     _CSMON_u32FreeRunTimerCheckSumNumbEnd
0000b57a     2d5 (0000b540)     _CSMON_u32FreeRunTimerCheckSumNumbMax
0000b57c     2d5 (0000b540)     _CSMON_u32FreeRunTimerCheckSumStrgBegin
0000b57e     2d5 (0000b540)     _CSMON_u32FreeRunTimerCheckSumStrgEnd

0000b580     2d6 (0000b580)     _CSMON_u32FreeRunTimerCheckSumStrgMax
0000b582     2d6 (0000b580)     _CSMON_u32FreeRunTimerAccessChangeBegin
0000b584     2d6 (0000b580)     _CSMON_u32FreeRunTimerAccessChangeEnd
0000b586     2d6 (0000b580)     _CSMON_u32FreeRunTimerAccessChangeMax
0000b588     2d6 (0000b580)     _CSMON_u32FreeRunTimerPrepareFileParameterAccessListEnd
0000b58a     2d6 (0000b580)     _CSMON_u32FreeRunTimerPrepareFileParameterAccessListMax
0000b58c     2d6 (0000b580)     _CSMON_u32FreeRunTimerPasswordHashBegin
0000b58e     2d6 (0000b580)     _CSMON_u32FreeRunTimerPasswordHashEnd
0000b590     2d6 (0000b580)     _CSMON_u32FreeRunTimerPasswordHashMax
0000b592     2d6 (0000b580)     _CSMON_u32FreeRunTimerProcessBegin
0000b594     2d6 (0000b580)     _CSMON_u32FreeRunTimerProcessNow
0000b596     2d6 (0000b580)     _CSMON_u32FreeRunTimerProcessEnd
0000b598     2d6 (0000b580)     _CSMON_u32FreeRunTimerProcessMax
0000b59a     2d6 (0000b580)     _CSMON_u32WatchdogPeriod_usec
0000b59c     2d6 (0000b580)     _CSMON_u32WatchdogPeriod_Ticks
0000b59e     2d6 (0000b580)     _CSMON_u32MaxTimeInISR_Ticks
0000b5a0     2d6 (0000b580)     _CSMON_u32MaxTimeProcess_Ticks
0000b5a2     2d6 (0000b580)     _CSMON_u32MaxTimeTillWdtClearISRs
0000b5a4     2d6 (0000b580)     _CSMON_u32MinTimeProcessExit_Ticks
0000b5a6     2d6 (0000b580)     _CSMON_u32MaxTimeTillWdtClear_Ticks
0000b5a8     2d6 (0000b580)     _CSMON_u32MinTimeProcessAllowedNeeded_Ticks
0000b5aa     2d6 (0000b580)     _CSMON_s32MaxTimeProcessAllowedCalc_Ticks
0000b5ac     2d6 (0000b580)     _CSMON_u32MaxTimeProcessAllowed_Ticks
0000b5ae     2d6 (0000b580)     _CSMON_pasFileParameterList
0000b5b0     2d6 (0000b580)     _CSMON_pasFileParameterShortName
0000b5b2     2d6 (0000b580)     _CSMON_pu32FileParameterString
0000b5b4     2d6 (0000b580)     _CSMON_psFileParameterAux
0000b5b6     2d6 (0000b580)     _CSMON_pu32FileParameterReserved
0000b5b8     2d6 (0000b580)     _CSMON_pu32HoldingRegistersAddressTable
0000b5ba     2d6 (0000b580)     _CSMON_pu32HoldingRegistersAddressTableInRam
0000b5bc     2d6 (0000b580)     _CSMON_pu32HoldingRegistersAccessTableInRam
0000b5be     2d6 (0000b580)     _CSMON_pauFileParameterNumeric

0000b5c0     2d7 (0000b5c0)     _CSMON_u32FreeRunTimerNow
0000b5c2     2d7 (0000b5c0)     _CSMON_u32FreeRunTimerPrev
0000b5c4     2d7 (0000b5c0)     _CSMON_u32FreeRunTimerDiff
0000b5c6     2d7 (0000b5c0)     _CSMON_u32NoMessageTime
0000b5c8     2d7 (0000b5c0)     _CSMON_u32NoMessageTimeout_Ticks
0000b5ca     2d7 (0000b5c0)     _CSMON_sFileProtocolVersion
0000b5cd     2d7 (0000b5c0)     _sHashKey
0000b5d8     2d7 (0000b5c0)     _CSMON_sDateTimeDefault
0000b5e4     2d7 (0000b5c0)     _CSMON_sDateTime
0000b5f0     2d7 (0000b5c0)     _CSMON_sDateTimeApplication

0000b600     2d8 (0000b600)     _CSMON_sFileParameterCount
0000b610     2d8 (0000b600)     _CSMON_sFileAutorization

0000b640     2d9 (0000b640)     _CSMON_sFileParameterAccessList

0000ba40     2e9 (0000ba40)     _CSMON_asFileParameterDefinitionsFromAccessLevel

0000be40     2f9 (0000be40)     _sRecHandleParam

0000bf66     2fd (0000bf40)     _CpuTimer0
0000bf6e     2fd (0000bf40)     _CpuTimer1
0000bf76     2fd (0000bf40)     _CpuTimer2

0000bf80     2fe (0000bf80)     _sScopeConfigParam

0000bffe     2ff (0000bfc0)     _DataChangedParamFlag
0000bfff     2ff (0000bfc0)     _nScopeIndexFreemaster

0000c000     300 (0000c000)     _MODBUSREG_u32RegisterAccessTableInRam

0000c400     310 (0000c400)     _UARTRxBuffer

0000c800     320 (0000c800)     _HMSCOPEPRM_u8Buffer

0000cb00     32c (0000cb00)     _UART_DRV_RxBufferTimeDiff

0000cd00     334 (0000cd00)     _u32ModbusTimeoutBuffer

0000cf00     33c (0000cf00)     _sRecHandle

0000d008     340 (0000d000)     _sRecStatusParam
0000d038     340 (0000d000)     _SCI_DRV_ErrorRx

0000d040     341 (0000d040)     _HMMODBUS_anTxCheckSum

0000d140     345 (0000d140)     _HMMODBUS_pCommBufferRx

0000d240     349 (0000d240)     _HMMODBUS_pCommBufferTx

0000d340     34d (0000d340)     _UART_DRV_RxBuffer

0000d440     351 (0000d440)     _HMMODBUS_wFlags
0000d441     351 (0000d440)     _HMMODBUS_wFlagsRxTx
0000d442     351 (0000d440)     _HMMODBUS_nTxTodo
0000d443     351 (0000d440)     _HMMODBUS_nRxTodoEcho
0000d444     351 (0000d440)     _HMMODBUS_nLastResponseCmd
0000d445     351 (0000d440)     _HMMODBUS_nLastResponseCode
0000d446     351 (0000d440)     _HMMODBUS_nRxTodo
0000d447     351 (0000d440)     _HMMODBUS_nRxCheckSum
0000d448     351 (0000d440)     _HMMODBUS_nTxCheckSum
0000d449     351 (0000d440)     _HMMODBUS_bOverflowReached
0000d44a     351 (0000d440)     _u8UartModBusIndex
0000d44b     351 (0000d440)     _HMMODBUS_u8DeviceAddress
0000d44c     351 (0000d440)     _HMMODBUS_u8QueueActiveIndex
0000d44d     351 (0000d440)     _u16RegisterAddressDummyValue
0000d44e     351 (0000d440)     _HMMODBUS_bReceivedMessage
0000d44f     351 (0000d440)     _bInputRegsGlobal
0000d450     351 (0000d440)     _bBareRamTable
0000d451     351 (0000d440)     _bUsedDummyDataAddressInResponseData
0000d452     351 (0000d440)     _bLengthException
0000d453     351 (0000d440)     _bInputRegTableSorted
0000d454     351 (0000d440)     _bHoldingRegTableSorted
0000d455     351 (0000d440)     _bInputRegTableBareRam
0000d456     351 (0000d440)     _bHoldingRegTableBareRam
0000d457     351 (0000d440)     _bInputCoilTableSorted
0000d458     351 (0000d440)     _bHoldingCoilTableSorted
0000d459     351 (0000d440)     _bInputCoilTableBareRam
0000d45a     351 (0000d440)     _bHoldingCoilTableBareRam
0000d45b     351 (0000d440)     _u16FreeRunTimerPrescaller
0000d45c     351 (0000d440)     _u16ModbusMinMessToMess_usec
0000d45d     351 (0000d440)     _HMMODBUS_u8ReadServerIDLength
0000d45e     351 (0000d440)     _HMMODBUS_u8ReadServerIDNumber
0000d45f     351 (0000d440)     _HMMODBUS_u8ReadServerOnStatus
0000d460     351 (0000d440)     _HMMODBUS_u8ReadDeviceIDConfLvlMask
0000d461     351 (0000d440)     _HMMODBUS_u8ReadDeviceIDConfLvl
0000d462     351 (0000d440)     _HMMODBUS_u8ReadDeviceIDVendorNameLength
0000d463     351 (0000d440)     _HMMODBUS_u8ReadDeviceIDProductCodeLength
0000d464     351 (0000d440)     _HMMODBUS_u8ReadDeviceIDMajorMinorRevisionLength
0000d465     351 (0000d440)     _HMMODBUS_u8ReadDeviceIDVendorUrlLength
0000d466     351 (0000d440)     _HMMODBUS_u8ReadDeviceIDProductNameLength
0000d467     351 (0000d440)     _HMMODBUS_u8ReadDeviceIDModelNameLength
0000d468     351 (0000d440)     _HMMODBUS_u8ReadDeviceIDUserApplicationNameLength
0000d469     351 (0000d440)     _HMMODBUS_u8ReadDeviceIDUserReserve0Length
0000d46a     351 (0000d440)     _HMMODBUS_u8ReadDeviceIDUserReserve1Length
0000d46b     351 (0000d440)     _HMMODBUS_u8ReadDeviceIDUserReserve2Length
0000d46c     351 (0000d440)     _eElementFixedArgument
0000d46d     351 (0000d440)     _u16NoStoreFixedArgument
0000d46e     351 (0000d440)     _u16DataModeFixedArgument
0000d46f     351 (0000d440)     _u16PasswordFixedArgument
0000d470     351 (0000d440)     _bNeedResetBackup
0000d471     351 (0000d440)     _realRxByteDelayLastFailBytesReceived
0000d472     351 (0000d440)     _u16ModbusStartedReceiveMessageCounter
0000d473     351 (0000d440)     _u16ModbusCompleteReceiveMessageCounter
0000d474     351 (0000d440)     _u16ModbusCompleteReceiveMessageCounterThisDevice
0000d475     351 (0000d440)     _u16ModbusBufferOverflowReceiveMessageCounter
0000d476     351 (0000d440)     _u16ModbusBadCSReceiveMessageCounter
0000d477     351 (0000d440)     _u16ModbusBadTimeoutReceiveMessageCounter
0000d478     351 (0000d440)     _u16IndexFileTable
0000d479     351 (0000d440)     _u8SampleSize
0000d47a     351 (0000d440)     _bElementsDifference
0000d47c     351 (0000d440)     _HMMODBUS_pTxBuff
0000d47e     351 (0000d440)     _HMMODBUS_pRxBuff

0000d480     352 (0000d480)     _HMMODBUS_pu32HoldingRegisterAddressTable
0000d482     352 (0000d480)     _HMMODBUS_pu32HoldingRegisterAddressTableInRam
0000d484     352 (0000d480)     _HMMODBUS_pu32HoldingRegisterAccessTableInRam
0000d486     352 (0000d480)     _HMMODBUS_u32HoldingRegisterAddressTableSize
0000d488     352 (0000d480)     _HMMODBUS_u32HoldingRegisterAddressTableInRamSize
0000d48a     352 (0000d480)     _HMMODBUS_u32HoldingRegisterValuesTableSize
0000d48c     352 (0000d480)     _HMMODBUS_pu32InputRegisterAddressTable
0000d48e     352 (0000d480)     _HMMODBUS_pu32InputRegisterAddressTableInRam
0000d490     352 (0000d480)     _HMMODBUS_pu32InputRegisterAccessTableInRam
0000d492     352 (0000d480)     _HMMODBUS_u32InputRegisterAddressTableSize
0000d494     352 (0000d480)     _HMMODBUS_u32InputRegisterAddressTableInRamSize
0000d496     352 (0000d480)     _HMMODBUS_u32InputRegisterValuesTableSize
0000d498     352 (0000d480)     _HMMODBUS_pu32HoldingCoilAddressTable
0000d49a     352 (0000d480)     _HMMODBUS_pu32HoldingCoilAddressTableInRam
0000d49c     352 (0000d480)     _HMMODBUS_u32HoldingCoilAddressTableSize
0000d49e     352 (0000d480)     _HMMODBUS_u32HoldingCoilAddressTableInRamSize
0000d4a0     352 (0000d480)     _HMMODBUS_u32HoldingCoilValuesTableSize
0000d4a2     352 (0000d480)     _HMMODBUS_pu32InputCoilAddressTable
0000d4a4     352 (0000d480)     _HMMODBUS_pu32InputCoilAddressTableInRam
0000d4a6     352 (0000d480)     _HMMODBUS_u32InputCoilAddressTableSize
0000d4a8     352 (0000d480)     _HMMODBUS_u32InputCoilAddressTableInRamSize
0000d4aa     352 (0000d480)     _HMMODBUS_u32InputCoilValuesTableSize
0000d4ac     352 (0000d480)     _HMMODBUS_pasQueueRegisterAddressTable
0000d4ae     352 (0000d480)     _HMMODBUS_u32QueueRegisterAddressTableSize
0000d4b0     352 (0000d480)     _HMMODBUS_u32TxDelayCounter
0000d4b2     352 (0000d480)     _HMMOSBUS_nFileWritePrimaryAddrReadLast
0000d4b4     352 (0000d480)     _HMMOSBUS_nDummy
0000d4b6     352 (0000d480)     _HMMODBUS_u32FreeRunTimerReceivedMessage
0000d4b8     352 (0000d480)     _HMMODBUS_pasFileAddressTable
0000d4ba     352 (0000d480)     _HMMODBUS_u32FileCount
0000d4bc     352 (0000d480)     _HMMODBUS_u32DeviceSYSCLKFreq
0000d4be     352 (0000d480)     _u32ModbusMaxByteToByte

0000d4c0     353 (0000d4c0)     _u32ModbusMaxMessToMess
0000d4c2     353 (0000d4c0)     _u32ModbusMinMessToMess
0000d4c4     353 (0000d4c0)     _u32ModbusMaxByteToByteExact
0000d4c6     353 (0000d4c0)     _u32ModbusMaxMessToMessExact
0000d4c8     353 (0000d4c0)     _u32ModbusTimeout
0000d4ca     353 (0000d4c0)     _u32WrongElementSizeTable
0000d4cc     353 (0000d4c0)     _u32ElementSizeTableD384_0
0000d4ce     353 (0000d4c0)     _u32ElementSizeTableB326_0
0000d4d0     353 (0000d4c0)     _u32ElementSizeTableD384_1
0000d4d2     353 (0000d4c0)     _u32ElementSizeTableB326_1
0000d4d4     353 (0000d4c0)     _u32ElementSizeTableD384_2
0000d4d6     353 (0000d4c0)     _u32ElementSizeTableB326_2
0000d4d8     353 (0000d4c0)     _HMMODBUS_pu8ReadServerIDDatAdr
0000d4da     353 (0000d4c0)     _HMMODBUS_pu8ReadDeviceIDVendorName
0000d4dc     353 (0000d4c0)     _HMMODBUS_pu8ReadDeviceIDProductCode
0000d4de     353 (0000d4c0)     _HMMODBUS_pu8ReadDeviceIDMajorMinorRevision
0000d4e0     353 (0000d4c0)     _HMMODBUS_pu8ReadDeviceIDVendorUrl
0000d4e2     353 (0000d4c0)     _HMMODBUS_pu8ReadDeviceIDProductName
0000d4e4     353 (0000d4c0)     _HMMODBUS_pu8ReadDeviceIDModelName
0000d4e6     353 (0000d4c0)     _HMMODBUS_pu8ReadDeviceIDUserApplicationName
0000d4e8     353 (0000d4c0)     _HMMODBUS_pu8ReadDeviceIDUserReserve0
0000d4ea     353 (0000d4c0)     _HMMODBUS_pu8ReadDeviceIDUserReserve1
0000d4ec     353 (0000d4c0)     _HMMODBUS_pu8ReadDeviceIDUserReserve2
0000d4ee     353 (0000d4c0)     _pfWriteParElementCallbackFunction
0000d4f0     353 (0000d4c0)     _u32ModbusTimeoutBufferIndex
0000d4f2     353 (0000d4c0)     _u32RxTimeout
0000d4f4     353 (0000d4c0)     _realRxByteDelay
0000d4f6     353 (0000d4c0)     _realRxByteDelayLastFail
0000d4f8     353 (0000d4c0)     _u32RxTimeoutLastFail
0000d4fa     353 (0000d4c0)     _HMMODBUS_u32DebugAddrReadFileReal
0000d4fc     353 (0000d4c0)     _HMMODBUS_u32DebugAddrReadFileFromIndex
0000d4fe     353 (0000d4c0)     _HMMODBUS_u32DebugAddrReadFileFromAddress

0000d500     354 (0000d500)     _HMMODBUS_u32DebugAddrReadPlusOffset
0000d502     354 (0000d500)     _HMMODBUS_u32DebugAddrReadFileCircleTooFarAddress
0000d504     354 (0000d500)     _HMMODBUS_u32DebugAddrReadFileCircle
0000d506     354 (0000d500)     _HMMODBUS_u32DebugAddrReadFileForRead
0000d508     354 (0000d500)     _HMMODBUS_u32DebugAddrReadFileForReadLooped
0000d50a     354 (0000d500)     _HMMODBUS_nSizeReadRequestLoopLeft
0000d50c     354 (0000d500)     _u32BufferAddressStart
0000d50e     354 (0000d500)     _u32BufferSize
0000d510     354 (0000d500)     _u32SampleCountBuffer
0000d512     354 (0000d500)     _u32SampleCountAvailable
0000d514     354 (0000d500)     _u32StartSampleIndex
0000d516     354 (0000d500)     _u32ElementsSizeModbus
0000d518     354 (0000d500)     _u32ElementsSizeMemory
0000d51a     354 (0000d500)     _nTimeTickDelayModbus
0000d51c     354 (0000d500)     _nTimeTickDelayModbusMin
0000d51e     354 (0000d500)     _nTimeTickDelayModbusMax
0000d522     354 (0000d500)     _HMMODBUS_u32RegisterAddressDummy
0000d525     354 (0000d500)     _HMMODBUS_u32CoilAddressDummy
0000d528     354 (0000d500)     _HMMODBUS_u32RegisterAddressInRamDummy
0000d52c     354 (0000d500)     _HMMODBUS_u32CoilAddressInRamDummy
0000d532     354 (0000d500)     _pcm_wFlags
0000d533     354 (0000d500)     _pcm_wFlagsRxTx
0000d534     354 (0000d500)     _pcm_nTxTodo
0000d535     354 (0000d500)     _pcm_nRxTodoEcho
0000d536     354 (0000d500)     _pcm_nRxTodo
0000d537     354 (0000d500)     _pcm_nRxCheckSum
0000d538     354 (0000d500)     _u8UartIndex
0000d53a     354 (0000d500)     _pcm_pTxBuff
0000d53c     354 (0000d500)     _pcm_pRxBuff

0000d540     355 (0000d540)     _QueueTestTable

0000d600     358 (0000d600)     _sRecConfigParam

0000d6c0     35b (0000d6c0)     _sScopeHandlePrm

0000d77a     35d (0000d740)     _nRecorderFreemasterIndex
0000d77b     35d (0000d740)     _nScopePrmFreemasterIndex
0000d77c     35d (0000d740)     _bRecorderParameterUsage
0000d77d     35d (0000d740)     _bScopeParameterUsage
0000d77e     35d (0000d740)     _u16TimeBase
0000d77f     35d (0000d740)     _breakData

0000d780     35e (0000d780)     _MAIN_bDateTimeSet
0000d781     35e (0000d780)     _bDummyStatsDevRunning
0000d782     35e (0000d780)     _bDummyReqstDevRunning
0000d783     35e (0000d780)     _s16DummyCurrentPhaseAStartup
0000d784     35e (0000d780)     _s16DummyCurrentPhaseBStartup
0000d785     35e (0000d780)     _s16DummyCurrentPhaseCStartup
0000d786     35e (0000d780)     _s16DummyVoltageDCLinkStartup
0000d787     35e (0000d780)     _s16DummyCurrentPhaseAStop
0000d788     35e (0000d780)     _s16DummyCurrentPhaseBStop
0000d789     35e (0000d780)     _s16DummyCurrentPhaseCStop
0000d78a     35e (0000d780)     _s16DummyVoltageDCLinkStop
0000d78b     35e (0000d780)     _s16DummyCurrentPhaseAIdle
0000d78c     35e (0000d780)     _s16DummyCurrentPhaseBIdle
0000d78d     35e (0000d780)     _s16DummyCurrentPhaseCIdle
0000d78e     35e (0000d780)     _s16DummyVoltageDCLinkIdle
0000d78f     35e (0000d780)     _s16DummyIncrementLoopCDiff
0000d790     35e (0000d780)     _s16DummyIncrementLoopA
0000d791     35e (0000d780)     _s16DummyIncrementLoopB
0000d792     35e (0000d780)     _s16DummyIncrementLoopC
0000d793     35e (0000d780)     _s16DummyIncrementLoopV
0000d794     35e (0000d780)     _s16DummyCurrentPhaseA
0000d795     35e (0000d780)     _s16DummyCurrentPhaseB
0000d796     35e (0000d780)     _s16DummyCurrentPhaseC
0000d797     35e (0000d780)     _s16DummyVoltageDCLink
0000d798     35e (0000d780)     _s16DummyIncrementLoop
0000d799     35e (0000d780)     _u16DummyDataCnt
0000d79a     35e (0000d780)     _s16DummyDataTst
0000d79b     35e (0000d780)     _s16ScaleDataTst
0000d79c     35e (0000d780)     _u16TestData0
0000d79d     35e (0000d780)     _u16TestData1
0000d79e     35e (0000d780)     _u16TestData2
0000d79f     35e (0000d780)     _u16TestData3
0000d7a0     35e (0000d780)     _u16TestData4
0000d7a1     35e (0000d780)     _u16TestData5
0000d7a2     35e (0000d780)     _u16TestData6
0000d7a3     35e (0000d780)     _u16TestData7
0000d7a4     35e (0000d780)     _u16TestData8
0000d7a5     35e (0000d780)     _u16TestData9
0000d7a6     35e (0000d780)     _s16DummyData
0000d7a7     35e (0000d780)     _u16WatchdogPrescaler
0000d7a8     35e (0000d780)     _u16WatchdogPrescalerOld
0000d7a9     35e (0000d780)     _u16WatchdogPrescalerTime
0000d7aa     35e (0000d780)     _u16WatchdogPrescalerTimeOld
0000d7ab     35e (0000d780)     _u16DelayCtrlLoop_100nsec
0000d7ac     35e (0000d780)     _u16DelayCtrlLoopOld_100nsec
0000d7ad     35e (0000d780)     _u16DelayMainLoop_usec
0000d7ae     35e (0000d780)     _u16DelayMainLoopOld_usec
0000d7af     35e (0000d780)     _u16PeriodControl_usec
0000d7b0     35e (0000d780)     _u16PeriodControlOld_usec
0000d7b1     35e (0000d780)     _u16CountSetParameterFail
0000d7b2     35e (0000d780)     _u16CountMaxParameterTest
0000d7b3     35e (0000d780)     _bResetAllTimeMeasures
0000d7b4     35e (0000d780)     _eResponseCode_CSMON_eInit
0000d7b5     35e (0000d780)     _eResponseCode_CSMON_eProcess
0000d7b6     35e (0000d780)     _eResponseCode_CSMON_eSetServerOnStatus
0000d7b7     35e (0000d780)     _eResponseCode_CSMON_eSetParameter
0000d7b8     35e (0000d780)     _eResponseCode_CSMON_eSetRecorder
0000d7b9     35e (0000d780)     _eResponseCode_CSMON_eSetScope
0000d7ba     35e (0000d780)     _eResponseCode_CSMON_eSetTimerPeriodISRFunctionRegister
0000d7bb     35e (0000d780)     _eResponseCode_CSMON_eSetFlagProcessPassed
0000d7bc     35e (0000d780)     _s32DummyCurrentPhaseA
0000d7be     35e (0000d780)     _s32DummyCurrentPhaseB

0000d7c0     35f (0000d7c0)     _s32DummyCurrentPhaseC
0000d7c2     35f (0000d7c0)     _s32DummyVoltageDCLink
0000d7c4     35f (0000d7c0)     _s32DummyIncrementLoop
0000d7c6     35f (0000d7c0)     _u32DummyDataCnt
0000d7c8     35f (0000d7c0)     _pu16ModbusMessageCounter
0000d7ca     35f (0000d7c0)     _aDummyDataTable
0000d7cc     35f (0000d7c0)     _u32DelayCtrlLoop_Ticks
0000d7ce     35f (0000d7c0)     _u32DelayMainLoop_Ticks
0000d7d0     35f (0000d7c0)     _u32TimeMainLoopProcessCSMON_Bgn_Ticks
0000d7d2     35f (0000d7c0)     _u32TimeMainLoopProcessCSMON_End_Ticks
0000d7d4     35f (0000d7c0)     _u32TimeMainLoopProcessCSMON_Now_Ticks
0000d7d6     35f (0000d7c0)     _u32TimeMainLoopProcessCSMON_Max_Ticks
0000d7d8     35f (0000d7c0)     _u32TimeMainLoopCycle_Bgn_Ticks
0000d7da     35f (0000d7c0)     _u32TimeMainLoopCycle_End_Ticks
0000d7dc     35f (0000d7c0)     _u32TimeMainLoopCycle_Now_Ticks
0000d7de     35f (0000d7c0)     _u32TimeMainLoopCycle_Max_Ticks
0000d7e0     35f (0000d7c0)     _u32TimeCSMON_ISR_Ticks
0000d7e2     35f (0000d7c0)     _u32TimeCSMON_ISR_Max_Ticks
0000d7e4     35f (0000d7c0)     _u32TimeCtrlLoop_Ticks
0000d7e6     35f (0000d7c0)     _u32TimeCtrlLoopMax_Ticks
0000d7e8     35f (0000d7c0)     _u32ParamTime_Ticks
0000d7ea     35f (0000d7c0)     _u32GetBaudError_PPM
0000d7ec     35f (0000d7c0)     _EMIF_AUX_pu16ParamVerBackupInEmif
0000d7ee     35f (0000d7c0)     _EMIF_AUX_pu16DateTimeBackupInEmif
0000d7f0     35f (0000d7c0)     _EMIF_AUX_pu16CheckSumBackupInEmif
0000d7f4     35f (0000d7c0)     _u64DummyDataCnt
0000d7f8     35f (0000d7c0)     _MAIN_sDateTimeGet

0000d800     360 (0000d800)     _MAIN_sDateTimeSet
0000d808     360 (0000d800)     _CSMON_au8FileRecorderConfigElementsSizeTable
0000d835     360 (0000d800)     _HMREC_u16FailSnapshotWrite
0000d838     360 (0000d800)     _u32DeviceLSPCLKFreq
0000d83a     360 (0000d800)     _u32DeviceLSPCLKFreqRoundAndMinErrorBaud
0000d83c     360 (0000d800)     _HMDRV_u32SCIErrorPPM
0000d83e     360 (0000d800)     _u32DeviceSYSCLKFreq

0000d840     361 (0000d840)     _pcm_pCommBuffer

0000d8b9     362 (0000d880)     _CSMON_au8FileParameterListElementsSizeTablePart2
0000d8ba     362 (0000d880)     _CSMON_au32FileAutorization_FunctionAfterWriteFileRecord

0000d8c0     363 (0000d8c0)     _sRecExternParam

0000d914     364 (0000d900)     _CSMON_au8FileScopeConfigurationElementsSizeTable
0000d93e     364 (0000d900)     _CSMON_abFlagProcessPassed

0000d940     365 (0000d940)     _DataChangedFlag

0000d980     366 (0000d980)     _CSMON_au8FileRecorderDataElementsSizeTable
0000d9bc     366 (0000d980)     _CSMON_au8FileParameterListElementsSizeTablePart1

0000d9c0     367 (0000d9c0)     _IO_bUseIOFbkEmulation
0000d9c1     367 (0000d9c0)     _u16DigitalOutputs
0000d9c2     367 (0000d9c0)     _uDOExternal
0000d9c3     367 (0000d9c0)     _uDIExternal
0000d9c4     367 (0000d9c0)     _uDOExternalFbk
0000d9c5     367 (0000d9c0)     _uDIExternalFbk
0000d9c6     367 (0000d9c0)     _uFaultInput
0000d9c7     367 (0000d9c0)     _uFaultInputDeny
0000d9c8     367 (0000d9c0)     _uEnableOutput
0000d9c9     367 (0000d9c0)     _uEnableOutputUse
0000d9ca     367 (0000d9c0)     _bUseFPGACommandOnEnOut2346
0000d9cb     367 (0000d9c0)     _uEnableOutput2346
0000d9cc     367 (0000d9c0)     _IO_uErrorStop
0000d9cd     367 (0000d9c0)     _IO_nStackMask
0000d9ce     367 (0000d9c0)     _u32DigitalInputs
0000d9d0     367 (0000d9c0)     _u32DigitalOutputPortMask1
0000d9d2     367 (0000d9c0)     _u32DigitalOutputPortMask2
0000d9d4     367 (0000d9c0)     _u32DigitalOutputPortMask
0000d9d6     367 (0000d9c0)     _u32DigitalInputPortMask
0000d9d8     367 (0000d9c0)     _u32OutputPortDataRead
0000d9da     367 (0000d9c0)     _u32OutputPortDataWrite
0000d9dc     367 (0000d9c0)     _u32InputPortDataRead
0000d9de     367 (0000d9c0)     _u32OutputPortDataNew
0000d9e0     367 (0000d9c0)     _u32OutputPortDataPreserve
0000d9e2     367 (0000d9c0)     _u32InputPortDataReadActiveLow
0000d9e4     367 (0000d9c0)     _bUseSCIA_On_USB
0000d9e6     367 (0000d9c0)     _UART_sHandle
0000d9fa     367 (0000d9c0)     _CSMON_au32FileParameterDefinitionsFileRecordElementsRealAddressTable

0000da00     368 (0000da00)     _MODBUSREG_asQueueTable
0000da20     368 (0000da00)     _sRecStatusParamInternal
0000da3e     368 (0000da00)     __lock

0000da40     369 (0000da40)     _sExternalRecoderHandle
0000da54     369 (0000da40)     _RTC_DRV_bDateTimeSet
0000da55     369 (0000da40)     _RTC_DRV_bDateTimeGet
0000da56     369 (0000da40)     _RTC_DRV_bDateTimeSetupAtStart
0000da57     369 (0000da40)     _RTC_DRV_bDateTimeGetRequest
0000da58     369 (0000da40)     _RTC_DRV_sDateTimeGet
0000da60     369 (0000da40)     _RTC_DRV_sDateTimeSet
0000da68     369 (0000da40)     _MAIN_sTimeI2C
0000da6a     369 (0000da40)     _MAIN_sDateI2C
0000da6c     369 (0000da40)     _MAIN_sTime
0000da6e     369 (0000da40)     _MAIN_sDate
0000da70     369 (0000da40)     _MAIN_u32FreeCounter
0000da72     369 (0000da40)     _HMRECPRM_sDateTime
0000da7a     369 (0000da40)     _CSMON_au32FileParameterDefinitionsFileRecordElementsSizeTable

0000da80     36a (0000da80)     _MODBUSREG_au8DeviceIDMajorMinorRevision
0000da90     36a (0000da80)     _MODBUSREG_au8DeviceIDModelName
0000daa0     36a (0000da80)     _MODBUSREG_au8DeviceIDProductCode
0000dab0     36a (0000da80)     _MODBUSREG_au8DeviceIDProductName

0000dac0     36b (0000dac0)     _MODBUSREG_au8DeviceIDUserApplicationName
0000dad0     36b (0000dac0)     _MODBUSREG_au8DeviceIDUserReserve0
0000dae0     36b (0000dac0)     _MODBUSREG_au8DeviceIDUserReserve1
0000daf0     36b (0000dac0)     _MODBUSREG_au8DeviceIDUserReserve2

0000db00     36c (0000db00)     _MODBUSREG_au8DeviceIDVendorName
0000db10     36c (0000db00)     _MODBUSREG_au8DeviceIDVendorUrl
0000db20     36c (0000db00)     _MODBUSREG_au8ServerIDData
0000db30     36c (0000db00)     _primeIndArr
0000db3e     36c (0000db00)     __unlock

0000db40     36d (0000db40)     _cpuTimer0IntCount
0000db41     36d (0000db40)     _cpuTimer1IntCount
0000db42     36d (0000db40)     _cpuTimer2IntCount
0000db43     36d (0000db40)     _u16TimerMainPeriod
0000db44     36d (0000db40)     _u16SecondPeriod
0000db45     36d (0000db40)     _u16SecondCounter
0000db46     36d (0000db40)     _u16TimerMainISRCounter
0000db47     36d (0000db40)     _TMR_u16FreeRunTimerPrescaller
0000db48     36d (0000db40)     _hours
0000db49     36d (0000db40)     _minutes
0000db4a     36d (0000db40)     _seconds
0000db4b     36d (0000db40)     _second_Passed
0000db4c     36d (0000db40)     _pfCSMONFunction
0000db4e     36d (0000db40)     _CSMON_au8FileParameterCountElementsSizeTable
0000db58     36d (0000db40)     _CSMON_au8FileRTCElementsSizeTable
0000db62     36d (0000db40)     _HMMODBUS_nFilePrimaryAddrWriteLast
0000db6c     36d (0000db40)     _HMMOSBUS_nFileWriteAddrReadLast
0000db76     36d (0000db40)     _CSMON_au8FileParameterNumericElementsSizeTable
0000db7f     36d (0000db40)     _CSMON_au8FileParameterListElementsSizeTablePart3

0000db80     36e (0000db80)     _SCI_ErrorRx
0000db88     36e (0000db80)     _UART_DRV_RXIntOverflowCounter
0000db90     36e (0000db80)     _UART_DRV_u32TimeDiffLast
0000db98     36e (0000db80)     _UART_DRV_u32TimeDiffNow
0000dba0     36e (0000db80)     _UART_DRV_u32TimeDiffRead
0000dba8     36e (0000db80)     _UART_RXIntOverflowCounter
0000dbb0     36e (0000db80)     _pfDelayedFunction
0000dbb8     36e (0000db80)     _pfDelayedFunction_u8

0000dbc0     36f (0000dbc0)     _u32TimeDiffLast
0000dbc8     36f (0000dbc0)     _u32TimeDiffNow
0000dbd0     36f (0000dbc0)     _u32TimeDiffRead
0000dbd8     36f (0000dbc0)     _HMMODBUS_u32CoilAddressTableInRam
0000dbde     36f (0000dbc0)     _MODBUSREG_sInputCoilAddressTableInRam
0000dbe4     36f (0000dbc0)     _pBufferScope
0000dbea     36f (0000dbc0)     _u32RecorderLastFreeCounter
0000dbf0     36f (0000dbc0)     _u32RecorderMicroSec
0000dbf6     36f (0000dbc0)     _Example_Result
0000dbf8     36f (0000dbc0)     _Example_PassCount
0000dbfa     36f (0000dbc0)     _Example_Fail
0000dbfc     36f (0000dbc0)     _CSMON_au8FileRecorderStatusElementsSizeTable

0000dc00     370 (0000dc00)     ___TI_enable_exit_profile_output
0000dc02     370 (0000dc00)     ___TI_cleanup_ptr
0000dc04     370 (0000dc00)     ___TI_dtors_ptr
0000dc06     370 (0000dc00)     _MODBUSREG_sInputRegisterAddressTableInRam
0000dc0a     370 (0000dc00)     _UARTRxBufferRDCount
0000dc0e     370 (0000dc00)     _UARTRxBufferRDIndex
0000dc12     370 (0000dc00)     _UARTRxBufferWRCount
0000dc16     370 (0000dc00)     _UARTRxBufferWRIndex
0000dc1a     370 (0000dc00)     _UART_DRV_RxBufferRDCount
0000dc1e     370 (0000dc00)     _UART_DRV_RxBufferRDIndex
0000dc22     370 (0000dc00)     _UART_DRV_RxBufferWRCount
0000dc26     370 (0000dc00)     _UART_DRV_RxBufferWRIndex
0000dc2a     370 (0000dc00)     _u16TimerMainDelayedData
0000dc2e     370 (0000dc00)     _u16TimerMainFunctionDelay
0000dc32     370 (0000dc00)     _u16TimerMainFunctionDelayCompare
0000dc36     370 (0000dc00)     _u16TimerMainFunctionDelayCounter
0000dc3a     370 (0000dc00)     _CSMON_abFileAutorization_RecordReadOnly
0000dc3d     370 (0000dc00)     _CSMON_abFileAutorization_RecordStringData

0000dc40     371 (0000dc40)     _CSMON_au16FileAutorization_RecordOffsets
0000dc43     371 (0000dc40)     _CSMON_au32FileParameterDefinitionsFileRecordElementsRecordToRecordOffsetSizeBytesTable
0000dc46     371 (0000dc40)     _CSMON_au8FileRecorderDataElementsSizeTableUsedLength
0000dc49     371 (0000dc40)     _abRecorderJustStopped
0000dc4c     371 (0000dc40)     _abRecorderRunning
0000dc4f     371 (0000dc40)     _nSizeBytesScopeBuffer
0000dc52     371 (0000dc40)     _sScopeStatusParam
0000dc55     371 (0000dc40)     _CSMON_au8FileScopeStatusElementsSizeTable
0000dc56     371 (0000dc40)     _MODBUSREG_sInputRegisterAccessTableInRam
0000dc57     371 (0000dc40)     _sRecTimeBase
0000dc58     371 (0000dc40)     _errno

003d7e80    f5fa (003d7e80)     _PartIdRegs

003f126a    fc49 (003f1240)     _asParameterList

003f266a    fc99 (003f2640)     _auchCRCHi

003f276a    fc9d (003f2740)     _auchCRCLo

003f286a    fca1 (003f2840)     _PieVectTableInit

003f29ee    fca7 (003f29c0)     _CSMON_asAccessLevelPasswords

003f2b76    fcad (003f2b40)     _CSMON_au8FileImplementedFunctionCodes

003f2bbc    fcae (003f2b80)     _CSMON_au8FileParameterListElementsCountInPartTable
003f2bbf    fcae (003f2b80)     _HMMODBUS_u32CoilAddressTable

003f2bc2    fcaf (003f2bc0)     _MODBUSREG_sInputCoilAddressTable
003f2bc5    fcaf (003f2bc0)     _MODBUSREG_sInputRegisterAddressTable

003f7ff8    fdff (003f7fc0)     _CsmPwl


GLOBAL SYMBOLS: SORTED ALPHABETICALLY BY Name 

page  address   name                                                                                             
----  -------   ----                                                                                             
0     003e8000  .text                                                                                            
0     003f0f4b  C$$EXIT                                                                                          
0     003f079e  FD$$ADD                                                                                          
0     003f0f21  FD$$CMP                                                                                          
0     003f0b0f  FD$$DIV                                                                                          
0     003f0c21  FD$$MPY                                                                                          
0     003f123b  FD$$NEG                                                                                          
0     003f1219  FD$$SUB                                                                                          
0     003f1053  FD$$TOFS                                                                                         
0     003f1095  FD$$TOL                                                                                          
0     003f1144  FD$$TOUL                                                                                         
0     003f0d2c  FS$$ADD                                                                                          
0     003f1191  FS$$CMP                                                                                          
0     003f0ca4  FS$$DIV                                                                                          
0     003f0e73  FS$$MPY                                                                                          
0     003f1256  FS$$NEG                                                                                          
0     003f0d27  FS$$SUB                                                                                          
0     003f110c  FS$$TOFD                                                                                         
0     003f0fc5  FS$$TOI                                                                                          
0     003f0f74  FS$$TOL                                                                                          
0     003f10d2  FS$$TOU                                                                                          
0     003f1074  FS$$TOUL                                                                                         
0     003f1031  I$$DIV                                                                                           
0     003f1042  I$$MOD                                                                                           
0     003f1128  L$$TOFD                                                                                          
0     003f115f  L$$TOFS                                                                                          
0     003f1179  LL$$AND                                                                                          
0     003f01f3  LL$$DIV                                                                                          
0     003f022f  LL$$MOD                                                                                          
0     003f1181  LL$$OR                                                                                           
0     003f1189  LL$$XOR                                                                                          
0     003f1227  U$$DIV                                                                                           
0     003f122c  U$$MOD                                                                                           
0     003f11a8  U$$TOFD                                                                                          
0     003f1209  U$$TOFS                                                                                          
0     003f11d4  UL$$TOFS                                                                                         
0     003f0269  ULL$$DIV                                                                                         
0     003f0298  ULL$$MOD                                                                                         
0     003ef52b  _ADCINT1_ISR                                                                                     
0     003ef526  _ADCINT2_ISR                                                                                     
0     003ef521  _ADCINT3_ISR                                                                                     
0     003ef51c  _ADCINT4_ISR                                                                                     
0     003ef517  _ADCINT5_ISR                                                                                     
0     003ef512  _ADCINT6_ISR                                                                                     
0     003ef50d  _ADCINT7_ISR                                                                                     
0     003ef508  _ADCINT8_ISR                                                                                     
0     003ef503  _ADCINT9_ISR                                                                                     
1     00007100  _AdcRegs                                                                                         
1     00000b00  _AdcResult                                                                                       
0     003ef4fe  _CLA1_INT1_ISR                                                                                   
0     003ef4f9  _CLA1_INT2_ISR                                                                                   
0     003ef4f4  _CLA1_INT3_ISR                                                                                   
0     003ef4ef  _CLA1_INT4_ISR                                                                                   
0     003ef4ea  _CLA1_INT5_ISR                                                                                   
0     003ef4e5  _CLA1_INT6_ISR                                                                                   
0     003ef4e0  _CLA1_INT7_ISR                                                                                   
0     003ef4db  _CLA1_INT8_ISR                                                                                   
0     003f124b  _CPUTimer_setEmulationMode                                                                       
1     0000dc3a  _CSMON_abFileAutorization_RecordReadOnly                                                         
1     0000dc3d  _CSMON_abFileAutorization_RecordStringData                                                       
1     0000d93e  _CSMON_abFlagProcessPassed                                                                       
0     003f29ee  _CSMON_asAccessLevelPasswords                                                                    
1     0000ba40  _CSMON_asFileParameterDefinitionsFromAccessLevel                                                 
1     0000dc40  _CSMON_au16FileAutorization_RecordOffsets                                                        
1     0000d8ba  _CSMON_au32FileAutorization_FunctionAfterWriteFileRecord                                         
1     0000d9fa  _CSMON_au32FileParameterDefinitionsFileRecordElementsRealAddressTable                            
1     0000dc43  _CSMON_au32FileParameterDefinitionsFileRecordElementsRecordToRecordOffsetSizeBytesTable          
1     0000da7a  _CSMON_au32FileParameterDefinitionsFileRecordElementsSizeTable                                   
0     003f2b76  _CSMON_au8FileImplementedFunctionCodes                                                           
1     0000db4e  _CSMON_au8FileParameterCountElementsSizeTable                                                    
0     003f2bbc  _CSMON_au8FileParameterListElementsCountInPartTable                                              
1     0000d9bc  _CSMON_au8FileParameterListElementsSizeTablePart1                                                
1     0000d8b9  _CSMON_au8FileParameterListElementsSizeTablePart2                                                
1     0000db7f  _CSMON_au8FileParameterListElementsSizeTablePart3                                                
1     0000db76  _CSMON_au8FileParameterNumericElementsSizeTable                                                  
1     0000db58  _CSMON_au8FileRTCElementsSizeTable                                                               
1     0000d808  _CSMON_au8FileRecorderConfigElementsSizeTable                                                    
1     0000d980  _CSMON_au8FileRecorderDataElementsSizeTable                                                      
1     0000dc46  _CSMON_au8FileRecorderDataElementsSizeTableUsedLength                                            
1     0000dbfc  _CSMON_au8FileRecorderStatusElementsSizeTable                                                    
1     0000d914  _CSMON_au8FileScopeConfigurationElementsSizeTable                                                
1     0000dc55  _CSMON_au8FileScopeStatusElementsSizeTable                                                       
0     003eb3df  _CSMON_bAutorizationPasswordCheck                                                                
0     003ea15f  _CSMON_bCheckValidDateTime                                                                       
1     0000b546  _CSMON_bGetDateTimeAutorization                                                                  
1     0000b548  _CSMON_bGetDateTimeRequest                                                                       
0     003ebfd6  _CSMON_bPasswordGenerateFromHash                                                                 
1     0000b54b  _CSMON_bResetMaxMeasure                                                                          
1     0000b561  _CSMON_bRunningInitialization                                                                    
1     0000b547  _CSMON_bSetDateTimeRequest                                                                       
1     0000b556  _CSMON_bUseAccessLevelForHoldingRegistersAndCoils                                                
1     0000b557  _CSMON_bUseAccessLevelForInputRegistersAndCoils                                                  
1     0000b55e  _CSMON_bUseDisconnectOnTimeout                                                                   
1     0000b54d  _CSMON_bWatchdogCalcNeeded                                                                       
0     003ebfb8  _CSMON_eApplyParameterChanges                                                                    
0     003ebfa7  _CSMON_eGetParameterCountInRecorder                                                              
0     003ebf89  _CSMON_eGetParameterInRecorderAtPosition                                                         
0     003ebf74  _CSMON_eGetRecorderConfiguration                                                                 
0     003ebf58  _CSMON_eGetRecorderTriggerAtPosition                                                             
0     003ebd77  _CSMON_eInit                                                                                     
0     003ebbff  _CSMON_eProcess                                                                                  
0     003ebbfb  _CSMON_eRegisterWriteParElementCallbackFunction                                                  
0     003ebbe6  _CSMON_eResetParameterTable                                                                      
0     003ebbe1  _CSMON_eSetAutoServiceWatchdogInternalSlowCalculationsInMainLoop                                 
0     003ebb8f  _CSMON_eSetExternalRecorderUsage                                                                 
0     003ebb8a  _CSMON_eSetFirmwareApplicationVersion                                                            
0     003ebb77  _CSMON_eSetFlagProcessPassed                                                                     
0     003ebb73  _CSMON_eSetInternalTimerPeriod                                                                   
0     003ebb6e  _CSMON_eSetMaxTimeInISR                                                                          
0     003ebb69  _CSMON_eSetMinGuaranteedTimeBetweenTwoISRs                                                       
0     003eb69a  _CSMON_eSetParameter                                                                             
0     003eb67f  _CSMON_eSetParameterCountInRecorder                                                              
0     003eb669  _CSMON_eSetParameterCountInScope                                                                 
0     003eb637  _CSMON_eSetParameterInRecorderAtPosition                                                         
0     003eb607  _CSMON_eSetParameterInScopeAtPosition                                                            
0     003eb5e6  _CSMON_eSetRecorderConfiguration                                                                 
0     003eb5ab  _CSMON_eSetRecorderConfigurationSkipSamples                                                      
0     003eb55e  _CSMON_eSetRecorderTriggerAtPosition                                                             
0     003eb555  _CSMON_eSetServerOnStatus                                                                        
0     003eb551  _CSMON_eSetTimerPeriodISRFunctionRegister                                                        
0     003ea822  _CSMON_eSetUpRecParam                                                                            
0     003eb4f3  _CSMON_eSetUpScopeParam                                                                          
0     003eb4ef  _CSMON_eSetupWriteParElementFixedArguments                                                       
1     0000b5ae  _CSMON_pasFileParameterList                                                                      
1     0000b5b0  _CSMON_pasFileParameterShortName                                                                 
1     0000b5be  _CSMON_pauFileParameterNumeric                                                                   
1     0000b5b4  _CSMON_psFileParameterAux                                                                        
1     0000b5b6  _CSMON_pu32FileParameterReserved                                                                 
1     0000b5b2  _CSMON_pu32FileParameterString                                                                   
1     0000b5bc  _CSMON_pu32HoldingRegistersAccessTableInRam                                                      
1     0000b5b8  _CSMON_pu32HoldingRegistersAddressTable                                                          
1     0000b5ba  _CSMON_pu32HoldingRegistersAddressTableInRam                                                     
1     0000b5aa  _CSMON_s32MaxTimeProcessAllowedCalc_Ticks                                                        
1     0000b5e4  _CSMON_sDateTime                                                                                 
1     0000b5f0  _CSMON_sDateTimeApplication                                                                      
1     0000b5d8  _CSMON_sDateTimeDefault                                                                          
1     0000b610  _CSMON_sFileAutorization                                                                         
1     0000b640  _CSMON_sFileParameterAccessList                                                                  
1     0000b600  _CSMON_sFileParameterCount                                                                       
1     0000b5ca  _CSMON_sFileProtocolVersion                                                                      
1     0000b558  _CSMON_u16CurrentAccessLevelPrev                                                                 
1     0000b559  _CSMON_u16FileParameterFillCount                                                                 
1     0000b55b  _CSMON_u16FileParameterListCount                                                                 
1     0000b55c  _CSMON_u16FileParameterNameCount                                                                 
1     0000b55d  _CSMON_u16FileParameterNumeric                                                                   
1     0000b55a  _CSMON_u16FileParameterUseMaxCnt                                                                 
0     003ea7a9  _CSMON_u16FindIndexParameterTable                                                                
1     0000b540  _CSMON_u16MaskSetupRecorderParam                                                                 
1     0000b541  _CSMON_u16MaskStartRecorderParam                                                                 
1     0000b542  _CSMON_u16MaskStopRecorderParam                                                                  
1     0000b54f  _CSMON_u16MaxTimeInISR_usec                                                                      
1     0000b551  _CSMON_u16MaxTimeTillWdtClear_usec                                                               
1     0000b552  _CSMON_u16MinTimeProcessAllowedNeeded_usec                                                       
1     0000b550  _CSMON_u16MinTimeProcessExit_usec                                                                
1     0000b560  _CSMON_u16NoMessageTimeoutOld_msec                                                               
1     0000b55f  _CSMON_u16NoMessageTimeout_msec                                                                  
0     003eb4ea  _CSMON_u16ParametersAccessListIndexGenerate                                                      
1     0000b549  _CSMON_u16SCIErrorPercent                                                                        
1     0000b54e  _CSMON_u16WatchdogPrescaler                                                                      
1     0000b582  _CSMON_u32FreeRunTimerAccessChangeBegin                                                          
1     0000b584  _CSMON_u32FreeRunTimerAccessChangeEnd                                                            
1     0000b586  _CSMON_u32FreeRunTimerAccessChangeMax                                                            
1     0000b56a  _CSMON_u32FreeRunTimerCheckSumListBegin                                                          
1     0000b56c  _CSMON_u32FreeRunTimerCheckSumListEnd                                                            
1     0000b56e  _CSMON_u32FreeRunTimerCheckSumListMax                                                            
1     0000b570  _CSMON_u32FreeRunTimerCheckSumNameBegin                                                          
1     0000b572  _CSMON_u32FreeRunTimerCheckSumNameEnd                                                            
1     0000b574  _CSMON_u32FreeRunTimerCheckSumNameMax                                                            
1     0000b576  _CSMON_u32FreeRunTimerCheckSumNumbBegin                                                          
1     0000b578  _CSMON_u32FreeRunTimerCheckSumNumbEnd                                                            
1     0000b57a  _CSMON_u32FreeRunTimerCheckSumNumbMax                                                            
1     0000b57c  _CSMON_u32FreeRunTimerCheckSumStrgBegin                                                          
1     0000b57e  _CSMON_u32FreeRunTimerCheckSumStrgEnd                                                            
1     0000b580  _CSMON_u32FreeRunTimerCheckSumStrgMax                                                            
1     0000b5c4  _CSMON_u32FreeRunTimerDiff                                                                       
1     0000b5c0  _CSMON_u32FreeRunTimerNow                                                                        
1     0000b58c  _CSMON_u32FreeRunTimerPasswordHashBegin                                                          
1     0000b58e  _CSMON_u32FreeRunTimerPasswordHashEnd                                                            
1     0000b590  _CSMON_u32FreeRunTimerPasswordHashMax                                                            
1     0000b588  _CSMON_u32FreeRunTimerPrepareFileParameterAccessListEnd                                          
1     0000b58a  _CSMON_u32FreeRunTimerPrepareFileParameterAccessListMax                                          
1     0000b5c2  _CSMON_u32FreeRunTimerPrev                                                                       
1     0000b592  _CSMON_u32FreeRunTimerProcessBegin                                                               
1     0000b596  _CSMON_u32FreeRunTimerProcessEnd                                                                 
1     0000b598  _CSMON_u32FreeRunTimerProcessMax                                                                 
1     0000b594  _CSMON_u32FreeRunTimerProcessNow                                                                 
0     003eb4e6  _CSMON_u32GetBaudError_PPM                                                                       
0     003eb4ce  _CSMON_u32GetFreeRunningTimerMicroseconds                                                        
0     003eab17  _CSMON_u32GetFreeRunningTimerTicks                                                               
0     003eb4cb  _CSMON_u32GetModbusMessageCounterRegisterRealAddress                                             
0     003eae1e  _CSMON_u32GetParameterAuxCheckSum                                                                
0     003eb42b  _CSMON_u32GetParameterCheckSum                                                                   
0     003eab1c  _CSMON_u32GetParameterListCheckSum                                                               
0     003ead10  _CSMON_u32GetParameterNumbCheckSum                                                               
0     003eac82  _CSMON_u32GetParameterShortNameCheckSum                                                          
0     003ead9e  _CSMON_u32GetParameterStringCheckSum                                                             
0     003ea7ea  _CSMON_u32GetRealAddressAndSizeOffsetFromParameter                                               
1     0000b59e  _CSMON_u32MaxTimeInISR_Ticks                                                                     
1     0000b5ac  _CSMON_u32MaxTimeProcessAllowed_Ticks                                                            
1     0000b5a0  _CSMON_u32MaxTimeProcess_Ticks                                                                   
1     0000b5a2  _CSMON_u32MaxTimeTillWdtClearISRs                                                                
1     0000b5a6  _CSMON_u32MaxTimeTillWdtClear_Ticks                                                              
1     0000b5a8  _CSMON_u32MinTimeProcessAllowedNeeded_Ticks                                                      
1     0000b5a4  _CSMON_u32MinTimeProcessExit_Ticks                                                               
1     0000b5c6  _CSMON_u32NoMessageTime                                                                          
1     0000b5c8  _CSMON_u32NoMessageTimeout_Ticks                                                                 
1     0000b568  _CSMON_u32SCIErrorPPM                                                                            
1     0000b59c  _CSMON_u32WatchdogPeriod_Ticks                                                                   
1     0000b59a  _CSMON_u32WatchdogPeriod_usec                                                                    
0     003ea525  _CSMON_vAddSetupRecorderParameterMask                                                            
0     003eb407  _CSMON_vAutorizationReset                                                                        
0     003ea99e  _CSMON_vCheckLoadRecorderTable                                                                   
0     003eb2de  _CSMON_vCheckSaveRecorderTable                                                                   
0     003eae50  _CSMON_vFileParameterCountCheckSumUpdate                                                         
0     003eb1eb  _CSMON_vFileRecoderStatusFix                                                                     
0     003ee89e  _CSMON_vGetDateTime                                                                              
0     003eb1d9  _CSMON_vInitHoldingRegistersTableChanges                                                         
0     003eb119  _CSMON_vInitRecorders                                                                            
0     003eb111  _CSMON_vInitScopes                                                                               
0     003eb0ad  _CSMON_vLoadRecorderConfigTrigger                                                                
0     003eaf0f  _CSMON_vLoadRecorderConfiguration                                                                
0     003eae6b  _CSMON_vPrepareFileParameterAccessList                                                           
0     003eaae9  _CSMON_vRecorderParamSetupProcess                                                                
0     003ea74f  _CSMON_vRecorderParamStartStopProcess                                                            
0     003ea728  _CSMON_vSaveRecorderConfig                                                                       
0     003ea674  _CSMON_vSaveRecorderConfigTrigger                                                                
0     003ea529  _CSMON_vSaveRecorderConfiguration                                                                
0     003ee88d  _CSMON_vSetDateTime                                                                              
0     003ea4b3  _CSMON_vSetDateTimeAutorization                                                                  
0     003ea4ae  _CSMON_vSetDateTimeRequest                                                                       
0     003ea4aa  _CSMON_vSetSetupRecorderParameterMask                                                            
0     003ea4a6  _CSMON_vSetStartRecorderParameterMask                                                            
0     003ea4a2  _CSMON_vSetStopRecorderParameterMask                                                             
0     003ea449  _CSMON_vSetupHoldingRegistersAndCoilsAddressTableAccessAll                                       
0     003ea30d  _CSMON_vSetupHoldingRegistersAndCoilsAddressTableFromCSMONParameterList                          
0     003ea2c2  _CSMON_vSetupInputRegistersAndCoilsAddressTableAccessAll                                         
0     003ea1dd  _CSMON_vSetupInputRegistersAndCoilsAddressTableFromCSMONParameterList                            
0     003ea1b6  _CSMON_vUpdateDateTimeFromApplication                                                            
1     00001400  _Cla1Regs                                                                                        
1     0000b51a  _CoilTest                                                                                        
1     00006400  _Comp1Regs                                                                                       
1     00006420  _Comp2Regs                                                                                       
1     00006440  _Comp3Regs                                                                                       
0     003ee7c8  _ControlProcess                                                                                  
1     0000bf66  _CpuTimer0                                                                                       
1     00000c00  _CpuTimer0Regs                                                                                   
1     0000bf6e  _CpuTimer1                                                                                       
1     00000c08  _CpuTimer1Regs                                                                                   
1     0000bf76  _CpuTimer2                                                                                       
1     00000c10  _CpuTimer2Regs                                                                                   
1     003f7ff8  _CsmPwl                                                                                          
1     00000ae0  _CsmRegs                                                                                         
0     003ef9ed  _CsmUnlock                                                                                       
0     003ef4d6  _DATALOG_ISR                                                                                     
0     003ef4d1  _DINTCH1_ISR                                                                                     
0     003ef4cc  _DINTCH2_ISR                                                                                     
0     003ef4c7  _DINTCH3_ISR                                                                                     
0     003ef4c2  _DINTCH4_ISR                                                                                     
0     003ef4bd  _DINTCH5_ISR                                                                                     
0     003ef4b8  _DINTCH6_ISR                                                                                     
0     003f1244  _DSP28x_DisableInt                                                                               
0     003f1248  _DSP28x_RestoreInt                                                                               
0     00008004  _DSP28x_usDelay                                                                          003f1265
1     0000d940  _DataChangedFlag                                                                                 
1     0000bffe  _DataChangedParamFlag                                                                            
1     00000880  _DevEmuRegs                                                                                      
0     003f10c3  _Device_init                                                                                     
0     003f10c2  _Device_initGPIO                                                                                 
0     003ef8d8  _DisableDog                                                                                      
1     00001000  _DmaRegs                                                                                         
0     003ef4b3  _ECAN0INTA_ISR                                                                                   
0     003ef4ae  _ECAN1INTA_ISR                                                                                   
0     003ef4a9  _ECAP1_INT_ISR                                                                                   
0     003ef4a4  _ECAP2_INT_ISR                                                                                   
0     003ef49f  _ECAP3_INT_ISR                                                                                   
1     00006040  _ECanaLAMRegs                                                                                    
1     000060c0  _ECanaMOTORegs                                                                                   
1     00006080  _ECanaMOTSRegs                                                                                   
1     00006100  _ECanaMboxes                                                                                     
1     00006000  _ECanaRegs                                                                                       
1     00006a00  _ECap1Regs                                                                                       
1     00006a20  _ECap2Regs                                                                                       
1     00006a40  _ECap3Regs                                                                                       
1     0000d7f0  _EMIF_AUX_pu16CheckSumBackupInEmif                                                               
1     0000d7ee  _EMIF_AUX_pu16DateTimeBackupInEmif                                                               
1     0000d7ec  _EMIF_AUX_pu16ParamVerBackupInEmif                                                               
0     003ef49a  _EMPTY_ISR                                                                                       
0     003ef495  _EMUINT_ISR                                                                                      
0     003ef490  _EPWM1_INT_ISR                                                                                   
0     003ef48b  _EPWM1_TZINT_ISR                                                                                 
0     003ef486  _EPWM2_INT_ISR                                                                                   
0     003ef481  _EPWM2_TZINT_ISR                                                                                 
0     003ef47c  _EPWM3_INT_ISR                                                                                   
0     003ef477  _EPWM3_TZINT_ISR                                                                                 
0     003ef472  _EPWM4_INT_ISR                                                                                   
0     003ef46d  _EPWM4_TZINT_ISR                                                                                 
0     003ef468  _EPWM5_INT_ISR                                                                                   
0     003ef463  _EPWM5_TZINT_ISR                                                                                 
0     003ef45e  _EPWM6_INT_ISR                                                                                   
0     003ef459  _EPWM6_TZINT_ISR                                                                                 
0     003ef454  _EPWM7_INT_ISR                                                                                   
0     003ef44f  _EPWM7_TZINT_ISR                                                                                 
0     003ef44a  _EPWM8_INT_ISR                                                                                   
0     003ef445  _EPWM8_TZINT_ISR                                                                                 
1     00006800  _EPwm1Regs                                                                                       
1     00006840  _EPwm2Regs                                                                                       
1     00006880  _EPwm3Regs                                                                                       
1     000068c0  _EPwm4Regs                                                                                       
1     00006900  _EPwm5Regs                                                                                       
1     00006940  _EPwm6Regs                                                                                       
1     00006980  _EPwm7Regs                                                                                       
1     000069c0  _EPwm8Regs                                                                                       
0     003ef440  _EQEP1_INT_ISR                                                                                   
0     003ef43b  _EQEP2_INT_ISR                                                                                   
1     00006b00  _EQep1Regs                                                                                       
1     00006b40  _EQep2Regs                                                                                       
1     00000d01  _EmuBMode                                                                                        
1     00000d00  _EmuKey                                                                                          
0     003f0fbc  _EnableInterrupts                                                                                
1     0000dbfa  _Example_Fail                                                                                    
1     0000dbf8  _Example_PassCount                                                                               
1     0000dbf6  _Example_Result                                                                                  
0     003f10c1  _Example_done                                                                                    
0     003f10bc  _Example_setResultFail                                                                           
0     003f10b7  _Example_setResultPass                                                                           
0     003ef9d5  _ExtOscSel                                                                                       
0     003edea8  _FillTimeData                                                                                    
1     00000a80  _FlashRegs                                                                                       
1     00000d04  _Flash_CPUScaleFactor                                                                            
1     00000d02  _Flash_CallbackPtr                                                                               
0     003efb95  _GPIO_getDirectionMode                                                                           
0     003efb69  _GPIO_getPadConfig                                                                               
0     003efb47  _GPIO_getQualificationMode                                                                       
0     003efb27  _GPIO_setAnalogMode                                                                              
0     003efb08  _GPIO_setDirectionMode                                                                           
0     003efae9  _GPIO_setInterruptPin                                                                            
0     003efac7  _GPIO_setMasterCore                                                                              
0     003efa88  _GPIO_setPadConfig                                                                               
0     003efa58  _GPIO_setPinConfig                                                                               
0     003efa36  _GPIO_setQualificationMode                                                                       
0     003efa1b  _GPIO_setQualificationPeriod                                                                     
1     00006f80  _GpioCtrlRegs                                                                                    
1     00006fc0  _GpioDataRegs                                                                                    
1     00006fe0  _GpioIntRegs                                                                                     
0     003ed728  _HMDRV_AddressFromBuffer                                                                         
0     003ed712  _HMDRV_AddressFromBufferBigEndian                                                                
0     003ed6f7  _HMDRV_AddressToBuffer                                                                           
0     003ed6dc  _HMDRV_AddressToBufferBigEndian                                                                  
0     003ed699  _HMDRV_CopyFromBufferInternal                                                                    
0     003ed5f3  _HMDRV_CopyFromBufferInternalCoil                                                                
0     003ed56b  _HMDRV_CopyFromBufferInternalModbus                                                              
0     003ed4bc  _HMDRV_CopyFromBufferInternalModbusBitField                                                      
0     003ed47b  _HMDRV_CopyFromBufferInternalModbusCoil                                                          
0     003ed42e  _HMDRV_CopyFromBufferInternalModbusSingleCoil                                                    
0     003ed421  _HMDRV_CopyFromBufferInternalSingleCoil                                                          
0     003ed400  _HMDRV_CopyFromBufferInternalWithMask                                                            
0     003ed3d2  _HMDRV_CopyFromBufferInternalWithMaskModbus                                                      
0     003ed3f8  _HMDRV_CopyFromBufferWithMaskModbus                                                              
0     003ed24c  _HMDRV_CopyMemory                                                                                
0     003ed0fd  _HMDRV_CopyToBufferInternal                                                                      
0     003ed05c  _HMDRV_CopyToBufferInternalCoil                                                                  
0     003ecfaa  _HMDRV_CopyToBufferInternalModbus                                                                
0     003ecf40  _HMDRV_CopyToBufferInternalModbusCoil                                                            
0     003ecf0a  _HMDRV_CopyToBufferInternalModbusSingleCoil                                                      
0     003ecefe  _HMDRV_CopyToBufferInternalSingleCoil                                                            
0     003eceec  _HMDRV_GetStringLengthFromWordInternal                                                           
0     003eceb7  _HMDRV_GetStringLengthInternal                                                                   
0     003eceb3  _HMDRV_SetExAddr                                                                                 
0     003eceaf  _HMDRV_u32GetDeviceSYSCLKFreq                                                                    
0     003eceab  _HMDRV_u32GetSCIErrorPPM                                                                         
1     0000d83c  _HMDRV_u32SCIErrorPPM                                                                            
0     003ecea1  _HMDRV_vDebugSend                                                                                
0     003ece0f  _HMDRV_vInit                                                                                     
0     003ecdee  _HMDRV_vProcess                                                                                  
0     003efe64  _HMLIB_GetRecBuffAddress                                                                         
0     003efe56  _HMLIB_GetRecBufferSize                                                                          
0     003efe47  _HMLIB_GetRecParamBuffAddress                                                                    
0     003efe39  _HMLIB_GetRecParamBufferSize                                                                     
0     003efe2b  _HMLIB_GetRecParamSampleSize                                                                     
0     003efe1d  _HMLIB_GetRecSampleSize                                                                          
0     003efe1a  _HMLIB_vDebugSend                                                                                
0     003efdc4  _HMLIB_vInit                                                                                     
0     003efdb4  _HMLIB_vInitRecParamBuff                                                                         
0     003efda8  _HMLIB_vProcess                                                                                  
0     003efda1  _HMLIB_vProcessDifferentPorts                                                                    
0     003efd8d  _HMLIB_vProcessFastTD                                                                            
0     003efd7e  _HMLIB_vProcessRecorders                                                                         
0     003efd7b  _HMLIB_vProcessSCITXISR                                                                          
0     003efd63  _HMLIB_vProcessSCITXISRWithIndex                                                                 
0     003efd5e  _HMLIB_vProcessSamePort                                                                          
0     003efd52  _HMLIB_vRecorder                                                                                 
0     003efd4d  _HMLIB_vRecorder0                                                                                
0     003efd48  _HMLIB_vRecorder1                                                                                
0     003efd43  _HMLIB_vRecorder2                                                                                
0     003efd3e  _HMLIB_vRecorderParam                                                                            
0     003efd3a  _HMLIB_vRecorderParam0                                                                           
0     003efd36  _HMLIB_vRecorderParam1                                                                           
0     003efd32  _HMLIB_vRecorderParam2                                                                           
0     003efd2f  _HMLIB_vRecorderParamTimeSync                                                                    
0     003efd2c  _HMLIB_vRecorderSetTimeBase                                                                      
0     003efd29  _HMLIB_vScopeDataUpdate                                                                          
0     003efd26  _HMLIB_vScopeParamDataUpdate                                                                     
0     003efd22  _HMLIB_vSetPortIndexHexMon                                                                       
0     003efd1e  _HMLIB_vSetPortIndexModBus                                                                       
0     003e8461  _HMMODBUS_CalcCRC                                                                                
0     003ea0f9  _HMMODBUS_CopyFileRecordFromBuffer                                                               
0     003e865b  _HMMODBUS_CopyFromBuffer                                                                         
0     003e8768  _HMMODBUS_CopyFromBufferCoil                                                                     
0     003e87d7  _HMMODBUS_CopyFromBufferSingleCoil                                                               
0     003e86c3  _HMMODBUS_CopyToBuffer                                                                           
0     003e888d  _HMMODBUS_CopyToBufferCoil                                                                       
0     003e8867  _HMMODBUS_CopyToBufferSingleCoil                                                                 
0     003e8907  _HMMODBUS_DelayedTx                                                                              
0     003e8807  _HMMODBUS_GetCoilFunction                                                                        
0     003ea079  _HMMODBUS_GetRealCoilAddressAndOffset                                                            
0     003e8289  _HMMODBUS_GetRealQueueNumber                                                                     
0     003e8556  _HMMODBUS_GetRealRegisterAddressAndSize                                                          
0     003e870a  _HMMODBUS_GetRegisterFunction                                                                    
0     003e8503  _HMMODBUS_Listen                                                                                 
0     003e9ec1  _HMMODBUS_Rx                                                                                     
0     003e84c5  _HMMODBUS_Tx                                                                                     
1     0000d040  _HMMODBUS_anTxCheckSum                                                                           
0     003e891b  _HMMODBUS_bDecoder                                                                               
0     003ea074  _HMMODBUS_bGetReceivedMessage                                                                    
1     0000d449  _HMMODBUS_bOverflowReached                                                                       
1     0000d44e  _HMMODBUS_bReceivedMessage                                                                       
1     0000db62  _HMMODBUS_nFilePrimaryAddrWriteLast                                                              
1     0000d444  _HMMODBUS_nLastResponseCmd                                                                       
1     0000d445  _HMMODBUS_nLastResponseCode                                                                      
1     0000d447  _HMMODBUS_nRxCheckSum                                                                            
1     0000d446  _HMMODBUS_nRxTodo                                                                                
1     0000d443  _HMMODBUS_nRxTodoEcho                                                                            
1     0000d50a  _HMMODBUS_nSizeReadRequestLoopLeft                                                               
1     0000d448  _HMMODBUS_nTxCheckSum                                                                            
1     0000d442  _HMMODBUS_nTxTodo                                                                                
1     0000d140  _HMMODBUS_pCommBufferRx                                                                          
1     0000d240  _HMMODBUS_pCommBufferTx                                                                          
1     0000d47e  _HMMODBUS_pRxBuff                                                                                
1     0000d47c  _HMMODBUS_pTxBuff                                                                                
1     0000d4b8  _HMMODBUS_pasFileAddressTable                                                                    
1     0000d4ac  _HMMODBUS_pasQueueRegisterAddressTable                                                           
1     0000d498  _HMMODBUS_pu32HoldingCoilAddressTable                                                            
1     0000d49a  _HMMODBUS_pu32HoldingCoilAddressTableInRam                                                       
1     0000d484  _HMMODBUS_pu32HoldingRegisterAccessTableInRam                                                    
1     0000d480  _HMMODBUS_pu32HoldingRegisterAddressTable                                                        
1     0000d482  _HMMODBUS_pu32HoldingRegisterAddressTableInRam                                                   
1     0000d4a2  _HMMODBUS_pu32InputCoilAddressTable                                                              
1     0000d4a4  _HMMODBUS_pu32InputCoilAddressTableInRam                                                         
1     0000d490  _HMMODBUS_pu32InputRegisterAccessTableInRam                                                      
1     0000d48c  _HMMODBUS_pu32InputRegisterAddressTable                                                          
1     0000d48e  _HMMODBUS_pu32InputRegisterAddressTableInRam                                                     
1     0000d4de  _HMMODBUS_pu8ReadDeviceIDMajorMinorRevision                                                      
1     0000d4e4  _HMMODBUS_pu8ReadDeviceIDModelName                                                               
1     0000d4dc  _HMMODBUS_pu8ReadDeviceIDProductCode                                                             
1     0000d4e2  _HMMODBUS_pu8ReadDeviceIDProductName                                                             
1     0000d4e6  _HMMODBUS_pu8ReadDeviceIDUserApplicationName                                                     
1     0000d4e8  _HMMODBUS_pu8ReadDeviceIDUserReserve0                                                            
1     0000d4ea  _HMMODBUS_pu8ReadDeviceIDUserReserve1                                                            
1     0000d4ec  _HMMODBUS_pu8ReadDeviceIDUserReserve2                                                            
1     0000d4da  _HMMODBUS_pu8ReadDeviceIDVendorName                                                              
1     0000d4e0  _HMMODBUS_pu8ReadDeviceIDVendorUrl                                                               
1     0000d4d8  _HMMODBUS_pu8ReadServerIDDatAdr                                                                  
1     0000b51b  _HMMODBUS_u16RegisterAddressTableControlParametersStartIndex                                     
1     0000d525  _HMMODBUS_u32CoilAddressDummy                                                                    
1     0000d52c  _HMMODBUS_u32CoilAddressInRamDummy                                                               
0     003f2bbf  _HMMODBUS_u32CoilAddressTable                                                                    
1     0000dbd8  _HMMODBUS_u32CoilAddressTableInRam                                                               
1     0000d504  _HMMODBUS_u32DebugAddrReadFileCircle                                                             
1     0000d502  _HMMODBUS_u32DebugAddrReadFileCircleTooFarAddress                                                
1     0000d506  _HMMODBUS_u32DebugAddrReadFileForRead                                                            
1     0000d508  _HMMODBUS_u32DebugAddrReadFileForReadLooped                                                      
1     0000d4fe  _HMMODBUS_u32DebugAddrReadFileFromAddress                                                        
1     0000d4fc  _HMMODBUS_u32DebugAddrReadFileFromIndex                                                          
1     0000d4fa  _HMMODBUS_u32DebugAddrReadFileReal                                                               
1     0000d500  _HMMODBUS_u32DebugAddrReadPlusOffset                                                             
1     0000d4bc  _HMMODBUS_u32DeviceSYSCLKFreq                                                                    
1     0000d4ba  _HMMODBUS_u32FileCount                                                                           
1     0000d4b6  _HMMODBUS_u32FreeRunTimerReceivedMessage                                                         
0     003ea070  _HMMODBUS_u32GetAddressMessageCounterThisDevice                                                  
0     003ea06c  _HMMODBUS_u32GetFreeRunTimerReceivedMessage                                                      
1     0000d49e  _HMMODBUS_u32HoldingCoilAddressTableInRamSize                                                    
1     0000d49c  _HMMODBUS_u32HoldingCoilAddressTableSize                                                         
1     0000d4a0  _HMMODBUS_u32HoldingCoilValuesTableSize                                                          
1     0000d488  _HMMODBUS_u32HoldingRegisterAddressTableInRamSize                                                
1     0000d486  _HMMODBUS_u32HoldingRegisterAddressTableSize                                                     
1     0000d48a  _HMMODBUS_u32HoldingRegisterValuesTableSize                                                      
1     0000d4a8  _HMMODBUS_u32InputCoilAddressTableInRamSize                                                      
1     0000d4a6  _HMMODBUS_u32InputCoilAddressTableSize                                                           
1     0000d4aa  _HMMODBUS_u32InputCoilValuesTableSize                                                            
1     0000d494  _HMMODBUS_u32InputRegisterAddressTableInRamSize                                                  
1     0000d492  _HMMODBUS_u32InputRegisterAddressTableSize                                                       
1     0000d496  _HMMODBUS_u32InputRegisterValuesTableSize                                                        
1     0000d4ae  _HMMODBUS_u32QueueRegisterAddressTableSize                                                       
1     0000d522  _HMMODBUS_u32RegisterAddressDummy                                                                
1     0000d528  _HMMODBUS_u32RegisterAddressInRamDummy                                                           
1     0000d4b0  _HMMODBUS_u32TxDelayCounter                                                                      
1     0000d44b  _HMMODBUS_u8DeviceAddress                                                                        
1     0000d44c  _HMMODBUS_u8QueueActiveIndex                                                                     
1     0000d461  _HMMODBUS_u8ReadDeviceIDConfLvl                                                                  
1     0000d460  _HMMODBUS_u8ReadDeviceIDConfLvlMask                                                              
1     0000d464  _HMMODBUS_u8ReadDeviceIDMajorMinorRevisionLength                                                 
1     0000d467  _HMMODBUS_u8ReadDeviceIDModelNameLength                                                          
1     0000d463  _HMMODBUS_u8ReadDeviceIDProductCodeLength                                                        
1     0000d466  _HMMODBUS_u8ReadDeviceIDProductNameLength                                                        
1     0000d468  _HMMODBUS_u8ReadDeviceIDUserApplicationNameLength                                                
1     0000d469  _HMMODBUS_u8ReadDeviceIDUserReserve0Length                                                       
1     0000d46a  _HMMODBUS_u8ReadDeviceIDUserReserve1Length                                                       
1     0000d46b  _HMMODBUS_u8ReadDeviceIDUserReserve2Length                                                       
1     0000d462  _HMMODBUS_u8ReadDeviceIDVendorNameLength                                                         
1     0000d465  _HMMODBUS_u8ReadDeviceIDVendorUrlLength                                                          
1     0000d45d  _HMMODBUS_u8ReadServerIDLength                                                                   
1     0000d45e  _HMMODBUS_u8ReadServerIDNumber                                                                   
1     0000d45f  _HMMODBUS_u8ReadServerOnStatus                                                                   
0     003ea067  _HMMODBUS_vFileTable                                                                             
0     003ea044  _HMMODBUS_vFileTableSetValidRecord                                                               
0     003ea02d  _HMMODBUS_vInit                                                                                  
0     003ea022  _HMMODBUS_vProcessFastTD                                                                         
0     003e84f1  _HMMODBUS_vProcessFreeTimer                                                                      
0     003e84fa  _HMMODBUS_vProcessRxDelay                                                                        
0     003e9fc4  _HMMODBUS_vProcessSCI                                                                            
0     003e84d9  _HMMODBUS_vProcessSCITXISR                                                                       
0     003e84ae  _HMMODBUS_vProcessTxDelay                                                                        
0     003e8470  _HMMODBUS_vSendResponse                                                                          
0     003e845d  _HMMODBUS_vSetDeviceIDMajorMinorRevision                                                         
0     003e8459  _HMMODBUS_vSetDeviceIDMajorMinorRevisionLength                                                   
0     003e8455  _HMMODBUS_vSetDeviceIDModelName                                                                  
0     003e8451  _HMMODBUS_vSetDeviceIDModelNameLength                                                            
0     003e844d  _HMMODBUS_vSetDeviceIDProductCode                                                                
0     003e8449  _HMMODBUS_vSetDeviceIDProductCodeLength                                                          
0     003e8445  _HMMODBUS_vSetDeviceIDProductName                                                                
0     003e8441  _HMMODBUS_vSetDeviceIDProductNameLength                                                          
0     003e843d  _HMMODBUS_vSetDeviceIDUserApplicationName                                                        
0     003e8439  _HMMODBUS_vSetDeviceIDUserApplicationNameLength                                                  
0     003e8435  _HMMODBUS_vSetDeviceIDUserReserve0                                                               
0     003e8431  _HMMODBUS_vSetDeviceIDUserReserve0Length                                                         
0     003e842d  _HMMODBUS_vSetDeviceIDUserReserve1                                                               
0     003e8429  _HMMODBUS_vSetDeviceIDUserReserve1Length                                                         
0     003e8425  _HMMODBUS_vSetDeviceIDUserReserve2                                                               
0     003e8421  _HMMODBUS_vSetDeviceIDUserReserve2Length                                                         
0     003e841d  _HMMODBUS_vSetDeviceIDVendorName                                                                 
0     003e8419  _HMMODBUS_vSetDeviceIDVendorNameLength                                                           
0     003e8415  _HMMODBUS_vSetDeviceIDVendorUrl                                                                  
0     003e8411  _HMMODBUS_vSetDeviceIDVendorUrlLength                                                            
0     003e82e0  _HMMODBUS_vSetFreeRunTimerPrescaller                                                             
0     003e82dc  _HMMODBUS_vSetPortIndex                                                                          
0     003e82d8  _HMMODBUS_vSetServerIDDataAddress                                                                
0     003e82d4  _HMMODBUS_vSetServerIDLength                                                                     
0     003e82d0  _HMMODBUS_vSetServerIDNumber                                                                     
0     003e82cc  _HMMODBUS_vSetServerOnStatus                                                                     
0     003e82c6  _HMMODBUS_vSetupActiveQueueIndex                                                                 
0     003e8283  _HMMODBUS_vSetupCoilDummy                                                                        
0     003e827d  _HMMODBUS_vSetupHoldingCoilsAddressTable                                                         
0     003e8278  _HMMODBUS_vSetupHoldingCoilsAddressTableInRam                                                    
0     003e8272  _HMMODBUS_vSetupHoldingRegistersAddressTable                                                     
0     003e826c  _HMMODBUS_vSetupHoldingRegistersAddressTableInRam                                                
0     003e8266  _HMMODBUS_vSetupInputCoilsAddressTable                                                           
0     003e8261  _HMMODBUS_vSetupInputCoilsAddressTableInRam                                                      
0     003e825b  _HMMODBUS_vSetupInputRegistersAddressTable                                                       
0     003e8255  _HMMODBUS_vSetupInputRegistersAddressTableInRam                                                  
0     003e820a  _HMMODBUS_vSetupQueueRegistersAddressTable                                                       
0     003e8201  _HMMODBUS_vSetupRegisterDummy                                                                    
0     003e81fd  _HMMODBUS_vSetupWriteParElementCallbackFunction                                                  
0     003e81f6  _HMMODBUS_vSetupWriteParElementFixedArguments                                                    
1     0000d440  _HMMODBUS_wFlags                                                                                 
1     0000d441  _HMMODBUS_wFlagsRxTx                                                                             
1     0000d4b4  _HMMOSBUS_nDummy                                                                                 
1     0000db6c  _HMMOSBUS_nFileWriteAddrReadLast                                                                 
1     0000d4b2  _HMMOSBUS_nFileWritePrimaryAddrReadLast                                                          
0     003ef539  _HMPROTOCOL_GetBoardInfo                                                                         
0     003ef5d2  _HMPROTOCOL_ReadMem                                                                              
0     003ef5bb  _HMPROTOCOL_WriteMem                                                                             
0     003ef5a4  _HMPROTOCOL_WriteMemMask                                                                         
0     003ef5f6  _HMPROTOCOL_bDecoder                                                                             
0     003ef538  _HMPROTOCOL_vInit                                                                                
0     003ef530  _HMPROTOCOL_vRecorderSetTimeBase                                                                 
0     003ee213  _HMRECPRM_AbortRec                                                                               
0     003edf68  _HMRECPRM_ClrLastStopDetectionToRecorderStopSamplesCounter                                       
0     003ee047  _HMRECPRM_Compare16S                                                                             
0     003ee055  _HMRECPRM_Compare16U                                                                             
0     003ee063  _HMRECPRM_Compare32S                                                                             
0     003ee071  _HMRECPRM_Compare32U                                                                             
0     003ee02b  _HMRECPRM_Compare8S                                                                              
0     003ee039  _HMRECPRM_Compare8U                                                                              
0     003ee3cd  _HMRECPRM_CompareBOOL                                                                            
0     003ee016  _HMRECPRM_Comparefloat                                                                           
0     003ee3c4  _HMRECPRM_GetBufferRecParamAddress                                                               
0     003ee3b8  _HMRECPRM_GetBufferRecParamPtrAddress                                                            
0     003ee3af  _HMRECPRM_GetExternBufferRecParamLastPointedAddress                                              
0     003ee3a6  _HMRECPRM_GetExternBufferRecParamPtrAddress                                                      
0     003ee39e  _HMRECPRM_GetExternRecParamAddress                                                               
0     003ee396  _HMRECPRM_GetExternRecParamPtrMaximumUsedSampleCount                                             
0     003ee38e  _HMRECPRM_GetExternRecParamPtrSampleSize                                                         
0     003ee38c  _HMRECPRM_GetRecBuffAddress                                                                      
0     003ee381  _HMRECPRM_GetRecBuffCheckCode                                                                    
0     003ee376  _HMRECPRM_GetRecBuffCheckCodeParam                                                               
0     003ee359  _HMRECPRM_GetRecBuffFreemaster                                                                   
0     003ee33c  _HMRECPRM_GetRecBuffFreemasterParam                                                              
0     003ee339  _HMRECPRM_GetRecBuffIndex                                                                        
0     003ee215  _HMRECPRM_GetRecBuffSize                                                                         
0     003ee331  _HMRECPRM_GetRecParamPtrAvailableSampleCount                                                     
0     003ee329  _HMRECPRM_GetRecParamPtrLastSampleIndex                                                          
0     003ee321  _HMRECPRM_GetRecParamPtrMaximumUsedSampleCount                                                   
0     003ee319  _HMRECPRM_GetRecParamPtrSampleSize                                                               
0     003ee316  _HMRECPRM_GetRecSampleSize                                                                       
0     003ee30c  _HMRECPRM_GetRecStatus                                                                           
0     003ee302  _HMRECPRM_GetRecStatusParam                                                                      
0     003ee2fa  _HMRECPRM_GetStatusInternalRecParamAddress                                                       
0     003ee2f2  _HMRECPRM_GetStatusRecParamAddress                                                               
0     003ee2ef  _HMRECPRM_GetTimeBase                                                                            
0     003ee2dc  _HMRECPRM_IsInRecBuffer                                                                          
0     003ede8e  _HMRECPRM_IsJustStopped                                                                          
0     003ede9d  _HMRECPRM_IsRunning                                                                              
0     003ee2d9  _HMRECPRM_SetTimeBase                                                                            
0     003ee217  _HMRECPRM_SetUpRec                                                                               
0     003ee20d  _HMRECPRM_SetUpRecBuff                                                                           
0     003edee1  _HMRECPRM_SetUpRecParamStatusDateTime                                                            
0     003ee1f3  _HMRECPRM_StartRec                                                                               
0     003ee1a5  _HMRECPRM_StartRecParam                                                                          
0     003ee198  _HMRECPRM_StopRec                                                                                
0     003ee184  _HMRECPRM_StopRecParam                                                                           
0     003ee009  _HMRECPRM_TriggerRec                                                                             
1     0000da72  _HMRECPRM_sDateTime                                                                              
0     003eded3  _HMRECPRM_vDisableAllStopDetections                                                              
0     003ea140  _HMRECPRM_vGetDateTime                                                                           
0     003ee17c  _HMRECPRM_vInit                                                                                  
0     003ee16c  _HMRECPRM_vInitParam                                                                             
0     003ee07f  _HMRECPRM_vProcess                                                                               
0     003edff4  _HMRECPRM_vResetAllStopDetections                                                                
0     003edf72  _HMRECPRM_vTimeSync                                                                              
0     003ef051  _HMREC_AbortRec                                                                                  
0     003ef160  _HMREC_GetRecBuffAddress                                                                         
0     003ef155  _HMREC_GetRecBuffCheckCode                                                                       
0     003ef138  _HMREC_GetRecBuffFreemaster                                                                      
0     003ef135  _HMREC_GetRecBuffIndex                                                                           
0     003ef053  _HMREC_GetRecBuffSize                                                                            
0     003ef132  _HMREC_GetRecSampleSize                                                                          
0     003ef128  _HMREC_GetRecStatus                                                                              
0     003ef113  _HMREC_IsInRecBuffer                                                                             
0     003ef055  _HMREC_SetUpRec                                                                                  
0     003ef04b  _HMREC_SetUpRecBuff                                                                              
0     003ef036  _HMREC_StartRec                                                                                  
0     003ef029  _HMREC_StopRec                                                                                   
0     003eef43  _HMREC_TriggerRec                                                                                
1     0000d835  _HMREC_u16FailSnapshotWrite                                                                      
0     003ef021  _HMREC_vInit                                                                                     
0     003eefb7  _HMREC_vProcess                                                                                  
0     003effa6  _HMSCOPEPRM_GetBufferScopeParamAddress                                                           
0     003eff9f  _HMSCOPEPRM_GetStatusScopeParamAddress                                                           
0     003eff55  _HMSCOPEPRM_ReadScope                                                                            
0     003eff0d  _HMSCOPEPRM_SetUpScope                                                                           
1     0000c800  _HMSCOPEPRM_u8Buffer                                                                             
0     003efef0  _HMSCOPEPRM_vInit                                                                                
0     003efee2  _HMSCOPEPRM_vInitBufferParam                                                                     
0     003efedd  _HMSCOPEPRM_vSetDataChangeFlag                                                                   
0     003f0de1  _HMSCOPE_ReadScope                                                                               
0     003efe73  _HMSCOPE_ReadScopeParam                                                                          
0     003f0da5  _HMSCOPE_SetUpScope                                                                              
0     003f0da4  _HMSCOPE_vInit                                                                                   
0     003f0d9f  _HMSCOPE_vSetDataChangeFlag                                                                      
0     003ef350  _HMSERIAL_DelayedTx                                                                              
0     003ef22e  _HMSERIAL_Rx                                                                                     
0     003ef1a5  _HMSERIAL_Tx                                                                                     
0     003ef343  _HMSERIAL_vInit                                                                                  
0     003ef338  _HMSERIAL_vProcessFastTD                                                                         
0     003ef2b4  _HMSERIAL_vProcessFreeTimer                                                                      
0     003ef2bd  _HMSERIAL_vProcessSCI                                                                            
0     003ef288  _HMSERIAL_vProcessSCIFreemasterOnly                                                              
0     003ef1dc  _HMSERIAL_vProcessSCITXISR                                                                       
0     003ef1c6  _HMSERIAL_vProcessSCITXISRFreemasterOnly                                                         
0     003ef166  _HMSERIAL_vSendResponse                                                                          
0     003ef162  _HMSERIAL_vSetPortIndex                                                                          
0     003ef436  _HRCAP1_INT_ISR                                                                                  
0     003ef431  _HRCAP2_INT_ISR                                                                                  
0     003ef42c  _HRCAP3_INT_ISR                                                                                  
0     003ef427  _HRCAP4_INT_ISR                                                                                  
1     00006ac0  _HRCap1Regs                                                                                      
1     00006ae0  _HRCap2Regs                                                                                      
1     00006c80  _HRCap3Regs                                                                                      
1     00006ca0  _HRCap4Regs                                                                                      
0     003eed1e  _Hash                                                                                            
0     003ef422  _I2CINT1A_ISR                                                                                    
0     003ef41d  _I2CINT2A_ISR                                                                                    
1     00007900  _I2caRegs                                                                                        
0     003ef418  _ILLEGAL_ISR                                                                                     
0     003ef413  _INT13_ISR                                                                                       
0     003ef40e  _INT14_ISR                                                                                       
1     0000d9c0  _IO_bUseIOFbkEmulation                                                                           
1     0000d9cd  _IO_nStackMask                                                                                   
1     0000d9cc  _IO_uErrorStop                                                                                   
0     003f11bf  _InitGpio                                                                                        
0     003ef931  _InitPeripheralClocks                                                                            
0     003f0f9d  _InitPieCtrl                                                                                     
0     003f11e7  _InitPieVectTable                                                                                
0     003ef8e0  _InitPll                                                                                         
0     003ef9a8  _InitPll2                                                                                        
0     003ef990  _InitSysCtrl                                                                                     
1     0000b519  _InputCoilDummy                                                                                  
1     0000b518  _InputRegisterDummy                                                                              
0     003f1251  _IntDefaultHandler                                                                               
0     003efd09  _IntDisable                                                                                      
0     003efce8  _IntEnable                                                                                       
0     003efba7  _IntMasterDisable                                                                                
0     003efbab  _IntMasterEnable                                                                                 
0     003ef8c8  _IntOsc1Sel                                                                                      
0     003ef8ae  _IntOsc2Sel                                                                                      
0     003efcca  _IntRegister                                                                                     
0     003efca9  _IntUnregister                                                                                   
0     003f0e6f  _Interrupt_defaultHandler                                                                        
0     003efc65  _Interrupt_disable                                                                               
0     003efbaf  _Interrupt_enable                                                                                
0     003f0e6d  _Interrupt_illegalOperationHandler                                                               
0     003f0e2f  _Interrupt_initModule                                                                            
0     003f0e12  _Interrupt_initVectorTable                                                                       
0     003f0e10  _Interrupt_nmiHandler                                                                            
0     003ef409  _LUF_ISR                                                                                         
0     003ef404  _LVF_ISR                                                                                         
1     0000d780  _MAIN_bDateTimeSet                                                                               
1     0000da6e  _MAIN_sDate                                                                                      
1     0000da6a  _MAIN_sDateI2C                                                                                   
1     0000d7f8  _MAIN_sDateTimeGet                                                                               
1     0000d800  _MAIN_sDateTimeSet                                                                               
1     0000da6c  _MAIN_sTime                                                                                      
1     0000da68  _MAIN_sTimeI2C                                                                                   
1     0000da70  _MAIN_u32FreeCounter                                                                             
0     003ec0a6  _MODBUSREG_AddressTablesInit                                                                     
0     003ecd97  _MODBUSREG_FileRecorderElementSizeTableUsedSizeUpdateInit                                        
0     003ecd40  _MODBUSREG_FileRecorderExternalUpdateInit                                                        
1     0000b000  _MODBUSREG_asFileTable                                                                           
1     0000da00  _MODBUSREG_asQueueTable                                                                          
1     0000da80  _MODBUSREG_au8DeviceIDMajorMinorRevision                                                         
1     0000da90  _MODBUSREG_au8DeviceIDModelName                                                                  
1     0000daa0  _MODBUSREG_au8DeviceIDProductCode                                                                
1     0000dab0  _MODBUSREG_au8DeviceIDProductName                                                                
1     0000dac0  _MODBUSREG_au8DeviceIDUserApplicationName                                                        
1     0000dad0  _MODBUSREG_au8DeviceIDUserReserve0                                                               
1     0000dae0  _MODBUSREG_au8DeviceIDUserReserve1                                                               
1     0000daf0  _MODBUSREG_au8DeviceIDUserReserve2                                                               
1     0000db00  _MODBUSREG_au8DeviceIDVendorName                                                                 
1     0000db10  _MODBUSREG_au8DeviceIDVendorUrl                                                                  
1     0000db20  _MODBUSREG_au8ServerIDData                                                                       
1     0000b53c  _MODBUSREG_pu32RegisterAddressTable                                                              
1     0000b53e  _MODBUSREG_pu32RegisterAddressTableInRam                                                         
0     003f2bc2  _MODBUSREG_sInputCoilAddressTable                                                                
1     0000dbde  _MODBUSREG_sInputCoilAddressTableInRam                                                           
1     0000dc56  _MODBUSREG_sInputRegisterAccessTableInRam                                                        
0     003f2bc5  _MODBUSREG_sInputRegisterAddressTable                                                            
1     0000dc06  _MODBUSREG_sInputRegisterAddressTableInRam                                                       
1     0000b51f  _MODBUSREG_u16FileTableRecorderIndex                                                             
0     003ecd3c  _MODBUSREG_u16GetHoldRegFillCount                                                                
0     003ecd38  _MODBUSREG_u16GetHoldRegUsedCount                                                                
0     003ecd36  _MODBUSREG_u16GetHoldingCoilUsedCount                                                            
0     003ecd34  _MODBUSREG_u16GetInputCoilUsedCount                                                              
0     003ecd32  _MODBUSREG_u16GetInputRegisterUsedCount                                                          
1     0000b51c  _MODBUSREG_u16HoldRegFillCount                                                                   
1     0000b51e  _MODBUSREG_u16HoldRegListCount                                                                   
1     0000b51d  _MODBUSREG_u16HoldRegUsedCount                                                                   
1     0000b516  _MODBUSREG_u16ModbusParamCount                                                                   
1     0000b517  _MODBUSREG_u16ParamCount                                                                         
1     0000b536  _MODBUSREG_u32FileAutorization_FunctionAfterWriteFileRecordTable                                 
1     0000b534  _MODBUSREG_u32FileParamCount_FunctionBeforeReadFileRecord                                        
1     0000b532  _MODBUSREG_u32FileRTC_FunctionAfterReadFileRecord                                                
1     0000b530  _MODBUSREG_u32FileRTC_FunctionAfterWriteFileRecord                                               
1     0000b53a  _MODBUSREG_u32FileRecConfig_FunctionAfterWriteFileRecord                                         
1     0000b538  _MODBUSREG_u32FileRecStatus_FunctionIndexGenerationFileRecord                                    
0     003ecd2f  _MODBUSREG_u32GetAddressMessageCounterThisDevice                                                 
0     003ecd2b  _MODBUSREG_u32GetHoldingCoilAddressTable                                                         
0     003ecd27  _MODBUSREG_u32GetHoldingCoilAddressTableInRam                                                    
0     003ecd23  _MODBUSREG_u32GetInputCoilAddressTable                                                           
0     003ecd1f  _MODBUSREG_u32GetInputCoilAddressTableInRam                                                      
0     003ecd1b  _MODBUSREG_u32GetInputRegisterAccessTableInRam                                                   
0     003ecd17  _MODBUSREG_u32GetInputRegisterAddressTable                                                       
0     003ecd13  _MODBUSREG_u32GetInputRegisterAddressTableInRam                                                  
0     003ecd0f  _MODBUSREG_u32GetRegisterAccessTableInRam                                                        
0     003ecd0b  _MODBUSREG_u32GetRegisterAddressTable                                                            
0     003ecd07  _MODBUSREG_u32GetRegisterAddressTableInRam                                                       
1     0000b52c  _MODBUSREG_u32ParamAuxAddress                                                                    
1     0000b524  _MODBUSREG_u32ParamListAddress                                                                   
1     0000b526  _MODBUSREG_u32ParamNameAddress                                                                   
1     0000b528  _MODBUSREG_u32ParamNumbAddress                                                                   
1     0000b520  _MODBUSREG_u32ParamRecorderConfigAddress                                                         
1     0000b52e  _MODBUSREG_u32ParamReservedAddress                                                               
1     0000b522  _MODBUSREG_u32ParamScopeConfigAddress                                                            
1     0000b52a  _MODBUSREG_u32ParamStringAddress                                                                 
1     0000c000  _MODBUSREG_u32RegisterAccessTableInRam                                                           
0     003ec09b  _MODBUSREG_vDataZero                                                                             
0     003ecc64  _MODBUSREG_vFileAllowAccess                                                                      
0     003ecc03  _MODBUSREG_vFileDenyAccess                                                                       
0     003ecb60  _MODBUSREG_vInit                                                                                 
0     003ec089  _MODBUSREG_vInitHoldingRegistersTableChanges                                                     
0     003ec088  _MODBUSREG_vProcess                                                                              
0     003ec084  _MODBUSREG_vSetFileAutorization_FunctionAfterWriteFileRecordTable                                
0     003ec080  _MODBUSREG_vSetFileParamCount_FunctionBeforeReadFileRecord                                       
0     003ec07c  _MODBUSREG_vSetFileRTC_FunctionAfterReadFileRecord                                               
0     003ec078  _MODBUSREG_vSetFileRTC_FunctionAfterWriteFileRecord                                              
0     003ec074  _MODBUSREG_vSetFileRecConfig_FunctionAfterWriteFileRecord                                        
0     003ec070  _MODBUSREG_vSetFileRecStatus_FunctionIndexGenerationFileRecord                                   
0     003ec06c  _MODBUSREG_vSetHoldRegFillCount                                                                  
0     003ec068  _MODBUSREG_vSetModbusParamCount                                                                  
0     003ec064  _MODBUSREG_vSetParamAuxAddress                                                                   
0     003ec060  _MODBUSREG_vSetParamCount                                                                        
0     003ec05c  _MODBUSREG_vSetParamListAddress                                                                  
0     003ec058  _MODBUSREG_vSetParamNameAddress                                                                  
0     003ec054  _MODBUSREG_vSetParamNumbAddress                                                                  
0     003ec050  _MODBUSREG_vSetParamRecorderConfigAddress                                                        
0     003ec04c  _MODBUSREG_vSetParamReservedAddress                                                              
0     003ec048  _MODBUSREG_vSetParamScopeConfigAddress                                                           
0     003ec044  _MODBUSREG_vSetParamStringAddress                                                                
0     003ef3ff  _MRINTA_ISR                                                                                      
0     003ef3fa  _MXINTA_ISR                                                                                      
1     00005000  _McbspaRegs                                                                                      
0     003ef3f5  _NMI_ISR                                                                                         
1     00007060  _NmiIntruptRegs                                                                                  
0     003ef3f0  _PIE_RESERVED                                                                                    
0     003ee593  _ParameterInitialization                                                                         
1     003d7e80  _PartIdRegs                                                                                      
1     00000ce0  _PieCtrlRegs                                                                                     
1     00000d00  _PieVectTable                                                                                    
0     003f286a  _PieVectTableInit                                                                                
1     0000d540  _QueueTestTable                                                                                  
1     0000da55  _RTC_DRV_bDateTimeGet                                                                            
1     0000da57  _RTC_DRV_bDateTimeGetRequest                                                                     
1     0000da54  _RTC_DRV_bDateTimeSet                                                                            
1     0000da56  _RTC_DRV_bDateTimeSetupAtStart                                                                   
1     0000da58  _RTC_DRV_sDateTimeGet                                                                            
1     0000da60  _RTC_DRV_sDateTimeSet                                                                            
0     003ef3eb  _RTOSINT_ISR                                                                                     
0     003f1269  _RamfuncsLoadEnd                                                                                 
abs   00000008  _RamfuncsLoadSize                                                                                
0     003f1261  _RamfuncsLoadStart                                                                               
0     00008000  _RamfuncsRunStart                                                                                
0     003ede6a  _RecorderDateFromLocalDateTime                                                                   
0     003ede31  _RecorderDateFromRTCDate                                                                         
0     003ede04  _RecorderTimeFromLocalDateTime                                                                   
0     003eddd9  _RecorderTimeFromRTCTime                                                                         
0     003ee45b  _RecordersInitialization                                                                         
0     003f09cc  _SCIA_DRV_RXFIFOISR                                                                              
0     003f09a8  _SCIA_DRV_TXFIFOISR                                                                              
0     003f0a5c  _SCIA_RXFIFOISR                                                                                  
0     003f0a38  _SCIA_TXFIFOISR                                                                                  
0     003f0984  _SCIB_DRV_RXFIFOISR                                                                              
0     003f0960  _SCIB_DRV_TXFIFOISR                                                                              
0     003f0a14  _SCIB_RXFIFOISR                                                                                  
0     003f09f0  _SCIB_TXFIFOISR                                                                                  
0     003ef3e6  _SCIRXINTA_ISR                                                                                   
0     003ef3e1  _SCIRXINTB_ISR                                                                                   
0     003ef3dc  _SCITXINTA_ISR                                                                                   
0     003ef3d7  _SCITXINTB_ISR                                                                                   
1     0000d038  _SCI_DRV_ErrorRx                                                                                 
0     003f0890  _SCI_DRV_eGetModuleIndexFromBase                                                                 
0     003f08c7  _SCI_DRV_u32GetBaseFromModuleIndex                                                               
0     003f089b  _SCI_DRV_vErrorResetProcess                                                                      
0     003f083a  _SCI_DRV_vInitFIFO                                                                               
1     0000db80  _SCI_ErrorRx                                                                                     
0     003f0583  _SCI_clearInterruptStatus                                                                        
0     003f0569  _SCI_disableInterrupt                                                                            
0     003f0ad1  _SCI_eGetModuleIndexFromBase                                                                     
0     003f054f  _SCI_enableInterrupt                                                                             
0     003f052f  _SCI_getInterruptStatus                                                                          
0     003f050f  _SCI_readCharArray                                                                               
0     003f04ee  _SCI_setConfig                                                                                   
0     003f0b08  _SCI_u32GetBaseFromModuleIndex                                                                   
0     003f0adc  _SCI_vErrorResetProcess                                                                          
0     003f0a81  _SCI_vInitFIFO                                                                                   
0     003f0a80  _SCI_vInitFIFORegisters                                                                          
0     003f04cc  _SCI_writeCharArray                                                                              
0     003ef3d2  _SPIRXINTA_ISR                                                                                   
0     003ef3cd  _SPIRXINTB_ISR                                                                                   
0     003ef3c8  _SPITXINTA_ISR                                                                                   
0     003ef3c3  _SPITXINTB_ISR                                                                                   
1     00007050  _SciaRegs                                                                                        
1     00007750  _ScibRegs                                                                                        
0     003ee51d  _ScopesInitialization                                                                            
0     003ef8a4  _ServiceDog                                                                                      
0     003f125b  _SetDBGIER                                                                                       
1     00007040  _SpiaRegs                                                                                        
1     00007740  _SpibRegs                                                                                        
0     00008000  _SysCtl_delay                                                                            003f1261
0     003eecca  _SysCtl_getAuxClock                                                                              
0     003eec2b  _SysCtl_getClock                                                                                 
0     003eec86  _SysCtl_getDeviceParametric                                                                      
0     003eec71  _SysCtl_getLowSpeedClock                                                                         
0     003ee8bd  _SysCtl_selectOscSource                                                                          
0     003eead6  _SysCtl_setAuxClock                                                                              
0     003ee8e5  _SysCtl_setClock                                                                                 
1     00007010  _SysCtrlRegs                                                                                     
1     00000985  _SysPwrCtrlRegs                                                                                  
0     003f03de  _TIMER_u16ResetTimerMainPeriod                                                                   
0     003f03da  _TIMER_vGetTimerMainRollingCounter                                                               
0     003f03d1  _TIMER_vResetTimerMainFunctionDelayCounter                                                       
0     003f03cd  _TIMER_vSetupTimerMainCSMONFunction                                                              
0     003f03c8  _TIMER_vSetupTimerMainDelayedData                                                                
0     003f03bf  _TIMER_vSetupTimerMainDelayedFunction                                                            
0     003f03b6  _TIMER_vSetupTimerMainDelayedFunctionSendData                                                    
0     003f03a9  _TIMER_vSetupTimerMainFunctionDelay                                                              
0     003f039c  _TIMER_vSetupTimerMainFunctionDelayCompare                                                       
0     003ef3be  _TINT0_ISR                                                                                       
0     003f0642  _TMR1_ISR                                                                                        
0     003f059f  _TMR2_ISR                                                                                        
1     0000db47  _TMR_u16FreeRunTimerPrescaller                                                                   
0     003f0398  _TMR_u16GetFreeRunTimerPrescaller                                                                
0     003f0363  _TMR_vInit                                                                                       
0     003f0336  _TMR_vInitCPUTimers                                                                              
1     0000c400  _UARTRxBuffer                                                                                    
1     0000dc0a  _UARTRxBufferRDCount                                                                             
1     0000dc0e  _UARTRxBufferRDIndex                                                                             
1     0000a000  _UARTRxBufferTimeDiff                                                                            
1     0000dc12  _UARTRxBufferWRCount                                                                             
1     0000dc16  _UARTRxBufferWRIndex                                                                             
0     003f0046  _UART_DRV_GetChar                                                                                
0     003f00d2  _UART_DRV_IsRxReady                                                                              
0     003f00c3  _UART_DRV_IsTxEmpty                                                                              
0     003f00b6  _UART_DRV_IsTxReady                                                                              
0     003f00ad  _UART_DRV_PutChar                                                                                
0     003f00a7  _UART_DRV_PutNextAddress                                                                         
1     0000db88  _UART_DRV_RXIntOverflowCounter                                                                   
0     003f004c  _UART_DRV_RXInterrupt                                                                            
0     003f0008  _UART_DRV_ReadDataRx                                                                             
0     003efffb  _UART_DRV_ReadDataRxAvailable                                                                    
0     003efff2  _UART_DRV_ReadDataRxTimeDiff                                                                     
1     0000d340  _UART_DRV_RxBuffer                                                                               
1     0000dc1a  _UART_DRV_RxBufferRDCount                                                                        
1     0000dc1e  _UART_DRV_RxBufferRDIndex                                                                        
1     0000cb00  _UART_DRV_RxBufferTimeDiff                                                                       
1     0000dc22  _UART_DRV_RxBufferWRCount                                                                        
1     0000dc26  _UART_DRV_RxBufferWRIndex                                                                        
0     003efff1  _UART_DRV_RxDis                                                                                  
0     003efff0  _UART_DRV_RxEna                                                                                  
0     003effef  _UART_DRV_TXInterrupt                                                                            
0     003effee  _UART_DRV_TransmitEnableDisable                                                                  
0     003effed  _UART_DRV_TxDis                                                                                  
0     003effec  _UART_DRV_TxEna                                                                                  
0     003effda  _UART_DRV_TxIntDis                                                                               
0     003effc8  _UART_DRV_TxIntEna                                                                               
1     0000db90  _UART_DRV_u32TimeDiffLast                                                                        
1     0000db98  _UART_DRV_u32TimeDiffNow                                                                         
1     0000dba0  _UART_DRV_u32TimeDiffRead                                                                        
0     003effaf  _UART_DRV_vInit                                                                                  
0     003ef7ea  _UART_GetChar                                                                                    
0     003ef87c  _UART_IsRxReady                                                                                  
0     003ef86d  _UART_IsTxEmpty                                                                                  
0     003ef860  _UART_IsTxReady                                                                                  
0     003ef857  _UART_PutChar                                                                                    
0     003ef851  _UART_PutNextAddress                                                                             
1     0000dba8  _UART_RXIntOverflowCounter                                                                       
0     003ef7f0  _UART_RXInterrupt                                                                                
0     003ef7ac  _UART_ReadDataRx                                                                                 
0     003ef79f  _UART_ReadDataRxAvailable                                                                        
0     003ef796  _UART_ReadDataRxTimeDiff                                                                         
0     003ef784  _UART_RxDis                                                                                      
0     003ef772  _UART_RxEna                                                                                      
0     003ef76f  _UART_TXInterrupt                                                                                
0     003ef762  _UART_TransmitDisable                                                                            
0     003ef755  _UART_TransmitEnable                                                                             
0     003ef743  _UART_TxDis                                                                                      
0     003ef731  _UART_TxEna                                                                                      
0     003ef71f  _UART_TxIntDis                                                                                   
0     003ef70d  _UART_TxIntEna                                                                                   
0     003ef709  _UART_bUseSCIA_On_USB_Connector                                                                  
1     0000d9e6  _UART_sHandle                                                                                    
0     003ef6f0  _UART_vInit                                                                                      
0     003ef6ef  _UART_vReset                                                                                     
0     003ef3b9  _USB0_INT_ISR                                                                                    
0     003ef3b4  _USER10_ISR                                                                                      
0     003ef3af  _USER11_ISR                                                                                      
0     003ef3aa  _USER12_ISR                                                                                      
0     003ef3a5  _USER1_ISR                                                                                       
0     003ef3a0  _USER2_ISR                                                                                       
0     003ef39b  _USER3_ISR                                                                                       
0     003ef396  _USER4_ISR                                                                                       
0     003ef391  _USER5_ISR                                                                                       
0     003ef38c  _USER6_ISR                                                                                       
0     003ef387  _USER7_ISR                                                                                       
0     003ef382  _USER8_ISR                                                                                       
0     003ef37d  _USER9_ISR                                                                                       
1     00004000  _Usb0Regs                                                                                        
0     003ef378  _WAKEINT_ISR                                                                                     
0     003ef373  _XINT1_ISR                                                                                       
0     003ef36e  _XINT2_ISR                                                                                       
0     003ef369  _XINT3_ISR                                                                                       
1     00007070  _XIntruptRegs                                                                                    
0     003ef889  _XtalOscSel                                                                                      
1     000003d0  __STACK_END                                                                                      
abs   00000380  __STACK_SIZE                                                                                     
1     0000dc02  ___TI_cleanup_ptr                                                                                
1     0000dc04  ___TI_dtors_ptr                                                                                  
1     0000dc00  ___TI_enable_exit_profile_output                                                                 
abs   ffffffff  ___TI_pprof_out_hndl                                                                             
abs   ffffffff  ___TI_prof_data_size                                                                             
abs   ffffffff  ___TI_prof_data_start                                                                            
abs   ffffffff  ___binit__                                                                                       
abs   ffffffff  ___c_args__                                                                                      
0     003f2bc8  ___cinit__                                                                                       
0     003f10b4  ___error__                                                                                       
0     003f1261  ___etext__                                                                                       
0     003f0b9a  ___kernel_cosdf                                                                                  
0     003ed741  ___kernel_rem_pio2                                                                               
0     003f08ce  ___kernel_sindf                                                                                  
abs   ffffffff  ___pinit__                                                                                       
0     003f06f7  ___rem_pio2f                                                                                     
0     003e8000  ___text__                                                                                        
0     003f11f8  __args_main                                                                                      
1     0000da3e  __lock                                                                                           
0     003f123a  __nop                                                                                            
0     003f1236  __register_lock                                                                                  
0     003f1232  __register_unlock                                                                                
1     00000050  __stack                                                                                          
0     003f1260  __system_post_cinit                                                                              
0     003f125e  __system_pre_init                                                                                
1     0000db3e  __unlock                                                                                         
1     0000d7ca  _aDummyDataTable                                                                                 
1     0000dc49  _abRecorderJustStopped                                                                           
1     0000dc4c  _abRecorderRunning                                                                               
0     003f0f4b  _abort                                                                                           
1     0000b562  _arr2                                                                                            
0     003f126a  _asParameterList                                                                                 
1     0000a800  _au8RecBuffer0                                                                                   
0     003f266a  _auchCRCHi                                                                                       
0     003f276a  _auchCRCLo                                                                                       
1     0000d450  _bBareRamTable                                                                                   
1     0000d782  _bDummyReqstDevRunning                                                                           
1     0000d781  _bDummyStatsDevRunning                                                                           
1     0000d47a  _bElementsDifference                                                                             
0     003e81f2  _bGetElementsDifference                                                                          
0     003e81d9  _bGetFileReadAccess                                                                              
1     0000d45a  _bHoldingCoilTableBareRam                                                                        
1     0000d458  _bHoldingCoilTableSorted                                                                         
1     0000d456  _bHoldingRegTableBareRam                                                                         
1     0000d454  _bHoldingRegTableSorted                                                                          
1     0000d459  _bInputCoilTableBareRam                                                                          
1     0000d457  _bInputCoilTableSorted                                                                           
1     0000d455  _bInputRegTableBareRam                                                                           
1     0000d453  _bInputRegTableSorted                                                                            
1     0000d44f  _bInputRegsGlobal                                                                                
0     003e8180  _bIsValidEndAddressInBuffer                                                                      
0     003e81ce  _bIsValidIndexFileTable                                                                          
1     0000d452  _bLengthException                                                                                
1     0000d470  _bNeedResetBackup                                                                                
1     0000d77c  _bRecorderParameterUsage                                                                         
1     0000d7b3  _bResetAllTimeMeasures                                                                           
1     0000b54c  _bRunOnceGetSavedRecorderState                                                                   
1     0000d77d  _bScopeParameterUsage                                                                            
1     0000b54a  _bServiceWatchdog                                                                                
1     0000b555  _bSkipProcessFlag                                                                                
1     0000d9ca  _bUseFPGACommandOnEnOut2346                                                                      
1     0000d9e4  _bUseSCIA_On_USB                                                                                 
1     0000d451  _bUsedDummyDataAddressInResponseData                                                             
1     0000d77f  _breakData                                                                                       
0     003f0ecd  _c_int00                                                                                         
0     003f02fa  _configCPUTimer                                                                                  
0     003f0fea  _copy_in                                                                                         
0     003f100e  _copysignl                                                                                       
1     0000db40  _cpuTimer0IntCount                                                                               
1     0000db41  _cpuTimer1IntCount                                                                               
1     0000db42  _cpuTimer2IntCount                                                                               
1     0000d46c  _eElementFixedArgument                                                                           
1     0000b543  _eResponseCodeStartRecParam0                                                                     
1     0000b544  _eResponseCodeStartRecParam1                                                                     
1     0000b545  _eResponseCodeStartRecParam2                                                                     
1     0000d7b4  _eResponseCode_CSMON_eInit                                                                       
1     0000d7b5  _eResponseCode_CSMON_eProcess                                                                    
1     0000d7bb  _eResponseCode_CSMON_eSetFlagProcessPassed                                                       
1     0000d7b7  _eResponseCode_CSMON_eSetParameter                                                               
1     0000d7b8  _eResponseCode_CSMON_eSetRecorder                                                                
1     0000d7b9  _eResponseCode_CSMON_eSetScope                                                                   
1     0000d7b6  _eResponseCode_CSMON_eSetServerOnStatus                                                          
1     0000d7ba  _eResponseCode_CSMON_eSetTimerPeriodISRFunctionRegister                                          
0     003ee7c6  _eWriteParElement                                                                                
1     0000dc58  _errno                                                                                           
0     003f0f4d  _exit                                                                                            
0     003f03e4  _floorl                                                                                          
1     0000db48  _hours                                                                                           
0     003f064d  _ldexpl                                                                                          
0     003ee62e  _main                                                                                            
0     003f10ef  _memcpy                                                                                          
1     0000db49  _minutes                                                                                         
1     0000d77a  _nRecorderFreemasterIndex                                                                        
1     0000bfff  _nScopeIndexFreemaster                                                                           
1     0000d77b  _nScopePrmFreemasterIndex                                                                        
1     0000dc4f  _nSizeBytesScopeBuffer                                                                           
1     0000d51a  _nTimeTickDelayModbus                                                                            
1     0000d51e  _nTimeTickDelayModbusMax                                                                         
1     0000d51c  _nTimeTickDelayModbusMin                                                                         
1     0000dbe4  _pBufferScope                                                                                    
1     0000d537  _pcm_nRxCheckSum                                                                                 
1     0000d536  _pcm_nRxTodo                                                                                     
1     0000d535  _pcm_nRxTodoEcho                                                                                 
1     0000d534  _pcm_nTxTodo                                                                                     
1     0000d840  _pcm_pCommBuffer                                                                                 
1     0000d53c  _pcm_pRxBuff                                                                                     
1     0000d53a  _pcm_pTxBuff                                                                                     
1     0000d532  _pcm_wFlags                                                                                      
1     0000d533  _pcm_wFlagsRxTx                                                                                  
1     0000db4c  _pfCSMONFunction                                                                                 
1     0000dbb0  _pfDelayedFunction                                                                               
1     0000dbb8  _pfDelayedFunction_u8                                                                            
1     0000d4ee  _pfWriteParElementCallbackFunction                                                               
1     0000db30  _primeIndArr                                                                                     
1     0000d7c8  _pu16ModbusMessageCounter                                                                        
1     0000d4f4  _realRxByteDelay                                                                                 
1     0000d4f6  _realRxByteDelayLastFail                                                                         
1     0000d471  _realRxByteDelayLastFailBytesReceived                                                            
0     003ef364  _rsvd_ISR                                                                                        
1     0000d794  _s16DummyCurrentPhaseA                                                                           
1     0000d78b  _s16DummyCurrentPhaseAIdle                                                                       
1     0000d783  _s16DummyCurrentPhaseAStartup                                                                    
1     0000d787  _s16DummyCurrentPhaseAStop                                                                       
1     0000d795  _s16DummyCurrentPhaseB                                                                           
1     0000d78c  _s16DummyCurrentPhaseBIdle                                                                       
1     0000d784  _s16DummyCurrentPhaseBStartup                                                                    
1     0000d788  _s16DummyCurrentPhaseBStop                                                                       
1     0000d796  _s16DummyCurrentPhaseC                                                                           
1     0000d78d  _s16DummyCurrentPhaseCIdle                                                                       
1     0000d785  _s16DummyCurrentPhaseCStartup                                                                    
1     0000d789  _s16DummyCurrentPhaseCStop                                                                       
1     0000d7a6  _s16DummyData                                                                                    
1     0000d79a  _s16DummyDataTst                                                                                 
1     0000d798  _s16DummyIncrementLoop                                                                           
1     0000d790  _s16DummyIncrementLoopA                                                                          
1     0000d791  _s16DummyIncrementLoopB                                                                          
1     0000d792  _s16DummyIncrementLoopC                                                                          
1     0000d78f  _s16DummyIncrementLoopCDiff                                                                      
1     0000d793  _s16DummyIncrementLoopV                                                                          
1     0000d797  _s16DummyVoltageDCLink                                                                           
1     0000d78e  _s16DummyVoltageDCLinkIdle                                                                       
1     0000d786  _s16DummyVoltageDCLinkStartup                                                                    
1     0000d78a  _s16DummyVoltageDCLinkStop                                                                       
1     0000d79b  _s16ScaleDataTst                                                                                 
1     0000d7bc  _s32DummyCurrentPhaseA                                                                           
1     0000d7be  _s32DummyCurrentPhaseB                                                                           
1     0000d7c0  _s32DummyCurrentPhaseC                                                                           
1     0000d7c4  _s32DummyIncrementLoop                                                                           
1     0000d7c2  _s32DummyVoltageDCLink                                                                           
1     0000da40  _sExternalRecoderHandle                                                                          
1     0000b5cd  _sHashKey                                                                                        
1     0000d600  _sRecConfigParam                                                                                 
1     0000d8c0  _sRecExternParam                                                                                 
1     0000cf00  _sRecHandle                                                                                      
1     0000be40  _sRecHandleParam                                                                                 
1     0000d008  _sRecStatusParam                                                                                 
1     0000da20  _sRecStatusParamInternal                                                                         
1     0000dc57  _sRecTimeBase                                                                                    
1     0000bf80  _sScopeConfigParam                                                                               
1     0000d6c0  _sScopeHandlePrm                                                                                 
1     0000dc52  _sScopeStatusParam                                                                               
0     003f064d  _scalbnl                                                                                         
0     003ecdde  _scia_echoback_init                                                                              
0     003ecdd6  _scia_fifo_init                                                                                  
0     003ecdc6  _scib_echoback_init                                                                              
0     003ecdbe  _scib_fifo_init                                                                                  
1     0000db4b  _second_Passed                                                                                   
1     0000db4a  _seconds                                                                                         
0     003f00df  _sin                                                                                             
0     003f00df  _sinf                                                                                            
1     0000d7b2  _u16CountMaxParameterTest                                                                        
1     0000d7b1  _u16CountSetParameterFail                                                                        
1     0000d46e  _u16DataModeFixedArgument                                                                        
1     0000d7ac  _u16DelayCtrlLoopOld_100nsec                                                                     
1     0000d7ab  _u16DelayCtrlLoop_100nsec                                                                        
1     0000d7ae  _u16DelayMainLoopOld_usec                                                                        
1     0000d7ad  _u16DelayMainLoop_usec                                                                           
1     0000d9c1  _u16DigitalOutputs                                                                               
1     0000d799  _u16DummyDataCnt                                                                                 
1     0000d45b  _u16FreeRunTimerPrescaller                                                                       
0     003e81ca  _u16GetIndexFileTable                                                                            
1     0000d478  _u16IndexFileTable                                                                               
1     0000d476  _u16ModbusBadCSReceiveMessageCounter                                                             
1     0000d477  _u16ModbusBadTimeoutReceiveMessageCounter                                                        
1     0000d475  _u16ModbusBufferOverflowReceiveMessageCounter                                                    
1     0000d473  _u16ModbusCompleteReceiveMessageCounter                                                          
1     0000d474  _u16ModbusCompleteReceiveMessageCounterThisDevice                                                
1     0000d45c  _u16ModbusMinMessToMess_usec                                                                     
1     0000d472  _u16ModbusStartedReceiveMessageCounter                                                           
1     0000d46d  _u16NoStoreFixedArgument                                                                         
1     0000d46f  _u16PasswordFixedArgument                                                                        
1     0000d7b0  _u16PeriodControlOld_usec                                                                        
1     0000d7af  _u16PeriodControl_usec                                                                           
1     0000d44d  _u16RegisterAddressDummyValue                                                                    
1     0000db45  _u16SecondCounter                                                                                
1     0000db44  _u16SecondPeriod                                                                                 
1     0000b553  _u16SkipProcessCounter                                                                           
1     0000b554  _u16SkipProcessTag                                                                               
1     0000d79c  _u16TestData0                                                                                    
1     0000d79d  _u16TestData1                                                                                    
1     0000d79e  _u16TestData2                                                                                    
1     0000d79f  _u16TestData3                                                                                    
1     0000d7a0  _u16TestData4                                                                                    
1     0000d7a1  _u16TestData5                                                                                    
1     0000d7a2  _u16TestData6                                                                                    
1     0000d7a3  _u16TestData7                                                                                    
1     0000d7a4  _u16TestData8                                                                                    
1     0000d7a5  _u16TestData9                                                                                    
1     0000d77e  _u16TimeBase                                                                                     
1     0000dc2a  _u16TimerMainDelayedData                                                                         
1     0000dc2e  _u16TimerMainFunctionDelay                                                                       
1     0000dc32  _u16TimerMainFunctionDelayCompare                                                                
1     0000dc36  _u16TimerMainFunctionDelayCounter                                                                
1     0000db46  _u16TimerMainISRCounter                                                                          
1     0000db43  _u16TimerMainPeriod                                                                              
1     0000d7a7  _u16WatchdogPrescaler                                                                            
1     0000d7a8  _u16WatchdogPrescalerOld                                                                         
1     0000d7a9  _u16WatchdogPrescalerTime                                                                        
1     0000d7aa  _u16WatchdogPrescalerTimeOld                                                                     
1     0000d50c  _u32BufferAddressStart                                                                           
1     0000d50e  _u32BufferSize                                                                                   
0     003e81ba  _u32BytesMemoryToBytesModbus                                                                     
0     003e81aa  _u32BytesModbusToBytesMemory                                                                     
1     0000d7cc  _u32DelayCtrlLoop_Ticks                                                                          
1     0000d7ce  _u32DelayMainLoop_Ticks                                                                          
1     0000d838  _u32DeviceLSPCLKFreq                                                                             
1     0000d83a  _u32DeviceLSPCLKFreqRoundAndMinErrorBaud                                                         
1     0000d83e  _u32DeviceSYSCLKFreq                                                                             
1     0000d9d6  _u32DigitalInputPortMask                                                                         
1     0000d9ce  _u32DigitalInputs                                                                                
1     0000d9d4  _u32DigitalOutputPortMask                                                                        
1     0000d9d0  _u32DigitalOutputPortMask1                                                                       
1     0000d9d2  _u32DigitalOutputPortMask2                                                                       
1     0000d7c6  _u32DummyDataCnt                                                                                 
1     0000d4ce  _u32ElementSizeTableB326_0                                                                       
1     0000d4d2  _u32ElementSizeTableB326_1                                                                       
1     0000d4d6  _u32ElementSizeTableB326_2                                                                       
1     0000d4cc  _u32ElementSizeTableD384_0                                                                       
1     0000d4d0  _u32ElementSizeTableD384_1                                                                       
1     0000d4d4  _u32ElementSizeTableD384_2                                                                       
1     0000d518  _u32ElementsSizeMemory                                                                           
1     0000d516  _u32ElementsSizeModbus                                                                           
0     003e819c  _u32FitAddressCircleBufferInside                                                                 
0     003e8190  _u32FixAddressCircleBufferOverflow                                                               
1     0000b566  _u32FreeRunTimerSysClkDiv                                                                        
1     0000b564  _u32FreeRunTimerSysClkMHz                                                                        
1     0000d7ea  _u32GetBaudError_PPM                                                                             
0     003e817c  _u32GetBufferAddressStart                                                                        
0     003e8178  _u32GetBufferSize                                                                                
0     003e8174  _u32GetElementsSizeMemory                                                                        
0     003e8170  _u32GetElementsSizeModbus                                                                        
0     003e8004  _u32GetSampleCountAvailable                                                                      
0     003e8000  _u32GetSampleCountBuffer                                                                         
0     003e816c  _u32GetStartSampleIndex                                                                          
1     0000d9dc  _u32InputPortDataRead                                                                            
1     0000d9e2  _u32InputPortDataReadActiveLow                                                                   
1     0000d4be  _u32ModbusMaxByteToByte                                                                          
1     0000d4c4  _u32ModbusMaxByteToByteExact                                                                     
1     0000d4c0  _u32ModbusMaxMessToMess                                                                          
1     0000d4c6  _u32ModbusMaxMessToMessExact                                                                     
1     0000d4c2  _u32ModbusMinMessToMess                                                                          
1     0000d4c8  _u32ModbusTimeout                                                                                
1     0000cd00  _u32ModbusTimeoutBuffer                                                                          
1     0000d4f0  _u32ModbusTimeoutBufferIndex                                                                     
1     0000d9de  _u32OutputPortDataNew                                                                            
1     0000d9e0  _u32OutputPortDataPreserve                                                                       
1     0000d9d8  _u32OutputPortDataRead                                                                           
1     0000d9da  _u32OutputPortDataWrite                                                                          
1     0000d7e8  _u32ParamTime_Ticks                                                                              
1     0000dbea  _u32RecorderLastFreeCounter                                                                      
1     0000dbf0  _u32RecorderMicroSec                                                                             
1     0000d4f2  _u32RxTimeout                                                                                    
1     0000d4f8  _u32RxTimeoutLastFail                                                                            
1     0000d512  _u32SampleCountAvailable                                                                         
1     0000d510  _u32SampleCountBuffer                                                                            
1     0000d514  _u32StartSampleIndex                                                                             
1     0000d7e2  _u32TimeCSMON_ISR_Max_Ticks                                                                      
1     0000d7e0  _u32TimeCSMON_ISR_Ticks                                                                          
1     0000d7e6  _u32TimeCtrlLoopMax_Ticks                                                                        
1     0000d7e4  _u32TimeCtrlLoop_Ticks                                                                           
1     0000dbc0  _u32TimeDiffLast                                                                                 
1     0000dbc8  _u32TimeDiffNow                                                                                  
1     0000dbd0  _u32TimeDiffRead                                                                                 
1     0000d7d8  _u32TimeMainLoopCycle_Bgn_Ticks                                                                  
1     0000d7da  _u32TimeMainLoopCycle_End_Ticks                                                                  
1     0000d7de  _u32TimeMainLoopCycle_Max_Ticks                                                                  
1     0000d7dc  _u32TimeMainLoopCycle_Now_Ticks                                                                  
1     0000d7d0  _u32TimeMainLoopProcessCSMON_Bgn_Ticks                                                           
1     0000d7d2  _u32TimeMainLoopProcessCSMON_End_Ticks                                                           
1     0000d7d6  _u32TimeMainLoopProcessCSMON_Max_Ticks                                                           
1     0000d7d4  _u32TimeMainLoopProcessCSMON_Now_Ticks                                                           
1     0000d4ca  _u32WrongElementSizeTable                                                                        
1     0000d7f4  _u64DummyDataCnt                                                                                 
0     003e8168  _u8GetSampleSize                                                                                 
1     0000d479  _u8SampleSize                                                                                    
1     0000d538  _u8UartIndex                                                                                     
1     0000d44a  _u8UartModBusIndex                                                                               
1     0000d9c3  _uDIExternal                                                                                     
1     0000d9c5  _uDIExternalFbk                                                                                  
1     0000d9c2  _uDOExternal                                                                                     
1     0000d9c4  _uDOExternalFbk                                                                                  
1     0000d9c8  _uEnableOutput                                                                                   
1     0000d9cb  _uEnableOutput2346                                                                               
1     0000d9c9  _uEnableOutputUse                                                                                
1     0000d9c6  _uFaultInput                                                                                     
1     0000d9c7  _uFaultInputDeny                                                                                 
0     003ee411  _vGetWatchdogPrescaler                                                                           
0     003e8151  _vSetBufferAddressStart                                                                          
0     003e814d  _vSetBufferSize                                                                                  
0     003e80ef  _vSetElementsSize                                                                                
0     003e80a9  _vSetIndexFileTable                                                                              
0     003e8085  _vSetSampleCountAvailable                                                                        
0     003e8065  _vSetSampleCountBuffer                                                                           
0     003e8045  _vSetSampleSize                                                                                  
0     003e8008  _vSetStartSampleIndex                                                                            
0     003ee3df  _vSetWatchdogPrescalerTimeDiv                                                                    
abs   ffffffff  binit                                                                                            
0     003f2bc8  cinit                                                                                            
0     003f1261  etext                                                                                            
abs   ffffffff  pinit                                                                                            


GLOBAL SYMBOLS: SORTED BY Symbol Address 

page  address   name                                                                                             
----  -------   ----                                                                                             
0     00008000  _RamfuncsRunStart                                                                                
0     00008000  _SysCtl_delay                                                                            003f1261
0     00008004  _DSP28x_usDelay                                                                          003f1265
0     003e8000  .text                                                                                            
0     003e8000  ___text__                                                                                        
0     003e8000  _u32GetSampleCountBuffer                                                                         
0     003e8004  _u32GetSampleCountAvailable                                                                      
0     003e8008  _vSetStartSampleIndex                                                                            
0     003e8045  _vSetSampleSize                                                                                  
0     003e8065  _vSetSampleCountBuffer                                                                           
0     003e8085  _vSetSampleCountAvailable                                                                        
0     003e80a9  _vSetIndexFileTable                                                                              
0     003e80ef  _vSetElementsSize                                                                                
0     003e814d  _vSetBufferSize                                                                                  
0     003e8151  _vSetBufferAddressStart                                                                          
0     003e8168  _u8GetSampleSize                                                                                 
0     003e816c  _u32GetStartSampleIndex                                                                          
0     003e8170  _u32GetElementsSizeModbus                                                                        
0     003e8174  _u32GetElementsSizeMemory                                                                        
0     003e8178  _u32GetBufferSize                                                                                
0     003e817c  _u32GetBufferAddressStart                                                                        
0     003e8180  _bIsValidEndAddressInBuffer                                                                      
0     003e8190  _u32FixAddressCircleBufferOverflow                                                               
0     003e819c  _u32FitAddressCircleBufferInside                                                                 
0     003e81aa  _u32BytesModbusToBytesMemory                                                                     
0     003e81ba  _u32BytesMemoryToBytesModbus                                                                     
0     003e81ca  _u16GetIndexFileTable                                                                            
0     003e81ce  _bIsValidIndexFileTable                                                                          
0     003e81d9  _bGetFileReadAccess                                                                              
0     003e81f2  _bGetElementsDifference                                                                          
0     003e81f6  _HMMODBUS_vSetupWriteParElementFixedArguments                                                    
0     003e81fd  _HMMODBUS_vSetupWriteParElementCallbackFunction                                                  
0     003e8201  _HMMODBUS_vSetupRegisterDummy                                                                    
0     003e820a  _HMMODBUS_vSetupQueueRegistersAddressTable                                                       
0     003e8255  _HMMODBUS_vSetupInputRegistersAddressTableInRam                                                  
0     003e825b  _HMMODBUS_vSetupInputRegistersAddressTable                                                       
0     003e8261  _HMMODBUS_vSetupInputCoilsAddressTableInRam                                                      
0     003e8266  _HMMODBUS_vSetupInputCoilsAddressTable                                                           
0     003e826c  _HMMODBUS_vSetupHoldingRegistersAddressTableInRam                                                
0     003e8272  _HMMODBUS_vSetupHoldingRegistersAddressTable                                                     
0     003e8278  _HMMODBUS_vSetupHoldingCoilsAddressTableInRam                                                    
0     003e827d  _HMMODBUS_vSetupHoldingCoilsAddressTable                                                         
0     003e8283  _HMMODBUS_vSetupCoilDummy                                                                        
0     003e8289  _HMMODBUS_GetRealQueueNumber                                                                     
0     003e82c6  _HMMODBUS_vSetupActiveQueueIndex                                                                 
0     003e82cc  _HMMODBUS_vSetServerOnStatus                                                                     
0     003e82d0  _HMMODBUS_vSetServerIDNumber                                                                     
0     003e82d4  _HMMODBUS_vSetServerIDLength                                                                     
0     003e82d8  _HMMODBUS_vSetServerIDDataAddress                                                                
0     003e82dc  _HMMODBUS_vSetPortIndex                                                                          
0     003e82e0  _HMMODBUS_vSetFreeRunTimerPrescaller                                                             
0     003e8411  _HMMODBUS_vSetDeviceIDVendorUrlLength                                                            
0     003e8415  _HMMODBUS_vSetDeviceIDVendorUrl                                                                  
0     003e8419  _HMMODBUS_vSetDeviceIDVendorNameLength                                                           
0     003e841d  _HMMODBUS_vSetDeviceIDVendorName                                                                 
0     003e8421  _HMMODBUS_vSetDeviceIDUserReserve2Length                                                         
0     003e8425  _HMMODBUS_vSetDeviceIDUserReserve2                                                               
0     003e8429  _HMMODBUS_vSetDeviceIDUserReserve1Length                                                         
0     003e842d  _HMMODBUS_vSetDeviceIDUserReserve1                                                               
0     003e8431  _HMMODBUS_vSetDeviceIDUserReserve0Length                                                         
0     003e8435  _HMMODBUS_vSetDeviceIDUserReserve0                                                               
0     003e8439  _HMMODBUS_vSetDeviceIDUserApplicationNameLength                                                  
0     003e843d  _HMMODBUS_vSetDeviceIDUserApplicationName                                                        
0     003e8441  _HMMODBUS_vSetDeviceIDProductNameLength                                                          
0     003e8445  _HMMODBUS_vSetDeviceIDProductName                                                                
0     003e8449  _HMMODBUS_vSetDeviceIDProductCodeLength                                                          
0     003e844d  _HMMODBUS_vSetDeviceIDProductCode                                                                
0     003e8451  _HMMODBUS_vSetDeviceIDModelNameLength                                                            
0     003e8455  _HMMODBUS_vSetDeviceIDModelName                                                                  
0     003e8459  _HMMODBUS_vSetDeviceIDMajorMinorRevisionLength                                                   
0     003e845d  _HMMODBUS_vSetDeviceIDMajorMinorRevision                                                         
0     003e8461  _HMMODBUS_CalcCRC                                                                                
0     003e8470  _HMMODBUS_vSendResponse                                                                          
0     003e84ae  _HMMODBUS_vProcessTxDelay                                                                        
0     003e84c5  _HMMODBUS_Tx                                                                                     
0     003e84d9  _HMMODBUS_vProcessSCITXISR                                                                       
0     003e84f1  _HMMODBUS_vProcessFreeTimer                                                                      
0     003e84fa  _HMMODBUS_vProcessRxDelay                                                                        
0     003e8503  _HMMODBUS_Listen                                                                                 
0     003e8556  _HMMODBUS_GetRealRegisterAddressAndSize                                                          
0     003e865b  _HMMODBUS_CopyFromBuffer                                                                         
0     003e86c3  _HMMODBUS_CopyToBuffer                                                                           
0     003e870a  _HMMODBUS_GetRegisterFunction                                                                    
0     003e8768  _HMMODBUS_CopyFromBufferCoil                                                                     
0     003e87d7  _HMMODBUS_CopyFromBufferSingleCoil                                                               
0     003e8807  _HMMODBUS_GetCoilFunction                                                                        
0     003e8867  _HMMODBUS_CopyToBufferSingleCoil                                                                 
0     003e888d  _HMMODBUS_CopyToBufferCoil                                                                       
0     003e8907  _HMMODBUS_DelayedTx                                                                              
0     003e891b  _HMMODBUS_bDecoder                                                                               
0     003e9ec1  _HMMODBUS_Rx                                                                                     
0     003e9fc4  _HMMODBUS_vProcessSCI                                                                            
0     003ea022  _HMMODBUS_vProcessFastTD                                                                         
0     003ea02d  _HMMODBUS_vInit                                                                                  
0     003ea044  _HMMODBUS_vFileTableSetValidRecord                                                               
0     003ea067  _HMMODBUS_vFileTable                                                                             
0     003ea06c  _HMMODBUS_u32GetFreeRunTimerReceivedMessage                                                      
0     003ea070  _HMMODBUS_u32GetAddressMessageCounterThisDevice                                                  
0     003ea074  _HMMODBUS_bGetReceivedMessage                                                                    
0     003ea079  _HMMODBUS_GetRealCoilAddressAndOffset                                                            
0     003ea0f9  _HMMODBUS_CopyFileRecordFromBuffer                                                               
0     003ea140  _HMRECPRM_vGetDateTime                                                                           
0     003ea15f  _CSMON_bCheckValidDateTime                                                                       
0     003ea1b6  _CSMON_vUpdateDateTimeFromApplication                                                            
0     003ea1dd  _CSMON_vSetupInputRegistersAndCoilsAddressTableFromCSMONParameterList                            
0     003ea2c2  _CSMON_vSetupInputRegistersAndCoilsAddressTableAccessAll                                         
0     003ea30d  _CSMON_vSetupHoldingRegistersAndCoilsAddressTableFromCSMONParameterList                          
0     003ea449  _CSMON_vSetupHoldingRegistersAndCoilsAddressTableAccessAll                                       
0     003ea4a2  _CSMON_vSetStopRecorderParameterMask                                                             
0     003ea4a6  _CSMON_vSetStartRecorderParameterMask                                                            
0     003ea4aa  _CSMON_vSetSetupRecorderParameterMask                                                            
0     003ea4ae  _CSMON_vSetDateTimeRequest                                                                       
0     003ea4b3  _CSMON_vSetDateTimeAutorization                                                                  
0     003ea525  _CSMON_vAddSetupRecorderParameterMask                                                            
0     003ea529  _CSMON_vSaveRecorderConfiguration                                                                
0     003ea674  _CSMON_vSaveRecorderConfigTrigger                                                                
0     003ea728  _CSMON_vSaveRecorderConfig                                                                       
0     003ea74f  _CSMON_vRecorderParamStartStopProcess                                                            
0     003ea7a9  _CSMON_u16FindIndexParameterTable                                                                
0     003ea7ea  _CSMON_u32GetRealAddressAndSizeOffsetFromParameter                                               
0     003ea822  _CSMON_eSetUpRecParam                                                                            
0     003ea99e  _CSMON_vCheckLoadRecorderTable                                                                   
0     003eaae9  _CSMON_vRecorderParamSetupProcess                                                                
0     003eab17  _CSMON_u32GetFreeRunningTimerTicks                                                               
0     003eab1c  _CSMON_u32GetParameterListCheckSum                                                               
0     003eac82  _CSMON_u32GetParameterShortNameCheckSum                                                          
0     003ead10  _CSMON_u32GetParameterNumbCheckSum                                                               
0     003ead9e  _CSMON_u32GetParameterStringCheckSum                                                             
0     003eae1e  _CSMON_u32GetParameterAuxCheckSum                                                                
0     003eae50  _CSMON_vFileParameterCountCheckSumUpdate                                                         
0     003eae6b  _CSMON_vPrepareFileParameterAccessList                                                           
0     003eaf0f  _CSMON_vLoadRecorderConfiguration                                                                
0     003eb0ad  _CSMON_vLoadRecorderConfigTrigger                                                                
0     003eb111  _CSMON_vInitScopes                                                                               
0     003eb119  _CSMON_vInitRecorders                                                                            
0     003eb1d9  _CSMON_vInitHoldingRegistersTableChanges                                                         
0     003eb1eb  _CSMON_vFileRecoderStatusFix                                                                     
0     003eb2de  _CSMON_vCheckSaveRecorderTable                                                                   
0     003eb3df  _CSMON_bAutorizationPasswordCheck                                                                
0     003eb407  _CSMON_vAutorizationReset                                                                        
0     003eb42b  _CSMON_u32GetParameterCheckSum                                                                   
0     003eb4cb  _CSMON_u32GetModbusMessageCounterRegisterRealAddress                                             
0     003eb4ce  _CSMON_u32GetFreeRunningTimerMicroseconds                                                        
0     003eb4e6  _CSMON_u32GetBaudError_PPM                                                                       
0     003eb4ea  _CSMON_u16ParametersAccessListIndexGenerate                                                      
0     003eb4ef  _CSMON_eSetupWriteParElementFixedArguments                                                       
0     003eb4f3  _CSMON_eSetUpScopeParam                                                                          
0     003eb551  _CSMON_eSetTimerPeriodISRFunctionRegister                                                        
0     003eb555  _CSMON_eSetServerOnStatus                                                                        
0     003eb55e  _CSMON_eSetRecorderTriggerAtPosition                                                             
0     003eb5ab  _CSMON_eSetRecorderConfigurationSkipSamples                                                      
0     003eb5e6  _CSMON_eSetRecorderConfiguration                                                                 
0     003eb607  _CSMON_eSetParameterInScopeAtPosition                                                            
0     003eb637  _CSMON_eSetParameterInRecorderAtPosition                                                         
0     003eb669  _CSMON_eSetParameterCountInScope                                                                 
0     003eb67f  _CSMON_eSetParameterCountInRecorder                                                              
0     003eb69a  _CSMON_eSetParameter                                                                             
0     003ebb69  _CSMON_eSetMinGuaranteedTimeBetweenTwoISRs                                                       
0     003ebb6e  _CSMON_eSetMaxTimeInISR                                                                          
0     003ebb73  _CSMON_eSetInternalTimerPeriod                                                                   
0     003ebb77  _CSMON_eSetFlagProcessPassed                                                                     
0     003ebb8a  _CSMON_eSetFirmwareApplicationVersion                                                            
0     003ebb8f  _CSMON_eSetExternalRecorderUsage                                                                 
0     003ebbe1  _CSMON_eSetAutoServiceWatchdogInternalSlowCalculationsInMainLoop                                 
0     003ebbe6  _CSMON_eResetParameterTable                                                                      
0     003ebbfb  _CSMON_eRegisterWriteParElementCallbackFunction                                                  
0     003ebbff  _CSMON_eProcess                                                                                  
0     003ebd77  _CSMON_eInit                                                                                     
0     003ebf58  _CSMON_eGetRecorderTriggerAtPosition                                                             
0     003ebf74  _CSMON_eGetRecorderConfiguration                                                                 
0     003ebf89  _CSMON_eGetParameterInRecorderAtPosition                                                         
0     003ebfa7  _CSMON_eGetParameterCountInRecorder                                                              
0     003ebfb8  _CSMON_eApplyParameterChanges                                                                    
0     003ebfd6  _CSMON_bPasswordGenerateFromHash                                                                 
0     003ec044  _MODBUSREG_vSetParamStringAddress                                                                
0     003ec048  _MODBUSREG_vSetParamScopeConfigAddress                                                           
0     003ec04c  _MODBUSREG_vSetParamReservedAddress                                                              
0     003ec050  _MODBUSREG_vSetParamRecorderConfigAddress                                                        
0     003ec054  _MODBUSREG_vSetParamNumbAddress                                                                  
0     003ec058  _MODBUSREG_vSetParamNameAddress                                                                  
0     003ec05c  _MODBUSREG_vSetParamListAddress                                                                  
0     003ec060  _MODBUSREG_vSetParamCount                                                                        
0     003ec064  _MODBUSREG_vSetParamAuxAddress                                                                   
0     003ec068  _MODBUSREG_vSetModbusParamCount                                                                  
0     003ec06c  _MODBUSREG_vSetHoldRegFillCount                                                                  
0     003ec070  _MODBUSREG_vSetFileRecStatus_FunctionIndexGenerationFileRecord                                   
0     003ec074  _MODBUSREG_vSetFileRecConfig_FunctionAfterWriteFileRecord                                        
0     003ec078  _MODBUSREG_vSetFileRTC_FunctionAfterWriteFileRecord                                              
0     003ec07c  _MODBUSREG_vSetFileRTC_FunctionAfterReadFileRecord                                               
0     003ec080  _MODBUSREG_vSetFileParamCount_FunctionBeforeReadFileRecord                                       
0     003ec084  _MODBUSREG_vSetFileAutorization_FunctionAfterWriteFileRecordTable                                
0     003ec088  _MODBUSREG_vProcess                                                                              
0     003ec089  _MODBUSREG_vInitHoldingRegistersTableChanges                                                     
0     003ec09b  _MODBUSREG_vDataZero                                                                             
0     003ec0a6  _MODBUSREG_AddressTablesInit                                                                     
0     003ecb60  _MODBUSREG_vInit                                                                                 
0     003ecc03  _MODBUSREG_vFileDenyAccess                                                                       
0     003ecc64  _MODBUSREG_vFileAllowAccess                                                                      
0     003ecd07  _MODBUSREG_u32GetRegisterAddressTableInRam                                                       
0     003ecd0b  _MODBUSREG_u32GetRegisterAddressTable                                                            
0     003ecd0f  _MODBUSREG_u32GetRegisterAccessTableInRam                                                        
0     003ecd13  _MODBUSREG_u32GetInputRegisterAddressTableInRam                                                  
0     003ecd17  _MODBUSREG_u32GetInputRegisterAddressTable                                                       
0     003ecd1b  _MODBUSREG_u32GetInputRegisterAccessTableInRam                                                   
0     003ecd1f  _MODBUSREG_u32GetInputCoilAddressTableInRam                                                      
0     003ecd23  _MODBUSREG_u32GetInputCoilAddressTable                                                           
0     003ecd27  _MODBUSREG_u32GetHoldingCoilAddressTableInRam                                                    
0     003ecd2b  _MODBUSREG_u32GetHoldingCoilAddressTable                                                         
0     003ecd2f  _MODBUSREG_u32GetAddressMessageCounterThisDevice                                                 
0     003ecd32  _MODBUSREG_u16GetInputRegisterUsedCount                                                          
0     003ecd34  _MODBUSREG_u16GetInputCoilUsedCount                                                              
0     003ecd36  _MODBUSREG_u16GetHoldingCoilUsedCount                                                            
0     003ecd38  _MODBUSREG_u16GetHoldRegUsedCount                                                                
0     003ecd3c  _MODBUSREG_u16GetHoldRegFillCount                                                                
0     003ecd40  _MODBUSREG_FileRecorderExternalUpdateInit                                                        
0     003ecd97  _MODBUSREG_FileRecorderElementSizeTableUsedSizeUpdateInit                                        
0     003ecdbe  _scib_fifo_init                                                                                  
0     003ecdc6  _scib_echoback_init                                                                              
0     003ecdd6  _scia_fifo_init                                                                                  
0     003ecdde  _scia_echoback_init                                                                              
0     003ecdee  _HMDRV_vProcess                                                                                  
0     003ece0f  _HMDRV_vInit                                                                                     
0     003ecea1  _HMDRV_vDebugSend                                                                                
0     003eceab  _HMDRV_u32GetSCIErrorPPM                                                                         
0     003eceaf  _HMDRV_u32GetDeviceSYSCLKFreq                                                                    
0     003eceb3  _HMDRV_SetExAddr                                                                                 
0     003eceb7  _HMDRV_GetStringLengthInternal                                                                   
0     003eceec  _HMDRV_GetStringLengthFromWordInternal                                                           
0     003ecefe  _HMDRV_CopyToBufferInternalSingleCoil                                                            
0     003ecf0a  _HMDRV_CopyToBufferInternalModbusSingleCoil                                                      
0     003ecf40  _HMDRV_CopyToBufferInternalModbusCoil                                                            
0     003ecfaa  _HMDRV_CopyToBufferInternalModbus                                                                
0     003ed05c  _HMDRV_CopyToBufferInternalCoil                                                                  
0     003ed0fd  _HMDRV_CopyToBufferInternal                                                                      
0     003ed24c  _HMDRV_CopyMemory                                                                                
0     003ed3d2  _HMDRV_CopyFromBufferInternalWithMaskModbus                                                      
0     003ed3f8  _HMDRV_CopyFromBufferWithMaskModbus                                                              
0     003ed400  _HMDRV_CopyFromBufferInternalWithMask                                                            
0     003ed421  _HMDRV_CopyFromBufferInternalSingleCoil                                                          
0     003ed42e  _HMDRV_CopyFromBufferInternalModbusSingleCoil                                                    
0     003ed47b  _HMDRV_CopyFromBufferInternalModbusCoil                                                          
0     003ed4bc  _HMDRV_CopyFromBufferInternalModbusBitField                                                      
0     003ed56b  _HMDRV_CopyFromBufferInternalModbus                                                              
0     003ed5f3  _HMDRV_CopyFromBufferInternalCoil                                                                
0     003ed699  _HMDRV_CopyFromBufferInternal                                                                    
0     003ed6dc  _HMDRV_AddressToBufferBigEndian                                                                  
0     003ed6f7  _HMDRV_AddressToBuffer                                                                           
0     003ed712  _HMDRV_AddressFromBufferBigEndian                                                                
0     003ed728  _HMDRV_AddressFromBuffer                                                                         
0     003ed741  ___kernel_rem_pio2                                                                               
0     003eddd9  _RecorderTimeFromRTCTime                                                                         
0     003ede04  _RecorderTimeFromLocalDateTime                                                                   
0     003ede31  _RecorderDateFromRTCDate                                                                         
0     003ede6a  _RecorderDateFromLocalDateTime                                                                   
0     003ede8e  _HMRECPRM_IsJustStopped                                                                          
0     003ede9d  _HMRECPRM_IsRunning                                                                              
0     003edea8  _FillTimeData                                                                                    
0     003eded3  _HMRECPRM_vDisableAllStopDetections                                                              
0     003edee1  _HMRECPRM_SetUpRecParamStatusDateTime                                                            
0     003edf68  _HMRECPRM_ClrLastStopDetectionToRecorderStopSamplesCounter                                       
0     003edf72  _HMRECPRM_vTimeSync                                                                              
0     003edff4  _HMRECPRM_vResetAllStopDetections                                                                
0     003ee009  _HMRECPRM_TriggerRec                                                                             
0     003ee016  _HMRECPRM_Comparefloat                                                                           
0     003ee02b  _HMRECPRM_Compare8S                                                                              
0     003ee039  _HMRECPRM_Compare8U                                                                              
0     003ee047  _HMRECPRM_Compare16S                                                                             
0     003ee055  _HMRECPRM_Compare16U                                                                             
0     003ee063  _HMRECPRM_Compare32S                                                                             
0     003ee071  _HMRECPRM_Compare32U                                                                             
0     003ee07f  _HMRECPRM_vProcess                                                                               
0     003ee16c  _HMRECPRM_vInitParam                                                                             
0     003ee17c  _HMRECPRM_vInit                                                                                  
0     003ee184  _HMRECPRM_StopRecParam                                                                           
0     003ee198  _HMRECPRM_StopRec                                                                                
0     003ee1a5  _HMRECPRM_StartRecParam                                                                          
0     003ee1f3  _HMRECPRM_StartRec                                                                               
0     003ee20d  _HMRECPRM_SetUpRecBuff                                                                           
0     003ee213  _HMRECPRM_AbortRec                                                                               
0     003ee215  _HMRECPRM_GetRecBuffSize                                                                         
0     003ee217  _HMRECPRM_SetUpRec                                                                               
0     003ee2d9  _HMRECPRM_SetTimeBase                                                                            
0     003ee2dc  _HMRECPRM_IsInRecBuffer                                                                          
0     003ee2ef  _HMRECPRM_GetTimeBase                                                                            
0     003ee2f2  _HMRECPRM_GetStatusRecParamAddress                                                               
0     003ee2fa  _HMRECPRM_GetStatusInternalRecParamAddress                                                       
0     003ee302  _HMRECPRM_GetRecStatusParam                                                                      
0     003ee30c  _HMRECPRM_GetRecStatus                                                                           
0     003ee316  _HMRECPRM_GetRecSampleSize                                                                       
0     003ee319  _HMRECPRM_GetRecParamPtrSampleSize                                                               
0     003ee321  _HMRECPRM_GetRecParamPtrMaximumUsedSampleCount                                                   
0     003ee329  _HMRECPRM_GetRecParamPtrLastSampleIndex                                                          
0     003ee331  _HMRECPRM_GetRecParamPtrAvailableSampleCount                                                     
0     003ee339  _HMRECPRM_GetRecBuffIndex                                                                        
0     003ee33c  _HMRECPRM_GetRecBuffFreemasterParam                                                              
0     003ee359  _HMRECPRM_GetRecBuffFreemaster                                                                   
0     003ee376  _HMRECPRM_GetRecBuffCheckCodeParam                                                               
0     003ee381  _HMRECPRM_GetRecBuffCheckCode                                                                    
0     003ee38c  _HMRECPRM_GetRecBuffAddress                                                                      
0     003ee38e  _HMRECPRM_GetExternRecParamPtrSampleSize                                                         
0     003ee396  _HMRECPRM_GetExternRecParamPtrMaximumUsedSampleCount                                             
0     003ee39e  _HMRECPRM_GetExternRecParamAddress                                                               
0     003ee3a6  _HMRECPRM_GetExternBufferRecParamPtrAddress                                                      
0     003ee3af  _HMRECPRM_GetExternBufferRecParamLastPointedAddress                                              
0     003ee3b8  _HMRECPRM_GetBufferRecParamPtrAddress                                                            
0     003ee3c4  _HMRECPRM_GetBufferRecParamAddress                                                               
0     003ee3cd  _HMRECPRM_CompareBOOL                                                                            
0     003ee3df  _vSetWatchdogPrescalerTimeDiv                                                                    
0     003ee411  _vGetWatchdogPrescaler                                                                           
0     003ee45b  _RecordersInitialization                                                                         
0     003ee51d  _ScopesInitialization                                                                            
0     003ee593  _ParameterInitialization                                                                         
0     003ee62e  _main                                                                                            
0     003ee7c6  _eWriteParElement                                                                                
0     003ee7c8  _ControlProcess                                                                                  
0     003ee88d  _CSMON_vSetDateTime                                                                              
0     003ee89e  _CSMON_vGetDateTime                                                                              
0     003ee8bd  _SysCtl_selectOscSource                                                                          
0     003ee8e5  _SysCtl_setClock                                                                                 
0     003eead6  _SysCtl_setAuxClock                                                                              
0     003eec2b  _SysCtl_getClock                                                                                 
0     003eec71  _SysCtl_getLowSpeedClock                                                                         
0     003eec86  _SysCtl_getDeviceParametric                                                                      
0     003eecca  _SysCtl_getAuxClock                                                                              
0     003eed1e  _Hash                                                                                            
0     003eef43  _HMREC_TriggerRec                                                                                
0     003eefb7  _HMREC_vProcess                                                                                  
0     003ef021  _HMREC_vInit                                                                                     
0     003ef029  _HMREC_StopRec                                                                                   
0     003ef036  _HMREC_StartRec                                                                                  
0     003ef04b  _HMREC_SetUpRecBuff                                                                              
0     003ef051  _HMREC_AbortRec                                                                                  
0     003ef053  _HMREC_GetRecBuffSize                                                                            
0     003ef055  _HMREC_SetUpRec                                                                                  
0     003ef113  _HMREC_IsInRecBuffer                                                                             
0     003ef128  _HMREC_GetRecStatus                                                                              
0     003ef132  _HMREC_GetRecSampleSize                                                                          
0     003ef135  _HMREC_GetRecBuffIndex                                                                           
0     003ef138  _HMREC_GetRecBuffFreemaster                                                                      
0     003ef155  _HMREC_GetRecBuffCheckCode                                                                       
0     003ef160  _HMREC_GetRecBuffAddress                                                                         
0     003ef162  _HMSERIAL_vSetPortIndex                                                                          
0     003ef166  _HMSERIAL_vSendResponse                                                                          
0     003ef1a5  _HMSERIAL_Tx                                                                                     
0     003ef1c6  _HMSERIAL_vProcessSCITXISRFreemasterOnly                                                         
0     003ef1dc  _HMSERIAL_vProcessSCITXISR                                                                       
0     003ef22e  _HMSERIAL_Rx                                                                                     
0     003ef288  _HMSERIAL_vProcessSCIFreemasterOnly                                                              
0     003ef2b4  _HMSERIAL_vProcessFreeTimer                                                                      
0     003ef2bd  _HMSERIAL_vProcessSCI                                                                            
0     003ef338  _HMSERIAL_vProcessFastTD                                                                         
0     003ef343  _HMSERIAL_vInit                                                                                  
0     003ef350  _HMSERIAL_DelayedTx                                                                              
0     003ef364  _rsvd_ISR                                                                                        
0     003ef369  _XINT3_ISR                                                                                       
0     003ef36e  _XINT2_ISR                                                                                       
0     003ef373  _XINT1_ISR                                                                                       
0     003ef378  _WAKEINT_ISR                                                                                     
0     003ef37d  _USER9_ISR                                                                                       
0     003ef382  _USER8_ISR                                                                                       
0     003ef387  _USER7_ISR                                                                                       
0     003ef38c  _USER6_ISR                                                                                       
0     003ef391  _USER5_ISR                                                                                       
0     003ef396  _USER4_ISR                                                                                       
0     003ef39b  _USER3_ISR                                                                                       
0     003ef3a0  _USER2_ISR                                                                                       
0     003ef3a5  _USER1_ISR                                                                                       
0     003ef3aa  _USER12_ISR                                                                                      
0     003ef3af  _USER11_ISR                                                                                      
0     003ef3b4  _USER10_ISR                                                                                      
0     003ef3b9  _USB0_INT_ISR                                                                                    
0     003ef3be  _TINT0_ISR                                                                                       
0     003ef3c3  _SPITXINTB_ISR                                                                                   
0     003ef3c8  _SPITXINTA_ISR                                                                                   
0     003ef3cd  _SPIRXINTB_ISR                                                                                   
0     003ef3d2  _SPIRXINTA_ISR                                                                                   
0     003ef3d7  _SCITXINTB_ISR                                                                                   
0     003ef3dc  _SCITXINTA_ISR                                                                                   
0     003ef3e1  _SCIRXINTB_ISR                                                                                   
0     003ef3e6  _SCIRXINTA_ISR                                                                                   
0     003ef3eb  _RTOSINT_ISR                                                                                     
0     003ef3f0  _PIE_RESERVED                                                                                    
0     003ef3f5  _NMI_ISR                                                                                         
0     003ef3fa  _MXINTA_ISR                                                                                      
0     003ef3ff  _MRINTA_ISR                                                                                      
0     003ef404  _LVF_ISR                                                                                         
0     003ef409  _LUF_ISR                                                                                         
0     003ef40e  _INT14_ISR                                                                                       
0     003ef413  _INT13_ISR                                                                                       
0     003ef418  _ILLEGAL_ISR                                                                                     
0     003ef41d  _I2CINT2A_ISR                                                                                    
0     003ef422  _I2CINT1A_ISR                                                                                    
0     003ef427  _HRCAP4_INT_ISR                                                                                  
0     003ef42c  _HRCAP3_INT_ISR                                                                                  
0     003ef431  _HRCAP2_INT_ISR                                                                                  
0     003ef436  _HRCAP1_INT_ISR                                                                                  
0     003ef43b  _EQEP2_INT_ISR                                                                                   
0     003ef440  _EQEP1_INT_ISR                                                                                   
0     003ef445  _EPWM8_TZINT_ISR                                                                                 
0     003ef44a  _EPWM8_INT_ISR                                                                                   
0     003ef44f  _EPWM7_TZINT_ISR                                                                                 
0     003ef454  _EPWM7_INT_ISR                                                                                   
0     003ef459  _EPWM6_TZINT_ISR                                                                                 
0     003ef45e  _EPWM6_INT_ISR                                                                                   
0     003ef463  _EPWM5_TZINT_ISR                                                                                 
0     003ef468  _EPWM5_INT_ISR                                                                                   
0     003ef46d  _EPWM4_TZINT_ISR                                                                                 
0     003ef472  _EPWM4_INT_ISR                                                                                   
0     003ef477  _EPWM3_TZINT_ISR                                                                                 
0     003ef47c  _EPWM3_INT_ISR                                                                                   
0     003ef481  _EPWM2_TZINT_ISR                                                                                 
0     003ef486  _EPWM2_INT_ISR                                                                                   
0     003ef48b  _EPWM1_TZINT_ISR                                                                                 
0     003ef490  _EPWM1_INT_ISR                                                                                   
0     003ef495  _EMUINT_ISR                                                                                      
0     003ef49a  _EMPTY_ISR                                                                                       
0     003ef49f  _ECAP3_INT_ISR                                                                                   
0     003ef4a4  _ECAP2_INT_ISR                                                                                   
0     003ef4a9  _ECAP1_INT_ISR                                                                                   
0     003ef4ae  _ECAN1INTA_ISR                                                                                   
0     003ef4b3  _ECAN0INTA_ISR                                                                                   
0     003ef4b8  _DINTCH6_ISR                                                                                     
0     003ef4bd  _DINTCH5_ISR                                                                                     
0     003ef4c2  _DINTCH4_ISR                                                                                     
0     003ef4c7  _DINTCH3_ISR                                                                                     
0     003ef4cc  _DINTCH2_ISR                                                                                     
0     003ef4d1  _DINTCH1_ISR                                                                                     
0     003ef4d6  _DATALOG_ISR                                                                                     
0     003ef4db  _CLA1_INT8_ISR                                                                                   
0     003ef4e0  _CLA1_INT7_ISR                                                                                   
0     003ef4e5  _CLA1_INT6_ISR                                                                                   
0     003ef4ea  _CLA1_INT5_ISR                                                                                   
0     003ef4ef  _CLA1_INT4_ISR                                                                                   
0     003ef4f4  _CLA1_INT3_ISR                                                                                   
0     003ef4f9  _CLA1_INT2_ISR                                                                                   
0     003ef4fe  _CLA1_INT1_ISR                                                                                   
0     003ef503  _ADCINT9_ISR                                                                                     
0     003ef508  _ADCINT8_ISR                                                                                     
0     003ef50d  _ADCINT7_ISR                                                                                     
0     003ef512  _ADCINT6_ISR                                                                                     
0     003ef517  _ADCINT5_ISR                                                                                     
0     003ef51c  _ADCINT4_ISR                                                                                     
0     003ef521  _ADCINT3_ISR                                                                                     
0     003ef526  _ADCINT2_ISR                                                                                     
0     003ef52b  _ADCINT1_ISR                                                                                     
0     003ef530  _HMPROTOCOL_vRecorderSetTimeBase                                                                 
0     003ef538  _HMPROTOCOL_vInit                                                                                
0     003ef539  _HMPROTOCOL_GetBoardInfo                                                                         
0     003ef5a4  _HMPROTOCOL_WriteMemMask                                                                         
0     003ef5bb  _HMPROTOCOL_WriteMem                                                                             
0     003ef5d2  _HMPROTOCOL_ReadMem                                                                              
0     003ef5f6  _HMPROTOCOL_bDecoder                                                                             
0     003ef6ef  _UART_vReset                                                                                     
0     003ef6f0  _UART_vInit                                                                                      
0     003ef709  _UART_bUseSCIA_On_USB_Connector                                                                  
0     003ef70d  _UART_TxIntEna                                                                                   
0     003ef71f  _UART_TxIntDis                                                                                   
0     003ef731  _UART_TxEna                                                                                      
0     003ef743  _UART_TxDis                                                                                      
0     003ef755  _UART_TransmitEnable                                                                             
0     003ef762  _UART_TransmitDisable                                                                            
0     003ef76f  _UART_TXInterrupt                                                                                
0     003ef772  _UART_RxEna                                                                                      
0     003ef784  _UART_RxDis                                                                                      
0     003ef796  _UART_ReadDataRxTimeDiff                                                                         
0     003ef79f  _UART_ReadDataRxAvailable                                                                        
0     003ef7ac  _UART_ReadDataRx                                                                                 
0     003ef7ea  _UART_GetChar                                                                                    
0     003ef7f0  _UART_RXInterrupt                                                                                
0     003ef851  _UART_PutNextAddress                                                                             
0     003ef857  _UART_PutChar                                                                                    
0     003ef860  _UART_IsTxReady                                                                                  
0     003ef86d  _UART_IsTxEmpty                                                                                  
0     003ef87c  _UART_IsRxReady                                                                                  
0     003ef889  _XtalOscSel                                                                                      
0     003ef8a4  _ServiceDog                                                                                      
0     003ef8ae  _IntOsc2Sel                                                                                      
0     003ef8c8  _IntOsc1Sel                                                                                      
0     003ef8d8  _DisableDog                                                                                      
0     003ef8e0  _InitPll                                                                                         
0     003ef931  _InitPeripheralClocks                                                                            
0     003ef990  _InitSysCtrl                                                                                     
0     003ef9a8  _InitPll2                                                                                        
0     003ef9d5  _ExtOscSel                                                                                       
0     003ef9ed  _CsmUnlock                                                                                       
0     003efa1b  _GPIO_setQualificationPeriod                                                                     
0     003efa36  _GPIO_setQualificationMode                                                                       
0     003efa58  _GPIO_setPinConfig                                                                               
0     003efa88  _GPIO_setPadConfig                                                                               
0     003efac7  _GPIO_setMasterCore                                                                              
0     003efae9  _GPIO_setInterruptPin                                                                            
0     003efb08  _GPIO_setDirectionMode                                                                           
0     003efb27  _GPIO_setAnalogMode                                                                              
0     003efb47  _GPIO_getQualificationMode                                                                       
0     003efb69  _GPIO_getPadConfig                                                                               
0     003efb95  _GPIO_getDirectionMode                                                                           
0     003efba7  _IntMasterDisable                                                                                
0     003efbab  _IntMasterEnable                                                                                 
0     003efbaf  _Interrupt_enable                                                                                
0     003efc65  _Interrupt_disable                                                                               
0     003efca9  _IntUnregister                                                                                   
0     003efcca  _IntRegister                                                                                     
0     003efce8  _IntEnable                                                                                       
0     003efd09  _IntDisable                                                                                      
0     003efd1e  _HMLIB_vSetPortIndexModBus                                                                       
0     003efd22  _HMLIB_vSetPortIndexHexMon                                                                       
0     003efd26  _HMLIB_vScopeParamDataUpdate                                                                     
0     003efd29  _HMLIB_vScopeDataUpdate                                                                          
0     003efd2c  _HMLIB_vRecorderSetTimeBase                                                                      
0     003efd2f  _HMLIB_vRecorderParamTimeSync                                                                    
0     003efd32  _HMLIB_vRecorderParam2                                                                           
0     003efd36  _HMLIB_vRecorderParam1                                                                           
0     003efd3a  _HMLIB_vRecorderParam0                                                                           
0     003efd3e  _HMLIB_vRecorderParam                                                                            
0     003efd43  _HMLIB_vRecorder2                                                                                
0     003efd48  _HMLIB_vRecorder1                                                                                
0     003efd4d  _HMLIB_vRecorder0                                                                                
0     003efd52  _HMLIB_vRecorder                                                                                 
0     003efd5e  _HMLIB_vProcessSamePort                                                                          
0     003efd63  _HMLIB_vProcessSCITXISRWithIndex                                                                 
0     003efd7b  _HMLIB_vProcessSCITXISR                                                                          
0     003efd7e  _HMLIB_vProcessRecorders                                                                         
0     003efd8d  _HMLIB_vProcessFastTD                                                                            
0     003efda1  _HMLIB_vProcessDifferentPorts                                                                    
0     003efda8  _HMLIB_vProcess                                                                                  
0     003efdb4  _HMLIB_vInitRecParamBuff                                                                         
0     003efdc4  _HMLIB_vInit                                                                                     
0     003efe1a  _HMLIB_vDebugSend                                                                                
0     003efe1d  _HMLIB_GetRecSampleSize                                                                          
0     003efe2b  _HMLIB_GetRecParamSampleSize                                                                     
0     003efe39  _HMLIB_GetRecParamBufferSize                                                                     
0     003efe47  _HMLIB_GetRecParamBuffAddress                                                                    
0     003efe56  _HMLIB_GetRecBufferSize                                                                          
0     003efe64  _HMLIB_GetRecBuffAddress                                                                         
0     003efe73  _HMSCOPE_ReadScopeParam                                                                          
0     003efedd  _HMSCOPEPRM_vSetDataChangeFlag                                                                   
0     003efee2  _HMSCOPEPRM_vInitBufferParam                                                                     
0     003efef0  _HMSCOPEPRM_vInit                                                                                
0     003eff0d  _HMSCOPEPRM_SetUpScope                                                                           
0     003eff55  _HMSCOPEPRM_ReadScope                                                                            
0     003eff9f  _HMSCOPEPRM_GetStatusScopeParamAddress                                                           
0     003effa6  _HMSCOPEPRM_GetBufferScopeParamAddress                                                           
0     003effaf  _UART_DRV_vInit                                                                                  
0     003effc8  _UART_DRV_TxIntEna                                                                               
0     003effda  _UART_DRV_TxIntDis                                                                               
0     003effec  _UART_DRV_TxEna                                                                                  
0     003effed  _UART_DRV_TxDis                                                                                  
0     003effee  _UART_DRV_TransmitEnableDisable                                                                  
0     003effef  _UART_DRV_TXInterrupt                                                                            
0     003efff0  _UART_DRV_RxEna                                                                                  
0     003efff1  _UART_DRV_RxDis                                                                                  
0     003efff2  _UART_DRV_ReadDataRxTimeDiff                                                                     
0     003efffb  _UART_DRV_ReadDataRxAvailable                                                                    
0     003f0008  _UART_DRV_ReadDataRx                                                                             
0     003f0046  _UART_DRV_GetChar                                                                                
0     003f004c  _UART_DRV_RXInterrupt                                                                            
0     003f00a7  _UART_DRV_PutNextAddress                                                                         
0     003f00ad  _UART_DRV_PutChar                                                                                
0     003f00b6  _UART_DRV_IsTxReady                                                                              
0     003f00c3  _UART_DRV_IsTxEmpty                                                                              
0     003f00d2  _UART_DRV_IsRxReady                                                                              
0     003f00df  _sin                                                                                             
0     003f00df  _sinf                                                                                            
0     003f01f3  LL$$DIV                                                                                          
0     003f022f  LL$$MOD                                                                                          
0     003f0269  ULL$$DIV                                                                                         
0     003f0298  ULL$$MOD                                                                                         
0     003f02fa  _configCPUTimer                                                                                  
0     003f0336  _TMR_vInitCPUTimers                                                                              
0     003f0363  _TMR_vInit                                                                                       
0     003f0398  _TMR_u16GetFreeRunTimerPrescaller                                                                
0     003f039c  _TIMER_vSetupTimerMainFunctionDelayCompare                                                       
0     003f03a9  _TIMER_vSetupTimerMainFunctionDelay                                                              
0     003f03b6  _TIMER_vSetupTimerMainDelayedFunctionSendData                                                    
0     003f03bf  _TIMER_vSetupTimerMainDelayedFunction                                                            
0     003f03c8  _TIMER_vSetupTimerMainDelayedData                                                                
0     003f03cd  _TIMER_vSetupTimerMainCSMONFunction                                                              
0     003f03d1  _TIMER_vResetTimerMainFunctionDelayCounter                                                       
0     003f03da  _TIMER_vGetTimerMainRollingCounter                                                               
0     003f03de  _TIMER_u16ResetTimerMainPeriod                                                                   
0     003f03e4  _floorl                                                                                          
0     003f04cc  _SCI_writeCharArray                                                                              
0     003f04ee  _SCI_setConfig                                                                                   
0     003f050f  _SCI_readCharArray                                                                               
0     003f052f  _SCI_getInterruptStatus                                                                          
0     003f054f  _SCI_enableInterrupt                                                                             
0     003f0569  _SCI_disableInterrupt                                                                            
0     003f0583  _SCI_clearInterruptStatus                                                                        
0     003f059f  _TMR2_ISR                                                                                        
0     003f0642  _TMR1_ISR                                                                                        
0     003f064d  _ldexpl                                                                                          
0     003f064d  _scalbnl                                                                                         
0     003f06f7  ___rem_pio2f                                                                                     
0     003f079e  FD$$ADD                                                                                          
0     003f083a  _SCI_DRV_vInitFIFO                                                                               
0     003f0890  _SCI_DRV_eGetModuleIndexFromBase                                                                 
0     003f089b  _SCI_DRV_vErrorResetProcess                                                                      
0     003f08c7  _SCI_DRV_u32GetBaseFromModuleIndex                                                               
0     003f08ce  ___kernel_sindf                                                                                  
0     003f0960  _SCIB_DRV_TXFIFOISR                                                                              
0     003f0984  _SCIB_DRV_RXFIFOISR                                                                              
0     003f09a8  _SCIA_DRV_TXFIFOISR                                                                              
0     003f09cc  _SCIA_DRV_RXFIFOISR                                                                              
0     003f09f0  _SCIB_TXFIFOISR                                                                                  
0     003f0a14  _SCIB_RXFIFOISR                                                                                  
0     003f0a38  _SCIA_TXFIFOISR                                                                                  
0     003f0a5c  _SCIA_RXFIFOISR                                                                                  
0     003f0a80  _SCI_vInitFIFORegisters                                                                          
0     003f0a81  _SCI_vInitFIFO                                                                                   
0     003f0ad1  _SCI_eGetModuleIndexFromBase                                                                     
0     003f0adc  _SCI_vErrorResetProcess                                                                          
0     003f0b08  _SCI_u32GetBaseFromModuleIndex                                                                   
0     003f0b0f  FD$$DIV                                                                                          
0     003f0b9a  ___kernel_cosdf                                                                                  
0     003f0c21  FD$$MPY                                                                                          
0     003f0ca4  FS$$DIV                                                                                          
0     003f0d27  FS$$SUB                                                                                          
0     003f0d2c  FS$$ADD                                                                                          
0     003f0d9f  _HMSCOPE_vSetDataChangeFlag                                                                      
0     003f0da4  _HMSCOPE_vInit                                                                                   
0     003f0da5  _HMSCOPE_SetUpScope                                                                              
0     003f0de1  _HMSCOPE_ReadScope                                                                               
0     003f0e10  _Interrupt_nmiHandler                                                                            
0     003f0e12  _Interrupt_initVectorTable                                                                       
0     003f0e2f  _Interrupt_initModule                                                                            
0     003f0e6d  _Interrupt_illegalOperationHandler                                                               
0     003f0e6f  _Interrupt_defaultHandler                                                                        
0     003f0e73  FS$$MPY                                                                                          
0     003f0ecd  _c_int00                                                                                         
0     003f0f21  FD$$CMP                                                                                          
0     003f0f4b  C$$EXIT                                                                                          
0     003f0f4b  _abort                                                                                           
0     003f0f4d  _exit                                                                                            
0     003f0f74  FS$$TOL                                                                                          
0     003f0f9d  _InitPieCtrl                                                                                     
0     003f0fbc  _EnableInterrupts                                                                                
0     003f0fc5  FS$$TOI                                                                                          
0     003f0fea  _copy_in                                                                                         
0     003f100e  _copysignl                                                                                       
0     003f1031  I$$DIV                                                                                           
0     003f1042  I$$MOD                                                                                           
0     003f1053  FD$$TOFS                                                                                         
0     003f1074  FS$$TOUL                                                                                         
0     003f1095  FD$$TOL                                                                                          
0     003f10b4  ___error__                                                                                       
0     003f10b7  _Example_setResultPass                                                                           
0     003f10bc  _Example_setResultFail                                                                           
0     003f10c1  _Example_done                                                                                    
0     003f10c2  _Device_initGPIO                                                                                 
0     003f10c3  _Device_init                                                                                     
0     003f10d2  FS$$TOU                                                                                          
0     003f10ef  _memcpy                                                                                          
0     003f110c  FS$$TOFD                                                                                         
0     003f1128  L$$TOFD                                                                                          
0     003f1144  FD$$TOUL                                                                                         
0     003f115f  L$$TOFS                                                                                          
0     003f1179  LL$$AND                                                                                          
0     003f1181  LL$$OR                                                                                           
0     003f1189  LL$$XOR                                                                                          
0     003f1191  FS$$CMP                                                                                          
0     003f11a8  U$$TOFD                                                                                          
0     003f11bf  _InitGpio                                                                                        
0     003f11d4  UL$$TOFS                                                                                         
0     003f11e7  _InitPieVectTable                                                                                
0     003f11f8  __args_main                                                                                      
0     003f1209  U$$TOFS                                                                                          
0     003f1219  FD$$SUB                                                                                          
0     003f1227  U$$DIV                                                                                           
0     003f122c  U$$MOD                                                                                           
0     003f1232  __register_unlock                                                                                
0     003f1236  __register_lock                                                                                  
0     003f123a  __nop                                                                                            
0     003f123b  FD$$NEG                                                                                          
0     003f1244  _DSP28x_DisableInt                                                                               
0     003f1248  _DSP28x_RestoreInt                                                                               
0     003f124b  _CPUTimer_setEmulationMode                                                                       
0     003f1251  _IntDefaultHandler                                                                               
0     003f1256  FS$$NEG                                                                                          
0     003f125b  _SetDBGIER                                                                                       
0     003f125e  __system_pre_init                                                                                
0     003f1260  __system_post_cinit                                                                              
0     003f1261  _RamfuncsLoadStart                                                                               
0     003f1261  ___etext__                                                                                       
0     003f1261  etext                                                                                            
0     003f1269  _RamfuncsLoadEnd                                                                                 
0     003f126a  _asParameterList                                                                                 
0     003f266a  _auchCRCHi                                                                                       
0     003f276a  _auchCRCLo                                                                                       
0     003f286a  _PieVectTableInit                                                                                
0     003f29ee  _CSMON_asAccessLevelPasswords                                                                    
0     003f2b76  _CSMON_au8FileImplementedFunctionCodes                                                           
0     003f2bbc  _CSMON_au8FileParameterListElementsCountInPartTable                                              
0     003f2bbf  _HMMODBUS_u32CoilAddressTable                                                                    
0     003f2bc2  _MODBUSREG_sInputCoilAddressTable                                                                
0     003f2bc5  _MODBUSREG_sInputRegisterAddressTable                                                            
0     003f2bc8  ___cinit__                                                                                       
0     003f2bc8  cinit                                                                                            
1     00000050  __stack                                                                                          
1     000003d0  __STACK_END                                                                                      
1     00000880  _DevEmuRegs                                                                                      
1     00000985  _SysPwrCtrlRegs                                                                                  
1     00000a80  _FlashRegs                                                                                       
1     00000ae0  _CsmRegs                                                                                         
1     00000b00  _AdcResult                                                                                       
1     00000c00  _CpuTimer0Regs                                                                                   
1     00000c08  _CpuTimer1Regs                                                                                   
1     00000c10  _CpuTimer2Regs                                                                                   
1     00000ce0  _PieCtrlRegs                                                                                     
1     00000d00  _EmuKey                                                                                          
1     00000d00  _PieVectTable                                                                                    
1     00000d01  _EmuBMode                                                                                        
1     00000d02  _Flash_CallbackPtr                                                                               
1     00000d04  _Flash_CPUScaleFactor                                                                            
1     00001000  _DmaRegs                                                                                         
1     00001400  _Cla1Regs                                                                                        
1     00004000  _Usb0Regs                                                                                        
1     00005000  _McbspaRegs                                                                                      
1     00006000  _ECanaRegs                                                                                       
1     00006040  _ECanaLAMRegs                                                                                    
1     00006080  _ECanaMOTSRegs                                                                                   
1     000060c0  _ECanaMOTORegs                                                                                   
1     00006100  _ECanaMboxes                                                                                     
1     00006400  _Comp1Regs                                                                                       
1     00006420  _Comp2Regs                                                                                       
1     00006440  _Comp3Regs                                                                                       
1     00006800  _EPwm1Regs                                                                                       
1     00006840  _EPwm2Regs                                                                                       
1     00006880  _EPwm3Regs                                                                                       
1     000068c0  _EPwm4Regs                                                                                       
1     00006900  _EPwm5Regs                                                                                       
1     00006940  _EPwm6Regs                                                                                       
1     00006980  _EPwm7Regs                                                                                       
1     000069c0  _EPwm8Regs                                                                                       
1     00006a00  _ECap1Regs                                                                                       
1     00006a20  _ECap2Regs                                                                                       
1     00006a40  _ECap3Regs                                                                                       
1     00006ac0  _HRCap1Regs                                                                                      
1     00006ae0  _HRCap2Regs                                                                                      
1     00006b00  _EQep1Regs                                                                                       
1     00006b40  _EQep2Regs                                                                                       
1     00006c80  _HRCap3Regs                                                                                      
1     00006ca0  _HRCap4Regs                                                                                      
1     00006f80  _GpioCtrlRegs                                                                                    
1     00006fc0  _GpioDataRegs                                                                                    
1     00006fe0  _GpioIntRegs                                                                                     
1     00007010  _SysCtrlRegs                                                                                     
1     00007040  _SpiaRegs                                                                                        
1     00007050  _SciaRegs                                                                                        
1     00007060  _NmiIntruptRegs                                                                                  
1     00007070  _XIntruptRegs                                                                                    
1     00007100  _AdcRegs                                                                                         
1     00007740  _SpibRegs                                                                                        
1     00007750  _ScibRegs                                                                                        
1     00007900  _I2caRegs                                                                                        
1     0000a000  _UARTRxBufferTimeDiff                                                                            
1     0000a800  _au8RecBuffer0                                                                                   
1     0000b000  _MODBUSREG_asFileTable                                                                           
1     0000b516  _MODBUSREG_u16ModbusParamCount                                                                   
1     0000b517  _MODBUSREG_u16ParamCount                                                                         
1     0000b518  _InputRegisterDummy                                                                              
1     0000b519  _InputCoilDummy                                                                                  
1     0000b51a  _CoilTest                                                                                        
1     0000b51b  _HMMODBUS_u16RegisterAddressTableControlParametersStartIndex                                     
1     0000b51c  _MODBUSREG_u16HoldRegFillCount                                                                   
1     0000b51d  _MODBUSREG_u16HoldRegUsedCount                                                                   
1     0000b51e  _MODBUSREG_u16HoldRegListCount                                                                   
1     0000b51f  _MODBUSREG_u16FileTableRecorderIndex                                                             
1     0000b520  _MODBUSREG_u32ParamRecorderConfigAddress                                                         
1     0000b522  _MODBUSREG_u32ParamScopeConfigAddress                                                            
1     0000b524  _MODBUSREG_u32ParamListAddress                                                                   
1     0000b526  _MODBUSREG_u32ParamNameAddress                                                                   
1     0000b528  _MODBUSREG_u32ParamNumbAddress                                                                   
1     0000b52a  _MODBUSREG_u32ParamStringAddress                                                                 
1     0000b52c  _MODBUSREG_u32ParamAuxAddress                                                                    
1     0000b52e  _MODBUSREG_u32ParamReservedAddress                                                               
1     0000b530  _MODBUSREG_u32FileRTC_FunctionAfterWriteFileRecord                                               
1     0000b532  _MODBUSREG_u32FileRTC_FunctionAfterReadFileRecord                                                
1     0000b534  _MODBUSREG_u32FileParamCount_FunctionBeforeReadFileRecord                                        
1     0000b536  _MODBUSREG_u32FileAutorization_FunctionAfterWriteFileRecordTable                                 
1     0000b538  _MODBUSREG_u32FileRecStatus_FunctionIndexGenerationFileRecord                                    
1     0000b53a  _MODBUSREG_u32FileRecConfig_FunctionAfterWriteFileRecord                                         
1     0000b53c  _MODBUSREG_pu32RegisterAddressTable                                                              
1     0000b53e  _MODBUSREG_pu32RegisterAddressTableInRam                                                         
1     0000b540  _CSMON_u16MaskSetupRecorderParam                                                                 
1     0000b541  _CSMON_u16MaskStartRecorderParam                                                                 
1     0000b542  _CSMON_u16MaskStopRecorderParam                                                                  
1     0000b543  _eResponseCodeStartRecParam0                                                                     
1     0000b544  _eResponseCodeStartRecParam1                                                                     
1     0000b545  _eResponseCodeStartRecParam2                                                                     
1     0000b546  _CSMON_bGetDateTimeAutorization                                                                  
1     0000b547  _CSMON_bSetDateTimeRequest                                                                       
1     0000b548  _CSMON_bGetDateTimeRequest                                                                       
1     0000b549  _CSMON_u16SCIErrorPercent                                                                        
1     0000b54a  _bServiceWatchdog                                                                                
1     0000b54b  _CSMON_bResetMaxMeasure                                                                          
1     0000b54c  _bRunOnceGetSavedRecorderState                                                                   
1     0000b54d  _CSMON_bWatchdogCalcNeeded                                                                       
1     0000b54e  _CSMON_u16WatchdogPrescaler                                                                      
1     0000b54f  _CSMON_u16MaxTimeInISR_usec                                                                      
1     0000b550  _CSMON_u16MinTimeProcessExit_usec                                                                
1     0000b551  _CSMON_u16MaxTimeTillWdtClear_usec                                                               
1     0000b552  _CSMON_u16MinTimeProcessAllowedNeeded_usec                                                       
1     0000b553  _u16SkipProcessCounter                                                                           
1     0000b554  _u16SkipProcessTag                                                                               
1     0000b555  _bSkipProcessFlag                                                                                
1     0000b556  _CSMON_bUseAccessLevelForHoldingRegistersAndCoils                                                
1     0000b557  _CSMON_bUseAccessLevelForInputRegistersAndCoils                                                  
1     0000b558  _CSMON_u16CurrentAccessLevelPrev                                                                 
1     0000b559  _CSMON_u16FileParameterFillCount                                                                 
1     0000b55a  _CSMON_u16FileParameterUseMaxCnt                                                                 
1     0000b55b  _CSMON_u16FileParameterListCount                                                                 
1     0000b55c  _CSMON_u16FileParameterNameCount                                                                 
1     0000b55d  _CSMON_u16FileParameterNumeric                                                                   
1     0000b55e  _CSMON_bUseDisconnectOnTimeout                                                                   
1     0000b55f  _CSMON_u16NoMessageTimeout_msec                                                                  
1     0000b560  _CSMON_u16NoMessageTimeoutOld_msec                                                               
1     0000b561  _CSMON_bRunningInitialization                                                                    
1     0000b562  _arr2                                                                                            
1     0000b564  _u32FreeRunTimerSysClkMHz                                                                        
1     0000b566  _u32FreeRunTimerSysClkDiv                                                                        
1     0000b568  _CSMON_u32SCIErrorPPM                                                                            
1     0000b56a  _CSMON_u32FreeRunTimerCheckSumListBegin                                                          
1     0000b56c  _CSMON_u32FreeRunTimerCheckSumListEnd                                                            
1     0000b56e  _CSMON_u32FreeRunTimerCheckSumListMax                                                            
1     0000b570  _CSMON_u32FreeRunTimerCheckSumNameBegin                                                          
1     0000b572  _CSMON_u32FreeRunTimerCheckSumNameEnd                                                            
1     0000b574  _CSMON_u32FreeRunTimerCheckSumNameMax                                                            
1     0000b576  _CSMON_u32FreeRunTimerCheckSumNumbBegin                                                          
1     0000b578  _CSMON_u32FreeRunTimerCheckSumNumbEnd                                                            
1     0000b57a  _CSMON_u32FreeRunTimerCheckSumNumbMax                                                            
1     0000b57c  _CSMON_u32FreeRunTimerCheckSumStrgBegin                                                          
1     0000b57e  _CSMON_u32FreeRunTimerCheckSumStrgEnd                                                            
1     0000b580  _CSMON_u32FreeRunTimerCheckSumStrgMax                                                            
1     0000b582  _CSMON_u32FreeRunTimerAccessChangeBegin                                                          
1     0000b584  _CSMON_u32FreeRunTimerAccessChangeEnd                                                            
1     0000b586  _CSMON_u32FreeRunTimerAccessChangeMax                                                            
1     0000b588  _CSMON_u32FreeRunTimerPrepareFileParameterAccessListEnd                                          
1     0000b58a  _CSMON_u32FreeRunTimerPrepareFileParameterAccessListMax                                          
1     0000b58c  _CSMON_u32FreeRunTimerPasswordHashBegin                                                          
1     0000b58e  _CSMON_u32FreeRunTimerPasswordHashEnd                                                            
1     0000b590  _CSMON_u32FreeRunTimerPasswordHashMax                                                            
1     0000b592  _CSMON_u32FreeRunTimerProcessBegin                                                               
1     0000b594  _CSMON_u32FreeRunTimerProcessNow                                                                 
1     0000b596  _CSMON_u32FreeRunTimerProcessEnd                                                                 
1     0000b598  _CSMON_u32FreeRunTimerProcessMax                                                                 
1     0000b59a  _CSMON_u32WatchdogPeriod_usec                                                                    
1     0000b59c  _CSMON_u32WatchdogPeriod_Ticks                                                                   
1     0000b59e  _CSMON_u32MaxTimeInISR_Ticks                                                                     
1     0000b5a0  _CSMON_u32MaxTimeProcess_Ticks                                                                   
1     0000b5a2  _CSMON_u32MaxTimeTillWdtClearISRs                                                                
1     0000b5a4  _CSMON_u32MinTimeProcessExit_Ticks                                                               
1     0000b5a6  _CSMON_u32MaxTimeTillWdtClear_Ticks                                                              
1     0000b5a8  _CSMON_u32MinTimeProcessAllowedNeeded_Ticks                                                      
1     0000b5aa  _CSMON_s32MaxTimeProcessAllowedCalc_Ticks                                                        
1     0000b5ac  _CSMON_u32MaxTimeProcessAllowed_Ticks                                                            
1     0000b5ae  _CSMON_pasFileParameterList                                                                      
1     0000b5b0  _CSMON_pasFileParameterShortName                                                                 
1     0000b5b2  _CSMON_pu32FileParameterString                                                                   
1     0000b5b4  _CSMON_psFileParameterAux                                                                        
1     0000b5b6  _CSMON_pu32FileParameterReserved                                                                 
1     0000b5b8  _CSMON_pu32HoldingRegistersAddressTable                                                          
1     0000b5ba  _CSMON_pu32HoldingRegistersAddressTableInRam                                                     
1     0000b5bc  _CSMON_pu32HoldingRegistersAccessTableInRam                                                      
1     0000b5be  _CSMON_pauFileParameterNumeric                                                                   
1     0000b5c0  _CSMON_u32FreeRunTimerNow                                                                        
1     0000b5c2  _CSMON_u32FreeRunTimerPrev                                                                       
1     0000b5c4  _CSMON_u32FreeRunTimerDiff                                                                       
1     0000b5c6  _CSMON_u32NoMessageTime                                                                          
1     0000b5c8  _CSMON_u32NoMessageTimeout_Ticks                                                                 
1     0000b5ca  _CSMON_sFileProtocolVersion                                                                      
1     0000b5cd  _sHashKey                                                                                        
1     0000b5d8  _CSMON_sDateTimeDefault                                                                          
1     0000b5e4  _CSMON_sDateTime                                                                                 
1     0000b5f0  _CSMON_sDateTimeApplication                                                                      
1     0000b600  _CSMON_sFileParameterCount                                                                       
1     0000b610  _CSMON_sFileAutorization                                                                         
1     0000b640  _CSMON_sFileParameterAccessList                                                                  
1     0000ba40  _CSMON_asFileParameterDefinitionsFromAccessLevel                                                 
1     0000be40  _sRecHandleParam                                                                                 
1     0000bf66  _CpuTimer0                                                                                       
1     0000bf6e  _CpuTimer1                                                                                       
1     0000bf76  _CpuTimer2                                                                                       
1     0000bf80  _sScopeConfigParam                                                                               
1     0000bffe  _DataChangedParamFlag                                                                            
1     0000bfff  _nScopeIndexFreemaster                                                                           
1     0000c000  _MODBUSREG_u32RegisterAccessTableInRam                                                           
1     0000c400  _UARTRxBuffer                                                                                    
1     0000c800  _HMSCOPEPRM_u8Buffer                                                                             
1     0000cb00  _UART_DRV_RxBufferTimeDiff                                                                       
1     0000cd00  _u32ModbusTimeoutBuffer                                                                          
1     0000cf00  _sRecHandle                                                                                      
1     0000d008  _sRecStatusParam                                                                                 
1     0000d038  _SCI_DRV_ErrorRx                                                                                 
1     0000d040  _HMMODBUS_anTxCheckSum                                                                           
1     0000d140  _HMMODBUS_pCommBufferRx                                                                          
1     0000d240  _HMMODBUS_pCommBufferTx                                                                          
1     0000d340  _UART_DRV_RxBuffer                                                                               
1     0000d440  _HMMODBUS_wFlags                                                                                 
1     0000d441  _HMMODBUS_wFlagsRxTx                                                                             
1     0000d442  _HMMODBUS_nTxTodo                                                                                
1     0000d443  _HMMODBUS_nRxTodoEcho                                                                            
1     0000d444  _HMMODBUS_nLastResponseCmd                                                                       
1     0000d445  _HMMODBUS_nLastResponseCode                                                                      
1     0000d446  _HMMODBUS_nRxTodo                                                                                
1     0000d447  _HMMODBUS_nRxCheckSum                                                                            
1     0000d448  _HMMODBUS_nTxCheckSum                                                                            
1     0000d449  _HMMODBUS_bOverflowReached                                                                       
1     0000d44a  _u8UartModBusIndex                                                                               
1     0000d44b  _HMMODBUS_u8DeviceAddress                                                                        
1     0000d44c  _HMMODBUS_u8QueueActiveIndex                                                                     
1     0000d44d  _u16RegisterAddressDummyValue                                                                    
1     0000d44e  _HMMODBUS_bReceivedMessage                                                                       
1     0000d44f  _bInputRegsGlobal                                                                                
1     0000d450  _bBareRamTable                                                                                   
1     0000d451  _bUsedDummyDataAddressInResponseData                                                             
1     0000d452  _bLengthException                                                                                
1     0000d453  _bInputRegTableSorted                                                                            
1     0000d454  _bHoldingRegTableSorted                                                                          
1     0000d455  _bInputRegTableBareRam                                                                           
1     0000d456  _bHoldingRegTableBareRam                                                                         
1     0000d457  _bInputCoilTableSorted                                                                           
1     0000d458  _bHoldingCoilTableSorted                                                                         
1     0000d459  _bInputCoilTableBareRam                                                                          
1     0000d45a  _bHoldingCoilTableBareRam                                                                        
1     0000d45b  _u16FreeRunTimerPrescaller                                                                       
1     0000d45c  _u16ModbusMinMessToMess_usec                                                                     
1     0000d45d  _HMMODBUS_u8ReadServerIDLength                                                                   
1     0000d45e  _HMMODBUS_u8ReadServerIDNumber                                                                   
1     0000d45f  _HMMODBUS_u8ReadServerOnStatus                                                                   
1     0000d460  _HMMODBUS_u8ReadDeviceIDConfLvlMask                                                              
1     0000d461  _HMMODBUS_u8ReadDeviceIDConfLvl                                                                  
1     0000d462  _HMMODBUS_u8ReadDeviceIDVendorNameLength                                                         
1     0000d463  _HMMODBUS_u8ReadDeviceIDProductCodeLength                                                        
1     0000d464  _HMMODBUS_u8ReadDeviceIDMajorMinorRevisionLength                                                 
1     0000d465  _HMMODBUS_u8ReadDeviceIDVendorUrlLength                                                          
1     0000d466  _HMMODBUS_u8ReadDeviceIDProductNameLength                                                        
1     0000d467  _HMMODBUS_u8ReadDeviceIDModelNameLength                                                          
1     0000d468  _HMMODBUS_u8ReadDeviceIDUserApplicationNameLength                                                
1     0000d469  _HMMODBUS_u8ReadDeviceIDUserReserve0Length                                                       
1     0000d46a  _HMMODBUS_u8ReadDeviceIDUserReserve1Length                                                       
1     0000d46b  _HMMODBUS_u8ReadDeviceIDUserReserve2Length                                                       
1     0000d46c  _eElementFixedArgument                                                                           
1     0000d46d  _u16NoStoreFixedArgument                                                                         
1     0000d46e  _u16DataModeFixedArgument                                                                        
1     0000d46f  _u16PasswordFixedArgument                                                                        
1     0000d470  _bNeedResetBackup                                                                                
1     0000d471  _realRxByteDelayLastFailBytesReceived                                                            
1     0000d472  _u16ModbusStartedReceiveMessageCounter                                                           
1     0000d473  _u16ModbusCompleteReceiveMessageCounter                                                          
1     0000d474  _u16ModbusCompleteReceiveMessageCounterThisDevice                                                
1     0000d475  _u16ModbusBufferOverflowReceiveMessageCounter                                                    
1     0000d476  _u16ModbusBadCSReceiveMessageCounter                                                             
1     0000d477  _u16ModbusBadTimeoutReceiveMessageCounter                                                        
1     0000d478  _u16IndexFileTable                                                                               
1     0000d479  _u8SampleSize                                                                                    
1     0000d47a  _bElementsDifference                                                                             
1     0000d47c  _HMMODBUS_pTxBuff                                                                                
1     0000d47e  _HMMODBUS_pRxBuff                                                                                
1     0000d480  _HMMODBUS_pu32HoldingRegisterAddressTable                                                        
1     0000d482  _HMMODBUS_pu32HoldingRegisterAddressTableInRam                                                   
1     0000d484  _HMMODBUS_pu32HoldingRegisterAccessTableInRam                                                    
1     0000d486  _HMMODBUS_u32HoldingRegisterAddressTableSize                                                     
1     0000d488  _HMMODBUS_u32HoldingRegisterAddressTableInRamSize                                                
1     0000d48a  _HMMODBUS_u32HoldingRegisterValuesTableSize                                                      
1     0000d48c  _HMMODBUS_pu32InputRegisterAddressTable                                                          
1     0000d48e  _HMMODBUS_pu32InputRegisterAddressTableInRam                                                     
1     0000d490  _HMMODBUS_pu32InputRegisterAccessTableInRam                                                      
1     0000d492  _HMMODBUS_u32InputRegisterAddressTableSize                                                       
1     0000d494  _HMMODBUS_u32InputRegisterAddressTableInRamSize                                                  
1     0000d496  _HMMODBUS_u32InputRegisterValuesTableSize                                                        
1     0000d498  _HMMODBUS_pu32HoldingCoilAddressTable                                                            
1     0000d49a  _HMMODBUS_pu32HoldingCoilAddressTableInRam                                                       
1     0000d49c  _HMMODBUS_u32HoldingCoilAddressTableSize                                                         
1     0000d49e  _HMMODBUS_u32HoldingCoilAddressTableInRamSize                                                    
1     0000d4a0  _HMMODBUS_u32HoldingCoilValuesTableSize                                                          
1     0000d4a2  _HMMODBUS_pu32InputCoilAddressTable                                                              
1     0000d4a4  _HMMODBUS_pu32InputCoilAddressTableInRam                                                         
1     0000d4a6  _HMMODBUS_u32InputCoilAddressTableSize                                                           
1     0000d4a8  _HMMODBUS_u32InputCoilAddressTableInRamSize                                                      
1     0000d4aa  _HMMODBUS_u32InputCoilValuesTableSize                                                            
1     0000d4ac  _HMMODBUS_pasQueueRegisterAddressTable                                                           
1     0000d4ae  _HMMODBUS_u32QueueRegisterAddressTableSize                                                       
1     0000d4b0  _HMMODBUS_u32TxDelayCounter                                                                      
1     0000d4b2  _HMMOSBUS_nFileWritePrimaryAddrReadLast                                                          
1     0000d4b4  _HMMOSBUS_nDummy                                                                                 
1     0000d4b6  _HMMODBUS_u32FreeRunTimerReceivedMessage                                                         
1     0000d4b8  _HMMODBUS_pasFileAddressTable                                                                    
1     0000d4ba  _HMMODBUS_u32FileCount                                                                           
1     0000d4bc  _HMMODBUS_u32DeviceSYSCLKFreq                                                                    
1     0000d4be  _u32ModbusMaxByteToByte                                                                          
1     0000d4c0  _u32ModbusMaxMessToMess                                                                          
1     0000d4c2  _u32ModbusMinMessToMess                                                                          
1     0000d4c4  _u32ModbusMaxByteToByteExact                                                                     
1     0000d4c6  _u32ModbusMaxMessToMessExact                                                                     
1     0000d4c8  _u32ModbusTimeout                                                                                
1     0000d4ca  _u32WrongElementSizeTable                                                                        
1     0000d4cc  _u32ElementSizeTableD384_0                                                                       
1     0000d4ce  _u32ElementSizeTableB326_0                                                                       
1     0000d4d0  _u32ElementSizeTableD384_1                                                                       
1     0000d4d2  _u32ElementSizeTableB326_1                                                                       
1     0000d4d4  _u32ElementSizeTableD384_2                                                                       
1     0000d4d6  _u32ElementSizeTableB326_2                                                                       
1     0000d4d8  _HMMODBUS_pu8ReadServerIDDatAdr                                                                  
1     0000d4da  _HMMODBUS_pu8ReadDeviceIDVendorName                                                              
1     0000d4dc  _HMMODBUS_pu8ReadDeviceIDProductCode                                                             
1     0000d4de  _HMMODBUS_pu8ReadDeviceIDMajorMinorRevision                                                      
1     0000d4e0  _HMMODBUS_pu8ReadDeviceIDVendorUrl                                                               
1     0000d4e2  _HMMODBUS_pu8ReadDeviceIDProductName                                                             
1     0000d4e4  _HMMODBUS_pu8ReadDeviceIDModelName                                                               
1     0000d4e6  _HMMODBUS_pu8ReadDeviceIDUserApplicationName                                                     
1     0000d4e8  _HMMODBUS_pu8ReadDeviceIDUserReserve0                                                            
1     0000d4ea  _HMMODBUS_pu8ReadDeviceIDUserReserve1                                                            
1     0000d4ec  _HMMODBUS_pu8ReadDeviceIDUserReserve2                                                            
1     0000d4ee  _pfWriteParElementCallbackFunction                                                               
1     0000d4f0  _u32ModbusTimeoutBufferIndex                                                                     
1     0000d4f2  _u32RxTimeout                                                                                    
1     0000d4f4  _realRxByteDelay                                                                                 
1     0000d4f6  _realRxByteDelayLastFail                                                                         
1     0000d4f8  _u32RxTimeoutLastFail                                                                            
1     0000d4fa  _HMMODBUS_u32DebugAddrReadFileReal                                                               
1     0000d4fc  _HMMODBUS_u32DebugAddrReadFileFromIndex                                                          
1     0000d4fe  _HMMODBUS_u32DebugAddrReadFileFromAddress                                                        
1     0000d500  _HMMODBUS_u32DebugAddrReadPlusOffset                                                             
1     0000d502  _HMMODBUS_u32DebugAddrReadFileCircleTooFarAddress                                                
1     0000d504  _HMMODBUS_u32DebugAddrReadFileCircle                                                             
1     0000d506  _HMMODBUS_u32DebugAddrReadFileForRead                                                            
1     0000d508  _HMMODBUS_u32DebugAddrReadFileForReadLooped                                                      
1     0000d50a  _HMMODBUS_nSizeReadRequestLoopLeft                                                               
1     0000d50c  _u32BufferAddressStart                                                                           
1     0000d50e  _u32BufferSize                                                                                   
1     0000d510  _u32SampleCountBuffer                                                                            
1     0000d512  _u32SampleCountAvailable                                                                         
1     0000d514  _u32StartSampleIndex                                                                             
1     0000d516  _u32ElementsSizeModbus                                                                           
1     0000d518  _u32ElementsSizeMemory                                                                           
1     0000d51a  _nTimeTickDelayModbus                                                                            
1     0000d51c  _nTimeTickDelayModbusMin                                                                         
1     0000d51e  _nTimeTickDelayModbusMax                                                                         
1     0000d522  _HMMODBUS_u32RegisterAddressDummy                                                                
1     0000d525  _HMMODBUS_u32CoilAddressDummy                                                                    
1     0000d528  _HMMODBUS_u32RegisterAddressInRamDummy                                                           
1     0000d52c  _HMMODBUS_u32CoilAddressInRamDummy                                                               
1     0000d532  _pcm_wFlags                                                                                      
1     0000d533  _pcm_wFlagsRxTx                                                                                  
1     0000d534  _pcm_nTxTodo                                                                                     
1     0000d535  _pcm_nRxTodoEcho                                                                                 
1     0000d536  _pcm_nRxTodo                                                                                     
1     0000d537  _pcm_nRxCheckSum                                                                                 
1     0000d538  _u8UartIndex                                                                                     
1     0000d53a  _pcm_pTxBuff                                                                                     
1     0000d53c  _pcm_pRxBuff                                                                                     
1     0000d540  _QueueTestTable                                                                                  
1     0000d600  _sRecConfigParam                                                                                 
1     0000d6c0  _sScopeHandlePrm                                                                                 
1     0000d77a  _nRecorderFreemasterIndex                                                                        
1     0000d77b  _nScopePrmFreemasterIndex                                                                        
1     0000d77c  _bRecorderParameterUsage                                                                         
1     0000d77d  _bScopeParameterUsage                                                                            
1     0000d77e  _u16TimeBase                                                                                     
1     0000d77f  _breakData                                                                                       
1     0000d780  _MAIN_bDateTimeSet                                                                               
1     0000d781  _bDummyStatsDevRunning                                                                           
1     0000d782  _bDummyReqstDevRunning                                                                           
1     0000d783  _s16DummyCurrentPhaseAStartup                                                                    
1     0000d784  _s16DummyCurrentPhaseBStartup                                                                    
1     0000d785  _s16DummyCurrentPhaseCStartup                                                                    
1     0000d786  _s16DummyVoltageDCLinkStartup                                                                    
1     0000d787  _s16DummyCurrentPhaseAStop                                                                       
1     0000d788  _s16DummyCurrentPhaseBStop                                                                       
1     0000d789  _s16DummyCurrentPhaseCStop                                                                       
1     0000d78a  _s16DummyVoltageDCLinkStop                                                                       
1     0000d78b  _s16DummyCurrentPhaseAIdle                                                                       
1     0000d78c  _s16DummyCurrentPhaseBIdle                                                                       
1     0000d78d  _s16DummyCurrentPhaseCIdle                                                                       
1     0000d78e  _s16DummyVoltageDCLinkIdle                                                                       
1     0000d78f  _s16DummyIncrementLoopCDiff                                                                      
1     0000d790  _s16DummyIncrementLoopA                                                                          
1     0000d791  _s16DummyIncrementLoopB                                                                          
1     0000d792  _s16DummyIncrementLoopC                                                                          
1     0000d793  _s16DummyIncrementLoopV                                                                          
1     0000d794  _s16DummyCurrentPhaseA                                                                           
1     0000d795  _s16DummyCurrentPhaseB                                                                           
1     0000d796  _s16DummyCurrentPhaseC                                                                           
1     0000d797  _s16DummyVoltageDCLink                                                                           
1     0000d798  _s16DummyIncrementLoop                                                                           
1     0000d799  _u16DummyDataCnt                                                                                 
1     0000d79a  _s16DummyDataTst                                                                                 
1     0000d79b  _s16ScaleDataTst                                                                                 
1     0000d79c  _u16TestData0                                                                                    
1     0000d79d  _u16TestData1                                                                                    
1     0000d79e  _u16TestData2                                                                                    
1     0000d79f  _u16TestData3                                                                                    
1     0000d7a0  _u16TestData4                                                                                    
1     0000d7a1  _u16TestData5                                                                                    
1     0000d7a2  _u16TestData6                                                                                    
1     0000d7a3  _u16TestData7                                                                                    
1     0000d7a4  _u16TestData8                                                                                    
1     0000d7a5  _u16TestData9                                                                                    
1     0000d7a6  _s16DummyData                                                                                    
1     0000d7a7  _u16WatchdogPrescaler                                                                            
1     0000d7a8  _u16WatchdogPrescalerOld                                                                         
1     0000d7a9  _u16WatchdogPrescalerTime                                                                        
1     0000d7aa  _u16WatchdogPrescalerTimeOld                                                                     
1     0000d7ab  _u16DelayCtrlLoop_100nsec                                                                        
1     0000d7ac  _u16DelayCtrlLoopOld_100nsec                                                                     
1     0000d7ad  _u16DelayMainLoop_usec                                                                           
1     0000d7ae  _u16DelayMainLoopOld_usec                                                                        
1     0000d7af  _u16PeriodControl_usec                                                                           
1     0000d7b0  _u16PeriodControlOld_usec                                                                        
1     0000d7b1  _u16CountSetParameterFail                                                                        
1     0000d7b2  _u16CountMaxParameterTest                                                                        
1     0000d7b3  _bResetAllTimeMeasures                                                                           
1     0000d7b4  _eResponseCode_CSMON_eInit                                                                       
1     0000d7b5  _eResponseCode_CSMON_eProcess                                                                    
1     0000d7b6  _eResponseCode_CSMON_eSetServerOnStatus                                                          
1     0000d7b7  _eResponseCode_CSMON_eSetParameter                                                               
1     0000d7b8  _eResponseCode_CSMON_eSetRecorder                                                                
1     0000d7b9  _eResponseCode_CSMON_eSetScope                                                                   
1     0000d7ba  _eResponseCode_CSMON_eSetTimerPeriodISRFunctionRegister                                          
1     0000d7bb  _eResponseCode_CSMON_eSetFlagProcessPassed                                                       
1     0000d7bc  _s32DummyCurrentPhaseA                                                                           
1     0000d7be  _s32DummyCurrentPhaseB                                                                           
1     0000d7c0  _s32DummyCurrentPhaseC                                                                           
1     0000d7c2  _s32DummyVoltageDCLink                                                                           
1     0000d7c4  _s32DummyIncrementLoop                                                                           
1     0000d7c6  _u32DummyDataCnt                                                                                 
1     0000d7c8  _pu16ModbusMessageCounter                                                                        
1     0000d7ca  _aDummyDataTable                                                                                 
1     0000d7cc  _u32DelayCtrlLoop_Ticks                                                                          
1     0000d7ce  _u32DelayMainLoop_Ticks                                                                          
1     0000d7d0  _u32TimeMainLoopProcessCSMON_Bgn_Ticks                                                           
1     0000d7d2  _u32TimeMainLoopProcessCSMON_End_Ticks                                                           
1     0000d7d4  _u32TimeMainLoopProcessCSMON_Now_Ticks                                                           
1     0000d7d6  _u32TimeMainLoopProcessCSMON_Max_Ticks                                                           
1     0000d7d8  _u32TimeMainLoopCycle_Bgn_Ticks                                                                  
1     0000d7da  _u32TimeMainLoopCycle_End_Ticks                                                                  
1     0000d7dc  _u32TimeMainLoopCycle_Now_Ticks                                                                  
1     0000d7de  _u32TimeMainLoopCycle_Max_Ticks                                                                  
1     0000d7e0  _u32TimeCSMON_ISR_Ticks                                                                          
1     0000d7e2  _u32TimeCSMON_ISR_Max_Ticks                                                                      
1     0000d7e4  _u32TimeCtrlLoop_Ticks                                                                           
1     0000d7e6  _u32TimeCtrlLoopMax_Ticks                                                                        
1     0000d7e8  _u32ParamTime_Ticks                                                                              
1     0000d7ea  _u32GetBaudError_PPM                                                                             
1     0000d7ec  _EMIF_AUX_pu16ParamVerBackupInEmif                                                               
1     0000d7ee  _EMIF_AUX_pu16DateTimeBackupInEmif                                                               
1     0000d7f0  _EMIF_AUX_pu16CheckSumBackupInEmif                                                               
1     0000d7f4  _u64DummyDataCnt                                                                                 
1     0000d7f8  _MAIN_sDateTimeGet                                                                               
1     0000d800  _MAIN_sDateTimeSet                                                                               
1     0000d808  _CSMON_au8FileRecorderConfigElementsSizeTable                                                    
1     0000d835  _HMREC_u16FailSnapshotWrite                                                                      
1     0000d838  _u32DeviceLSPCLKFreq                                                                             
1     0000d83a  _u32DeviceLSPCLKFreqRoundAndMinErrorBaud                                                         
1     0000d83c  _HMDRV_u32SCIErrorPPM                                                                            
1     0000d83e  _u32DeviceSYSCLKFreq                                                                             
1     0000d840  _pcm_pCommBuffer                                                                                 
1     0000d8b9  _CSMON_au8FileParameterListElementsSizeTablePart2                                                
1     0000d8ba  _CSMON_au32FileAutorization_FunctionAfterWriteFileRecord                                         
1     0000d8c0  _sRecExternParam                                                                                 
1     0000d914  _CSMON_au8FileScopeConfigurationElementsSizeTable                                                
1     0000d93e  _CSMON_abFlagProcessPassed                                                                       
1     0000d940  _DataChangedFlag                                                                                 
1     0000d980  _CSMON_au8FileRecorderDataElementsSizeTable                                                      
1     0000d9bc  _CSMON_au8FileParameterListElementsSizeTablePart1                                                
1     0000d9c0  _IO_bUseIOFbkEmulation                                                                           
1     0000d9c1  _u16DigitalOutputs                                                                               
1     0000d9c2  _uDOExternal                                                                                     
1     0000d9c3  _uDIExternal                                                                                     
1     0000d9c4  _uDOExternalFbk                                                                                  
1     0000d9c5  _uDIExternalFbk                                                                                  
1     0000d9c6  _uFaultInput                                                                                     
1     0000d9c7  _uFaultInputDeny                                                                                 
1     0000d9c8  _uEnableOutput                                                                                   
1     0000d9c9  _uEnableOutputUse                                                                                
1     0000d9ca  _bUseFPGACommandOnEnOut2346                                                                      
1     0000d9cb  _uEnableOutput2346                                                                               
1     0000d9cc  _IO_uErrorStop                                                                                   
1     0000d9cd  _IO_nStackMask                                                                                   
1     0000d9ce  _u32DigitalInputs                                                                                
1     0000d9d0  _u32DigitalOutputPortMask1                                                                       
1     0000d9d2  _u32DigitalOutputPortMask2                                                                       
1     0000d9d4  _u32DigitalOutputPortMask                                                                        
1     0000d9d6  _u32DigitalInputPortMask                                                                         
1     0000d9d8  _u32OutputPortDataRead                                                                           
1     0000d9da  _u32OutputPortDataWrite                                                                          
1     0000d9dc  _u32InputPortDataRead                                                                            
1     0000d9de  _u32OutputPortDataNew                                                                            
1     0000d9e0  _u32OutputPortDataPreserve                                                                       
1     0000d9e2  _u32InputPortDataReadActiveLow                                                                   
1     0000d9e4  _bUseSCIA_On_USB                                                                                 
1     0000d9e6  _UART_sHandle                                                                                    
1     0000d9fa  _CSMON_au32FileParameterDefinitionsFileRecordElementsRealAddressTable                            
1     0000da00  _MODBUSREG_asQueueTable                                                                          
1     0000da20  _sRecStatusParamInternal                                                                         
1     0000da3e  __lock                                                                                           
1     0000da40  _sExternalRecoderHandle                                                                          
1     0000da54  _RTC_DRV_bDateTimeSet                                                                            
1     0000da55  _RTC_DRV_bDateTimeGet                                                                            
1     0000da56  _RTC_DRV_bDateTimeSetupAtStart                                                                   
1     0000da57  _RTC_DRV_bDateTimeGetRequest                                                                     
1     0000da58  _RTC_DRV_sDateTimeGet                                                                            
1     0000da60  _RTC_DRV_sDateTimeSet                                                                            
1     0000da68  _MAIN_sTimeI2C                                                                                   
1     0000da6a  _MAIN_sDateI2C                                                                                   
1     0000da6c  _MAIN_sTime                                                                                      
1     0000da6e  _MAIN_sDate                                                                                      
1     0000da70  _MAIN_u32FreeCounter                                                                             
1     0000da72  _HMRECPRM_sDateTime                                                                              
1     0000da7a  _CSMON_au32FileParameterDefinitionsFileRecordElementsSizeTable                                   
1     0000da80  _MODBUSREG_au8DeviceIDMajorMinorRevision                                                         
1     0000da90  _MODBUSREG_au8DeviceIDModelName                                                                  
1     0000daa0  _MODBUSREG_au8DeviceIDProductCode                                                                
1     0000dab0  _MODBUSREG_au8DeviceIDProductName                                                                
1     0000dac0  _MODBUSREG_au8DeviceIDUserApplicationName                                                        
1     0000dad0  _MODBUSREG_au8DeviceIDUserReserve0                                                               
1     0000dae0  _MODBUSREG_au8DeviceIDUserReserve1                                                               
1     0000daf0  _MODBUSREG_au8DeviceIDUserReserve2                                                               
1     0000db00  _MODBUSREG_au8DeviceIDVendorName                                                                 
1     0000db10  _MODBUSREG_au8DeviceIDVendorUrl                                                                  
1     0000db20  _MODBUSREG_au8ServerIDData                                                                       
1     0000db30  _primeIndArr                                                                                     
1     0000db3e  __unlock                                                                                         
1     0000db40  _cpuTimer0IntCount                                                                               
1     0000db41  _cpuTimer1IntCount                                                                               
1     0000db42  _cpuTimer2IntCount                                                                               
1     0000db43  _u16TimerMainPeriod                                                                              
1     0000db44  _u16SecondPeriod                                                                                 
1     0000db45  _u16SecondCounter                                                                                
1     0000db46  _u16TimerMainISRCounter                                                                          
1     0000db47  _TMR_u16FreeRunTimerPrescaller                                                                   
1     0000db48  _hours                                                                                           
1     0000db49  _minutes                                                                                         
1     0000db4a  _seconds                                                                                         
1     0000db4b  _second_Passed                                                                                   
1     0000db4c  _pfCSMONFunction                                                                                 
1     0000db4e  _CSMON_au8FileParameterCountElementsSizeTable                                                    
1     0000db58  _CSMON_au8FileRTCElementsSizeTable                                                               
1     0000db62  _HMMODBUS_nFilePrimaryAddrWriteLast                                                              
1     0000db6c  _HMMOSBUS_nFileWriteAddrReadLast                                                                 
1     0000db76  _CSMON_au8FileParameterNumericElementsSizeTable                                                  
1     0000db7f  _CSMON_au8FileParameterListElementsSizeTablePart3                                                
1     0000db80  _SCI_ErrorRx                                                                                     
1     0000db88  _UART_DRV_RXIntOverflowCounter                                                                   
1     0000db90  _UART_DRV_u32TimeDiffLast                                                                        
1     0000db98  _UART_DRV_u32TimeDiffNow                                                                         
1     0000dba0  _UART_DRV_u32TimeDiffRead                                                                        
1     0000dba8  _UART_RXIntOverflowCounter                                                                       
1     0000dbb0  _pfDelayedFunction                                                                               
1     0000dbb8  _pfDelayedFunction_u8                                                                            
1     0000dbc0  _u32TimeDiffLast                                                                                 
1     0000dbc8  _u32TimeDiffNow                                                                                  
1     0000dbd0  _u32TimeDiffRead                                                                                 
1     0000dbd8  _HMMODBUS_u32CoilAddressTableInRam                                                               
1     0000dbde  _MODBUSREG_sInputCoilAddressTableInRam                                                           
1     0000dbe4  _pBufferScope                                                                                    
1     0000dbea  _u32RecorderLastFreeCounter                                                                      
1     0000dbf0  _u32RecorderMicroSec                                                                             
1     0000dbf6  _Example_Result                                                                                  
1     0000dbf8  _Example_PassCount                                                                               
1     0000dbfa  _Example_Fail                                                                                    
1     0000dbfc  _CSMON_au8FileRecorderStatusElementsSizeTable                                                    
1     0000dc00  ___TI_enable_exit_profile_output                                                                 
1     0000dc02  ___TI_cleanup_ptr                                                                                
1     0000dc04  ___TI_dtors_ptr                                                                                  
1     0000dc06  _MODBUSREG_sInputRegisterAddressTableInRam                                                       
1     0000dc0a  _UARTRxBufferRDCount                                                                             
1     0000dc0e  _UARTRxBufferRDIndex                                                                             
1     0000dc12  _UARTRxBufferWRCount                                                                             
1     0000dc16  _UARTRxBufferWRIndex                                                                             
1     0000dc1a  _UART_DRV_RxBufferRDCount                                                                        
1     0000dc1e  _UART_DRV_RxBufferRDIndex                                                                        
1     0000dc22  _UART_DRV_RxBufferWRCount                                                                        
1     0000dc26  _UART_DRV_RxBufferWRIndex                                                                        
1     0000dc2a  _u16TimerMainDelayedData                                                                         
1     0000dc2e  _u16TimerMainFunctionDelay                                                                       
1     0000dc32  _u16TimerMainFunctionDelayCompare                                                                
1     0000dc36  _u16TimerMainFunctionDelayCounter                                                                
1     0000dc3a  _CSMON_abFileAutorization_RecordReadOnly                                                         
1     0000dc3d  _CSMON_abFileAutorization_RecordStringData                                                       
1     0000dc40  _CSMON_au16FileAutorization_RecordOffsets                                                        
1     0000dc43  _CSMON_au32FileParameterDefinitionsFileRecordElementsRecordToRecordOffsetSizeBytesTable          
1     0000dc46  _CSMON_au8FileRecorderDataElementsSizeTableUsedLength                                            
1     0000dc49  _abRecorderJustStopped                                                                           
1     0000dc4c  _abRecorderRunning                                                                               
1     0000dc4f  _nSizeBytesScopeBuffer                                                                           
1     0000dc52  _sScopeStatusParam                                                                               
1     0000dc55  _CSMON_au8FileScopeStatusElementsSizeTable                                                       
1     0000dc56  _MODBUSREG_sInputRegisterAccessTableInRam                                                        
1     0000dc57  _sRecTimeBase                                                                                    
1     0000dc58  _errno                                                                                           
1     003d7e80  _PartIdRegs                                                                                      
1     003f7ff8  _CsmPwl                                                                                          
abs   00000008  _RamfuncsLoadSize                                                                                
abs   00000380  __STACK_SIZE                                                                                     
abs   ffffffff  ___TI_pprof_out_hndl                                                                             
abs   ffffffff  ___TI_prof_data_size                                                                             
abs   ffffffff  ___TI_prof_data_start                                                                            
abs   ffffffff  ___binit__                                                                                       
abs   ffffffff  ___c_args__                                                                                      
abs   ffffffff  ___pinit__                                                                                       
abs   ffffffff  binit                                                                                            
abs   ffffffff  pinit                                                                                            

[1303 symbols]


SYMBOL DEFINITIONS BY INPUT FILE 

================================================================================

main.obj

Run/Load            
Value     Binding   Name (Section)
--------  --------  ---------------
003f2b8a  local     $C$FL1 (.econst)
003f2b8e  local     $C$FL2 (.econst)
003f2b92  local     $C$FL3 (.econst)
003f2b96  local     $C$FL4 (.econst)
003ee3ea  local     $C$L1 (.text)
003ee42e  local     $C$L10 (.text)
003ee437  local     $C$L11 (.text)
003ee440  local     $C$L12 (.text)
003ee449  local     $C$L13 (.text)
003ee452  local     $C$L14 (.text)
003ee5ca  local     $C$L15 (.text)
003ee5d4  local     $C$L16 (.text)
003ee5e1  local     $C$L17 (.text)
003ee602  local     $C$L18 (.text)
003ee629  local     $C$L19 (.text)
003ee3ee  local     $C$L2 (.text)
003ee66e  local     $C$L20 (.text)
003ee6d5  local     $C$L21 (.text)
003ee6ea  local     $C$L22 (.text)
003ee702  local     $C$L23 (.text)
003ee715  local     $C$L24 (.text)
003ee727  local     $C$L25 (.text)
003ee76e  local     $C$L26 (.text)
003ee7a5  local     $C$L27 (.text)
003ee7e0  local     $C$L28 (.text)
003ee7f0  local     $C$L29 (.text)
003ee3f3  local     $C$L3 (.text)
003ee7f2  local     $C$L30 (.text)
003ee840  local     $C$L31 (.text)
003ee865  local     $C$L32 (.text)
003ee882  local     $C$L33 (.text)
003ee88a  local     $C$L34 (.text)
003ee3f8  local     $C$L4 (.text)
003ee3fd  local     $C$L5 (.text)
003ee402  local     $C$L6 (.text)
003ee407  local     $C$L7 (.text)
003ee40c  local     $C$L8 (.text)
003ee425  local     $C$L9 (.text)
00000000  local     .bss (.bss)
003f2de7  local     .cinit (.cinit)
00000000  local     .cinit:_au8TestCharArray16 (.cinit:_au8TestCharArray16)
00000000  local     .cinit:_au8TestCharArray32 (.cinit:_au8TestCharArray32)
00000000  local     .cinit:_au8TestCharArray8 (.cinit:_au8TestCharArray8)
003f32e1  local     .cinit:_sExternalRecoderHandle (.cinit:_sExternalRecoderHandle)
00000000  local     .data (.data)
0000d780  local     .ebss (.ebss)
00000000  local     .ebss:_au8TestCharArray16 (.ebss:_au8TestCharArray16)
00000000  local     .ebss:_au8TestCharArray32 (.ebss:_au8TestCharArray32)
00000000  local     .ebss:_au8TestCharArray8 (.ebss:_au8TestCharArray8)
0000da40  local     .ebss:_sExternalRecoderHandle (.ebss:_sExternalRecoderHandle)
003f2b8a  local     .econst (.econst)
003f126a  local     .econst:_asParameterList (.econst:_asParameterList)
003ee3df  local     .text (.text)
003ee89e  global    _CSMON_vGetDateTime (.text)
003ee88d  global    _CSMON_vSetDateTime (.text)
003ee7c8  global    _ControlProcess (.text)
0000d7f0  global    _EMIF_AUX_pu16CheckSumBackupInEmif (.ebss)
0000d7ee  global    _EMIF_AUX_pu16DateTimeBackupInEmif (.ebss)
0000d7ec  global    _EMIF_AUX_pu16ParamVerBackupInEmif (.ebss)
0000d780  global    _MAIN_bDateTimeSet (.ebss)
0000d7f8  global    _MAIN_sDateTimeGet (.ebss)
0000d800  global    _MAIN_sDateTimeSet (.ebss)
003ee593  global    _ParameterInitialization (.text)
003ee45b  global    _RecordersInitialization (.text)
003ee51d  global    _ScopesInitialization (.text)
0000d7ca  global    _aDummyDataTable (.ebss)
003f126a  global    _asParameterList (.econst:_asParameterList)
00000000  global    _au8TestCharArray16 (.ebss:_au8TestCharArray16)
00000000  global    _au8TestCharArray32 (.ebss:_au8TestCharArray32)
00000000  global    _au8TestCharArray8 (.ebss:_au8TestCharArray8)
0000d782  global    _bDummyReqstDevRunning (.ebss)
0000d781  global    _bDummyStatsDevRunning (.ebss)
0000d7b3  global    _bResetAllTimeMeasures (.ebss)
0000d7b4  global    _eResponseCode_CSMON_eInit (.ebss)
0000d7b5  global    _eResponseCode_CSMON_eProcess (.ebss)
0000d7bb  global    _eResponseCode_CSMON_eSetFlagProcessPassed (.ebss)
0000d7b7  global    _eResponseCode_CSMON_eSetParameter (.ebss)
0000d7b8  global    _eResponseCode_CSMON_eSetRecorder (.ebss)
0000d7b9  global    _eResponseCode_CSMON_eSetScope (.ebss)
0000d7b6  global    _eResponseCode_CSMON_eSetServerOnStatus (.ebss)
0000d7ba  global    _eResponseCode_CSMON_eSetTimerPeriodISRFunctionRegister (.ebss)
003ee7c6  global    _eWriteParElement (.text)
003ee62e  global    _main (.text)
0000d7c8  global    _pu16ModbusMessageCounter (.ebss)
0000d794  global    _s16DummyCurrentPhaseA (.ebss)
0000d78b  global    _s16DummyCurrentPhaseAIdle (.ebss)
0000d783  global    _s16DummyCurrentPhaseAStartup (.ebss)
0000d787  global    _s16DummyCurrentPhaseAStop (.ebss)
0000d795  global    _s16DummyCurrentPhaseB (.ebss)
0000d78c  global    _s16DummyCurrentPhaseBIdle (.ebss)
0000d784  global    _s16DummyCurrentPhaseBStartup (.ebss)
0000d788  global    _s16DummyCurrentPhaseBStop (.ebss)
0000d796  global    _s16DummyCurrentPhaseC (.ebss)
0000d78d  global    _s16DummyCurrentPhaseCIdle (.ebss)
0000d785  global    _s16DummyCurrentPhaseCStartup (.ebss)
0000d789  global    _s16DummyCurrentPhaseCStop (.ebss)
0000d7a6  global    _s16DummyData (.ebss)
0000d79a  global    _s16DummyDataTst (.ebss)
0000d798  global    _s16DummyIncrementLoop (.ebss)
0000d790  global    _s16DummyIncrementLoopA (.ebss)
0000d791  global    _s16DummyIncrementLoopB (.ebss)
0000d792  global    _s16DummyIncrementLoopC (.ebss)
0000d78f  global    _s16DummyIncrementLoopCDiff (.ebss)
0000d793  global    _s16DummyIncrementLoopV (.ebss)
0000d797  global    _s16DummyVoltageDCLink (.ebss)
0000d78e  global    _s16DummyVoltageDCLinkIdle (.ebss)
0000d786  global    _s16DummyVoltageDCLinkStartup (.ebss)
0000d78a  global    _s16DummyVoltageDCLinkStop (.ebss)
0000d79b  global    _s16ScaleDataTst (.ebss)
0000d7bc  global    _s32DummyCurrentPhaseA (.ebss)
0000d7be  global    _s32DummyCurrentPhaseB (.ebss)
0000d7c0  global    _s32DummyCurrentPhaseC (.ebss)
0000d7c4  global    _s32DummyIncrementLoop (.ebss)
0000d7c2  global    _s32DummyVoltageDCLink (.ebss)
0000da40  global    _sExternalRecoderHandle (.ebss:_sExternalRecoderHandle)
0000d7f2  local     _t$1 (.ebss)
0000d7b2  global    _u16CountMaxParameterTest (.ebss)
0000d7b1  global    _u16CountSetParameterFail (.ebss)
0000d7ac  global    _u16DelayCtrlLoopOld_100nsec (.ebss)
0000d7ab  global    _u16DelayCtrlLoop_100nsec (.ebss)
0000d7ae  global    _u16DelayMainLoopOld_usec (.ebss)
0000d7ad  global    _u16DelayMainLoop_usec (.ebss)
0000d799  global    _u16DummyDataCnt (.ebss)
0000d7b0  global    _u16PeriodControlOld_usec (.ebss)
0000d7af  global    _u16PeriodControl_usec (.ebss)
0000d79c  global    _u16TestData0 (.ebss)
0000d79d  global    _u16TestData1 (.ebss)
0000d79e  global    _u16TestData2 (.ebss)
0000d79f  global    _u16TestData3 (.ebss)
0000d7a0  global    _u16TestData4 (.ebss)
0000d7a1  global    _u16TestData5 (.ebss)
0000d7a2  global    _u16TestData6 (.ebss)
0000d7a3  global    _u16TestData7 (.ebss)
0000d7a4  global    _u16TestData8 (.ebss)
0000d7a5  global    _u16TestData9 (.ebss)
0000d7a7  global    _u16WatchdogPrescaler (.ebss)
0000d7a8  global    _u16WatchdogPrescalerOld (.ebss)
0000d7a9  global    _u16WatchdogPrescalerTime (.ebss)
0000d7aa  global    _u16WatchdogPrescalerTimeOld (.ebss)
0000d7cc  global    _u32DelayCtrlLoop_Ticks (.ebss)
0000d7ce  global    _u32DelayMainLoop_Ticks (.ebss)
0000d7c6  global    _u32DummyDataCnt (.ebss)
0000d7ea  global    _u32GetBaudError_PPM (.ebss)
0000d7e8  global    _u32ParamTime_Ticks (.ebss)
0000d7e2  global    _u32TimeCSMON_ISR_Max_Ticks (.ebss)
0000d7e0  global    _u32TimeCSMON_ISR_Ticks (.ebss)
0000d7e6  global    _u32TimeCtrlLoopMax_Ticks (.ebss)
0000d7e4  global    _u32TimeCtrlLoop_Ticks (.ebss)
0000d7d8  global    _u32TimeMainLoopCycle_Bgn_Ticks (.ebss)
0000d7da  global    _u32TimeMainLoopCycle_End_Ticks (.ebss)
0000d7de  global    _u32TimeMainLoopCycle_Max_Ticks (.ebss)
0000d7dc  global    _u32TimeMainLoopCycle_Now_Ticks (.ebss)
0000d7d0  global    _u32TimeMainLoopProcessCSMON_Bgn_Ticks (.ebss)
0000d7d2  global    _u32TimeMainLoopProcessCSMON_End_Ticks (.ebss)
0000d7d6  global    _u32TimeMainLoopProcessCSMON_Max_Ticks (.ebss)
0000d7d4  global    _u32TimeMainLoopProcessCSMON_Now_Ticks (.ebss)
0000d7f4  global    _u64DummyDataCnt (.ebss)
003ee411  global    _vGetWatchdogPrescaler (.text)
003ee3df  global    _vSetWatchdogPrescalerTimeDiv (.text)


================================================================================

sci_driver.obj

Run/Load            
Value     Binding   Name (Section)
--------  --------  ---------------
003f08ae  local     $C$L1 (.text)
003f08c6  local     $C$L2 (.text)
00000000  local     .bss (.bss)
00000000  local     .data (.data)
0000d038  local     .ebss:_SCI_DRV_ErrorRx (.ebss:_SCI_DRV_ErrorRx)
003f083a  local     .text (.text)
003f0960  local     .text:retain (.text:retain)
003f09cc  global    _SCIA_DRV_RXFIFOISR (.text:retain)
003f09a8  global    _SCIA_DRV_TXFIFOISR (.text:retain)
003f0984  global    _SCIB_DRV_RXFIFOISR (.text:retain)
003f0960  global    _SCIB_DRV_TXFIFOISR (.text:retain)
0000d038  global    _SCI_DRV_ErrorRx (.ebss:_SCI_DRV_ErrorRx)
003f0890  global    _SCI_DRV_eGetModuleIndexFromBase (.text)
003f08c7  global    _SCI_DRV_u32GetBaseFromModuleIndex (.text)
003f089b  global    _SCI_DRV_vErrorResetProcess (.text)
003f083a  global    _SCI_DRV_vInitFIFO (.text)


================================================================================

uart_driver.obj

Run/Load            
Value     Binding   Name (Section)
--------  --------  ---------------
003f0042  local     $C$L1 (.text)
003f0044  local     $C$L2 (.text)
003f0095  local     $C$L3 (.text)
003f00a2  local     $C$L4 (.text)
003f00d0  local     $C$L5 (.text)
00000000  local     .bss (.bss)
003f33fe  local     .cinit:_UART_DRV_RXIntOverflowCounter (.cinit:_UART_DRV_RXIntOverflowCounter)
00000000  local     .cinit:_UART_DRV_RXOverflowCounter (.cinit:_UART_DRV_RXOverflowCounter)
003f34c7  local     .cinit:_UART_DRV_RxBufferRDCount (.cinit:_UART_DRV_RxBufferRDCount)
003f34ce  local     .cinit:_UART_DRV_RxBufferRDIndex (.cinit:_UART_DRV_RxBufferRDIndex)
003f34d5  local     .cinit:_UART_DRV_RxBufferWRCount (.cinit:_UART_DRV_RxBufferWRCount)
003f34dc  local     .cinit:_UART_DRV_RxBufferWRIndex (.cinit:_UART_DRV_RxBufferWRIndex)
003f3409  local     .cinit:_UART_DRV_u32TimeDiffLast (.cinit:_UART_DRV_u32TimeDiffLast)
003f3414  local     .cinit:_UART_DRV_u32TimeDiffNow (.cinit:_UART_DRV_u32TimeDiffNow)
003f341f  local     .cinit:_UART_DRV_u32TimeDiffRead (.cinit:_UART_DRV_u32TimeDiffRead)
00000000  local     .data (.data)
0000db88  local     .ebss:_UART_DRV_RXIntOverflowCounter (.ebss:_UART_DRV_RXIntOverflowCounter)
00000000  local     .ebss:_UART_DRV_RXOverflowCounter (.ebss:_UART_DRV_RXOverflowCounter)
0000d340  local     .ebss:_UART_DRV_RxBuffer (.ebss:_UART_DRV_RxBuffer)
0000dc1a  local     .ebss:_UART_DRV_RxBufferRDCount (.ebss:_UART_DRV_RxBufferRDCount)
0000dc1e  local     .ebss:_UART_DRV_RxBufferRDIndex (.ebss:_UART_DRV_RxBufferRDIndex)
0000cb00  local     .ebss:_UART_DRV_RxBufferTimeDiff (.ebss:_UART_DRV_RxBufferTimeDiff)
0000dc22  local     .ebss:_UART_DRV_RxBufferWRCount (.ebss:_UART_DRV_RxBufferWRCount)
0000dc26  local     .ebss:_UART_DRV_RxBufferWRIndex (.ebss:_UART_DRV_RxBufferWRIndex)
0000db90  local     .ebss:_UART_DRV_u32TimeDiffLast (.ebss:_UART_DRV_u32TimeDiffLast)
0000db98  local     .ebss:_UART_DRV_u32TimeDiffNow (.ebss:_UART_DRV_u32TimeDiffNow)
0000dba0  local     .ebss:_UART_DRV_u32TimeDiffRead (.ebss:_UART_DRV_u32TimeDiffRead)
003effaf  local     .text (.text)
003f0046  global    _UART_DRV_GetChar (.text)
003f00d2  global    _UART_DRV_IsRxReady (.text)
003f00c3  global    _UART_DRV_IsTxEmpty (.text)
003f00b6  global    _UART_DRV_IsTxReady (.text)
003f00ad  global    _UART_DRV_PutChar (.text)
003f00a7  global    _UART_DRV_PutNextAddress (.text)
0000db88  global    _UART_DRV_RXIntOverflowCounter (.ebss:_UART_DRV_RXIntOverflowCounter)
003f004c  global    _UART_DRV_RXInterrupt (.text)
00000000  global    _UART_DRV_RXOverflowCounter (.ebss:_UART_DRV_RXOverflowCounter)
003f0008  global    _UART_DRV_ReadDataRx (.text)
003efffb  global    _UART_DRV_ReadDataRxAvailable (.text)
003efff2  global    _UART_DRV_ReadDataRxTimeDiff (.text)
0000d340  global    _UART_DRV_RxBuffer (.ebss:_UART_DRV_RxBuffer)
0000dc1a  global    _UART_DRV_RxBufferRDCount (.ebss:_UART_DRV_RxBufferRDCount)
0000dc1e  global    _UART_DRV_RxBufferRDIndex (.ebss:_UART_DRV_RxBufferRDIndex)
0000cb00  global    _UART_DRV_RxBufferTimeDiff (.ebss:_UART_DRV_RxBufferTimeDiff)
0000dc22  global    _UART_DRV_RxBufferWRCount (.ebss:_UART_DRV_RxBufferWRCount)
0000dc26  global    _UART_DRV_RxBufferWRIndex (.ebss:_UART_DRV_RxBufferWRIndex)
003efff1  global    _UART_DRV_RxDis (.text)
003efff0  global    _UART_DRV_RxEna (.text)
003effef  global    _UART_DRV_TXInterrupt (.text)
003effee  global    _UART_DRV_TransmitEnableDisable (.text)
003effed  global    _UART_DRV_TxDis (.text)
003effec  global    _UART_DRV_TxEna (.text)
003effda  global    _UART_DRV_TxIntDis (.text)
003effc8  global    _UART_DRV_TxIntEna (.text)
0000db90  global    _UART_DRV_u32TimeDiffLast (.ebss:_UART_DRV_u32TimeDiffLast)
0000db98  global    _UART_DRV_u32TimeDiffNow (.ebss:_UART_DRV_u32TimeDiffNow)
0000dba0  global    _UART_DRV_u32TimeDiffRead (.ebss:_UART_DRV_u32TimeDiffRead)
003effaf  global    _UART_DRV_vInit (.text)


================================================================================

device.obj

Run/Load            
Value     Binding   Name (Section)
--------  --------  ---------------
003f10c1  local     $C$L1 (.text)
00000000  local     .bss (.bss)
003f3367  local     .cinit (.cinit)
00000000  local     .data (.data)
0000dbf6  local     .ebss (.ebss)
003f10b4  local     .text (.text)
003f10c3  global    _Device_init (.text)
003f10c2  global    _Device_initGPIO (.text)
0000dbfa  global    _Example_Fail (.ebss)
0000dbf8  global    _Example_PassCount (.ebss)
0000dbf6  global    _Example_Result (.ebss)
003f10c1  global    _Example_done (.text)
003f10bc  global    _Example_setResultFail (.text)
003f10b7  global    _Example_setResultPass (.text)
003f10b4  global    ___error__ (.text)


================================================================================

F2806x_Adc.obj

Run/Load            
Value     Binding   Name (Section)
--------  --------  ---------------
00000164  local     $C$L1 (.text)
00000174  local     $C$L2 (.text)
0000017b  local     $C$L3 (.text)
0000018a  local     $C$L4 (.text)
0000019a  local     $C$L5 (.text)
000001ad  local     $C$L6 (.text)
000001b3  local     $C$L7 (.text)
00000000  local     .bss (.bss)
00000000  local     .data (.data)
00000000  local     .text (.text)
0000004f  global    _AdcChanSelect (.text)
000000a7  global    _AdcConversion (.text)
000001ba  global    _AdcOffsetSelfCal (.text)
00000026  global    _InitAdc (.text)
00000000  global    _InitAdcAio (.text)


================================================================================

F2806x_CSMPasswords.obj

Run/Load            
Value     Binding   Name (Section)
--------  --------  ---------------
00000000  local     .bss (.bss)
00000000  local     .data (.data)
00000000  local     .text (.text)
003f7f80  local     csm_rsvd (csm_rsvd)
003f7ff8  local     csmpasswds (csmpasswds)


================================================================================

F2806x_Comp.obj

Run/Load            
Value     Binding   Name (Section)
--------  --------  ---------------
00000000  local     .bss (.bss)
00000000  local     .data (.data)
00000000  local     .text (.text)
00000055  global    _InitComp (.text)
00000000  global    _InitComp1Gpio (.text)
00000018  global    _InitComp2Gpio (.text)
00000032  global    _InitComp3Gpio (.text)
0000004e  global    _InitCompGpio (.text)


================================================================================

F2806x_CpuTimers.obj

Run/Load            
Value     Binding   Name (Section)
--------  --------  ---------------
00000000  local     .bss (.bss)
00000000  local     .data (.data)
0000bf66  local     .ebss (.ebss)
00000000  local     .text (.text)
00000037  global    _ConfigCpuTimer (.text)
0000bf66  global    _CpuTimer0 (.ebss)
0000bf6e  global    _CpuTimer1 (.ebss)
0000bf76  global    _CpuTimer2 (.ebss)
00000000  global    _InitCpuTimers (.text)


================================================================================

F2806x_DBGIER.obj

Run/Load            
Value     Binding   Name (Section)
--------  --------  ---------------
00000000  local     .bss (.bss)
00000000  local     .data (.data)
003f125b  local     .text (.text)
003f125b  global    _SetDBGIER (.text)


================================================================================

F2806x_DefaultIsr.obj

Run/Load            
Value     Binding   Name (Section)
--------  --------  ---------------
003ef368  local     $C$L1 (.text:retain)
003ef395  local     $C$L10 (.text:retain)
003ef39a  local     $C$L11 (.text:retain)
003ef39f  local     $C$L12 (.text:retain)
003ef3a4  local     $C$L13 (.text:retain)
003ef3a9  local     $C$L14 (.text:retain)
003ef3ae  local     $C$L15 (.text:retain)
003ef3b3  local     $C$L16 (.text:retain)
003ef3b8  local     $C$L17 (.text:retain)
003ef3bd  local     $C$L18 (.text:retain)
003ef3c2  local     $C$L19 (.text:retain)
003ef36d  local     $C$L2 (.text:retain)
003ef3c7  local     $C$L20 (.text:retain)
003ef3cc  local     $C$L21 (.text:retain)
003ef3d1  local     $C$L22 (.text:retain)
003ef3d6  local     $C$L23 (.text:retain)
003ef3db  local     $C$L24 (.text:retain)
003ef3e0  local     $C$L25 (.text:retain)
003ef3e5  local     $C$L26 (.text:retain)
003ef3ea  local     $C$L27 (.text:retain)
003ef3ef  local     $C$L28 (.text:retain)
003ef3f4  local     $C$L29 (.text:retain)
003ef372  local     $C$L3 (.text:retain)
003ef3f9  local     $C$L30 (.text:retain)
003ef3fe  local     $C$L31 (.text:retain)
003ef403  local     $C$L32 (.text:retain)
003ef408  local     $C$L33 (.text:retain)
003ef40d  local     $C$L34 (.text:retain)
003ef412  local     $C$L35 (.text:retain)
003ef417  local     $C$L36 (.text:retain)
003ef41c  local     $C$L37 (.text:retain)
003ef421  local     $C$L38 (.text:retain)
003ef426  local     $C$L39 (.text:retain)
003ef377  local     $C$L4 (.text:retain)
003ef42b  local     $C$L40 (.text:retain)
003ef430  local     $C$L41 (.text:retain)
003ef435  local     $C$L42 (.text:retain)
003ef43a  local     $C$L43 (.text:retain)
003ef43f  local     $C$L44 (.text:retain)
003ef444  local     $C$L45 (.text:retain)
003ef449  local     $C$L46 (.text:retain)
003ef44e  local     $C$L47 (.text:retain)
003ef453  local     $C$L48 (.text:retain)
003ef458  local     $C$L49 (.text:retain)
003ef37c  local     $C$L5 (.text:retain)
003ef45d  local     $C$L50 (.text:retain)
003ef462  local     $C$L51 (.text:retain)
003ef467  local     $C$L52 (.text:retain)
003ef46c  local     $C$L53 (.text:retain)
003ef471  local     $C$L54 (.text:retain)
003ef476  local     $C$L55 (.text:retain)
003ef47b  local     $C$L56 (.text:retain)
003ef480  local     $C$L57 (.text:retain)
003ef485  local     $C$L58 (.text:retain)
003ef48a  local     $C$L59 (.text:retain)
003ef381  local     $C$L6 (.text:retain)
003ef48f  local     $C$L60 (.text:retain)
003ef494  local     $C$L61 (.text:retain)
003ef499  local     $C$L62 (.text:retain)
003ef4a3  local     $C$L63 (.text:retain)
003ef4a8  local     $C$L64 (.text:retain)
003ef4ad  local     $C$L65 (.text:retain)
003ef4b2  local     $C$L66 (.text:retain)
003ef4b7  local     $C$L67 (.text:retain)
003ef4bc  local     $C$L68 (.text:retain)
003ef4c1  local     $C$L69 (.text:retain)
003ef386  local     $C$L7 (.text:retain)
003ef4c6  local     $C$L70 (.text:retain)
003ef4cb  local     $C$L71 (.text:retain)
003ef4d0  local     $C$L72 (.text:retain)
003ef4d5  local     $C$L73 (.text:retain)
003ef4da  local     $C$L74 (.text:retain)
003ef4df  local     $C$L75 (.text:retain)
003ef4e4  local     $C$L76 (.text:retain)
003ef4e9  local     $C$L77 (.text:retain)
003ef4ee  local     $C$L78 (.text:retain)
003ef4f3  local     $C$L79 (.text:retain)
003ef38b  local     $C$L8 (.text:retain)
003ef4f8  local     $C$L80 (.text:retain)
003ef4fd  local     $C$L81 (.text:retain)
003ef502  local     $C$L82 (.text:retain)
003ef507  local     $C$L83 (.text:retain)
003ef50c  local     $C$L84 (.text:retain)
003ef511  local     $C$L85 (.text:retain)
003ef516  local     $C$L86 (.text:retain)
003ef51b  local     $C$L87 (.text:retain)
003ef520  local     $C$L88 (.text:retain)
003ef525  local     $C$L89 (.text:retain)
003ef390  local     $C$L9 (.text:retain)
003ef52a  local     $C$L90 (.text:retain)
003ef52f  local     $C$L91 (.text:retain)
00000000  local     .bss (.bss)
00000000  local     .data (.data)
00000000  local     .text (.text)
003ef364  local     .text:retain (.text:retain)
003ef52b  global    _ADCINT1_ISR (.text:retain)
003ef526  global    _ADCINT2_ISR (.text:retain)
003ef521  global    _ADCINT3_ISR (.text:retain)
003ef51c  global    _ADCINT4_ISR (.text:retain)
003ef517  global    _ADCINT5_ISR (.text:retain)
003ef512  global    _ADCINT6_ISR (.text:retain)
003ef50d  global    _ADCINT7_ISR (.text:retain)
003ef508  global    _ADCINT8_ISR (.text:retain)
003ef503  global    _ADCINT9_ISR (.text:retain)
003ef4fe  global    _CLA1_INT1_ISR (.text:retain)
003ef4f9  global    _CLA1_INT2_ISR (.text:retain)
003ef4f4  global    _CLA1_INT3_ISR (.text:retain)
003ef4ef  global    _CLA1_INT4_ISR (.text:retain)
003ef4ea  global    _CLA1_INT5_ISR (.text:retain)
003ef4e5  global    _CLA1_INT6_ISR (.text:retain)
003ef4e0  global    _CLA1_INT7_ISR (.text:retain)
003ef4db  global    _CLA1_INT8_ISR (.text:retain)
003ef4d6  global    _DATALOG_ISR (.text:retain)
003ef4d1  global    _DINTCH1_ISR (.text:retain)
003ef4cc  global    _DINTCH2_ISR (.text:retain)
003ef4c7  global    _DINTCH3_ISR (.text:retain)
003ef4c2  global    _DINTCH4_ISR (.text:retain)
003ef4bd  global    _DINTCH5_ISR (.text:retain)
003ef4b8  global    _DINTCH6_ISR (.text:retain)
003ef4b3  global    _ECAN0INTA_ISR (.text:retain)
003ef4ae  global    _ECAN1INTA_ISR (.text:retain)
003ef4a9  global    _ECAP1_INT_ISR (.text:retain)
003ef4a4  global    _ECAP2_INT_ISR (.text:retain)
003ef49f  global    _ECAP3_INT_ISR (.text:retain)
003ef49a  global    _EMPTY_ISR (.text:retain)
003ef495  global    _EMUINT_ISR (.text:retain)
003ef490  global    _EPWM1_INT_ISR (.text:retain)
003ef48b  global    _EPWM1_TZINT_ISR (.text:retain)
003ef486  global    _EPWM2_INT_ISR (.text:retain)
003ef481  global    _EPWM2_TZINT_ISR (.text:retain)
003ef47c  global    _EPWM3_INT_ISR (.text:retain)
003ef477  global    _EPWM3_TZINT_ISR (.text:retain)
003ef472  global    _EPWM4_INT_ISR (.text:retain)
003ef46d  global    _EPWM4_TZINT_ISR (.text:retain)
003ef468  global    _EPWM5_INT_ISR (.text:retain)
003ef463  global    _EPWM5_TZINT_ISR (.text:retain)
003ef45e  global    _EPWM6_INT_ISR (.text:retain)
003ef459  global    _EPWM6_TZINT_ISR (.text:retain)
003ef454  global    _EPWM7_INT_ISR (.text:retain)
003ef44f  global    _EPWM7_TZINT_ISR (.text:retain)
003ef44a  global    _EPWM8_INT_ISR (.text:retain)
003ef445  global    _EPWM8_TZINT_ISR (.text:retain)
003ef440  global    _EQEP1_INT_ISR (.text:retain)
003ef43b  global    _EQEP2_INT_ISR (.text:retain)
003ef436  global    _HRCAP1_INT_ISR (.text:retain)
003ef431  global    _HRCAP2_INT_ISR (.text:retain)
003ef42c  global    _HRCAP3_INT_ISR (.text:retain)
003ef427  global    _HRCAP4_INT_ISR (.text:retain)
003ef422  global    _I2CINT1A_ISR (.text:retain)
003ef41d  global    _I2CINT2A_ISR (.text:retain)
003ef418  global    _ILLEGAL_ISR (.text:retain)
003ef413  global    _INT13_ISR (.text:retain)
003ef40e  global    _INT14_ISR (.text:retain)
003ef409  global    _LUF_ISR (.text:retain)
003ef404  global    _LVF_ISR (.text:retain)
003ef3ff  global    _MRINTA_ISR (.text:retain)
003ef3fa  global    _MXINTA_ISR (.text:retain)
003ef3f5  global    _NMI_ISR (.text:retain)
003ef3f0  global    _PIE_RESERVED (.text:retain)
003ef3eb  global    _RTOSINT_ISR (.text:retain)
003ef3e6  global    _SCIRXINTA_ISR (.text:retain)
003ef3e1  global    _SCIRXINTB_ISR (.text:retain)
003ef3dc  global    _SCITXINTA_ISR (.text:retain)
003ef3d7  global    _SCITXINTB_ISR (.text:retain)
003ef3d2  global    _SPIRXINTA_ISR (.text:retain)
003ef3cd  global    _SPIRXINTB_ISR (.text:retain)
003ef3c8  global    _SPITXINTA_ISR (.text:retain)
003ef3c3  global    _SPITXINTB_ISR (.text:retain)
003ef3be  global    _TINT0_ISR (.text:retain)
003ef3b9  global    _USB0_INT_ISR (.text:retain)
003ef3b4  global    _USER10_ISR (.text:retain)
003ef3af  global    _USER11_ISR (.text:retain)
003ef3aa  global    _USER12_ISR (.text:retain)
003ef3a5  global    _USER1_ISR (.text:retain)
003ef3a0  global    _USER2_ISR (.text:retain)
003ef39b  global    _USER3_ISR (.text:retain)
003ef396  global    _USER4_ISR (.text:retain)
003ef391  global    _USER5_ISR (.text:retain)
003ef38c  global    _USER6_ISR (.text:retain)
003ef387  global    _USER7_ISR (.text:retain)
003ef382  global    _USER8_ISR (.text:retain)
003ef37d  global    _USER9_ISR (.text:retain)
003ef378  global    _WAKEINT_ISR (.text:retain)
003ef373  global    _XINT1_ISR (.text:retain)
003ef36e  global    _XINT2_ISR (.text:retain)
003ef369  global    _XINT3_ISR (.text:retain)
003ef364  global    _rsvd_ISR (.text:retain)


================================================================================

F2806x_DisInt.obj

Run/Load            
Value     Binding   Name (Section)
--------  --------  ---------------
00000000  local     .bss (.bss)
00000000  local     .data (.data)
003f1244  local     .text (.text)
003f1244  global    _DSP28x_DisableInt (.text)
003f1248  global    _DSP28x_RestoreInt (.text)


================================================================================

F2806x_Dma.obj

Run/Load            
Value     Binding   Name (Section)
--------  --------  ---------------
00000000  local     .bss (.bss)
00000000  local     .data (.data)
00000000  local     .text (.text)
000002f5  global    _DMACH1AddrConfig (.text)
000002ec  global    _DMACH1BurstConfig (.text)
0000029d  global    _DMACH1ModeConfig (.text)
00000294  global    _DMACH1TransferConfig (.text)
0000028a  global    _DMACH1WrapConfig (.text)
00000280  global    _DMACH2AddrConfig (.text)
00000277  global    _DMACH2BurstConfig (.text)
00000228  global    _DMACH2ModeConfig (.text)
0000021f  global    _DMACH2TransferConfig (.text)
00000215  global    _DMACH2WrapConfig (.text)
0000020b  global    _DMACH3AddrConfig (.text)
00000202  global    _DMACH3BurstConfig (.text)
000001b3  global    _DMACH3ModeConfig (.text)
000001aa  global    _DMACH3TransferConfig (.text)
000001a0  global    _DMACH3WrapConfig (.text)
00000196  global    _DMACH4AddrConfig (.text)
0000018d  global    _DMACH4BurstConfig (.text)
0000013c  global    _DMACH4ModeConfig (.text)
00000133  global    _DMACH4TransferConfig (.text)
00000129  global    _DMACH4WrapConfig (.text)
0000011f  global    _DMACH5AddrConfig (.text)
00000116  global    _DMACH5BurstConfig (.text)
000000c5  global    _DMACH5ModeConfig (.text)
000000bc  global    _DMACH5TransferConfig (.text)
000000b2  global    _DMACH5WrapConfig (.text)
000000a8  global    _DMACH6AddrConfig (.text)
0000009f  global    _DMACH6BurstConfig (.text)
0000004e  global    _DMACH6ModeConfig (.text)
00000045  global    _DMACH6TransferConfig (.text)
0000003b  global    _DMACH6WrapConfig (.text)
00000030  global    _DMAInitialize (.text)
00000028  global    _StartDMACH1 (.text)
00000020  global    _StartDMACH2 (.text)
00000018  global    _StartDMACH3 (.text)
00000010  global    _StartDMACH4 (.text)
00000008  global    _StartDMACH5 (.text)
00000000  global    _StartDMACH6 (.text)


================================================================================

F2806x_ECan.obj

Run/Load            
Value     Binding   Name (Section)
--------  --------  ---------------
00000035  local     $C$L1 (.text)
0000007a  local     $C$L2 (.text)
00000090  local     $C$L3 (.text)
00000000  local     .bss (.bss)
00000000  local     .data (.data)
00000000  local     .text (.text)
0000001b  global    _InitECan (.text)
00000000  global    _InitECanGpio (.text)
0000001b  global    _InitECana (.text)
00000000  global    _InitECanaGpio (.text)


================================================================================

F2806x_ECap.obj

Run/Load            
Value     Binding   Name (Section)
--------  --------  ---------------
00000000  local     .bss (.bss)
00000000  local     .data (.data)
00000000  local     .text (.text)
00000031  global    _InitECap (.text)
00000000  global    _InitECap1Gpio (.text)
0000000e  global    _InitECap2Gpio (.text)
0000001c  global    _InitECap3Gpio (.text)
0000002a  global    _InitECapGpio (.text)


================================================================================

F2806x_EPwm.obj

Run/Load            
Value     Binding   Name (Section)
--------  --------  ---------------
00000000  local     .bss (.bss)
00000000  local     .data (.data)
00000000  local     .text (.text)
00000104  global    _InitEPwm (.text)
0000003d  global    _InitEPwm1Gpio (.text)
00000053  global    _InitEPwm2Gpio (.text)
00000069  global    _InitEPwm3Gpio (.text)
00000081  global    _InitEPwm4Gpio (.text)
00000099  global    _InitEPwm5Gpio (.text)
000000af  global    _InitEPwm6Gpio (.text)
000000c5  global    _InitEPwm7Gpio (.text)
000000dc  global    _InitEPwm8Gpio (.text)
000000f3  global    _InitEPwmGpio (.text)
00000025  global    _InitEPwmSyncGpio (.text)
00000000  global    _InitTzGpio (.text)


================================================================================

F2806x_EQep.obj

Run/Load            
Value     Binding   Name (Section)
--------  --------  ---------------
00000000  local     .bss (.bss)
00000000  local     .data (.data)
00000000  local     .text (.text)
0000005f  global    _InitEQep (.text)
00000000  global    _InitEQep1Gpio (.text)
0000002f  global    _InitEQep2Gpio (.text)
0000005a  global    _InitEQepGpio (.text)


================================================================================

F2806x_Gpio.obj

Run/Load            
Value     Binding   Name (Section)
--------  --------  ---------------
00000000  local     .bss (.bss)
00000000  local     .data (.data)
003f11bf  local     .text (.text)
003f11bf  global    _InitGpio (.text)


================================================================================

F2806x_HRCap.obj

Run/Load            
Value     Binding   Name (Section)
--------  --------  ---------------
00000000  local     .bss (.bss)
00000000  local     .data (.data)
00000000  local     .text (.text)
0000004f  global    _InitHRCap (.text)
00000000  global    _InitHRCap1Gpio (.text)
00000011  global    _InitHRCap2Gpio (.text)
00000024  global    _InitHRCap3Gpio (.text)
00000035  global    _InitHRCap4Gpio (.text)
00000046  global    _InitHRCapGpio (.text)


================================================================================

F2806x_I2C.obj

Run/Load            
Value     Binding   Name (Section)
--------  --------  ---------------
00000000  local     .bss (.bss)
00000000  local     .data (.data)
00000000  local     .text (.text)
0000001d  global    _InitI2C (.text)
00000000  global    _InitI2CGpio (.text)


================================================================================

F2806x_Mcbsp.obj

Run/Load            
Value     Binding   Name (Section)
--------  --------  ---------------
00000003  local     $C$L1 (.text)
00000016  local     $C$L2 (.text)
00000000  local     .bss (.bss)
00000000  local     .data (.data)
00000000  local     .text (.text)
000000c7  global    _InitMcbsp (.text)
00000027  global    _InitMcbspGpio (.text)
000000c7  global    _InitMcbspa (.text)
000000b9  global    _InitMcbspa12bit (.text)
000000ab  global    _InitMcbspa16bit (.text)
0000009d  global    _InitMcbspa20bit (.text)
0000008f  global    _InitMcbspa24bit (.text)
00000081  global    _InitMcbspa32bit (.text)
00000077  global    _InitMcbspa8bit (.text)
00000027  global    _InitMcbspaGpio (.text)
00000013  global    _clkg_delay_loop (.text)
00000000  global    _delay_loop (.text)


================================================================================

F2806x_OscComp.obj

Run/Load            
Value     Binding   Name (Section)
--------  --------  ---------------
00000006  local     $C$L1 (.text)
0000000a  local     $C$L2 (.text)
0000000e  local     $C$L3 (.text)
0000003e  local     $C$L4 (.text)
0000003f  local     $C$L5 (.text)
00000078  local     $C$L6 (.text)
00000079  local     $C$L7 (.text)
00000000  local     .bss (.bss)
00000000  local     .data (.data)
00000000  local     .text (.text)
00000000  global    _GetOscTrimValue (.text)
0000004d  global    _Osc1Comp (.text)
00000013  global    _Osc2Comp (.text)


================================================================================

F2806x_PieCtrl.obj

Run/Load            
Value     Binding   Name (Section)
--------  --------  ---------------
00000000  local     .bss (.bss)
00000000  local     .data (.data)
003f0f9d  local     .text (.text)
003f0fbc  global    _EnableInterrupts (.text)
003f0f9d  global    _InitPieCtrl (.text)


================================================================================

F2806x_PieVect.obj

Run/Load            
Value     Binding   Name (Section)
--------  --------  ---------------
003f11ed  local     $C$L1 (.text)
00000000  local     .bss (.bss)
00000000  local     .data (.data)
003f286a  local     .econst:_PieVectTableInit (.econst:_PieVectTableInit)
003f11e7  local     .text (.text)
003f11e7  global    _InitPieVectTable (.text)
003f286a  global    _PieVectTableInit (.econst:_PieVectTableInit)


================================================================================

F2806x_Sci.obj

Run/Load            
Value     Binding   Name (Section)
--------  --------  ---------------
00000000  local     .bss (.bss)
00000000  local     .data (.data)
00000000  local     .text (.text)
00000038  global    _InitSci (.text)
00000033  global    _InitSciGpio (.text)
00000018  global    _InitSciaGpio (.text)
00000000  global    _InitScibGpio (.text)


================================================================================

F2806x_Spi.obj

Run/Load            
Value     Binding   Name (Section)
--------  --------  ---------------
00000000  local     .bss (.bss)
00000000  local     .data (.data)
00000000  local     .text (.text)
00000052  global    _InitSpi (.text)
0000004d  global    _InitSpiGpio (.text)
00000022  global    _InitSpiaGpio (.text)
00000000  global    _InitSpibGpio (.text)


================================================================================

F2806x_SysCtrl.obj

Run/Load            
Value     Binding   Name (Section)
--------  --------  ---------------
003ef8eb  local     $C$L1 (.text)
003ef8f2  local     $C$L2 (.text)
003ef909  local     $C$L3 (.text)
003ef90f  local     $C$L4 (.text)
003ef914  local     $C$L5 (.text)
003ef91c  local     $C$L6 (.text)
003ef92f  local     $C$L7 (.text)
003ef9b0  local     $C$L8 (.text)
003ef9c7  local     $C$L9 (.text)
00000000  local     .bss (.bss)
00000000  local     .data (.data)
003ef889  local     .text (.text)
003ef9ed  global    _CsmUnlock (.text)
003ef8d8  global    _DisableDog (.text)
003ef9d5  global    _ExtOscSel (.text)
00000000  global    _InitFlash (ramfuncs)
003ef931  global    _InitPeripheralClocks (.text)
003ef8e0  global    _InitPll (.text)
003ef9a8  global    _InitPll2 (.text)
003ef990  global    _InitSysCtrl (.text)
003ef8c8  global    _IntOsc1Sel (.text)
003ef8ae  global    _IntOsc2Sel (.text)
003ef8a4  global    _ServiceDog (.text)
003ef889  global    _XtalOscSel (.text)
00000000  local     ramfuncs (ramfuncs)


================================================================================

F2806x_TempSensorConv.obj

Run/Load            
Value     Binding   Name (Section)
--------  --------  ---------------
00000000  local     .bss (.bss)
00000000  local     .data (.data)
00000000  local     .text (.text)
0000001b  global    _GetTemperatureC (.text)
00000000  global    _GetTemperatureK (.text)


================================================================================

F2806x_usDelay.obj

Run/Load             
Value      Binding   Name (Section)
--------   --------  ---------------
00000000   local     .bss (.bss)
00000000   local     .data (.data)
00000000   local     .text (.text)
00008004   global    _DSP28x_usDelay (ramfuncs)
 003f1265            
00008004   local     ramfuncs (ramfuncs)
 003f1265            


================================================================================

interrupt.obj

Run/Load            
Value     Binding   Name (Section)
--------  --------  ---------------
003efbcb  local     $C$L1 (.text)
003efc3b  local     $C$L10 (.text)
003efc3e  local     $C$L11 (.text)
003efc41  local     $C$L12 (.text)
003efc44  local     $C$L13 (.text)
003efc47  local     $C$L14 (.text)
003efc4a  local     $C$L15 (.text)
003efc4d  local     $C$L16 (.text)
003efc50  local     $C$L17 (.text)
003efc53  local     $C$L18 (.text)
003efc56  local     $C$L19 (.text)
003efbe6  local     $C$L2 (.text)
003efc59  local     $C$L20 (.text)
003efc5c  local     $C$L21 (.text)
003efc5f  local     $C$L22 (.text)
003efc62  local     $C$L23 (.text)
003efc7e  local     $C$L24 (.text)
003efca0  local     $C$L25 (.text)
003efca7  local     $C$L26 (.text)
003efbe8  local     $C$L3 (.text)
003efbef  local     $C$L4 (.text)
003efc08  local     $C$L5 (.text)
003efc0f  local     $C$L6 (.text)
003efc25  local     $C$L7 (.text)
003efc35  local     $C$L8 (.text)
003efc38  local     $C$L9 (.text)
00000000  local     .bss (.bss)
00000000  local     .data (.data)
003efba7  local     .text (.text)
003f1251  local     .text:retain (.text:retain)
003f1251  global    _IntDefaultHandler (.text:retain)
003efd09  global    _IntDisable (.text)
003efce8  global    _IntEnable (.text)
003efba7  global    _IntMasterDisable (.text)
003efbab  global    _IntMasterEnable (.text)
003efcca  global    _IntRegister (.text)
003efca9  global    _IntUnregister (.text)
003efbf1  local     _Interrupt_clearIFR (.text)
003efc65  global    _Interrupt_disable (.text)
003efbaf  global    _Interrupt_enable (.text)


================================================================================

sysctl.obj

Run/Load            
Value     Binding   Name (Section)
--------  --------  ---------------
0000000f  local     $C$L1 (.text)
0000006d  local     $C$L10 (.text)
00000072  local     $C$L11 (.text)
00000077  local     $C$L12 (.text)
0000007c  local     $C$L13 (.text)
00000081  local     $C$L14 (.text)
00000085  local     $C$L15 (.text)
0000008c  local     $C$L16 (.text)
00000092  local     $C$L17 (.text)
0000002b  local     $C$L2 (.text)
00000036  local     $C$L3 (.text)
0000003b  local     $C$L4 (.text)
00000040  local     $C$L5 (.text)
00000045  local     $C$L6 (.text)
0000004a  local     $C$L7 (.text)
0000004e  local     $C$L8 (.text)
00000062  local     $C$L9 (.text)
00000000  local     .bss (.bss)
00000000  local     .data (.data)
00000000  local     .text (.text)
00000094  global    _SysCtlClockGet (.text)
00000088  global    _SysCtlDelay (.text)
00000051  global    _SysCtlPeripheralDisable (.text)
0000001a  global    _SysCtlPeripheralEnable (.text)
00000018  global    _SysCtlPeripheralPresent (.text)
00000017  global    _SysCtlPeripheralReset (.text)
00000012  global    _SysCtlUSBPLLDisable (.text)
00000000  global    _SysCtlUSBPLLEnable (.text)


================================================================================

systick.obj

Run/Load            
Value     Binding   Name (Section)
--------  --------  ---------------
00000000  local     .bss (.bss)
00000000  local     .data (.data)
00000000  local     .text (.text)
0000003b  global    _SysTickDisable (.text)
00000036  global    _SysTickEnable (.text)
0000002a  global    _SysTickInit (.text)
00000022  global    _SysTickIntDisable (.text)
0000001a  global    _SysTickIntEnable (.text)
00000013  global    _SysTickIntRegister (.text)
0000000c  global    _SysTickIntUnregister (.text)
00000008  global    _SysTickPeriodGet (.text)
00000004  global    _SysTickPeriodSet (.text)
00000000  global    _SysTickValueGet (.text)


================================================================================

uart.obj

Run/Load            
Value     Binding   Name (Section)
--------  --------  ---------------
00000019  local     $C$L1 (.text)
000000ad  local     $C$L10 (.text)
000000b4  local     $C$L11 (.text)
000000bb  local     $C$L12 (.text)
000000c2  local     $C$L13 (.text)
000000c9  local     $C$L14 (.text)
000000d4  local     $C$L15 (.text)
000000dc  local     $C$L16 (.text)
000000e4  local     $C$L17 (.text)
000000ec  local     $C$L18 (.text)
000000f4  local     $C$L19 (.text)
0000001a  local     $C$L2 (.text)
00000108  local     $C$L20 (.text)
00000110  local     $C$L21 (.text)
00000118  local     $C$L22 (.text)
0000014c  local     $C$L23 (.text)
00000181  local     $C$L24 (.text)
000001af  local     $C$L25 (.text)
000001b8  local     $C$L26 (.text)
000001c7  local     $C$L27 (.text)
0000002a  local     $C$L3 (.text)
0000002b  local     $C$L4 (.text)
00000052  local     $C$L5 (.text)
00000053  local     $C$L6 (.text)
00000063  local     $C$L7 (.text)
00000064  local     $C$L8 (.text)
00000093  local     $C$L9 (.text)
00000000  local     .bss (.bss)
00000000  local     .data (.data)
00000000  local     .text (.text)
000001cf  global    _UARTBusy (.text)
000001ca  global    _UARTCharGet (.text)
000001bd  global    _UARTCharGetNonBlocking (.text)
000001b1  global    _UARTCharPut (.text)
000001a3  global    _UARTCharPutNonBlocking (.text)
0000019d  global    _UARTCharsAvail (.text)
00000183  global    _UARTConfigGetExpClk (.text)
00000158  global    _UARTConfigSetExpClk (.text)
00000147  global    _UARTDisable (.text)
00000141  global    _UARTEnable (.text)
0000013c  global    _UARTFIFODisable (.text)
00000137  global    _UARTFIFOEnable (.text)
0000012b  global    _UARTFIFOLevelGet (.text)
0000011a  global    _UARTFIFOLevelSet (.text)
000000f5  global    _UARTIntClear (.text)
000000ca  global    _UARTIntDisable (.text)
000000a4  global    _UARTIntEnable (.text)
0000007a  global    _UARTIntStatus (.text)
00000074  global    _UARTParityModeGet (.text)
0000006c  global    _UARTParityModeSet (.text)
0000005b  global    _UARTRXIntRegister (.text)
0000004a  global    _UARTRXIntUnregister (.text)
0000003c  global    _UARTRxErrorClear (.text)
00000039  global    _UARTRxErrorGet (.text)
00000033  global    _UARTSpaceAvail (.text)
00000022  global    _UARTTXIntRegister (.text)
00000011  global    _UARTTXIntUnregister (.text)
0000000b  global    _UARTTxIntModeGet (.text)
00000000  global    _UARTTxIntModeSet (.text)


================================================================================

usb.obj

Run/Load            
Value     Binding   Name (Section)
--------  --------  ---------------
00000016  local     $C$L1 (.text)
000000e0  local     $C$L10 (.text)
0000058d  local     $C$L100 (.text)
00000594  local     $C$L101 (.text)
000005a7  local     $C$L102 (.text)
000005af  local     $C$L103 (.text)
000005b5  local     $C$L104 (.text)
000005c8  local     $C$L105 (.text)
000005d0  local     $C$L106 (.text)
000005f0  local     $C$L107 (.text)
000005f3  local     $C$L108 (.text)
000005fc  local     $C$L109 (.text)
000000ef  local     $C$L11 (.text)
00000608  local     $C$L110 (.text)
0000061f  local     $C$L111 (.text)
00000622  local     $C$L112 (.text)
0000062b  local     $C$L113 (.text)
00000636  local     $C$L114 (.text)
00000650  local     $C$L115 (.text)
00000656  local     $C$L116 (.text)
00000657  local     $C$L117 (.text)
00000659  local     $C$L118 (.text)
0000065d  local     $C$L119 (.text)
00000119  local     $C$L12 (.text)
00000673  local     $C$L120 (.text)
00000679  local     $C$L121 (.text)
0000067a  local     $C$L122 (.text)
0000067c  local     $C$L123 (.text)
0000067f  local     $C$L124 (.text)
00000681  local     $C$L125 (.text)
00000134  local     $C$L13 (.text)
00000143  local     $C$L14 (.text)
00000153  local     $C$L15 (.text)
0000016f  local     $C$L16 (.text)
00000173  local     $C$L17 (.text)
00000180  local     $C$L18 (.text)
00000183  local     $C$L19 (.text)
00000019  local     $C$L2 (.text)
0000018e  local     $C$L20 (.text)
00000191  local     $C$L21 (.text)
000001a0  local     $C$L22 (.text)
000001a2  local     $C$L23 (.text)
000001b1  local     $C$L24 (.text)
000001b3  local     $C$L25 (.text)
000001ef  local     $C$L26 (.text)
000001f0  local     $C$L27 (.text)
00000204  local     $C$L28 (.text)
00000210  local     $C$L29 (.text)
00000052  local     $C$L3 (.text)
00000215  local     $C$L30 (.text)
00000228  local     $C$L31 (.text)
00000248  local     $C$L32 (.text)
0000024d  local     $C$L33 (.text)
00000250  local     $C$L34 (.text)
00000251  local     $C$L35 (.text)
00000253  local     $C$L36 (.text)
0000025a  local     $C$L37 (.text)
00000266  local     $C$L38 (.text)
00000269  local     $C$L39 (.text)
0000005e  local     $C$L4 (.text)
00000270  local     $C$L40 (.text)
0000027a  local     $C$L41 (.text)
0000027e  local     $C$L42 (.text)
00000294  local     $C$L43 (.text)
00000296  local     $C$L44 (.text)
000002ad  local     $C$L45 (.text)
000002b0  local     $C$L46 (.text)
000002b2  local     $C$L47 (.text)
000002b3  local     $C$L48 (.text)
000002d8  local     $C$L49 (.text)
00000068  local     $C$L5 (.text)
000002db  local     $C$L50 (.text)
000002df  local     $C$L51 (.text)
00000301  local     $C$L52 (.text)
00000304  local     $C$L53 (.text)
00000307  local     $C$L54 (.text)
0000030a  local     $C$L55 (.text)
0000031b  local     $C$L56 (.text)
0000032a  local     $C$L57 (.text)
0000032f  local     $C$L58 (.text)
0000033e  local     $C$L59 (.text)
00000092  local     $C$L6 (.text)
00000343  local     $C$L60 (.text)
0000035e  local     $C$L61 (.text)
0000036b  local     $C$L62 (.text)
00000374  local     $C$L63 (.text)
00000375  local     $C$L64 (.text)
0000038b  local     $C$L65 (.text)
00000390  local     $C$L66 (.text)
000003ad  local     $C$L67 (.text)
000003bb  local     $C$L68 (.text)
000003dc  local     $C$L69 (.text)
0000009d  local     $C$L7 (.text)
000003e0  local     $C$L70 (.text)
000003fe  local     $C$L71 (.text)
0000040d  local     $C$L72 (.text)
00000449  local     $C$L73 (.text)
00000450  local     $C$L74 (.text)
00000468  local     $C$L75 (.text)
0000046f  local     $C$L76 (.text)
00000472  local     $C$L77 (.text)
00000478  local     $C$L78 (.text)
0000048e  local     $C$L79 (.text)
000000bc  local     $C$L8 (.text)
00000496  local     $C$L80 (.text)
0000049b  local     $C$L81 (.text)
000004a5  local     $C$L82 (.text)
000004a7  local     $C$L83 (.text)
000004b0  local     $C$L84 (.text)
000004ba  local     $C$L85 (.text)
000004c3  local     $C$L86 (.text)
000004c8  local     $C$L87 (.text)
000004d2  local     $C$L88 (.text)
000004d4  local     $C$L89 (.text)
000000d3  local     $C$L9 (.text)
000004df  local     $C$L90 (.text)
000004ee  local     $C$L91 (.text)
000004f5  local     $C$L92 (.text)
00000505  local     $C$L93 (.text)
0000050d  local     $C$L94 (.text)
00000540  local     $C$L95 (.text)
0000054a  local     $C$L96 (.text)
00000556  local     $C$L97 (.text)
0000056f  local     $C$L98 (.text)
00000583  local     $C$L99 (.text)
00000000  local     .bss (.bss)
00000000  local     .data (.data)
00000000  local     .text (.text)
00000693  global    _USBDevAddrGet (.text)
0000068f  global    _USBDevAddrSet (.text)
00000689  global    _USBDevConnect (.text)
00000682  global    _USBDevDisconnect (.text)
00000638  global    _USBDevEndpointConfigGet (.text)
000005d2  global    _USBDevEndpointConfigSet (.text)
000005b7  global    _USBDevEndpointDataAck (.text)
00000596  global    _USBDevEndpointStall (.text)
00000570  global    _USBDevEndpointStallClear (.text)
00000532  global    _USBDevEndpointStatusClear (.text)
0000052c  global    _USBDevMode (.text)
0000050f  global    _USBEndpointDMAChannel (.text)
000004f7  global    _USBEndpointDMADisable (.text)
000004e1  global    _USBEndpointDMAEnable (.text)
000004ca  global    _USBEndpointDataAvail (.text)
0000049d  global    _USBEndpointDataGet (.text)
0000047c  global    _USBEndpointDataPut (.text)
00000452  global    _USBEndpointDataSend (.text)
0000043c  global    _USBEndpointDataToggleClear (.text)
00000430  global    _USBEndpointPacketCountSet (.text)
00000420  global    _USBEndpointStatus (.text)
00000419  global    _USBFIFOAddrGet (.text)
000003e4  global    _USBFIFOConfigGet (.text)
00000393  global    _USBFIFOConfigSet (.text)
0000034c  global    _USBFIFOFlush (.text)
00000348  global    _USBFrameNumberGet (.text)
00000333  global    _USBHostAddrGet (.text)
0000031e  global    _USBHostAddrSet (.text)
00000284  global    _USBHostEndpointConfig (.text)
00000272  global    _USBHostEndpointDataAck (.text)
0000023e  global    _USBHostEndpointDataToggle (.text)
0000021a  global    _USBHostEndpointStatusClear (.text)
00000205  global    _USBHostHubAddrGet (.text)
000001e6  global    _USBHostHubAddrSet (.text)
000001e0  global    _USBHostMode (.text)
000001d1  global    _USBHostPwrConfig (.text)
000001cb  global    _USBHostPwrDisable (.text)
000001c5  global    _USBHostPwrEnable (.text)
000001bf  global    _USBHostPwrFaultDisable (.text)
000001b9  global    _USBHostPwrFaultEnable (.text)
000001aa  global    _USBHostRequestIN (.text)
00000199  global    _USBHostRequestINClear (.text)
00000193  global    _USBHostRequestStatus (.text)
00000185  global    _USBHostReset (.text)
00000177  global    _USBHostResume (.text)
00000168  global    _USBHostSpeedGet (.text)
00000162  global    _USBHostSuspend (.text)
000003cb  local     _USBIndexRead (.text)
00000376  local     _USBIndexWrite (.text)
00000128  global    _USBIntDisable (.text)
00000109  global    _USBIntDisableControl (.text)
000000fe  global    _USBIntDisableEndpoint (.text)
000000cb  global    _USBIntEnable (.text)
000000af  global    _USBIntEnableControl (.text)
000000a7  global    _USBIntEnableEndpoint (.text)
000000a0  global    _USBIntRegister (.text)
00000060  global    _USBIntStatus (.text)
0000003b  global    _USBIntStatusControl (.text)
00000031  global    _USBIntStatusEndpoint (.text)
0000002a  global    _USBIntUnregister (.text)
00000023  global    _USBModeGet (.text)
00000021  global    _USBNumEndpointsGet (.text)
0000001b  global    _USBOTGMode (.text)
0000000d  global    _USBOTGSessionRequest (.text)
00000007  global    _USBPHYPowerOff (.text)
00000000  global    _USBPHYPowerOn (.text)


================================================================================

F2806x_GlobalVariableDefs.obj

Run/Load            
Value     Binding   Name (Section)
--------  --------  ---------------
00000000  local     .bss (.bss)
00000000  local     .data (.data)
00000000  local     .text (.text)
00007100  local     AdcRegsFile (AdcRegsFile)
00000b00  local     AdcResultFile (AdcResultFile)
00001400  local     Cla1RegsFile (Cla1RegsFile)
00006400  local     Comp1RegsFile (Comp1RegsFile)
00006420  local     Comp2RegsFile (Comp2RegsFile)
00006440  local     Comp3RegsFile (Comp3RegsFile)
00000c00  local     CpuTimer0RegsFile (CpuTimer0RegsFile)
00000c08  local     CpuTimer1RegsFile (CpuTimer1RegsFile)
00000c10  local     CpuTimer2RegsFile (CpuTimer2RegsFile)
003f7ff8  local     CsmPwlFile (CsmPwlFile)
00000ae0  local     CsmRegsFile (CsmRegsFile)
00000880  local     DevEmuRegsFile (DevEmuRegsFile)
00001000  local     DmaRegsFile (DmaRegsFile)
00006040  local     ECanaLAMRegsFile (ECanaLAMRegsFile)
000060c0  local     ECanaMOTORegsFile (ECanaMOTORegsFile)
00006080  local     ECanaMOTSRegsFile (ECanaMOTSRegsFile)
00006100  local     ECanaMboxesFile (ECanaMboxesFile)
00006000  local     ECanaRegsFile (ECanaRegsFile)
00006a00  local     ECap1RegsFile (ECap1RegsFile)
00006a20  local     ECap2RegsFile (ECap2RegsFile)
00006a40  local     ECap3RegsFile (ECap3RegsFile)
00006800  local     EPwm1RegsFile (EPwm1RegsFile)
00006840  local     EPwm2RegsFile (EPwm2RegsFile)
00006880  local     EPwm3RegsFile (EPwm3RegsFile)
000068c0  local     EPwm4RegsFile (EPwm4RegsFile)
00006900  local     EPwm5RegsFile (EPwm5RegsFile)
00006940  local     EPwm6RegsFile (EPwm6RegsFile)
00006980  local     EPwm7RegsFile (EPwm7RegsFile)
000069c0  local     EPwm8RegsFile (EPwm8RegsFile)
00006b00  local     EQep1RegsFile (EQep1RegsFile)
00006b40  local     EQep2RegsFile (EQep2RegsFile)
00000d01  local     EmuBModeVar (EmuBModeVar)
00000d00  local     EmuKeyVar (EmuKeyVar)
00000d02  local     FlashCallbackVar (FlashCallbackVar)
00000a80  local     FlashRegsFile (FlashRegsFile)
00000d04  local     FlashScalingVar (FlashScalingVar)
00006f80  local     GpioCtrlRegsFile (GpioCtrlRegsFile)
00006fc0  local     GpioDataRegsFile (GpioDataRegsFile)
00006fe0  local     GpioIntRegsFile (GpioIntRegsFile)
00006ac0  local     HRCap1RegsFile (HRCap1RegsFile)
00006ae0  local     HRCap2RegsFile (HRCap2RegsFile)
00006c80  local     HRCap3RegsFile (HRCap3RegsFile)
00006ca0  local     HRCap4RegsFile (HRCap4RegsFile)
00007900  local     I2caRegsFile (I2caRegsFile)
00005000  local     McbspaRegsFile (McbspaRegsFile)
00007060  local     NmiIntruptRegsFile (NmiIntruptRegsFile)
003d7e80  local     PartIdRegsFile (PartIdRegsFile)
00000ce0  local     PieCtrlRegsFile (PieCtrlRegsFile)
00000d00  local     PieVectTableFile (PieVectTableFile)
00007050  local     SciaRegsFile (SciaRegsFile)
00007750  local     ScibRegsFile (ScibRegsFile)
00007040  local     SpiaRegsFile (SpiaRegsFile)
00007740  local     SpibRegsFile (SpibRegsFile)
00007010  local     SysCtrlRegsFile (SysCtrlRegsFile)
00000985  local     SysPwrCtrlRegsFile (SysPwrCtrlRegsFile)
00004000  local     Usb0RegsFile (Usb0RegsFile)
00007070  local     XIntruptRegsFile (XIntruptRegsFile)
00007100  global    _AdcRegs (AdcRegsFile)
00000b00  global    _AdcResult (AdcResultFile)
00001400  global    _Cla1Regs (Cla1RegsFile)
00006400  global    _Comp1Regs (Comp1RegsFile)
00006420  global    _Comp2Regs (Comp2RegsFile)
00006440  global    _Comp3Regs (Comp3RegsFile)
00000c00  global    _CpuTimer0Regs (CpuTimer0RegsFile)
00000c08  global    _CpuTimer1Regs (CpuTimer1RegsFile)
00000c10  global    _CpuTimer2Regs (CpuTimer2RegsFile)
003f7ff8  global    _CsmPwl (CsmPwlFile)
00000ae0  global    _CsmRegs (CsmRegsFile)
00000880  global    _DevEmuRegs (DevEmuRegsFile)
00001000  global    _DmaRegs (DmaRegsFile)
00006040  global    _ECanaLAMRegs (ECanaLAMRegsFile)
000060c0  global    _ECanaMOTORegs (ECanaMOTORegsFile)
00006080  global    _ECanaMOTSRegs (ECanaMOTSRegsFile)
00006100  global    _ECanaMboxes (ECanaMboxesFile)
00006000  global    _ECanaRegs (ECanaRegsFile)
00006a00  global    _ECap1Regs (ECap1RegsFile)
00006a20  global    _ECap2Regs (ECap2RegsFile)
00006a40  global    _ECap3Regs (ECap3RegsFile)
00006800  global    _EPwm1Regs (EPwm1RegsFile)
00006840  global    _EPwm2Regs (EPwm2RegsFile)
00006880  global    _EPwm3Regs (EPwm3RegsFile)
000068c0  global    _EPwm4Regs (EPwm4RegsFile)
00006900  global    _EPwm5Regs (EPwm5RegsFile)
00006940  global    _EPwm6Regs (EPwm6RegsFile)
00006980  global    _EPwm7Regs (EPwm7RegsFile)
000069c0  global    _EPwm8Regs (EPwm8RegsFile)
00006b00  global    _EQep1Regs (EQep1RegsFile)
00006b40  global    _EQep2Regs (EQep2RegsFile)
00000d01  global    _EmuBMode (EmuBModeVar)
00000d00  global    _EmuKey (EmuKeyVar)
00000a80  global    _FlashRegs (FlashRegsFile)
00000d04  global    _Flash_CPUScaleFactor (FlashScalingVar)
00000d02  global    _Flash_CallbackPtr (FlashCallbackVar)
00006f80  global    _GpioCtrlRegs (GpioCtrlRegsFile)
00006fc0  global    _GpioDataRegs (GpioDataRegsFile)
00006fe0  global    _GpioIntRegs (GpioIntRegsFile)
00006ac0  global    _HRCap1Regs (HRCap1RegsFile)
00006ae0  global    _HRCap2Regs (HRCap2RegsFile)
00006c80  global    _HRCap3Regs (HRCap3RegsFile)
00006ca0  global    _HRCap4Regs (HRCap4RegsFile)
00007900  global    _I2caRegs (I2caRegsFile)
00005000  global    _McbspaRegs (McbspaRegsFile)
00007060  global    _NmiIntruptRegs (NmiIntruptRegsFile)
003d7e80  global    _PartIdRegs (PartIdRegsFile)
00000ce0  global    _PieCtrlRegs (PieCtrlRegsFile)
00000d00  global    _PieVectTable (PieVectTableFile)
00007050  global    _SciaRegs (SciaRegsFile)
00007750  global    _ScibRegs (ScibRegsFile)
00007040  global    _SpiaRegs (SpiaRegsFile)
00007740  global    _SpibRegs (SpibRegsFile)
00007010  global    _SysCtrlRegs (SysCtrlRegsFile)
00000985  global    _SysPwrCtrlRegs (SysPwrCtrlRegsFile)
00004000  global    _Usb0Regs (Usb0RegsFile)
00007070  global    _XIntruptRegs (XIntruptRegsFile)


================================================================================

cputimer.obj

Run/Load            
Value     Binding   Name (Section)
--------  --------  ---------------
00000000  local     .bss (.bss)
00000000  local     .data (.data)
003f124b  local     .text (.text)
003f124b  global    _CPUTimer_setEmulationMode (.text)


================================================================================

gpio.obj

Run/Load            
Value     Binding   Name (Section)
--------  --------  ---------------
003efaa1  local     $C$L1 (.text)
003efafd  local     $C$L10 (.text)
003efaff  local     $C$L11 (.text)
003efb00  local     $C$L12 (.text)
003efb07  local     $C$L13 (.text)
003efb20  local     $C$L14 (.text)
003efb25  local     $C$L15 (.text)
003efb40  local     $C$L16 (.text)
003efb45  local     $C$L17 (.text)
003efb7e  local     $C$L18 (.text)
003efb7f  local     $C$L19 (.text)
003efaa7  local     $C$L2 (.text)
003efb8a  local     $C$L20 (.text)
003efb93  local     $C$L21 (.text)
003efab1  local     $C$L3 (.text)
003efab7  local     $C$L4 (.text)
003efac0  local     $C$L5 (.text)
003efac5  local     $C$L6 (.text)
003efaf3  local     $C$L7 (.text)
003efaf9  local     $C$L8 (.text)
003efafb  local     $C$L9 (.text)
00000000  local     .bss (.bss)
00000000  local     .data (.data)
003efa1b  local     .text (.text)
003efb95  global    _GPIO_getDirectionMode (.text)
003efb69  global    _GPIO_getPadConfig (.text)
003efb47  global    _GPIO_getQualificationMode (.text)
003efb27  global    _GPIO_setAnalogMode (.text)
003efb08  global    _GPIO_setDirectionMode (.text)
003efae9  global    _GPIO_setInterruptPin (.text)
003efac7  global    _GPIO_setMasterCore (.text)
003efa88  global    _GPIO_setPadConfig (.text)
003efa58  global    _GPIO_setPinConfig (.text)
003efa36  global    _GPIO_setQualificationMode (.text)
003efa1b  global    _GPIO_setQualificationPeriod (.text)


================================================================================

int_drv.obj

Run/Load            
Value     Binding   Name (Section)
--------  --------  ---------------
003f0e11  local     $C$L1 (.text)
003f0e18  local     $C$L2 (.text)
003f0e6e  local     $C$L3 (.text)
003f0e72  local     $C$L4 (.text)
00000000  local     .bss (.bss)
00000000  local     .data (.data)
003f0e10  local     .text (.text)
003f0e6f  global    _Interrupt_defaultHandler (.text)
003f0e6d  global    _Interrupt_illegalOperationHandler (.text)
003f0e2f  global    _Interrupt_initModule (.text)
003f0e12  global    _Interrupt_initVectorTable (.text)
003f0e10  global    _Interrupt_nmiHandler (.text)


================================================================================

io_drv.obj

Run/Load            
Value     Binding   Name (Section)
--------  --------  ---------------
0000000e  local     $C$L1 (.text)
000000b0  local     $C$L10 (.text)
000000b7  local     $C$L11 (.text)
000000b9  local     $C$L12 (.text)
000000bd  local     $C$L13 (.text)
000000c4  local     $C$L14 (.text)
000000c6  local     $C$L15 (.text)
000000ca  local     $C$L16 (.text)
000000d9  local     $C$L17 (.text)
000000e8  local     $C$L18 (.text)
000000ef  local     $C$L19 (.text)
00000016  local     $C$L2 (.text)
000000f1  local     $C$L20 (.text)
000000f4  local     $C$L21 (.text)
00000105  local     $C$L22 (.text)
0000010d  local     $C$L23 (.text)
00000112  local     $C$L24 (.text)
00000116  local     $C$L25 (.text)
0000011b  local     $C$L26 (.text)
00000120  local     $C$L27 (.text)
00000124  local     $C$L28 (.text)
00000129  local     $C$L29 (.text)
00000019  local     $C$L3 (.text)
0000012e  local     $C$L30 (.text)
00000132  local     $C$L31 (.text)
00000137  local     $C$L32 (.text)
0000001c  local     $C$L4 (.text)
0000001f  local     $C$L5 (.text)
00000022  local     $C$L6 (.text)
00000025  local     $C$L7 (.text)
00000027  local     $C$L8 (.text)
000000a1  local     $C$L9 (.text)
00000000  local     .bss (.bss)
003f3274  local     .cinit (.cinit)
00000000  local     .data (.data)
0000d9c0  local     .ebss (.ebss)
00000000  local     .text (.text)
000000fa  global    _IO_COMMON_bIsError (.text)
0000d9c0  global    _IO_bUseIOFbkEmulation (.ebss)
0000d9cd  global    _IO_nStackMask (.ebss)
0000d9cc  global    _IO_uErrorStop (.ebss)
000000f6  global    _IO_vClearTrippedErrors (.text)
000000f5  global    _IO_vInit (.text)
00000028  global    _IO_vProcess (.text)
00000000  global    _IO_vProcessEnable2346 (.text)
0000d9ca  global    _bUseFPGACommandOnEnOut2346 (.ebss)
0000d9c1  global    _u16DigitalOutputs (.ebss)
0000d9d6  global    _u32DigitalInputPortMask (.ebss)
0000d9ce  global    _u32DigitalInputs (.ebss)
0000d9d4  global    _u32DigitalOutputPortMask (.ebss)
0000d9d0  global    _u32DigitalOutputPortMask1 (.ebss)
0000d9d2  global    _u32DigitalOutputPortMask2 (.ebss)
0000d9dc  global    _u32InputPortDataRead (.ebss)
0000d9e2  global    _u32InputPortDataReadActiveLow (.ebss)
0000d9de  global    _u32OutputPortDataNew (.ebss)
0000d9e0  global    _u32OutputPortDataPreserve (.ebss)
0000d9d8  global    _u32OutputPortDataRead (.ebss)
0000d9da  global    _u32OutputPortDataWrite (.ebss)
0000d9c3  global    _uDIExternal (.ebss)
0000d9c5  global    _uDIExternalFbk (.ebss)
0000d9c2  global    _uDOExternal (.ebss)
0000d9c4  global    _uDOExternalFbk (.ebss)
0000d9c8  global    _uEnableOutput (.ebss)
0000d9cb  global    _uEnableOutput2346 (.ebss)
0000d9c9  global    _uEnableOutputUse (.ebss)
0000d9c6  global    _uFaultInput (.ebss)
0000d9c7  global    _uFaultInputDeny (.ebss)


================================================================================

rtc_drv.obj

Run/Load            
Value     Binding   Name (Section)
--------  --------  ---------------
0000003d  local     $C$L1 (.text)
0000003f  local     $C$L2 (.text)
00000041  local     $C$L3 (.text)
00000042  local     $C$L4 (.text)
00000051  local     $C$L5 (.text)
00000056  local     $C$L6 (.text)
00000057  local     $C$L7 (.text)
0000005e  local     $C$L8 (.text)
00000000  local     .bss (.bss)
003f329c  local     .cinit (.cinit)
00000000  local     .data (.data)
0000da54  local     .ebss (.ebss)
00000000  local     .econst:.string:_RTC_DRV_as8Date (.econst:.string:_RTC_DRV_as8Date)
00000000  local     .econst:.string:_RTC_DRV_as8Time (.econst:.string:_RTC_DRV_as8Time)
00000000  local     .econst:_month_offset_table$1 (.econst:_month_offset_table$1)
00000000  local     .text (.text)
00000000  global    _RTC_DRV_as8Date (.econst:.string:_RTC_DRV_as8Date)
00000000  global    _RTC_DRV_as8Time (.econst:.string:_RTC_DRV_as8Time)
0000da55  global    _RTC_DRV_bDateTimeGet (.ebss)
0000da57  global    _RTC_DRV_bDateTimeGetRequest (.ebss)
0000da54  global    _RTC_DRV_bDateTimeSet (.ebss)
0000000f  global    _RTC_DRV_bDateTimeSetLaterThanDateTimeGet (.text)
0000da56  global    _RTC_DRV_bDateTimeSetupAtStart (.ebss)
0000da58  global    _RTC_DRV_sDateTimeGet (.ebss)
0000da60  global    _RTC_DRV_sDateTimeSet (.ebss)
00000058  global    _RTC_DRV_u8DayOfWeek_2000_2099 (.text)
00000098  global    _RTC_DRV_vGetDateTime (.text)
00000076  global    _RTC_DRV_vInit (.text)
00000044  global    _RTC_DRV_vProcess (.text)
00000000  global    _RTC_DRV_vSetDateTime (.text)
00000000  local     _month_offset_table$1 (.econst:_month_offset_table$1)


================================================================================

sci.obj

Run/Load            
Value     Binding   Name (Section)
--------  --------  ---------------
003f04d6  local     $C$L1 (.text)
003f0535  local     $C$L10 (.text)
003f0538  local     $C$L11 (.text)
003f053c  local     $C$L12 (.text)
003f053d  local     $C$L13 (.text)
003f0541  local     $C$L14 (.text)
003f0545  local     $C$L15 (.text)
003f0548  local     $C$L16 (.text)
003f054b  local     $C$L17 (.text)
003f054e  local     $C$L18 (.text)
003f0555  local     $C$L19 (.text)
003f04de  local     $C$L2 (.text)
003f0559  local     $C$L20 (.text)
003f055d  local     $C$L21 (.text)
003f0563  local     $C$L22 (.text)
003f0568  local     $C$L23 (.text)
003f056f  local     $C$L24 (.text)
003f0573  local     $C$L25 (.text)
003f0577  local     $C$L26 (.text)
003f057d  local     $C$L27 (.text)
003f0582  local     $C$L28 (.text)
003f058f  local     $C$L29 (.text)
003f04e2  local     $C$L3 (.text)
003f0593  local     $C$L30 (.text)
003f0599  local     $C$L31 (.text)
003f059e  local     $C$L32 (.text)
003f04ed  local     $C$L4 (.text)
003f0519  local     $C$L5 (.text)
003f0521  local     $C$L6 (.text)
003f0524  local     $C$L7 (.text)
003f052e  local     $C$L8 (.text)
003f0534  local     $C$L9 (.text)
00000000  local     .bss (.bss)
00000000  local     .data (.data)
003f04cc  local     .text (.text)
003f0583  global    _SCI_clearInterruptStatus (.text)
003f0569  global    _SCI_disableInterrupt (.text)
003f054f  global    _SCI_enableInterrupt (.text)
003f052f  global    _SCI_getInterruptStatus (.text)
003f050f  global    _SCI_readCharArray (.text)
003f04ee  global    _SCI_setConfig (.text)
003f04cc  global    _SCI_writeCharArray (.text)


================================================================================

sci_drv.obj

Run/Load            
Value     Binding   Name (Section)
--------  --------  ---------------
003f0aef  local     $C$L1 (.text)
003f0b07  local     $C$L2 (.text)
00000000  local     .bss (.bss)
00000000  local     .data (.data)
0000db80  local     .ebss:_SCI_ErrorRx (.ebss:_SCI_ErrorRx)
003f0a80  local     .text (.text)
003f09f0  local     .text:retain (.text:retain)
003f0a5c  global    _SCIA_RXFIFOISR (.text:retain)
003f0a38  global    _SCIA_TXFIFOISR (.text:retain)
003f0a14  global    _SCIB_RXFIFOISR (.text:retain)
003f09f0  global    _SCIB_TXFIFOISR (.text:retain)
0000db80  global    _SCI_ErrorRx (.ebss:_SCI_ErrorRx)
003f0ad1  global    _SCI_eGetModuleIndexFromBase (.text)
003f0b08  global    _SCI_u32GetBaseFromModuleIndex (.text)
003f0adc  global    _SCI_vErrorResetProcess (.text)
003f0a81  global    _SCI_vInitFIFO (.text)
003f0a80  global    _SCI_vInitFIFORegisters (.text)


================================================================================

sys_drv.obj

Run/Load            
Value     Binding   Name (Section)
--------  --------  ---------------
00000000  local     .bss (.bss)
00000000  local     .data (.data)
00000000  local     .text (.text)
00000000  global    _SYS_InitGPIO (.text)


================================================================================

sysctl.obj

Run/Load             
Value      Binding   Name (Section)
--------   --------  ---------------
003ee8d2   local     $C$L1 (.text)
003ee940   local     $C$L10 (.text)
003ee96f   local     $C$L11 (.text)
003ee9da   local     $C$L12 (.text)
003ee9e5   local     $C$L13 (.text)
003ee9ef   local     $C$L14 (.text)
003eea34   local     $C$L15 (.text)
003eea3c   local     $C$L16 (.text)
003eea71   local     $C$L17 (.text)
003eea74   local     $C$L18 (.text)
003eeaa0   local     $C$L19 (.text)
003ee8db   local     $C$L2 (.text)
003eeaa5   local     $C$L20 (.text)
003eeac1   local     $C$L21 (.text)
003eeac4   local     $C$L22 (.text)
003eead1   local     $C$L23 (.text)
003eeafc   local     $C$L24 (.text)
003eeb07   local     $C$L25 (.text)
003eeb0f   local     $C$L26 (.text)
003eeb61   local     $C$L27 (.text)
003eeb76   local     $C$L28 (.text)
003eeb8c   local     $C$L29 (.text)
003ee8e1   local     $C$L3 (.text)
003eebaf   local     $C$L30 (.text)
003eebb7   local     $C$L31 (.text)
003eebc7   local     $C$L32 (.text)
003eebde   local     $C$L33 (.text)
003eebe6   local     $C$L34 (.text)
003eebe7   local     $C$L35 (.text)
003eebeb   local     $C$L36 (.text)
003eec0e   local     $C$L37 (.text)
003eec1d   local     $C$L38 (.text)
003eec3b   local     $C$L39 (.text)
003ee8e3   local     $C$L4 (.text)
003eec3f   local     $C$L40 (.text)
003eec5a   local     $C$L41 (.text)
003eec6b   local     $C$L42 (.text)
003eec6f   local     $C$L43 (.text)
003eec84   local     $C$L44 (.text)
003eec93   local     $C$L45 (.text)
003eec99   local     $C$L46 (.text)
003eec9b   local     $C$L47 (.text)
003eeca0   local     $C$L48 (.text)
003eeca2   local     $C$L49 (.text)
003ee90a   local     $C$L5 (.text)
003eeca4   local     $C$L50 (.text)
003eeca6   local     $C$L51 (.text)
003eecac   local     $C$L52 (.text)
003eecb0   local     $C$L53 (.text)
003eecb3   local     $C$L54 (.text)
003eecb6   local     $C$L55 (.text)
003eecbc   local     $C$L56 (.text)
003eecc3   local     $C$L57 (.text)
003eecc8   local     $C$L58 (.text)
003eecd7   local     $C$L59 (.text)
003ee91e   local     $C$L6 (.text)
003eecd8   local     $C$L60 (.text)
003eecf3   local     $C$L61 (.text)
003ee92a   local     $C$L7 (.text)
003ee92e   local     $C$L8 (.text)
003ee939   local     $C$L9 (.text)
00000000   local     .bss (.bss)
00000000   local     .data (.data)
003ee8bd   local     .text (.text)
00008000   global    _SysCtl_delay (ramfuncs)
 003f1261            
003eecca   global    _SysCtl_getAuxClock (.text)
003eec2b   global    _SysCtl_getClock (.text)
003eec86   global    _SysCtl_getDeviceParametric (.text)
003eec71   global    _SysCtl_getLowSpeedClock (.text)
003ee8bd   global    _SysCtl_selectOscSource (.text)
003eead6   global    _SysCtl_setAuxClock (.text)
003ee8e5   global    _SysCtl_setClock (.text)
00008000   local     ramfuncs (ramfuncs)
 003f1261            


================================================================================

timer.obj

Run/Load            
Value     Binding   Name (Section)
--------  --------  ---------------
00000000  local     .bss (.bss)
00000000  local     .data (.data)
00000000  local     .text (.text)


================================================================================

tmr_drv.obj

Run/Load            
Value     Binding   Name (Section)
--------  --------  ---------------
003f032b  local     $C$L1 (.text)
003f05f3  local     $C$L10 (.text:retain)
003f05f8  local     $C$L11 (.text:retain)
003f05fb  local     $C$L12 (.text:retain)
003f0620  local     $C$L13 (.text:retain)
003f0625  local     $C$L14 (.text:retain)
003f0628  local     $C$L15 (.text:retain)
003f0637  local     $C$L16 (.text:retain)
003f03d9  local     $C$L17 (.text)
003f032f  local     $C$L2 (.text)
003f0332  local     $C$L3 (.text)
003f05c1  local     $C$L4 (.text:retain)
003f05c3  local     $C$L5 (.text:retain)
003f05c5  local     $C$L6 (.text:retain)
003f05c6  local     $C$L7 (.text:retain)
003f05c8  local     $C$L8 (.text:retain)
003f05d1  local     $C$L9 (.text:retain)
00000000  local     .bss (.bss)
003f339e  local     .cinit (.cinit)
003f3435  local     .cinit:_pfDelayedFunction (.cinit:_pfDelayedFunction)
003f3440  local     .cinit:_pfDelayedFunction_u8 (.cinit:_pfDelayedFunction_u8)
00000000  local     .data (.data)
0000db40  local     .ebss (.ebss)
0000dbb0  local     .ebss:_pfDelayedFunction (.ebss:_pfDelayedFunction)
0000dbb8  local     .ebss:_pfDelayedFunction_u8 (.ebss:_pfDelayedFunction_u8)
0000dc2a  local     .ebss:_u16TimerMainDelayedData (.ebss:_u16TimerMainDelayedData)
0000dc2e  local     .ebss:_u16TimerMainFunctionDelay (.ebss:_u16TimerMainFunctionDelay)
0000dc32  local     .ebss:_u16TimerMainFunctionDelayCompare (.ebss:_u16TimerMainFunctionDelayCompare)
0000dc36  local     .ebss:_u16TimerMainFunctionDelayCounter (.ebss:_u16TimerMainFunctionDelayCounter)
003f02fa  local     .text (.text)
003f059f  local     .text:retain (.text:retain)
003f03de  global    _TIMER_u16ResetTimerMainPeriod (.text)
003f03da  global    _TIMER_vGetTimerMainRollingCounter (.text)
003f03d1  global    _TIMER_vResetTimerMainFunctionDelayCounter (.text)
003f03cd  global    _TIMER_vSetupTimerMainCSMONFunction (.text)
003f03c8  global    _TIMER_vSetupTimerMainDelayedData (.text)
003f03bf  global    _TIMER_vSetupTimerMainDelayedFunction (.text)
003f03b6  global    _TIMER_vSetupTimerMainDelayedFunctionSendData (.text)
003f03a9  global    _TIMER_vSetupTimerMainFunctionDelay (.text)
003f039c  global    _TIMER_vSetupTimerMainFunctionDelayCompare (.text)
003f0642  global    _TMR1_ISR (.text:retain)
003f059f  global    _TMR2_ISR (.text:retain)
0000db47  global    _TMR_u16FreeRunTimerPrescaller (.ebss)
003f0398  global    _TMR_u16GetFreeRunTimerPrescaller (.text)
003f0363  global    _TMR_vInit (.text)
003f0336  global    _TMR_vInitCPUTimers (.text)
003f02fa  global    _configCPUTimer (.text)
0000db40  global    _cpuTimer0IntCount (.ebss)
0000db41  global    _cpuTimer1IntCount (.ebss)
0000db42  global    _cpuTimer2IntCount (.ebss)
0000db48  global    _hours (.ebss)
0000db49  global    _minutes (.ebss)
0000db4c  global    _pfCSMONFunction (.ebss)
0000dbb0  global    _pfDelayedFunction (.ebss:_pfDelayedFunction)
0000dbb8  global    _pfDelayedFunction_u8 (.ebss:_pfDelayedFunction_u8)
0000db4b  global    _second_Passed (.ebss)
0000db4a  global    _seconds (.ebss)
0000db45  global    _u16SecondCounter (.ebss)
0000db44  global    _u16SecondPeriod (.ebss)
0000dc2a  global    _u16TimerMainDelayedData (.ebss:_u16TimerMainDelayedData)
0000dc2e  global    _u16TimerMainFunctionDelay (.ebss:_u16TimerMainFunctionDelay)
0000dc32  global    _u16TimerMainFunctionDelayCompare (.ebss:_u16TimerMainFunctionDelayCompare)
0000dc36  global    _u16TimerMainFunctionDelayCounter (.ebss:_u16TimerMainFunctionDelayCounter)
0000db46  global    _u16TimerMainISRCounter (.ebss)
0000db43  global    _u16TimerMainPeriod (.ebss)


================================================================================

xbar.obj

Run/Load            
Value     Binding   Name (Section)
--------  --------  ---------------
00000058  local     $C$L1 (.text)
0000005b  local     $C$L2 (.text)
0000005d  local     $C$L3 (.text)
0000005e  local     $C$L4 (.text)
00000084  local     $C$L5 (.text)
00000086  local     $C$L6 (.text)
00000088  local     $C$L7 (.text)
00000089  local     $C$L8 (.text)
00000000  local     .bss (.bss)
00000000  local     .data (.data)
00000000  local     .text (.text)
00000073  global    _XBAR_clearInputFlag (.text)
00000048  global    _XBAR_getInputFlagStatus (.text)
00000024  global    _XBAR_setEPWMMuxConfig (.text)
00000000  global    _XBAR_setOutputMuxConfig (.text)


================================================================================

<linker>

<< No Symbols Defined >>


================================================================================

CSMON_C28xx.lib : csmon.obj

Run/Load            
Value     Binding   Name (Section)
--------  --------  ---------------
003ea1b4  local     $C$L1 (.text)
003ea239  local     $C$L10 (.text)
003ea93d  local     $C$L100 (.text)
003ea940  local     $C$L101 (.text)
003ea945  local     $C$L102 (.text)
003ea948  local     $C$L103 (.text)
003ea94d  local     $C$L104 (.text)
003ea950  local     $C$L105 (.text)
003ea953  local     $C$L106 (.text)
003ea955  local     $C$L107 (.text)
003ea957  local     $C$L108 (.text)
003ea962  local     $C$L109 (.text)
003ea245  local     $C$L11 (.text)
003ea964  local     $C$L110 (.text)
003ea978  local     $C$L111 (.text)
003ea982  local     $C$L112 (.text)
003ea996  local     $C$L113 (.text)
003ea998  local     $C$L114 (.text)
003ea999  local     $C$L115 (.text)
003ea9a4  local     $C$L116 (.text)
003ea9e6  local     $C$L117 (.text)
003eaa0d  local     $C$L118 (.text)
003eaa14  local     $C$L119 (.text)
003ea246  local     $C$L12 (.text)
003eaa39  local     $C$L120 (.text)
003eaad7  local     $C$L121 (.text)
003eaada  local     $C$L122 (.text)
003eaadf  local     $C$L123 (.text)
003eaafa  local     $C$L124 (.text)
003eab02  local     $C$L125 (.text)
003eab0a  local     $C$L126 (.text)
003eab0b  local     $C$L127 (.text)
003eab16  local     $C$L128 (.text)
003eab42  local     $C$L129 (.text)
003ea247  local     $C$L13 (.text)
003eab55  local     $C$L130 (.text)
003eab68  local     $C$L131 (.text)
003eab7b  local     $C$L132 (.text)
003eab7e  local     $C$L133 (.text)
003eab91  local     $C$L134 (.text)
003eab92  local     $C$L135 (.text)
003eab98  local     $C$L136 (.text)
003eabb2  local     $C$L137 (.text)
003eabc3  local     $C$L138 (.text)
003eabcc  local     $C$L139 (.text)
003ea24e  local     $C$L14 (.text)
003eabe3  local     $C$L140 (.text)
003eabef  local     $C$L141 (.text)
003eabf1  local     $C$L142 (.text)
003eabf7  local     $C$L143 (.text)
003eac11  local     $C$L144 (.text)
003eac28  local     $C$L145 (.text)
003eac3b  local     $C$L146 (.text)
003eac4e  local     $C$L147 (.text)
003eac54  local     $C$L148 (.text)
003eac67  local     $C$L149 (.text)
003ea264  local     $C$L15 (.text)
003eac68  local     $C$L150 (.text)
003eac6e  local     $C$L151 (.text)
003eac7d  local     $C$L152 (.text)
003eaca7  local     $C$L153 (.text)
003eacba  local     $C$L154 (.text)
003eaccd  local     $C$L155 (.text)
003eace0  local     $C$L156 (.text)
003eace3  local     $C$L157 (.text)
003eacf6  local     $C$L158 (.text)
003eacf7  local     $C$L159 (.text)
003ea270  local     $C$L16 (.text)
003eacfd  local     $C$L160 (.text)
003ead0c  local     $C$L161 (.text)
003ead35  local     $C$L162 (.text)
003ead48  local     $C$L163 (.text)
003ead5b  local     $C$L164 (.text)
003ead6e  local     $C$L165 (.text)
003ead71  local     $C$L166 (.text)
003ead84  local     $C$L167 (.text)
003ead85  local     $C$L168 (.text)
003ead8b  local     $C$L169 (.text)
003ea27a  local     $C$L17 (.text)
003ead9a  local     $C$L170 (.text)
003eadbd  local     $C$L171 (.text)
003eadc7  local     $C$L172 (.text)
003eadde  local     $C$L173 (.text)
003eade9  local     $C$L174 (.text)
003eadf9  local     $C$L175 (.text)
003eae00  local     $C$L176 (.text)
003eae06  local     $C$L177 (.text)
003eae1b  local     $C$L178 (.text)
003eae32  local     $C$L179 (.text)
003ea284  local     $C$L18 (.text)
003eae42  local     $C$L180 (.text)
003eae4a  local     $C$L181 (.text)
003eae84  local     $C$L182 (.text)
003eae8c  local     $C$L183 (.text)
003eae8f  local     $C$L184 (.text)
003eae98  local     $C$L185 (.text)
003eaeb9  local     $C$L186 (.text)
003eaebc  local     $C$L187 (.text)
003eaec2  local     $C$L188 (.text)
003eaec6  local     $C$L189 (.text)
003ea28e  local     $C$L19 (.text)
003eaecc  local     $C$L190 (.text)
003eaed0  local     $C$L191 (.text)
003eaed8  local     $C$L192 (.text)
003eaedc  local     $C$L193 (.text)
003eaef8  local     $C$L194 (.text)
003eaefe  local     $C$L195 (.text)
003eaf04  local     $C$L196 (.text)
003eaf1c  local     $C$L197 (.text)
003eaf25  local     $C$L198 (.text)
003eb0a2  local     $C$L199 (.text)
003ea1cc  local     $C$L2 (.text)
003ea29f  local     $C$L20 (.text)
003eb0a8  local     $C$L200 (.text)
003eb0b6  local     $C$L201 (.text)
003eb10a  local     $C$L202 (.text)
003eb110  local     $C$L203 (.text)
003eb11c  local     $C$L204 (.text)
003eb157  local     $C$L205 (.text)
003eb199  local     $C$L206 (.text)
003eb216  local     $C$L207 (.text)
003eb21b  local     $C$L208 (.text)
003eb21d  local     $C$L209 (.text)
003ea2a2  local     $C$L21 (.text)
003eb220  local     $C$L210 (.text)
003eb222  local     $C$L211 (.text)
003eb2a0  local     $C$L212 (.text)
003eb2d2  local     $C$L213 (.text)
003eb2d8  local     $C$L214 (.text)
003eb2e9  local     $C$L215 (.text)
003eb35e  local     $C$L216 (.text)
003eb3ae  local     $C$L217 (.text)
003eb3d5  local     $C$L218 (.text)
003eb3da  local     $C$L219 (.text)
003ea2ae  local     $C$L22 (.text)
003eb3f5  local     $C$L220 (.text)
003eb3fb  local     $C$L221 (.text)
003eb404  local     $C$L222 (.text)
003eb405  local     $C$L223 (.text)
003eb417  local     $C$L224 (.text)
003eb41e  local     $C$L225 (.text)
003eb423  local     $C$L226 (.text)
003eb426  local     $C$L227 (.text)
003eb42a  local     $C$L228 (.text)
003eb43d  local     $C$L229 (.text)
003ea2af  local     $C$L23 (.text)
003eb4c6  local     $C$L230 (.text)
003eb4e3  local     $C$L231 (.text)
003eb510  local     $C$L232 (.text)
003eb52d  local     $C$L233 (.text)
003eb531  local     $C$L234 (.text)
003eb53c  local     $C$L235 (.text)
003eb541  local     $C$L236 (.text)
003eb545  local     $C$L237 (.text)
003eb54a  local     $C$L238 (.text)
003eb54b  local     $C$L239 (.text)
003ea2b0  local     $C$L24 (.text)
003eb559  local     $C$L240 (.text)
003eb55a  local     $C$L241 (.text)
003eb56c  local     $C$L242 (.text)
003eb598  local     $C$L243 (.text)
003eb59b  local     $C$L244 (.text)
003eb5a3  local     $C$L245 (.text)
003eb5a6  local     $C$L246 (.text)
003eb5b6  local     $C$L247 (.text)
003eb5d1  local     $C$L248 (.text)
003eb5e3  local     $C$L249 (.text)
003ea2b7  local     $C$L25 (.text)
003eb604  local     $C$L250 (.text)
003eb60f  local     $C$L251 (.text)
003eb615  local     $C$L252 (.text)
003eb620  local     $C$L253 (.text)
003eb634  local     $C$L254 (.text)
003eb63f  local     $C$L255 (.text)
003eb645  local     $C$L256 (.text)
003eb650  local     $C$L257 (.text)
003eb667  local     $C$L258 (.text)
003eb670  local     $C$L259 (.text)
003ea2dc  local     $C$L26 (.text)
003eb67c  local     $C$L260 (.text)
003eb685  local     $C$L261 (.text)
003eb697  local     $C$L262 (.text)
003eb6e0  local     $C$L263 (.text)
003eb6eb  local     $C$L264 (.text)
003eb6ef  local     $C$L265 (.text)
003eb6f7  local     $C$L266 (.text)
003eb6fe  local     $C$L267 (.text)
003eb702  local     $C$L268 (.text)
003eb75b  local     $C$L269 (.text)
003ea2e6  local     $C$L27 (.text)
003eb78f  local     $C$L270 (.text)
003eb7c4  local     $C$L271 (.text)
003eb7e7  local     $C$L272 (.text)
003eb7f3  local     $C$L273 (.text)
003eb7fe  local     $C$L274 (.text)
003eb804  local     $C$L275 (.text)
003eb838  local     $C$L276 (.text)
003eb86b  local     $C$L277 (.text)
003eb86e  local     $C$L278 (.text)
003eb878  local     $C$L279 (.text)
003ea2f9  local     $C$L28 (.text)
003eb87c  local     $C$L280 (.text)
003eb888  local     $C$L281 (.text)
003eb893  local     $C$L282 (.text)
003eb899  local     $C$L283 (.text)
003eb8cc  local     $C$L284 (.text)
003eb8cf  local     $C$L285 (.text)
003eb8d1  local     $C$L286 (.text)
003eb8d7  local     $C$L287 (.text)
003eb8ed  local     $C$L288 (.text)
003eb8f5  local     $C$L289 (.text)
003ea304  local     $C$L29 (.text)
003eb8fd  local     $C$L290 (.text)
003eb904  local     $C$L291 (.text)
003eb90e  local     $C$L292 (.text)
003eb918  local     $C$L293 (.text)
003eb91c  local     $C$L294 (.text)
003eb92d  local     $C$L295 (.text)
003eb934  local     $C$L296 (.text)
003eb93f  local     $C$L297 (.text)
003eb940  local     $C$L298 (.text)
003eb942  local     $C$L299 (.text)
003ea1db  local     $C$L3 (.text)
003ea331  local     $C$L30 (.text)
003eb94d  local     $C$L300 (.text)
003eb954  local     $C$L301 (.text)
003eb978  local     $C$L302 (.text)
003eb97d  local     $C$L303 (.text)
003eb984  local     $C$L304 (.text)
003eb988  local     $C$L305 (.text)
003eba5c  local     $C$L306 (.text)
003eba73  local     $C$L307 (.text)
003eba7e  local     $C$L308 (.text)
003eba85  local     $C$L309 (.text)
003ea33d  local     $C$L31 (.text)
003eba8b  local     $C$L310 (.text)
003eba8d  local     $C$L311 (.text)
003eba9f  local     $C$L312 (.text)
003ebaa9  local     $C$L313 (.text)
003ebaaa  local     $C$L314 (.text)
003ebab2  local     $C$L315 (.text)
003ebac9  local     $C$L316 (.text)
003ebad4  local     $C$L317 (.text)
003ebae0  local     $C$L318 (.text)
003ebae1  local     $C$L319 (.text)
003ea344  local     $C$L32 (.text)
003ebae4  local     $C$L320 (.text)
003ebaf3  local     $C$L321 (.text)
003ebb06  local     $C$L322 (.text)
003ebb19  local     $C$L323 (.text)
003ebb2c  local     $C$L324 (.text)
003ebb30  local     $C$L325 (.text)
003ebb36  local     $C$L326 (.text)
003ebb38  local     $C$L327 (.text)
003ebb49  local     $C$L328 (.text)
003ebb58  local     $C$L329 (.text)
003ea376  local     $C$L33 (.text)
003ebb61  local     $C$L330 (.text)
003ebb63  local     $C$L331 (.text)
003ebb64  local     $C$L332 (.text)
003ebb7e  local     $C$L333 (.text)
003ebb83  local     $C$L334 (.text)
003ebbda  local     $C$L335 (.text)
003ebbdc  local     $C$L336 (.text)
003ebbf9  local     $C$L337 (.text)
003ebc07  local     $C$L338 (.text)
003ebc73  local     $C$L339 (.text)
003ea378  local     $C$L34 (.text)
003ebc74  local     $C$L340 (.text)
003ebc84  local     $C$L341 (.text)
003ebc97  local     $C$L342 (.text)
003ebcb6  local     $C$L343 (.text)
003ebcbb  local     $C$L344 (.text)
003ebcbe  local     $C$L345 (.text)
003ebccb  local     $C$L346 (.text)
003ebce5  local     $C$L347 (.text)
003ebcf8  local     $C$L348 (.text)
003ebd38  local     $C$L349 (.text)
003ea37e  local     $C$L35 (.text)
003ebd40  local     $C$L350 (.text)
003ebd45  local     $C$L351 (.text)
003ebd4d  local     $C$L352 (.text)
003ebd52  local     $C$L353 (.text)
003ebd5d  local     $C$L354 (.text)
003ebd6d  local     $C$L355 (.text)
003ebd74  local     $C$L356 (.text)
003ebd75  local     $C$L357 (.text)
003ebd95  local     $C$L358 (.text)
003ebdae  local     $C$L359 (.text)
003ea383  local     $C$L36 (.text)
003ebdd5  local     $C$L360 (.text)
003ebe1c  local     $C$L361 (.text)
003ebe20  local     $C$L362 (.text)
003ebe2c  local     $C$L363 (.text)
003ebe35  local     $C$L364 (.text)
003ebe38  local     $C$L365 (.text)
003ebe43  local     $C$L366 (.text)
003ebe46  local     $C$L367 (.text)
003ebedc  local     $C$L368 (.text)
003ebf03  local     $C$L369 (.text)
003ea389  local     $C$L37 (.text)
003ebf1b  local     $C$L370 (.text)
003ebf4a  local     $C$L371 (.text)
003ebf50  local     $C$L372 (.text)
003ebf70  local     $C$L373 (.text)
003ebf72  local     $C$L374 (.text)
003ebf86  local     $C$L375 (.text)
003ebf90  local     $C$L376 (.text)
003ebfa2  local     $C$L377 (.text)
003ebfa4  local     $C$L378 (.text)
003ebfb5  local     $C$L379 (.text)
003ea38f  local     $C$L38 (.text)
003ec00b  local     $C$L380 (.text)
003ec00d  local     $C$L381 (.text)
003ec00f  local     $C$L382 (.text)
003ec011  local     $C$L383 (.text)
003ec013  local     $C$L384 (.text)
003ec015  local     $C$L385 (.text)
003ec017  local     $C$L386 (.text)
003ec019  local     $C$L387 (.text)
003ec01b  local     $C$L388 (.text)
003ec01d  local     $C$L389 (.text)
003ea391  local     $C$L39 (.text)
003ec01f  local     $C$L390 (.text)
003ec021  local     $C$L391 (.text)
003ec023  local     $C$L392 (.text)
003ec025  local     $C$L393 (.text)
003ec027  local     $C$L394 (.text)
003ec029  local     $C$L395 (.text)
003ec02a  local     $C$L396 (.text)
003ec040  local     $C$L397 (.text)
003ea1fb  local     $C$L4 (.text)
003ea39f  local     $C$L40 (.text)
003ea3a1  local     $C$L41 (.text)
003ea3b1  local     $C$L42 (.text)
003ea3b3  local     $C$L43 (.text)
003ea3b7  local     $C$L44 (.text)
003ea3cf  local     $C$L45 (.text)
003ea3db  local     $C$L46 (.text)
003ea3e3  local     $C$L47 (.text)
003ea3fb  local     $C$L48 (.text)
003ea3fe  local     $C$L49 (.text)
003ea207  local     $C$L5 (.text)
003ea404  local     $C$L50 (.text)
003ea409  local     $C$L51 (.text)
003ea40f  local     $C$L52 (.text)
003ea415  local     $C$L53 (.text)
003ea417  local     $C$L54 (.text)
003ea425  local     $C$L55 (.text)
003ea427  local     $C$L56 (.text)
003ea437  local     $C$L57 (.text)
003ea439  local     $C$L58 (.text)
003ea43d  local     $C$L59 (.text)
003ea211  local     $C$L6 (.text)
003ea463  local     $C$L60 (.text)
003ea474  local     $C$L61 (.text)
003ea487  local     $C$L62 (.text)
003ea499  local     $C$L63 (.text)
003ea523  local     $C$L64 (.text)
003ea524  local     $C$L65 (.text)
003ea53a  local     $C$L66 (.text)
003ea5ce  local     $C$L67 (.text)
003ea64c  local     $C$L68 (.text)
003ea66f  local     $C$L69 (.text)
003ea21b  local     $C$L7 (.text)
003ea67f  local     $C$L70 (.text)
003ea725  local     $C$L71 (.text)
003ea72d  local     $C$L72 (.text)
003ea765  local     $C$L73 (.text)
003ea779  local     $C$L74 (.text)
003ea78d  local     $C$L75 (.text)
003ea790  local     $C$L76 (.text)
003ea797  local     $C$L77 (.text)
003ea79e  local     $C$L78 (.text)
003ea7a5  local     $C$L79 (.text)
003ea225  local     $C$L8 (.text)
003ea7a8  local     $C$L80 (.text)
003ea7b6  local     $C$L81 (.text)
003ea7e7  local     $C$L82 (.text)
003ea7e8  local     $C$L83 (.text)
003ea805  local     $C$L84 (.text)
003ea815  local     $C$L85 (.text)
003ea819  local     $C$L86 (.text)
003ea81b  local     $C$L87 (.text)
003ea867  local     $C$L88 (.text)
003ea884  local     $C$L89 (.text)
003ea236  local     $C$L9 (.text)
003ea889  local     $C$L90 (.text)
003ea8b1  local     $C$L91 (.text)
003ea8bf  local     $C$L92 (.text)
003ea8df  local     $C$L93 (.text)
003ea8e3  local     $C$L94 (.text)
003ea8e9  local     $C$L95 (.text)
003ea8f1  local     $C$L96 (.text)
003ea90d  local     $C$L97 (.text)
003ea912  local     $C$L98 (.text)
003ea915  local     $C$L99 (.text)
003f353c  local     $C$SW1 (.switch:_CSMON_eSetParameter)
00000000  local     .bss (.bss)
003f2f3b  local     .cinit (.cinit)
003f34e3  local     .cinit:_CSMON_abFileAutorization_RecordReadOnly (.cinit:_CSMON_abFileAutorization_RecordReadOnly)
003f34e9  local     .cinit:_CSMON_abFileAutorization_RecordStringData (.cinit:_CSMON_abFileAutorization_RecordStringData)
003f34ef  local     .cinit:_CSMON_au16FileAutorization_RecordOffsets (.cinit:_CSMON_au16FileAutorization_RecordOffsets)
003f3475  local     .cinit:_CSMON_au32FileAutorization_FunctionAfterWriteFileRecord (.cinit:_CSMON_au32FileAutorization_FunctionAfterWriteFileRecord)
003f3384  local     .cinit:_CSMON_au8FileParameterCountElementsSizeTable (.cinit:_CSMON_au8FileParameterCountElementsSizeTable)
003f348f  local     .cinit:_CSMON_au8FileParameterListElementsSizeTablePart1 (.cinit:_CSMON_au8FileParameterListElementsSizeTablePart1)
003f351d  local     .cinit:_CSMON_au8FileParameterListElementsSizeTablePart2 (.cinit:_CSMON_au8FileParameterListElementsSizeTablePart2)
003f3521  local     .cinit:_CSMON_au8FileParameterListElementsSizeTablePart3 (.cinit:_CSMON_au8FileParameterListElementsSizeTablePart3)
003f33ab  local     .cinit:_CSMON_au8FileParameterNumericElementsSizeTable (.cinit:_CSMON_au8FileParameterNumericElementsSizeTable)
003f3391  local     .cinit:_CSMON_au8FileRTCElementsSizeTable (.cinit:_CSMON_au8FileRTCElementsSizeTable)
003f3219  local     .cinit:_CSMON_au8FileRecorderConfigElementsSizeTable (.cinit:_CSMON_au8FileRecorderConfigElementsSizeTable)
003f31a7  local     .cinit:_CSMON_au8FileRecorderDataElementsSizeTable (.cinit:_CSMON_au8FileRecorderDataElementsSizeTable)
003f34f5  local     .cinit:_CSMON_au8FileRecorderDataElementsSizeTableUsedLength (.cinit:_CSMON_au8FileRecorderDataElementsSizeTableUsedLength)
003f3496  local     .cinit:_CSMON_au8FileRecorderStatusElementsSizeTable (.cinit:_CSMON_au8FileRecorderStatusElementsSizeTable)
003f3249  local     .cinit:_CSMON_au8FileScopeConfigurationElementsSizeTable (.cinit:_CSMON_au8FileScopeConfigurationElementsSizeTable)
003f3525  local     .cinit:_CSMON_au8FileScopeStatusElementsSizeTable (.cinit:_CSMON_au8FileScopeStatusElementsSizeTable)
00000000  local     .cinit:_CSMON_bPasswordGenerate (.cinit:_CSMON_bPasswordGenerate)
00000000  local     .cinit:_arr (.cinit:_arr)
00000000  local     .data (.data)
0000b540  local     .ebss (.ebss)
0000dc3a  local     .ebss:_CSMON_abFileAutorization_RecordReadOnly (.ebss:_CSMON_abFileAutorization_RecordReadOnly)
0000dc3d  local     .ebss:_CSMON_abFileAutorization_RecordStringData (.ebss:_CSMON_abFileAutorization_RecordStringData)
0000d93e  local     .ebss:_CSMON_abFlagProcessPassed (.ebss:_CSMON_abFlagProcessPassed)
0000ba40  local     .ebss:_CSMON_asFileParameterDefinitionsFromAccessLevel (.ebss:_CSMON_asFileParameterDefinitionsFromAccessLevel)
0000dc40  local     .ebss:_CSMON_au16FileAutorization_RecordOffsets (.ebss:_CSMON_au16FileAutorization_RecordOffsets)
0000d8ba  local     .ebss:_CSMON_au32FileAutorization_FunctionAfterWriteFileRecord (.ebss:_CSMON_au32FileAutorization_FunctionAfterWriteFileRecord)
0000d9fa  local     .ebss:_CSMON_au32FileParameterDefinitionsFileRecordElementsRealAddressTable (.ebss:_CSMON_au32FileParameterDefinitionsFileRecordElementsRealAddressTable)
0000dc43  local     .ebss:_CSMON_au32FileParameterDefinitionsFileRecordElementsRecordToRecordOffsetSizeBytesTable (.ebss:_CSMON_au32FileParameterDefinitionsFileRecordElementsRecordToRecordOffsetSizeBytesTable)
0000da7a  local     .ebss:_CSMON_au32FileParameterDefinitionsFileRecordElementsSizeTable (.ebss:_CSMON_au32FileParameterDefinitionsFileRecordElementsSizeTable)
0000db4e  local     .ebss:_CSMON_au8FileParameterCountElementsSizeTable (.ebss:_CSMON_au8FileParameterCountElementsSizeTable)
0000d9bc  local     .ebss:_CSMON_au8FileParameterListElementsSizeTablePart1 (.ebss:_CSMON_au8FileParameterListElementsSizeTablePart1)
0000d8b9  local     .ebss:_CSMON_au8FileParameterListElementsSizeTablePart2 (.ebss:_CSMON_au8FileParameterListElementsSizeTablePart2)
0000db7f  local     .ebss:_CSMON_au8FileParameterListElementsSizeTablePart3 (.ebss:_CSMON_au8FileParameterListElementsSizeTablePart3)
0000db76  local     .ebss:_CSMON_au8FileParameterNumericElementsSizeTable (.ebss:_CSMON_au8FileParameterNumericElementsSizeTable)
0000db58  local     .ebss:_CSMON_au8FileRTCElementsSizeTable (.ebss:_CSMON_au8FileRTCElementsSizeTable)
0000d808  local     .ebss:_CSMON_au8FileRecorderConfigElementsSizeTable (.ebss:_CSMON_au8FileRecorderConfigElementsSizeTable)
0000d980  local     .ebss:_CSMON_au8FileRecorderDataElementsSizeTable (.ebss:_CSMON_au8FileRecorderDataElementsSizeTable)
0000dc46  local     .ebss:_CSMON_au8FileRecorderDataElementsSizeTableUsedLength (.ebss:_CSMON_au8FileRecorderDataElementsSizeTableUsedLength)
0000dbfc  local     .ebss:_CSMON_au8FileRecorderStatusElementsSizeTable (.ebss:_CSMON_au8FileRecorderStatusElementsSizeTable)
0000d914  local     .ebss:_CSMON_au8FileScopeConfigurationElementsSizeTable (.ebss:_CSMON_au8FileScopeConfigurationElementsSizeTable)
0000dc55  local     .ebss:_CSMON_au8FileScopeStatusElementsSizeTable (.ebss:_CSMON_au8FileScopeStatusElementsSizeTable)
00000000  local     .ebss:_CSMON_bPasswordGenerate (.ebss:_CSMON_bPasswordGenerate)
00000000  local     .ebss:_CSMON_nHashOutputLength (.ebss:_CSMON_nHashOutputLength)
00000000  local     .ebss:_arr (.ebss:_arr)
0000d600  local     .ebss:_sRecConfigParam (.ebss:_sRecConfigParam)
0000bf80  local     .ebss:_sScopeConfigParam (.ebss:_sScopeConfigParam)
003f2bb2  local     .econst:_$P$T44$1 (.econst:_$P$T44$1)
003f2b46  local     .econst:_$P$T45$2 (.econst:_$P$T45$2)
00000000  local     .econst:_$P$T46$3 (.econst:_$P$T46$3)
003f29ee  local     .econst:_CSMON_asAccessLevelPasswords (.econst:_CSMON_asAccessLevelPasswords)
003f2b76  local     .econst:_CSMON_au8FileImplementedFunctionCodes (.econst:_CSMON_au8FileImplementedFunctionCodes)
003f2bbc  local     .econst:_CSMON_au8FileParameterListElementsCountInPartTable (.econst:_CSMON_au8FileParameterListElementsCountInPartTable)
003f353c  local     .switch:_CSMON_eSetParameter (.switch:_CSMON_eSetParameter)
003ea140  local     .text (.text)
003f2bb2  local     _$P$T44$1 (.econst:_$P$T44$1)
003f2b46  local     _$P$T45$2 (.econst:_$P$T45$2)
00000000  local     _$P$T46$3 (.econst:_$P$T46$3)
0000dc3a  global    _CSMON_abFileAutorization_RecordReadOnly (.ebss:_CSMON_abFileAutorization_RecordReadOnly)
0000dc3d  global    _CSMON_abFileAutorization_RecordStringData (.ebss:_CSMON_abFileAutorization_RecordStringData)
0000d93e  global    _CSMON_abFlagProcessPassed (.ebss:_CSMON_abFlagProcessPassed)
003f29ee  global    _CSMON_asAccessLevelPasswords (.econst:_CSMON_asAccessLevelPasswords)
0000ba40  global    _CSMON_asFileParameterDefinitionsFromAccessLevel (.ebss:_CSMON_asFileParameterDefinitionsFromAccessLevel)
0000dc40  global    _CSMON_au16FileAutorization_RecordOffsets (.ebss:_CSMON_au16FileAutorization_RecordOffsets)
0000d8ba  global    _CSMON_au32FileAutorization_FunctionAfterWriteFileRecord (.ebss:_CSMON_au32FileAutorization_FunctionAfterWriteFileRecord)
0000d9fa  global    _CSMON_au32FileParameterDefinitionsFileRecordElementsRealAddressTable (.ebss:_CSMON_au32FileParameterDefinitionsFileRecordElementsRealAddressTable)
0000dc43  global    _CSMON_au32FileParameterDefinitionsFileRecordElementsRecordToRecordOffsetSizeBytesTable (.ebss:_CSMON_au32FileParameterDefinitionsFileRecordElementsRecordToRecordOffsetSizeBytesTable)
0000da7a  global    _CSMON_au32FileParameterDefinitionsFileRecordElementsSizeTable (.ebss:_CSMON_au32FileParameterDefinitionsFileRecordElementsSizeTable)
003f2b76  global    _CSMON_au8FileImplementedFunctionCodes (.econst:_CSMON_au8FileImplementedFunctionCodes)
0000db4e  global    _CSMON_au8FileParameterCountElementsSizeTable (.ebss:_CSMON_au8FileParameterCountElementsSizeTable)
003f2bbc  global    _CSMON_au8FileParameterListElementsCountInPartTable (.econst:_CSMON_au8FileParameterListElementsCountInPartTable)
0000d9bc  global    _CSMON_au8FileParameterListElementsSizeTablePart1 (.ebss:_CSMON_au8FileParameterListElementsSizeTablePart1)
0000d8b9  global    _CSMON_au8FileParameterListElementsSizeTablePart2 (.ebss:_CSMON_au8FileParameterListElementsSizeTablePart2)
0000db7f  global    _CSMON_au8FileParameterListElementsSizeTablePart3 (.ebss:_CSMON_au8FileParameterListElementsSizeTablePart3)
0000db76  global    _CSMON_au8FileParameterNumericElementsSizeTable (.ebss:_CSMON_au8FileParameterNumericElementsSizeTable)
0000db58  global    _CSMON_au8FileRTCElementsSizeTable (.ebss:_CSMON_au8FileRTCElementsSizeTable)
0000d808  global    _CSMON_au8FileRecorderConfigElementsSizeTable (.ebss:_CSMON_au8FileRecorderConfigElementsSizeTable)
0000d980  global    _CSMON_au8FileRecorderDataElementsSizeTable (.ebss:_CSMON_au8FileRecorderDataElementsSizeTable)
0000dc46  global    _CSMON_au8FileRecorderDataElementsSizeTableUsedLength (.ebss:_CSMON_au8FileRecorderDataElementsSizeTableUsedLength)
0000dbfc  global    _CSMON_au8FileRecorderStatusElementsSizeTable (.ebss:_CSMON_au8FileRecorderStatusElementsSizeTable)
0000d914  global    _CSMON_au8FileScopeConfigurationElementsSizeTable (.ebss:_CSMON_au8FileScopeConfigurationElementsSizeTable)
0000dc55  global    _CSMON_au8FileScopeStatusElementsSizeTable (.ebss:_CSMON_au8FileScopeStatusElementsSizeTable)
003eb3df  global    _CSMON_bAutorizationPasswordCheck (.text)
003ea15f  global    _CSMON_bCheckValidDateTime (.text)
0000b546  global    _CSMON_bGetDateTimeAutorization (.ebss)
0000b548  global    _CSMON_bGetDateTimeRequest (.ebss)
00000000  global    _CSMON_bPasswordGenerate (.ebss:_CSMON_bPasswordGenerate)
003ebfd6  global    _CSMON_bPasswordGenerateFromHash (.text)
0000b54b  global    _CSMON_bResetMaxMeasure (.ebss)
0000b561  global    _CSMON_bRunningInitialization (.ebss)
0000b547  global    _CSMON_bSetDateTimeRequest (.ebss)
0000b556  global    _CSMON_bUseAccessLevelForHoldingRegistersAndCoils (.ebss)
0000b557  global    _CSMON_bUseAccessLevelForInputRegistersAndCoils (.ebss)
0000b55e  global    _CSMON_bUseDisconnectOnTimeout (.ebss)
0000b54d  global    _CSMON_bWatchdogCalcNeeded (.ebss)
003ebfb8  global    _CSMON_eApplyParameterChanges (.text)
003ebfa7  global    _CSMON_eGetParameterCountInRecorder (.text)
003ebf89  global    _CSMON_eGetParameterInRecorderAtPosition (.text)
003ebf74  global    _CSMON_eGetRecorderConfiguration (.text)
003ebf58  global    _CSMON_eGetRecorderTriggerAtPosition (.text)
003ebd77  global    _CSMON_eInit (.text)
003ebbff  global    _CSMON_eProcess (.text)
003ebbfb  global    _CSMON_eRegisterWriteParElementCallbackFunction (.text)
003ebbe6  global    _CSMON_eResetParameterTable (.text)
003ebbe1  global    _CSMON_eSetAutoServiceWatchdogInternalSlowCalculationsInMainLoop (.text)
003ebb8f  global    _CSMON_eSetExternalRecorderUsage (.text)
003ebb8a  global    _CSMON_eSetFirmwareApplicationVersion (.text)
003ebb77  global    _CSMON_eSetFlagProcessPassed (.text)
003ebb73  global    _CSMON_eSetInternalTimerPeriod (.text)
003ebb6e  global    _CSMON_eSetMaxTimeInISR (.text)
003ebb69  global    _CSMON_eSetMinGuaranteedTimeBetweenTwoISRs (.text)
003eb69a  global    _CSMON_eSetParameter (.text)
003eb67f  global    _CSMON_eSetParameterCountInRecorder (.text)
003eb669  global    _CSMON_eSetParameterCountInScope (.text)
003eb637  global    _CSMON_eSetParameterInRecorderAtPosition (.text)
003eb607  global    _CSMON_eSetParameterInScopeAtPosition (.text)
003eb5e6  global    _CSMON_eSetRecorderConfiguration (.text)
003eb5ab  global    _CSMON_eSetRecorderConfigurationSkipSamples (.text)
003eb55e  global    _CSMON_eSetRecorderTriggerAtPosition (.text)
003eb555  global    _CSMON_eSetServerOnStatus (.text)
003eb551  global    _CSMON_eSetTimerPeriodISRFunctionRegister (.text)
003ea822  global    _CSMON_eSetUpRecParam (.text)
003eb4f3  global    _CSMON_eSetUpScopeParam (.text)
003eb4ef  global    _CSMON_eSetupWriteParElementFixedArguments (.text)
00000000  global    _CSMON_nHashOutputLength (.ebss:_CSMON_nHashOutputLength)
0000b5ae  global    _CSMON_pasFileParameterList (.ebss)
0000b5b0  global    _CSMON_pasFileParameterShortName (.ebss)
0000b5be  global    _CSMON_pauFileParameterNumeric (.ebss)
0000b5b4  global    _CSMON_psFileParameterAux (.ebss)
0000b5b6  global    _CSMON_pu32FileParameterReserved (.ebss)
0000b5b2  global    _CSMON_pu32FileParameterString (.ebss)
0000b5bc  global    _CSMON_pu32HoldingRegistersAccessTableInRam (.ebss)
0000b5b8  global    _CSMON_pu32HoldingRegistersAddressTable (.ebss)
0000b5ba  global    _CSMON_pu32HoldingRegistersAddressTableInRam (.ebss)
0000b5aa  global    _CSMON_s32MaxTimeProcessAllowedCalc_Ticks (.ebss)
0000b5e4  global    _CSMON_sDateTime (.ebss)
0000b5f0  global    _CSMON_sDateTimeApplication (.ebss)
0000b5d8  global    _CSMON_sDateTimeDefault (.ebss)
0000b610  global    _CSMON_sFileAutorization (.ebss)
0000b640  global    _CSMON_sFileParameterAccessList (.ebss)
0000b600  global    _CSMON_sFileParameterCount (.ebss)
0000b5ca  global    _CSMON_sFileProtocolVersion (.ebss)
0000b558  global    _CSMON_u16CurrentAccessLevelPrev (.ebss)
0000b559  global    _CSMON_u16FileParameterFillCount (.ebss)
0000b55b  global    _CSMON_u16FileParameterListCount (.ebss)
0000b55c  global    _CSMON_u16FileParameterNameCount (.ebss)
0000b55d  global    _CSMON_u16FileParameterNumeric (.ebss)
0000b55a  global    _CSMON_u16FileParameterUseMaxCnt (.ebss)
003ea7a9  global    _CSMON_u16FindIndexParameterTable (.text)
0000b540  global    _CSMON_u16MaskSetupRecorderParam (.ebss)
0000b541  global    _CSMON_u16MaskStartRecorderParam (.ebss)
0000b542  global    _CSMON_u16MaskStopRecorderParam (.ebss)
0000b54f  global    _CSMON_u16MaxTimeInISR_usec (.ebss)
0000b551  global    _CSMON_u16MaxTimeTillWdtClear_usec (.ebss)
0000b552  global    _CSMON_u16MinTimeProcessAllowedNeeded_usec (.ebss)
0000b550  global    _CSMON_u16MinTimeProcessExit_usec (.ebss)
0000b560  global    _CSMON_u16NoMessageTimeoutOld_msec (.ebss)
0000b55f  global    _CSMON_u16NoMessageTimeout_msec (.ebss)
003eb4ea  global    _CSMON_u16ParametersAccessListIndexGenerate (.text)
0000b549  global    _CSMON_u16SCIErrorPercent (.ebss)
0000b54e  global    _CSMON_u16WatchdogPrescaler (.ebss)
0000b582  global    _CSMON_u32FreeRunTimerAccessChangeBegin (.ebss)
0000b584  global    _CSMON_u32FreeRunTimerAccessChangeEnd (.ebss)
0000b586  global    _CSMON_u32FreeRunTimerAccessChangeMax (.ebss)
0000b56a  global    _CSMON_u32FreeRunTimerCheckSumListBegin (.ebss)
0000b56c  global    _CSMON_u32FreeRunTimerCheckSumListEnd (.ebss)
0000b56e  global    _CSMON_u32FreeRunTimerCheckSumListMax (.ebss)
0000b570  global    _CSMON_u32FreeRunTimerCheckSumNameBegin (.ebss)
0000b572  global    _CSMON_u32FreeRunTimerCheckSumNameEnd (.ebss)
0000b574  global    _CSMON_u32FreeRunTimerCheckSumNameMax (.ebss)
0000b576  global    _CSMON_u32FreeRunTimerCheckSumNumbBegin (.ebss)
0000b578  global    _CSMON_u32FreeRunTimerCheckSumNumbEnd (.ebss)
0000b57a  global    _CSMON_u32FreeRunTimerCheckSumNumbMax (.ebss)
0000b57c  global    _CSMON_u32FreeRunTimerCheckSumStrgBegin (.ebss)
0000b57e  global    _CSMON_u32FreeRunTimerCheckSumStrgEnd (.ebss)
0000b580  global    _CSMON_u32FreeRunTimerCheckSumStrgMax (.ebss)
0000b5c4  global    _CSMON_u32FreeRunTimerDiff (.ebss)
0000b5c0  global    _CSMON_u32FreeRunTimerNow (.ebss)
0000b58c  global    _CSMON_u32FreeRunTimerPasswordHashBegin (.ebss)
0000b58e  global    _CSMON_u32FreeRunTimerPasswordHashEnd (.ebss)
0000b590  global    _CSMON_u32FreeRunTimerPasswordHashMax (.ebss)
0000b588  global    _CSMON_u32FreeRunTimerPrepareFileParameterAccessListEnd (.ebss)
0000b58a  global    _CSMON_u32FreeRunTimerPrepareFileParameterAccessListMax (.ebss)
0000b5c2  global    _CSMON_u32FreeRunTimerPrev (.ebss)
0000b592  global    _CSMON_u32FreeRunTimerProcessBegin (.ebss)
0000b596  global    _CSMON_u32FreeRunTimerProcessEnd (.ebss)
0000b598  global    _CSMON_u32FreeRunTimerProcessMax (.ebss)
0000b594  global    _CSMON_u32FreeRunTimerProcessNow (.ebss)
003eb4e6  global    _CSMON_u32GetBaudError_PPM (.text)
003eb4ce  global    _CSMON_u32GetFreeRunningTimerMicroseconds (.text)
003eab17  global    _CSMON_u32GetFreeRunningTimerTicks (.text)
003eb4cb  global    _CSMON_u32GetModbusMessageCounterRegisterRealAddress (.text)
003eae1e  global    _CSMON_u32GetParameterAuxCheckSum (.text)
003eb42b  global    _CSMON_u32GetParameterCheckSum (.text)
003eab1c  global    _CSMON_u32GetParameterListCheckSum (.text)
003ead10  global    _CSMON_u32GetParameterNumbCheckSum (.text)
003eac82  global    _CSMON_u32GetParameterShortNameCheckSum (.text)
003ead9e  global    _CSMON_u32GetParameterStringCheckSum (.text)
003ea7ea  global    _CSMON_u32GetRealAddressAndSizeOffsetFromParameter (.text)
0000b59e  global    _CSMON_u32MaxTimeInISR_Ticks (.ebss)
0000b5ac  global    _CSMON_u32MaxTimeProcessAllowed_Ticks (.ebss)
0000b5a0  global    _CSMON_u32MaxTimeProcess_Ticks (.ebss)
0000b5a2  global    _CSMON_u32MaxTimeTillWdtClearISRs (.ebss)
0000b5a6  global    _CSMON_u32MaxTimeTillWdtClear_Ticks (.ebss)
0000b5a8  global    _CSMON_u32MinTimeProcessAllowedNeeded_Ticks (.ebss)
0000b5a4  global    _CSMON_u32MinTimeProcessExit_Ticks (.ebss)
0000b5c6  global    _CSMON_u32NoMessageTime (.ebss)
0000b5c8  global    _CSMON_u32NoMessageTimeout_Ticks (.ebss)
0000b568  global    _CSMON_u32SCIErrorPPM (.ebss)
0000b59c  global    _CSMON_u32WatchdogPeriod_Ticks (.ebss)
0000b59a  global    _CSMON_u32WatchdogPeriod_usec (.ebss)
003ea525  global    _CSMON_vAddSetupRecorderParameterMask (.text)
003eb407  global    _CSMON_vAutorizationReset (.text)
003ea99e  global    _CSMON_vCheckLoadRecorderTable (.text)
003eb2de  global    _CSMON_vCheckSaveRecorderTable (.text)
003eae50  global    _CSMON_vFileParameterCountCheckSumUpdate (.text)
003eb1eb  global    _CSMON_vFileRecoderStatusFix (.text)
003eb1d9  global    _CSMON_vInitHoldingRegistersTableChanges (.text)
003eb119  global    _CSMON_vInitRecorders (.text)
003eb111  global    _CSMON_vInitScopes (.text)
003eb0ad  global    _CSMON_vLoadRecorderConfigTrigger (.text)
003eaf0f  global    _CSMON_vLoadRecorderConfiguration (.text)
003eae6b  global    _CSMON_vPrepareFileParameterAccessList (.text)
003eaae9  global    _CSMON_vRecorderParamSetupProcess (.text)
003ea74f  global    _CSMON_vRecorderParamStartStopProcess (.text)
003ea728  global    _CSMON_vSaveRecorderConfig (.text)
003ea674  global    _CSMON_vSaveRecorderConfigTrigger (.text)
003ea529  global    _CSMON_vSaveRecorderConfiguration (.text)
003ea4b3  global    _CSMON_vSetDateTimeAutorization (.text)
003ea4ae  global    _CSMON_vSetDateTimeRequest (.text)
003ea4aa  global    _CSMON_vSetSetupRecorderParameterMask (.text)
003ea4a6  global    _CSMON_vSetStartRecorderParameterMask (.text)
003ea4a2  global    _CSMON_vSetStopRecorderParameterMask (.text)
003ea449  global    _CSMON_vSetupHoldingRegistersAndCoilsAddressTableAccessAll (.text)
003ea30d  global    _CSMON_vSetupHoldingRegistersAndCoilsAddressTableFromCSMONParameterList (.text)
003ea2c2  global    _CSMON_vSetupInputRegistersAndCoilsAddressTableAccessAll (.text)
003ea1dd  global    _CSMON_vSetupInputRegistersAndCoilsAddressTableFromCSMONParameterList (.text)
003ea1b6  global    _CSMON_vUpdateDateTimeFromApplication (.text)
003ea140  global    _HMRECPRM_vGetDateTime (.text)
00000000  global    _arr (.ebss:_arr)
0000b562  global    _arr2 (.ebss)
0000b54c  global    _bRunOnceGetSavedRecorderState (.ebss)
0000b54a  global    _bServiceWatchdog (.ebss)
0000b555  global    _bSkipProcessFlag (.ebss)
0000b543  global    _eResponseCodeStartRecParam0 (.ebss)
0000b544  global    _eResponseCodeStartRecParam1 (.ebss)
0000b545  global    _eResponseCodeStartRecParam2 (.ebss)
0000b5cd  global    _sHashKey (.ebss)
0000d600  global    _sRecConfigParam (.ebss:_sRecConfigParam)
0000bf80  global    _sScopeConfigParam (.ebss:_sScopeConfigParam)
0000b553  global    _u16SkipProcessCounter (.ebss)
0000b554  global    _u16SkipProcessTag (.ebss)
0000b566  global    _u32FreeRunTimerSysClkDiv (.ebss)
0000b564  global    _u32FreeRunTimerSysClkMHz (.ebss)


================================================================================

CSMON_C28xx.lib : modbusreg.obj

Run/Load            
Value     Binding   Name (Section)
--------  --------  ---------------
003ec09f  local     $C$L1 (.text)
003ec23b  local     $C$L10 (.text)
003ec2ac  local     $C$L11 (.text)
003ec2b0  local     $C$L12 (.text)
003ec330  local     $C$L13 (.text)
003ec334  local     $C$L14 (.text)
003ec3b3  local     $C$L15 (.text)
003ec3b7  local     $C$L16 (.text)
003ec43e  local     $C$L17 (.text)
003ec442  local     $C$L18 (.text)
003ec572  local     $C$L19 (.text)
003ec0a5  local     $C$L2 (.text)
003ec576  local     $C$L20 (.text)
003ec5f8  local     $C$L21 (.text)
003ec5fc  local     $C$L22 (.text)
003ec682  local     $C$L23 (.text)
003ec686  local     $C$L24 (.text)
003ec6d0  local     $C$L25 (.text)
003ec6e1  local     $C$L26 (.text)
003ec780  local     $C$L27 (.text)
003ec791  local     $C$L28 (.text)
003ec82b  local     $C$L29 (.text)
003ec104  local     $C$L3 (.text)
003ec83c  local     $C$L30 (.text)
003ec8fb  local     $C$L31 (.text)
003ec8ff  local     $C$L32 (.text)
003ec981  local     $C$L33 (.text)
003ec985  local     $C$L34 (.text)
003ecc06  local     $C$L35 (.text)
003ecc11  local     $C$L36 (.text)
003ecc1e  local     $C$L37 (.text)
003ecc2b  local     $C$L38 (.text)
003ecc38  local     $C$L39 (.text)
003ec108  local     $C$L4 (.text)
003ecc45  local     $C$L40 (.text)
003ecc52  local     $C$L41 (.text)
003ecc5f  local     $C$L42 (.text)
003ecd65  local     $C$L43 (.text)
003ecd76  local     $C$L44 (.text)
003ecd92  local     $C$L45 (.text)
003ecdbd  local     $C$L46 (.text)
003ec168  local     $C$L5 (.text)
003ec16c  local     $C$L6 (.text)
003ec1cc  local     $C$L7 (.text)
003ec1d0  local     $C$L8 (.text)
003ec237  local     $C$L9 (.text)
00000000  local     .bss (.bss)
003f312f  local     .cinit (.cinit)
003f3501  local     .cinit:_HMMODBUS_u32CoilAddressTableInRam (.cinit:_HMMODBUS_u32CoilAddressTableInRam)
003f3529  local     .cinit:_MODBUSREG_asFileTable (.cinit:_MODBUSREG_asFileTable)
003f352d  local     .cinit:_MODBUSREG_asQueueTable (.cinit:_MODBUSREG_asQueueTable)
003f349d  local     .cinit:_MODBUSREG_au8DeviceIDMajorMinorRevision (.cinit:_MODBUSREG_au8DeviceIDMajorMinorRevision)
003f3358  local     .cinit:_MODBUSREG_au8DeviceIDModelName (.cinit:_MODBUSREG_au8DeviceIDModelName)
003f34a4  local     .cinit:_MODBUSREG_au8DeviceIDProductCode (.cinit:_MODBUSREG_au8DeviceIDProductCode)
003f33b7  local     .cinit:_MODBUSREG_au8DeviceIDProductName (.cinit:_MODBUSREG_au8DeviceIDProductName)
003f331f  local     .cinit:_MODBUSREG_au8DeviceIDUserApplicationName (.cinit:_MODBUSREG_au8DeviceIDUserApplicationName)
003f33c3  local     .cinit:_MODBUSREG_au8DeviceIDUserReserve0 (.cinit:_MODBUSREG_au8DeviceIDUserReserve0)
003f33cf  local     .cinit:_MODBUSREG_au8DeviceIDUserReserve1 (.cinit:_MODBUSREG_au8DeviceIDUserReserve1)
003f33db  local     .cinit:_MODBUSREG_au8DeviceIDUserReserve2 (.cinit:_MODBUSREG_au8DeviceIDUserReserve2)
003f33e7  local     .cinit:_MODBUSREG_au8DeviceIDVendorName (.cinit:_MODBUSREG_au8DeviceIDVendorName)
003f3332  local     .cinit:_MODBUSREG_au8DeviceIDVendorUrl (.cinit:_MODBUSREG_au8DeviceIDVendorUrl)
003f3345  local     .cinit:_MODBUSREG_au8ServerIDData (.cinit:_MODBUSREG_au8ServerIDData)
003f3506  local     .cinit:_MODBUSREG_sInputCoilAddressTableInRam (.cinit:_MODBUSREG_sInputCoilAddressTableInRam)
003f306c  local     .cinit:_QueueTestTable (.cinit:_QueueTestTable)
00000000  local     .data (.data)
0000b516  local     .ebss (.ebss)
0000dbd8  local     .ebss:_HMMODBUS_u32CoilAddressTableInRam (.ebss:_HMMODBUS_u32CoilAddressTableInRam)
0000b000  local     .ebss:_MODBUSREG_asFileTable (.ebss:_MODBUSREG_asFileTable)
0000da00  local     .ebss:_MODBUSREG_asQueueTable (.ebss:_MODBUSREG_asQueueTable)
0000da80  local     .ebss:_MODBUSREG_au8DeviceIDMajorMinorRevision (.ebss:_MODBUSREG_au8DeviceIDMajorMinorRevision)
0000da90  local     .ebss:_MODBUSREG_au8DeviceIDModelName (.ebss:_MODBUSREG_au8DeviceIDModelName)
0000daa0  local     .ebss:_MODBUSREG_au8DeviceIDProductCode (.ebss:_MODBUSREG_au8DeviceIDProductCode)
0000dab0  local     .ebss:_MODBUSREG_au8DeviceIDProductName (.ebss:_MODBUSREG_au8DeviceIDProductName)
0000dac0  local     .ebss:_MODBUSREG_au8DeviceIDUserApplicationName (.ebss:_MODBUSREG_au8DeviceIDUserApplicationName)
0000dad0  local     .ebss:_MODBUSREG_au8DeviceIDUserReserve0 (.ebss:_MODBUSREG_au8DeviceIDUserReserve0)
0000dae0  local     .ebss:_MODBUSREG_au8DeviceIDUserReserve1 (.ebss:_MODBUSREG_au8DeviceIDUserReserve1)
0000daf0  local     .ebss:_MODBUSREG_au8DeviceIDUserReserve2 (.ebss:_MODBUSREG_au8DeviceIDUserReserve2)
0000db00  local     .ebss:_MODBUSREG_au8DeviceIDVendorName (.ebss:_MODBUSREG_au8DeviceIDVendorName)
0000db10  local     .ebss:_MODBUSREG_au8DeviceIDVendorUrl (.ebss:_MODBUSREG_au8DeviceIDVendorUrl)
0000db20  local     .ebss:_MODBUSREG_au8ServerIDData (.ebss:_MODBUSREG_au8ServerIDData)
0000dbde  local     .ebss:_MODBUSREG_sInputCoilAddressTableInRam (.ebss:_MODBUSREG_sInputCoilAddressTableInRam)
0000dc56  local     .ebss:_MODBUSREG_sInputRegisterAccessTableInRam (.ebss:_MODBUSREG_sInputRegisterAccessTableInRam)
0000dc06  local     .ebss:_MODBUSREG_sInputRegisterAddressTableInRam (.ebss:_MODBUSREG_sInputRegisterAddressTableInRam)
0000c000  local     .ebss:_MODBUSREG_u32RegisterAccessTableInRam (.ebss:_MODBUSREG_u32RegisterAccessTableInRam)
0000d540  local     .ebss:_QueueTestTable (.ebss:_QueueTestTable)
003f2bbf  local     .econst:_HMMODBUS_u32CoilAddressTable (.econst:_HMMODBUS_u32CoilAddressTable)
003f2bc2  local     .econst:_MODBUSREG_sInputCoilAddressTable (.econst:_MODBUSREG_sInputCoilAddressTable)
003f2bc5  local     .econst:_MODBUSREG_sInputRegisterAddressTable (.econst:_MODBUSREG_sInputRegisterAddressTable)
003ec044  local     .text (.text)
0000b51a  global    _CoilTest (.ebss)
0000b51b  global    _HMMODBUS_u16RegisterAddressTableControlParametersStartIndex (.ebss)
003f2bbf  global    _HMMODBUS_u32CoilAddressTable (.econst:_HMMODBUS_u32CoilAddressTable)
0000dbd8  global    _HMMODBUS_u32CoilAddressTableInRam (.ebss:_HMMODBUS_u32CoilAddressTableInRam)
0000b519  global    _InputCoilDummy (.ebss)
0000b518  global    _InputRegisterDummy (.ebss)
003ec0a6  global    _MODBUSREG_AddressTablesInit (.text)
003ecd97  global    _MODBUSREG_FileRecorderElementSizeTableUsedSizeUpdateInit (.text)
003ecd40  global    _MODBUSREG_FileRecorderExternalUpdateInit (.text)
0000b000  global    _MODBUSREG_asFileTable (.ebss:_MODBUSREG_asFileTable)
0000da00  global    _MODBUSREG_asQueueTable (.ebss:_MODBUSREG_asQueueTable)
0000da80  global    _MODBUSREG_au8DeviceIDMajorMinorRevision (.ebss:_MODBUSREG_au8DeviceIDMajorMinorRevision)
0000da90  global    _MODBUSREG_au8DeviceIDModelName (.ebss:_MODBUSREG_au8DeviceIDModelName)
0000daa0  global    _MODBUSREG_au8DeviceIDProductCode (.ebss:_MODBUSREG_au8DeviceIDProductCode)
0000dab0  global    _MODBUSREG_au8DeviceIDProductName (.ebss:_MODBUSREG_au8DeviceIDProductName)
0000dac0  global    _MODBUSREG_au8DeviceIDUserApplicationName (.ebss:_MODBUSREG_au8DeviceIDUserApplicationName)
0000dad0  global    _MODBUSREG_au8DeviceIDUserReserve0 (.ebss:_MODBUSREG_au8DeviceIDUserReserve0)
0000dae0  global    _MODBUSREG_au8DeviceIDUserReserve1 (.ebss:_MODBUSREG_au8DeviceIDUserReserve1)
0000daf0  global    _MODBUSREG_au8DeviceIDUserReserve2 (.ebss:_MODBUSREG_au8DeviceIDUserReserve2)
0000db00  global    _MODBUSREG_au8DeviceIDVendorName (.ebss:_MODBUSREG_au8DeviceIDVendorName)
0000db10  global    _MODBUSREG_au8DeviceIDVendorUrl (.ebss:_MODBUSREG_au8DeviceIDVendorUrl)
0000db20  global    _MODBUSREG_au8ServerIDData (.ebss:_MODBUSREG_au8ServerIDData)
0000b53c  global    _MODBUSREG_pu32RegisterAddressTable (.ebss)
0000b53e  global    _MODBUSREG_pu32RegisterAddressTableInRam (.ebss)
003f2bc2  global    _MODBUSREG_sInputCoilAddressTable (.econst:_MODBUSREG_sInputCoilAddressTable)
0000dbde  global    _MODBUSREG_sInputCoilAddressTableInRam (.ebss:_MODBUSREG_sInputCoilAddressTableInRam)
0000dc56  global    _MODBUSREG_sInputRegisterAccessTableInRam (.ebss:_MODBUSREG_sInputRegisterAccessTableInRam)
003f2bc5  global    _MODBUSREG_sInputRegisterAddressTable (.econst:_MODBUSREG_sInputRegisterAddressTable)
0000dc06  global    _MODBUSREG_sInputRegisterAddressTableInRam (.ebss:_MODBUSREG_sInputRegisterAddressTableInRam)
0000b51f  global    _MODBUSREG_u16FileTableRecorderIndex (.ebss)
003ecd3c  global    _MODBUSREG_u16GetHoldRegFillCount (.text)
003ecd38  global    _MODBUSREG_u16GetHoldRegUsedCount (.text)
003ecd36  global    _MODBUSREG_u16GetHoldingCoilUsedCount (.text)
003ecd34  global    _MODBUSREG_u16GetInputCoilUsedCount (.text)
003ecd32  global    _MODBUSREG_u16GetInputRegisterUsedCount (.text)
0000b51c  global    _MODBUSREG_u16HoldRegFillCount (.ebss)
0000b51e  global    _MODBUSREG_u16HoldRegListCount (.ebss)
0000b51d  global    _MODBUSREG_u16HoldRegUsedCount (.ebss)
0000b516  global    _MODBUSREG_u16ModbusParamCount (.ebss)
0000b517  global    _MODBUSREG_u16ParamCount (.ebss)
0000b536  global    _MODBUSREG_u32FileAutorization_FunctionAfterWriteFileRecordTable (.ebss)
0000b534  global    _MODBUSREG_u32FileParamCount_FunctionBeforeReadFileRecord (.ebss)
0000b532  global    _MODBUSREG_u32FileRTC_FunctionAfterReadFileRecord (.ebss)
0000b530  global    _MODBUSREG_u32FileRTC_FunctionAfterWriteFileRecord (.ebss)
0000b53a  global    _MODBUSREG_u32FileRecConfig_FunctionAfterWriteFileRecord (.ebss)
0000b538  global    _MODBUSREG_u32FileRecStatus_FunctionIndexGenerationFileRecord (.ebss)
003ecd2f  global    _MODBUSREG_u32GetAddressMessageCounterThisDevice (.text)
003ecd2b  global    _MODBUSREG_u32GetHoldingCoilAddressTable (.text)
003ecd27  global    _MODBUSREG_u32GetHoldingCoilAddressTableInRam (.text)
003ecd23  global    _MODBUSREG_u32GetInputCoilAddressTable (.text)
003ecd1f  global    _MODBUSREG_u32GetInputCoilAddressTableInRam (.text)
003ecd1b  global    _MODBUSREG_u32GetInputRegisterAccessTableInRam (.text)
003ecd17  global    _MODBUSREG_u32GetInputRegisterAddressTable (.text)
003ecd13  global    _MODBUSREG_u32GetInputRegisterAddressTableInRam (.text)
003ecd0f  global    _MODBUSREG_u32GetRegisterAccessTableInRam (.text)
003ecd0b  global    _MODBUSREG_u32GetRegisterAddressTable (.text)
003ecd07  global    _MODBUSREG_u32GetRegisterAddressTableInRam (.text)
0000b52c  global    _MODBUSREG_u32ParamAuxAddress (.ebss)
0000b524  global    _MODBUSREG_u32ParamListAddress (.ebss)
0000b526  global    _MODBUSREG_u32ParamNameAddress (.ebss)
0000b528  global    _MODBUSREG_u32ParamNumbAddress (.ebss)
0000b520  global    _MODBUSREG_u32ParamRecorderConfigAddress (.ebss)
0000b52e  global    _MODBUSREG_u32ParamReservedAddress (.ebss)
0000b522  global    _MODBUSREG_u32ParamScopeConfigAddress (.ebss)
0000b52a  global    _MODBUSREG_u32ParamStringAddress (.ebss)
0000c000  global    _MODBUSREG_u32RegisterAccessTableInRam (.ebss:_MODBUSREG_u32RegisterAccessTableInRam)
003ec09b  global    _MODBUSREG_vDataZero (.text)
003ecc64  global    _MODBUSREG_vFileAllowAccess (.text)
003ecc03  global    _MODBUSREG_vFileDenyAccess (.text)
003ecb60  global    _MODBUSREG_vInit (.text)
003ec089  global    _MODBUSREG_vInitHoldingRegistersTableChanges (.text)
003ec088  global    _MODBUSREG_vProcess (.text)
003ec084  global    _MODBUSREG_vSetFileAutorization_FunctionAfterWriteFileRecordTable (.text)
003ec080  global    _MODBUSREG_vSetFileParamCount_FunctionBeforeReadFileRecord (.text)
003ec07c  global    _MODBUSREG_vSetFileRTC_FunctionAfterReadFileRecord (.text)
003ec078  global    _MODBUSREG_vSetFileRTC_FunctionAfterWriteFileRecord (.text)
003ec074  global    _MODBUSREG_vSetFileRecConfig_FunctionAfterWriteFileRecord (.text)
003ec070  global    _MODBUSREG_vSetFileRecStatus_FunctionIndexGenerationFileRecord (.text)
003ec06c  global    _MODBUSREG_vSetHoldRegFillCount (.text)
003ec068  global    _MODBUSREG_vSetModbusParamCount (.text)
003ec064  global    _MODBUSREG_vSetParamAuxAddress (.text)
003ec060  global    _MODBUSREG_vSetParamCount (.text)
003ec05c  global    _MODBUSREG_vSetParamListAddress (.text)
003ec058  global    _MODBUSREG_vSetParamNameAddress (.text)
003ec054  global    _MODBUSREG_vSetParamNumbAddress (.text)
003ec050  global    _MODBUSREG_vSetParamRecorderConfigAddress (.text)
003ec04c  global    _MODBUSREG_vSetParamReservedAddress (.text)
003ec048  global    _MODBUSREG_vSetParamScopeConfigAddress (.text)
003ec044  global    _MODBUSREG_vSetParamStringAddress (.text)
0000d540  global    _QueueTestTable (.ebss:_QueueTestTable)


================================================================================

CSMON_C28xx.lib : uart_drv.obj

Run/Load            
Value     Binding   Name (Section)
--------  --------  ---------------
003ef73b  local     $C$L1 (.text)
003ef769  local     $C$L10 (.text)
003ef76b  local     $C$L11 (.text)
003ef76e  local     $C$L12 (.text)
003ef77c  local     $C$L13 (.text)
003ef780  local     $C$L14 (.text)
003ef783  local     $C$L15 (.text)
003ef78e  local     $C$L16 (.text)
003ef792  local     $C$L17 (.text)
003ef795  local     $C$L18 (.text)
003ef7e6  local     $C$L19 (.text)
003ef73f  local     $C$L2 (.text)
003ef7e8  local     $C$L20 (.text)
003ef83b  local     $C$L21 (.text)
003ef83f  local     $C$L22 (.text)
003ef84c  local     $C$L23 (.text)
003ef87a  local     $C$L24 (.text)
003ef742  local     $C$L3 (.text)
003ef74d  local     $C$L4 (.text)
003ef751  local     $C$L5 (.text)
003ef754  local     $C$L6 (.text)
003ef75c  local     $C$L7 (.text)
003ef75e  local     $C$L8 (.text)
003ef761  local     $C$L9 (.text)
00000000  local     .bss (.bss)
003f3519  local     .cinit (.cinit)
003f34ab  local     .cinit:_UARTRxBufferRDCount (.cinit:_UARTRxBufferRDCount)
003f34b2  local     .cinit:_UARTRxBufferRDIndex (.cinit:_UARTRxBufferRDIndex)
003f34b9  local     .cinit:_UARTRxBufferWRCount (.cinit:_UARTRxBufferWRCount)
003f34c0  local     .cinit:_UARTRxBufferWRIndex (.cinit:_UARTRxBufferWRIndex)
003f342a  local     .cinit:_UART_RXIntOverflowCounter (.cinit:_UART_RXIntOverflowCounter)
00000000  local     .cinit:_UART_RXOverflowCounter (.cinit:_UART_RXOverflowCounter)
003f344b  local     .cinit:_u32TimeDiffLast (.cinit:_u32TimeDiffLast)
003f3456  local     .cinit:_u32TimeDiffNow (.cinit:_u32TimeDiffNow)
003f3461  local     .cinit:_u32TimeDiffRead (.cinit:_u32TimeDiffRead)
00000000  local     .data (.data)
0000d9e4  local     .ebss (.ebss)
0000c400  local     .ebss:_UARTRxBuffer (.ebss:_UARTRxBuffer)
0000dc0a  local     .ebss:_UARTRxBufferRDCount (.ebss:_UARTRxBufferRDCount)
0000dc0e  local     .ebss:_UARTRxBufferRDIndex (.ebss:_UARTRxBufferRDIndex)
0000a000  local     .ebss:_UARTRxBufferTimeDiff (.ebss:_UARTRxBufferTimeDiff)
0000dc12  local     .ebss:_UARTRxBufferWRCount (.ebss:_UARTRxBufferWRCount)
0000dc16  local     .ebss:_UARTRxBufferWRIndex (.ebss:_UARTRxBufferWRIndex)
0000dba8  local     .ebss:_UART_RXIntOverflowCounter (.ebss:_UART_RXIntOverflowCounter)
00000000  local     .ebss:_UART_RXOverflowCounter (.ebss:_UART_RXOverflowCounter)
0000dbc0  local     .ebss:_u32TimeDiffLast (.ebss:_u32TimeDiffLast)
0000dbc8  local     .ebss:_u32TimeDiffNow (.ebss:_u32TimeDiffNow)
0000dbd0  local     .ebss:_u32TimeDiffRead (.ebss:_u32TimeDiffRead)
003ef6ef  local     .text (.text)
0000c400  global    _UARTRxBuffer (.ebss:_UARTRxBuffer)
0000dc0a  global    _UARTRxBufferRDCount (.ebss:_UARTRxBufferRDCount)
0000dc0e  global    _UARTRxBufferRDIndex (.ebss:_UARTRxBufferRDIndex)
0000a000  global    _UARTRxBufferTimeDiff (.ebss:_UARTRxBufferTimeDiff)
0000dc12  global    _UARTRxBufferWRCount (.ebss:_UARTRxBufferWRCount)
0000dc16  global    _UARTRxBufferWRIndex (.ebss:_UARTRxBufferWRIndex)
003ef7ea  global    _UART_GetChar (.text)
003ef87c  global    _UART_IsRxReady (.text)
003ef86d  global    _UART_IsTxEmpty (.text)
003ef860  global    _UART_IsTxReady (.text)
003ef857  global    _UART_PutChar (.text)
003ef851  global    _UART_PutNextAddress (.text)
0000dba8  global    _UART_RXIntOverflowCounter (.ebss:_UART_RXIntOverflowCounter)
003ef7f0  global    _UART_RXInterrupt (.text)
00000000  global    _UART_RXOverflowCounter (.ebss:_UART_RXOverflowCounter)
003ef7ac  global    _UART_ReadDataRx (.text)
003ef79f  global    _UART_ReadDataRxAvailable (.text)
003ef796  global    _UART_ReadDataRxTimeDiff (.text)
003ef784  global    _UART_RxDis (.text)
003ef772  global    _UART_RxEna (.text)
003ef76f  global    _UART_TXInterrupt (.text)
003ef762  global    _UART_TransmitDisable (.text)
003ef755  global    _UART_TransmitEnable (.text)
003ef743  global    _UART_TxDis (.text)
003ef731  global    _UART_TxEna (.text)
003ef71f  global    _UART_TxIntDis (.text)
003ef70d  global    _UART_TxIntEna (.text)
003ef709  global    _UART_bUseSCIA_On_USB_Connector (.text)
0000d9e6  global    _UART_sHandle (.ebss)
003ef6f0  global    _UART_vInit (.text)
003ef6ef  global    _UART_vReset (.text)
0000d9e4  global    _bUseSCIA_On_USB (.ebss)
0000dbc0  global    _u32TimeDiffLast (.ebss:_u32TimeDiffLast)
0000dbc8  global    _u32TimeDiffNow (.ebss:_u32TimeDiffNow)
0000dbd0  global    _u32TimeDiffRead (.ebss:_u32TimeDiffRead)


================================================================================

CSMON_C28xx.lib : hmdrv.obj

Run/Load            
Value     Binding   Name (Section)
--------  --------  ---------------
003ecdf8  local     $C$L1 (.text)
003ecf08  local     $C$L10 (.text)
003ed4b5  local     $C$L100 (.text)
003ed4ba  local     $C$L101 (.text)
003ed4e5  local     $C$L102 (.text)
003ed4f0  local     $C$L103 (.text)
003ed4f9  local     $C$L104 (.text)
003ed4fa  local     $C$L105 (.text)
003ed4fc  local     $C$L106 (.text)
003ed4fe  local     $C$L107 (.text)
003ed50c  local     $C$L108 (.text)
003ed51c  local     $C$L109 (.text)
003ecf0d  local     $C$L11 (.text)
003ed526  local     $C$L110 (.text)
003ed537  local     $C$L111 (.text)
003ed541  local     $C$L112 (.text)
003ed54f  local     $C$L113 (.text)
003ed552  local     $C$L114 (.text)
003ed556  local     $C$L115 (.text)
003ed55b  local     $C$L116 (.text)
003ed566  local     $C$L117 (.text)
003ed57b  local     $C$L118 (.text)
003ed586  local     $C$L119 (.text)
003ecf35  local     $C$L12 (.text)
003ed58f  local     $C$L120 (.text)
003ed590  local     $C$L121 (.text)
003ed592  local     $C$L122 (.text)
003ed594  local     $C$L123 (.text)
003ed5a2  local     $C$L124 (.text)
003ed5b2  local     $C$L125 (.text)
003ed5b8  local     $C$L126 (.text)
003ed5c6  local     $C$L127 (.text)
003ed5cf  local     $C$L128 (.text)
003ed5de  local     $C$L129 (.text)
003ecf3c  local     $C$L13 (.text)
003ed5e2  local     $C$L130 (.text)
003ed5ee  local     $C$L131 (.text)
003ed5ff  local     $C$L132 (.text)
003ed60a  local     $C$L133 (.text)
003ed60e  local     $C$L134 (.text)
003ed62e  local     $C$L135 (.text)
003ed632  local     $C$L136 (.text)
003ed652  local     $C$L137 (.text)
003ed656  local     $C$L138 (.text)
003ed676  local     $C$L139 (.text)
003ecf3e  local     $C$L14 (.text)
003ed67a  local     $C$L140 (.text)
003ed690  local     $C$L141 (.text)
003ed6a4  local     $C$L142 (.text)
003ed6ac  local     $C$L143 (.text)
003ed6c1  local     $C$L144 (.text)
003ed6ca  local     $C$L145 (.text)
003ed6d9  local     $C$L146 (.text)
003ed6da  local     $C$L147 (.text)
003ed6f0  local     $C$L148 (.text)
003ed6f5  local     $C$L149 (.text)
003ecf44  local     $C$L15 (.text)
003ed70b  local     $C$L150 (.text)
003ed710  local     $C$L151 (.text)
003ed71c  local     $C$L152 (.text)
003ed725  local     $C$L153 (.text)
003ecf6c  local     $C$L16 (.text)
003ecf75  local     $C$L17 (.text)
003ecf9d  local     $C$L18 (.text)
003ecfa5  local     $C$L19 (.text)
003ece02  local     $C$L2 (.text)
003ecfb4  local     $C$L20 (.text)
003ecfbc  local     $C$L21 (.text)
003ecfc1  local     $C$L22 (.text)
003ecfc2  local     $C$L23 (.text)
003ecfc6  local     $C$L24 (.text)
003ecfc8  local     $C$L25 (.text)
003ecfcf  local     $C$L26 (.text)
003ecfd5  local     $C$L27 (.text)
003ecfd9  local     $C$L28 (.text)
003ecfdb  local     $C$L29 (.text)
003eceaa  local     $C$L3 (.text)
003ecfe4  local     $C$L30 (.text)
003ecfe7  local     $C$L31 (.text)
003ecfee  local     $C$L32 (.text)
003ecff7  local     $C$L33 (.text)
003ecffb  local     $C$L34 (.text)
003ed006  local     $C$L35 (.text)
003ed013  local     $C$L36 (.text)
003ed018  local     $C$L37 (.text)
003ed023  local     $C$L38 (.text)
003ed027  local     $C$L39 (.text)
003eceba  local     $C$L4 (.text)
003ed029  local     $C$L40 (.text)
003ed02f  local     $C$L41 (.text)
003ed031  local     $C$L42 (.text)
003ed03d  local     $C$L43 (.text)
003ed03e  local     $C$L44 (.text)
003ed046  local     $C$L45 (.text)
003ed048  local     $C$L46 (.text)
003ed054  local     $C$L47 (.text)
003ed055  local     $C$L48 (.text)
003ed057  local     $C$L49 (.text)
003eceea  local     $C$L5 (.text)
003ed05a  local     $C$L50 (.text)
003ed067  local     $C$L51 (.text)
003ed072  local     $C$L52 (.text)
003ed076  local     $C$L53 (.text)
003ed07d  local     $C$L54 (.text)
003ed086  local     $C$L55 (.text)
003ed097  local     $C$L56 (.text)
003ed09b  local     $C$L57 (.text)
003ed0a2  local     $C$L58 (.text)
003ed0ab  local     $C$L59 (.text)
003eceee  local     $C$L6 (.text)
003ed0bc  local     $C$L60 (.text)
003ed0c0  local     $C$L61 (.text)
003ed0c7  local     $C$L62 (.text)
003ed0d0  local     $C$L63 (.text)
003ed0e1  local     $C$L64 (.text)
003ed0e5  local     $C$L65 (.text)
003ed0ec  local     $C$L66 (.text)
003ed0f5  local     $C$L67 (.text)
003ed0fc  local     $C$L68 (.text)
003ed10e  local     $C$L69 (.text)
003ecef0  local     $C$L7 (.text)
003ed1af  local     $C$L70 (.text)
003ed1b9  local     $C$L71 (.text)
003ed24b  local     $C$L72 (.text)
003ed25c  local     $C$L73 (.text)
003ed264  local     $C$L74 (.text)
003ed2a3  local     $C$L75 (.text)
003ed2a7  local     $C$L76 (.text)
003ed2b2  local     $C$L77 (.text)
003ed2cf  local     $C$L78 (.text)
003ed2dd  local     $C$L79 (.text)
003ecefc  local     $C$L8 (.text)
003ed3a6  local     $C$L80 (.text)
003ed3b1  local     $C$L81 (.text)
003ed3d1  local     $C$L82 (.text)
003ed3d6  local     $C$L83 (.text)
003ed3e2  local     $C$L84 (.text)
003ed3f2  local     $C$L85 (.text)
003ed3f7  local     $C$L86 (.text)
003ed40a  local     $C$L87 (.text)
003ed416  local     $C$L88 (.text)
003ed420  local     $C$L89 (.text)
003ecf06  local     $C$L9 (.text)
003ed42a  local     $C$L90 (.text)
003ed42c  local     $C$L91 (.text)
003ed439  local     $C$L92 (.text)
003ed43b  local     $C$L93 (.text)
003ed43d  local     $C$L94 (.text)
003ed43e  local     $C$L95 (.text)
003ed441  local     $C$L96 (.text)
003ed471  local     $C$L97 (.text)
003ed486  local     $C$L98 (.text)
003ed4ae  local     $C$L99 (.text)
00000000  local     .bss (.bss)
003f32f7  local     .cinit (.cinit)
00000000  local     .data (.data)
0000d836  local     .ebss (.ebss)
003ecdbe  local     .text (.text)
003ed728  global    _HMDRV_AddressFromBuffer (.text)
003ed712  global    _HMDRV_AddressFromBufferBigEndian (.text)
003ed6f7  global    _HMDRV_AddressToBuffer (.text)
003ed6dc  global    _HMDRV_AddressToBufferBigEndian (.text)
003ed699  global    _HMDRV_CopyFromBufferInternal (.text)
003ed5f3  global    _HMDRV_CopyFromBufferInternalCoil (.text)
003ed56b  global    _HMDRV_CopyFromBufferInternalModbus (.text)
003ed4bc  global    _HMDRV_CopyFromBufferInternalModbusBitField (.text)
003ed47b  global    _HMDRV_CopyFromBufferInternalModbusCoil (.text)
003ed42e  global    _HMDRV_CopyFromBufferInternalModbusSingleCoil (.text)
003ed421  global    _HMDRV_CopyFromBufferInternalSingleCoil (.text)
003ed400  global    _HMDRV_CopyFromBufferInternalWithMask (.text)
003ed3d2  global    _HMDRV_CopyFromBufferInternalWithMaskModbus (.text)
003ed3f8  global    _HMDRV_CopyFromBufferWithMaskModbus (.text)
003ed24c  global    _HMDRV_CopyMemory (.text)
003ed0fd  global    _HMDRV_CopyToBufferInternal (.text)
003ed05c  global    _HMDRV_CopyToBufferInternalCoil (.text)
003ecfaa  global    _HMDRV_CopyToBufferInternalModbus (.text)
003ecf40  global    _HMDRV_CopyToBufferInternalModbusCoil (.text)
003ecf0a  global    _HMDRV_CopyToBufferInternalModbusSingleCoil (.text)
003ecefe  global    _HMDRV_CopyToBufferInternalSingleCoil (.text)
003eceec  global    _HMDRV_GetStringLengthFromWordInternal (.text)
003eceb7  global    _HMDRV_GetStringLengthInternal (.text)
003eceb3  global    _HMDRV_SetExAddr (.text)
003eceaf  global    _HMDRV_u32GetDeviceSYSCLKFreq (.text)
003eceab  global    _HMDRV_u32GetSCIErrorPPM (.text)
0000d83c  global    _HMDRV_u32SCIErrorPPM (.ebss)
003ecea1  global    _HMDRV_vDebugSend (.text)
003ece0f  global    _HMDRV_vInit (.text)
003ecdee  global    _HMDRV_vProcess (.text)
0000d836  local     _pcm_bNextAddrIsEx (.ebss)
003ecdde  global    _scia_echoback_init (.text)
003ecdd6  global    _scia_fifo_init (.text)
003ecdc6  global    _scib_echoback_init (.text)
003ecdbe  global    _scib_fifo_init (.text)
0000d838  global    _u32DeviceLSPCLKFreq (.ebss)
0000d83a  global    _u32DeviceLSPCLKFreqRoundAndMinErrorBaud (.ebss)
0000d83e  global    _u32DeviceSYSCLKFreq (.ebss)


================================================================================

CSMON_C28xx.lib : hmlib.obj

Run/Load            
Value     Binding   Name (Section)
--------  --------  ---------------
003efd42  local     $C$L1 (.text)
003efdbd  local     $C$L10 (.text)
003efdcd  local     $C$L11 (.text)
003efdef  local     $C$L12 (.text)
003efe28  local     $C$L13 (.text)
003efe36  local     $C$L14 (.text)
003efe44  local     $C$L15 (.text)
003efe52  local     $C$L16 (.text)
003efe54  local     $C$L17 (.text)
003efe5c  local     $C$L18 (.text)
003efe6f  local     $C$L19 (.text)
003efd5d  local     $C$L2 (.text)
003efe71  local     $C$L20 (.text)
003efd71  local     $C$L3 (.text)
003efd78  local     $C$L4 (.text)
003efd7a  local     $C$L5 (.text)
003efd97  local     $C$L6 (.text)
003efd9f  local     $C$L7 (.text)
003efdb1  local     $C$L8 (.text)
003efdba  local     $C$L9 (.text)
00000000  local     .bss (.bss)
003f3487  local     .cinit (.cinit)
00000000  local     .data (.data)
0000bf7e  local     .ebss (.ebss)
003efd1e  local     .text (.text)
003efe64  global    _HMLIB_GetRecBuffAddress (.text)
003efe56  global    _HMLIB_GetRecBufferSize (.text)
003efe47  global    _HMLIB_GetRecParamBuffAddress (.text)
003efe39  global    _HMLIB_GetRecParamBufferSize (.text)
003efe2b  global    _HMLIB_GetRecParamSampleSize (.text)
003efe1d  global    _HMLIB_GetRecSampleSize (.text)
003efe1a  global    _HMLIB_vDebugSend (.text)
003efdc4  global    _HMLIB_vInit (.text)
003efdb4  global    _HMLIB_vInitRecParamBuff (.text)
003efda8  global    _HMLIB_vProcess (.text)
003efda1  global    _HMLIB_vProcessDifferentPorts (.text)
003efd8d  global    _HMLIB_vProcessFastTD (.text)
003efd7e  global    _HMLIB_vProcessRecorders (.text)
003efd7b  global    _HMLIB_vProcessSCITXISR (.text)
003efd63  global    _HMLIB_vProcessSCITXISRWithIndex (.text)
003efd5e  global    _HMLIB_vProcessSamePort (.text)
003efd52  global    _HMLIB_vRecorder (.text)
003efd4d  global    _HMLIB_vRecorder0 (.text)
003efd48  global    _HMLIB_vRecorder1 (.text)
003efd43  global    _HMLIB_vRecorder2 (.text)
003efd3e  global    _HMLIB_vRecorderParam (.text)
003efd3a  global    _HMLIB_vRecorderParam0 (.text)
003efd36  global    _HMLIB_vRecorderParam1 (.text)
003efd32  global    _HMLIB_vRecorderParam2 (.text)
003efd2f  global    _HMLIB_vRecorderParamTimeSync (.text)
003efd2c  global    _HMLIB_vRecorderSetTimeBase (.text)
003efd29  global    _HMLIB_vScopeDataUpdate (.text)
003efd26  global    _HMLIB_vScopeParamDataUpdate (.text)
003efd22  global    _HMLIB_vSetPortIndexHexMon (.text)
003efd1e  global    _HMLIB_vSetPortIndexModBus (.text)
0000bf7e  local     _u8SCIHexMonIndex (.ebss)
0000bf7f  local     _u8SCIModBusIndex (.ebss)


================================================================================

CSMON_C28xx.lib : hmmodbus.obj

Run/Load            
Value     Binding   Name (Section)
--------  --------  ---------------
003e8026  local     $C$L1 (.text)
003e80b1  local     $C$L10 (.text)
003e875e  local     $C$L100 (.text)
003e8765  local     $C$L101 (.text)
003e8766  local     $C$L102 (.text)
003e8777  local     $C$L103 (.text)
003e8795  local     $C$L104 (.text)
003e87aa  local     $C$L105 (.text)
003e87ae  local     $C$L106 (.text)
003e87c2  local     $C$L107 (.text)
003e87c6  local     $C$L108 (.text)
003e87c9  local     $C$L109 (.text)
003e80ea  local     $C$L11 (.text)
003e87d1  local     $C$L110 (.text)
003e87fc  local     $C$L111 (.text)
003e8803  local     $C$L112 (.text)
003e8819  local     $C$L113 (.text)
003e8822  local     $C$L114 (.text)
003e8829  local     $C$L115 (.text)
003e883d  local     $C$L116 (.text)
003e8845  local     $C$L117 (.text)
003e884a  local     $C$L118 (.text)
003e884f  local     $C$L119 (.text)
003e80eb  local     $C$L12 (.text)
003e8853  local     $C$L120 (.text)
003e885d  local     $C$L121 (.text)
003e8864  local     $C$L122 (.text)
003e8865  local     $C$L123 (.text)
003e8872  local     $C$L124 (.text)
003e888a  local     $C$L125 (.text)
003e889e  local     $C$L126 (.text)
003e88a1  local     $C$L127 (.text)
003e88c5  local     $C$L128 (.text)
003e88cf  local     $C$L129 (.text)
003e8110  local     $C$L13 (.text)
003e88e7  local     $C$L130 (.text)
003e88ed  local     $C$L131 (.text)
003e88f9  local     $C$L132 (.text)
003e8901  local     $C$L133 (.text)
003e8972  local     $C$L134 (.text)
003e897d  local     $C$L135 (.text)
003e898d  local     $C$L136 (.text)
003e8a14  local     $C$L137 (.text)
003e8a1a  local     $C$L138 (.text)
003e8a2b  local     $C$L139 (.text)
003e8113  local     $C$L14 (.text)
003e8a33  local     $C$L140 (.text)
003e8a3b  local     $C$L141 (.text)
003e8a43  local     $C$L142 (.text)
003e8a4b  local     $C$L143 (.text)
003e8a53  local     $C$L144 (.text)
003e8a5b  local     $C$L145 (.text)
003e8a63  local     $C$L146 (.text)
003e8a6b  local     $C$L147 (.text)
003e8a72  local     $C$L148 (.text)
003e8a8a  local     $C$L149 (.text)
003e8117  local     $C$L15 (.text)
003e8add  local     $C$L150 (.text)
003e8aee  local     $C$L151 (.text)
003e8b17  local     $C$L152 (.text)
003e8b28  local     $C$L153 (.text)
003e8b4b  local     $C$L154 (.text)
003e8b9e  local     $C$L155 (.text)
003e8baf  local     $C$L156 (.text)
003e8bd8  local     $C$L157 (.text)
003e8be9  local     $C$L158 (.text)
003e8c12  local     $C$L159 (.text)
003e8122  local     $C$L16 (.text)
003e8c23  local     $C$L160 (.text)
003e8c46  local     $C$L161 (.text)
003e8c98  local     $C$L162 (.text)
003e8ca9  local     $C$L163 (.text)
003e8cd2  local     $C$L164 (.text)
003e8ce3  local     $C$L165 (.text)
003e8d03  local     $C$L166 (.text)
003e8d0c  local     $C$L167 (.text)
003e8d1d  local     $C$L168 (.text)
003e8d20  local     $C$L169 (.text)
003e812c  local     $C$L17 (.text)
003e8d25  local     $C$L170 (.text)
003e8d29  local     $C$L171 (.text)
003e8dc7  local     $C$L172 (.text)
003e8dd8  local     $C$L173 (.text)
003e8dda  local     $C$L174 (.text)
003e8dde  local     $C$L175 (.text)
003e8de2  local     $C$L176 (.text)
003e8de5  local     $C$L177 (.text)
003e8dec  local     $C$L178 (.text)
003e8df7  local     $C$L179 (.text)
003e812d  local     $C$L18 (.text)
003e8dfa  local     $C$L180 (.text)
003e8e36  local     $C$L181 (.text)
003e8e54  local     $C$L182 (.text)
003e8e6b  local     $C$L183 (.text)
003e8e6e  local     $C$L184 (.text)
003e8ea3  local     $C$L185 (.text)
003e8ece  local     $C$L186 (.text)
003e8f2e  local     $C$L187 (.text)
003e8f37  local     $C$L188 (.text)
003e8f43  local     $C$L189 (.text)
003e8132  local     $C$L19 (.text)
003e8f5a  local     $C$L190 (.text)
003e8f5d  local     $C$L191 (.text)
003e8f6c  local     $C$L192 (.text)
003e8f70  local     $C$L193 (.text)
003e8f72  local     $C$L194 (.text)
003e8f86  local     $C$L195 (.text)
003e8f8d  local     $C$L196 (.text)
003e8f91  local     $C$L197 (.text)
003e8f9f  local     $C$L198 (.text)
003e8fbb  local     $C$L199 (.text)
003e8040  local     $C$L2 (.text)
003e8138  local     $C$L20 (.text)
003e8fbc  local     $C$L200 (.text)
003e8fd3  local     $C$L201 (.text)
003e9002  local     $C$L202 (.text)
003e9023  local     $C$L203 (.text)
003e9027  local     $C$L204 (.text)
003e902e  local     $C$L205 (.text)
003e9048  local     $C$L206 (.text)
003e905a  local     $C$L207 (.text)
003e9070  local     $C$L208 (.text)
003e9071  local     $C$L209 (.text)
003e8139  local     $C$L21 (.text)
003e9081  local     $C$L210 (.text)
003e9083  local     $C$L211 (.text)
003e9086  local     $C$L212 (.text)
003e908f  local     $C$L213 (.text)
003e9091  local     $C$L214 (.text)
003e90b2  local     $C$L215 (.text)
003e90b4  local     $C$L216 (.text)
003e90b9  local     $C$L217 (.text)
003e90be  local     $C$L218 (.text)
003e90bf  local     $C$L219 (.text)
003e813a  local     $C$L22 (.text)
003e90c2  local     $C$L220 (.text)
003e90d3  local     $C$L221 (.text)
003e90d9  local     $C$L222 (.text)
003e90f2  local     $C$L223 (.text)
003e912d  local     $C$L224 (.text)
003e913b  local     $C$L225 (.text)
003e914d  local     $C$L226 (.text)
003e915d  local     $C$L227 (.text)
003e9174  local     $C$L228 (.text)
003e9196  local     $C$L229 (.text)
003e8143  local     $C$L23 (.text)
003e919b  local     $C$L230 (.text)
003e919f  local     $C$L231 (.text)
003e91ab  local     $C$L232 (.text)
003e91ac  local     $C$L233 (.text)
003e91b1  local     $C$L234 (.text)
003e91b7  local     $C$L235 (.text)
003e91d1  local     $C$L236 (.text)
003e91e7  local     $C$L237 (.text)
003e91ef  local     $C$L238 (.text)
003e91f1  local     $C$L239 (.text)
003e8147  local     $C$L24 (.text)
003e91f4  local     $C$L240 (.text)
003e91f7  local     $C$L241 (.text)
003e920b  local     $C$L242 (.text)
003e921e  local     $C$L243 (.text)
003e9242  local     $C$L244 (.text)
003e924e  local     $C$L245 (.text)
003e9271  local     $C$L246 (.text)
003e9277  local     $C$L247 (.text)
003e928c  local     $C$L248 (.text)
003e928d  local     $C$L249 (.text)
003e8148  local     $C$L25 (.text)
003e9293  local     $C$L250 (.text)
003e929e  local     $C$L251 (.text)
003e92c3  local     $C$L252 (.text)
003e92e9  local     $C$L253 (.text)
003e92fc  local     $C$L254 (.text)
003e9319  local     $C$L255 (.text)
003e9345  local     $C$L256 (.text)
003e934f  local     $C$L257 (.text)
003e9367  local     $C$L258 (.text)
003e9368  local     $C$L259 (.text)
003e815a  local     $C$L26 (.text)
003e937b  local     $C$L260 (.text)
003e938c  local     $C$L261 (.text)
003e939a  local     $C$L262 (.text)
003e93bd  local     $C$L263 (.text)
003e93c2  local     $C$L264 (.text)
003e93d8  local     $C$L265 (.text)
003e93df  local     $C$L266 (.text)
003e93e8  local     $C$L267 (.text)
003e93fe  local     $C$L268 (.text)
003e9411  local     $C$L269 (.text)
003e8164  local     $C$L27 (.text)
003e9419  local     $C$L270 (.text)
003e945b  local     $C$L271 (.text)
003e947d  local     $C$L272 (.text)
003e94c3  local     $C$L273 (.text)
003e94d1  local     $C$L274 (.text)
003e94dc  local     $C$L275 (.text)
003e94ed  local     $C$L276 (.text)
003e94f6  local     $C$L277 (.text)
003e9551  local     $C$L278 (.text)
003e9555  local     $C$L279 (.text)
003e818e  local     $C$L28 (.text)
003e955a  local     $C$L280 (.text)
003e956c  local     $C$L281 (.text)
003e9580  local     $C$L282 (.text)
003e9583  local     $C$L283 (.text)
003e9593  local     $C$L284 (.text)
003e9595  local     $C$L285 (.text)
003e95ac  local     $C$L286 (.text)
003e95b3  local     $C$L287 (.text)
003e95b7  local     $C$L288 (.text)
003e95c5  local     $C$L289 (.text)
003e819a  local     $C$L29 (.text)
003e95dc  local     $C$L290 (.text)
003e960b  local     $C$L291 (.text)
003e962c  local     $C$L292 (.text)
003e9630  local     $C$L293 (.text)
003e9637  local     $C$L294 (.text)
003e9651  local     $C$L295 (.text)
003e9663  local     $C$L296 (.text)
003e9679  local     $C$L297 (.text)
003e967a  local     $C$L298 (.text)
003e968a  local     $C$L299 (.text)
003e8044  local     $C$L3 (.text)
003e819f  local     $C$L30 (.text)
003e968c  local     $C$L300 (.text)
003e968f  local     $C$L301 (.text)
003e9698  local     $C$L302 (.text)
003e969a  local     $C$L303 (.text)
003e96ce  local     $C$L304 (.text)
003e96d7  local     $C$L305 (.text)
003e96fd  local     $C$L306 (.text)
003e970c  local     $C$L307 (.text)
003e972a  local     $C$L308 (.text)
003e9732  local     $C$L309 (.text)
003e81a3  local     $C$L31 (.text)
003e9743  local     $C$L310 (.text)
003e9747  local     $C$L311 (.text)
003e974d  local     $C$L312 (.text)
003e9753  local     $C$L313 (.text)
003e9755  local     $C$L314 (.text)
003e9756  local     $C$L315 (.text)
003e975d  local     $C$L316 (.text)
003e9762  local     $C$L317 (.text)
003e9768  local     $C$L318 (.text)
003e9777  local     $C$L319 (.text)
003e81b8  local     $C$L32 (.text)
003e977a  local     $C$L320 (.text)
003e977f  local     $C$L321 (.text)
003e978b  local     $C$L322 (.text)
003e978d  local     $C$L323 (.text)
003e9792  local     $C$L324 (.text)
003e9793  local     $C$L325 (.text)
003e97a0  local     $C$L326 (.text)
003e97ac  local     $C$L327 (.text)
003e97ad  local     $C$L328 (.text)
003e97b5  local     $C$L329 (.text)
003e81c8  local     $C$L33 (.text)
003e97bb  local     $C$L330 (.text)
003e97c7  local     $C$L331 (.text)
003e97d9  local     $C$L332 (.text)
003e97df  local     $C$L333 (.text)
003e97ef  local     $C$L334 (.text)
003e9820  local     $C$L335 (.text)
003e9837  local     $C$L336 (.text)
003e9844  local     $C$L337 (.text)
003e9856  local     $C$L338 (.text)
003e9892  local     $C$L339 (.text)
003e81d7  local     $C$L34 (.text)
003e989a  local     $C$L340 (.text)
003e98a7  local     $C$L341 (.text)
003e98b1  local     $C$L342 (.text)
003e98bd  local     $C$L343 (.text)
003e98c0  local     $C$L344 (.text)
003e98c9  local     $C$L345 (.text)
003e98e6  local     $C$L346 (.text)
003e98ed  local     $C$L347 (.text)
003e98f7  local     $C$L348 (.text)
003e98f8  local     $C$L349 (.text)
003e81e2  local     $C$L35 (.text)
003e98fd  local     $C$L350 (.text)
003e9900  local     $C$L351 (.text)
003e991a  local     $C$L352 (.text)
003e991f  local     $C$L353 (.text)
003e993b  local     $C$L354 (.text)
003e9953  local     $C$L355 (.text)
003e99a7  local     $C$L356 (.text)
003e99ba  local     $C$L357 (.text)
003e99c4  local     $C$L358 (.text)
003e99d5  local     $C$L359 (.text)
003e8213  local     $C$L36 (.text)
003e99d9  local     $C$L360 (.text)
003e99db  local     $C$L361 (.text)
003e99fc  local     $C$L362 (.text)
003e9a10  local     $C$L363 (.text)
003e9a15  local     $C$L364 (.text)
003e9a1b  local     $C$L365 (.text)
003e9a2b  local     $C$L366 (.text)
003e9a40  local     $C$L367 (.text)
003e9a60  local     $C$L368 (.text)
003e9a67  local     $C$L369 (.text)
003e8254  local     $C$L37 (.text)
003e9a7f  local     $C$L370 (.text)
003e9a80  local     $C$L371 (.text)
003e9a93  local     $C$L372 (.text)
003e9aa4  local     $C$L373 (.text)
003e9ab1  local     $C$L374 (.text)
003e9ab7  local     $C$L375 (.text)
003e9abc  local     $C$L376 (.text)
003e9acb  local     $C$L377 (.text)
003e9ada  local     $C$L378 (.text)
003e9ae8  local     $C$L379 (.text)
003e8292  local     $C$L38 (.text)
003e9aef  local     $C$L380 (.text)
003e9af8  local     $C$L381 (.text)
003e9b0e  local     $C$L382 (.text)
003e9b1d  local     $C$L383 (.text)
003e9b2b  local     $C$L384 (.text)
003e9b30  local     $C$L385 (.text)
003e9b40  local     $C$L386 (.text)
003e9b43  local     $C$L387 (.text)
003e9b8a  local     $C$L388 (.text)
003e9bb7  local     $C$L389 (.text)
003e82c3  local     $C$L39 (.text)
003e9bea  local     $C$L390 (.text)
003e9bf6  local     $C$L391 (.text)
003e9c1e  local     $C$L392 (.text)
003e9c7b  local     $C$L393 (.text)
003e9c7d  local     $C$L394 (.text)
003e9c80  local     $C$L395 (.text)
003e9cbe  local     $C$L396 (.text)
003e9cda  local     $C$L397 (.text)
003e9d13  local     $C$L398 (.text)
003e9d1f  local     $C$L399 (.text)
003e8061  local     $C$L4 (.text)
003e82c4  local     $C$L40 (.text)
003e9d53  local     $C$L400 (.text)
003e9d64  local     $C$L401 (.text)
003e9d6b  local     $C$L402 (.text)
003e9d77  local     $C$L403 (.text)
003e9d99  local     $C$L404 (.text)
003e9dbc  local     $C$L405 (.text)
003e9dbf  local     $C$L406 (.text)
003e9dd9  local     $C$L407 (.text)
003e9ddc  local     $C$L408 (.text)
003e9ddd  local     $C$L409 (.text)
003e840c  local     $C$L41 (.text)
003e9e0b  local     $C$L410 (.text)
003e9e1c  local     $C$L411 (.text)
003e9e32  local     $C$L412 (.text)
003e9e6e  local     $C$L413 (.text)
003e9e70  local     $C$L414 (.text)
003e9e75  local     $C$L415 (.text)
003e9e84  local     $C$L416 (.text)
003e9e93  local     $C$L417 (.text)
003e9e96  local     $C$L418 (.text)
003e9ea2  local     $C$L419 (.text)
003e8486  local     $C$L42 (.text)
003e9ead  local     $C$L420 (.text)
003e9eae  local     $C$L421 (.text)
003e9eb0  local     $C$L422 (.text)
003e9ebb  local     $C$L423 (.text)
003e9ebc  local     $C$L424 (.text)
003e9ed5  local     $C$L425 (.text)
003e9ef3  local     $C$L426 (.text)
003e9f01  local     $C$L427 (.text)
003e9f03  local     $C$L428 (.text)
003e9f05  local     $C$L429 (.text)
003e848f  local     $C$L43 (.text)
003e9f1d  local     $C$L430 (.text)
003e9f23  local     $C$L431 (.text)
003e9f26  local     $C$L432 (.text)
003e9f2b  local     $C$L433 (.text)
003e9f2e  local     $C$L434 (.text)
003e9f30  local     $C$L435 (.text)
003e9f33  local     $C$L436 (.text)
003e9f36  local     $C$L437 (.text)
003e9f38  local     $C$L438 (.text)
003e9f3b  local     $C$L439 (.text)
003e8498  local     $C$L44 (.text)
003e9f3d  local     $C$L440 (.text)
003e9f3f  local     $C$L441 (.text)
003e9f5b  local     $C$L442 (.text)
003e9f76  local     $C$L443 (.text)
003e9f79  local     $C$L444 (.text)
003e9f7c  local     $C$L445 (.text)
003e9f7e  local     $C$L446 (.text)
003e9f86  local     $C$L447 (.text)
003e9f97  local     $C$L448 (.text)
003e9f9c  local     $C$L449 (.text)
003e84bf  local     $C$L45 (.text)
003e9fa6  local     $C$L450 (.text)
003e9fb3  local     $C$L451 (.text)
003e9fc1  local     $C$L452 (.text)
003e9fc2  local     $C$L453 (.text)
003e9fcd  local     $C$L454 (.text)
003e9fd2  local     $C$L455 (.text)
003e9ffb  local     $C$L456 (.text)
003ea006  local     $C$L457 (.text)
003ea014  local     $C$L458 (.text)
003ea01b  local     $C$L459 (.text)
003e84c2  local     $C$L46 (.text)
003ea020  local     $C$L460 (.text)
003ea02c  local     $C$L461 (.text)
003ea096  local     $C$L462 (.text)
003ea09f  local     $C$L463 (.text)
003ea0a6  local     $C$L464 (.text)
003ea0bc  local     $C$L465 (.text)
003ea0c6  local     $C$L466 (.text)
003ea0cb  local     $C$L467 (.text)
003ea0d9  local     $C$L468 (.text)
003ea0dd  local     $C$L469 (.text)
003e84c4  local     $C$L47 (.text)
003ea0ed  local     $C$L470 (.text)
003ea0f6  local     $C$L471 (.text)
003ea0f7  local     $C$L472 (.text)
003ea0fe  local     $C$L473 (.text)
003ea108  local     $C$L474 (.text)
003ea10e  local     $C$L475 (.text)
003ea119  local     $C$L476 (.text)
003ea11f  local     $C$L477 (.text)
003ea12a  local     $C$L478 (.text)
003ea130  local     $C$L479 (.text)
003e84d2  local     $C$L48 (.text)
003ea136  local     $C$L480 (.text)
003ea139  local     $C$L481 (.text)
003ea13e  local     $C$L482 (.text)
003e84ec  local     $C$L49 (.text)
003e8080  local     $C$L5 (.text)
003e84ef  local     $C$L50 (.text)
003e8501  local     $C$L51 (.text)
003e8505  local     $C$L52 (.text)
003e850c  local     $C$L53 (.text)
003e8512  local     $C$L54 (.text)
003e851c  local     $C$L55 (.text)
003e8531  local     $C$L56 (.text)
003e8548  local     $C$L57 (.text)
003e8576  local     $C$L58 (.text)
003e8580  local     $C$L59 (.text)
003e8081  local     $C$L6 (.text)
003e858b  local     $C$L60 (.text)
003e859b  local     $C$L61 (.text)
003e85b6  local     $C$L62 (.text)
003e85bd  local     $C$L63 (.text)
003e85c2  local     $C$L64 (.text)
003e85dc  local     $C$L65 (.text)
003e85e3  local     $C$L66 (.text)
003e85f1  local     $C$L67 (.text)
003e85f4  local     $C$L68 (.text)
003e85fa  local     $C$L69 (.text)
003e808e  local     $C$L7 (.text)
003e8602  local     $C$L70 (.text)
003e861b  local     $C$L71 (.text)
003e8623  local     $C$L72 (.text)
003e8627  local     $C$L73 (.text)
003e862a  local     $C$L74 (.text)
003e8636  local     $C$L75 (.text)
003e8649  local     $C$L76 (.text)
003e864c  local     $C$L77 (.text)
003e8655  local     $C$L78 (.text)
003e8656  local     $C$L79 (.text)
003e80a2  local     $C$L8 (.text)
003e868c  local     $C$L80 (.text)
003e869e  local     $C$L81 (.text)
003e86a1  local     $C$L82 (.text)
003e86b0  local     $C$L83 (.text)
003e86b6  local     $C$L84 (.text)
003e86be  local     $C$L85 (.text)
003e86d1  local     $C$L86 (.text)
003e86e8  local     $C$L87 (.text)
003e86eb  local     $C$L88 (.text)
003e86fd  local     $C$L89 (.text)
003e80a5  local     $C$L9 (.text)
003e8704  local     $C$L90 (.text)
003e8705  local     $C$L91 (.text)
003e871d  local     $C$L92 (.text)
003e8727  local     $C$L93 (.text)
003e8730  local     $C$L94 (.text)
003e873f  local     $C$L95 (.text)
003e8744  local     $C$L96 (.text)
003e8749  local     $C$L97 (.text)
003e8750  local     $C$L98 (.text)
003e8754  local     $C$L99 (.text)
00000000  local     .bss (.bss)
003f2bc8  local     .cinit (.cinit)
00000000  local     .data (.data)
0000d440  local     .ebss (.ebss)
0000d040  local     .ebss:_HMMODBUS_anTxCheckSum (.ebss:_HMMODBUS_anTxCheckSum)
0000db62  local     .ebss:_HMMODBUS_nFilePrimaryAddrWriteLast (.ebss:_HMMODBUS_nFilePrimaryAddrWriteLast)
0000d140  local     .ebss:_HMMODBUS_pCommBufferRx (.ebss:_HMMODBUS_pCommBufferRx)
0000d240  local     .ebss:_HMMODBUS_pCommBufferTx (.ebss:_HMMODBUS_pCommBufferTx)
0000db6c  local     .ebss:_HMMOSBUS_nFileWriteAddrReadLast (.ebss:_HMMOSBUS_nFileWriteAddrReadLast)
0000cd00  local     .ebss:_u32ModbusTimeoutBuffer (.ebss:_u32ModbusTimeoutBuffer)
003f266a  local     .econst:.string:_auchCRCHi (.econst:.string:_auchCRCHi)
003f276a  local     .econst:.string:_auchCRCLo (.econst:.string:_auchCRCLo)
003e8000  local     .text (.text)
003e8461  global    _HMMODBUS_CalcCRC (.text)
003ea0f9  global    _HMMODBUS_CopyFileRecordFromBuffer (.text)
003e865b  global    _HMMODBUS_CopyFromBuffer (.text)
003e8768  global    _HMMODBUS_CopyFromBufferCoil (.text)
003e87d7  global    _HMMODBUS_CopyFromBufferSingleCoil (.text)
003e86c3  global    _HMMODBUS_CopyToBuffer (.text)
003e888d  global    _HMMODBUS_CopyToBufferCoil (.text)
003e8867  global    _HMMODBUS_CopyToBufferSingleCoil (.text)
003e8907  global    _HMMODBUS_DelayedTx (.text)
003e8807  global    _HMMODBUS_GetCoilFunction (.text)
003ea079  global    _HMMODBUS_GetRealCoilAddressAndOffset (.text)
003e8289  global    _HMMODBUS_GetRealQueueNumber (.text)
003e8556  global    _HMMODBUS_GetRealRegisterAddressAndSize (.text)
003e870a  global    _HMMODBUS_GetRegisterFunction (.text)
003e8503  global    _HMMODBUS_Listen (.text)
003e9ec1  global    _HMMODBUS_Rx (.text)
003e84c5  global    _HMMODBUS_Tx (.text)
0000d040  global    _HMMODBUS_anTxCheckSum (.ebss:_HMMODBUS_anTxCheckSum)
003e891b  global    _HMMODBUS_bDecoder (.text)
003ea074  global    _HMMODBUS_bGetReceivedMessage (.text)
0000d449  global    _HMMODBUS_bOverflowReached (.ebss)
0000d44e  global    _HMMODBUS_bReceivedMessage (.ebss)
0000db62  global    _HMMODBUS_nFilePrimaryAddrWriteLast (.ebss:_HMMODBUS_nFilePrimaryAddrWriteLast)
0000d444  global    _HMMODBUS_nLastResponseCmd (.ebss)
0000d445  global    _HMMODBUS_nLastResponseCode (.ebss)
0000d447  global    _HMMODBUS_nRxCheckSum (.ebss)
0000d446  global    _HMMODBUS_nRxTodo (.ebss)
0000d443  global    _HMMODBUS_nRxTodoEcho (.ebss)
0000d50a  global    _HMMODBUS_nSizeReadRequestLoopLeft (.ebss)
0000d448  global    _HMMODBUS_nTxCheckSum (.ebss)
0000d442  global    _HMMODBUS_nTxTodo (.ebss)
0000d140  global    _HMMODBUS_pCommBufferRx (.ebss:_HMMODBUS_pCommBufferRx)
0000d240  global    _HMMODBUS_pCommBufferTx (.ebss:_HMMODBUS_pCommBufferTx)
0000d47e  global    _HMMODBUS_pRxBuff (.ebss)
0000d47c  global    _HMMODBUS_pTxBuff (.ebss)
0000d4b8  global    _HMMODBUS_pasFileAddressTable (.ebss)
0000d4ac  global    _HMMODBUS_pasQueueRegisterAddressTable (.ebss)
0000d498  global    _HMMODBUS_pu32HoldingCoilAddressTable (.ebss)
0000d49a  global    _HMMODBUS_pu32HoldingCoilAddressTableInRam (.ebss)
0000d484  global    _HMMODBUS_pu32HoldingRegisterAccessTableInRam (.ebss)
0000d480  global    _HMMODBUS_pu32HoldingRegisterAddressTable (.ebss)
0000d482  global    _HMMODBUS_pu32HoldingRegisterAddressTableInRam (.ebss)
0000d4a2  global    _HMMODBUS_pu32InputCoilAddressTable (.ebss)
0000d4a4  global    _HMMODBUS_pu32InputCoilAddressTableInRam (.ebss)
0000d490  global    _HMMODBUS_pu32InputRegisterAccessTableInRam (.ebss)
0000d48c  global    _HMMODBUS_pu32InputRegisterAddressTable (.ebss)
0000d48e  global    _HMMODBUS_pu32InputRegisterAddressTableInRam (.ebss)
0000d4de  global    _HMMODBUS_pu8ReadDeviceIDMajorMinorRevision (.ebss)
0000d4e4  global    _HMMODBUS_pu8ReadDeviceIDModelName (.ebss)
0000d4dc  global    _HMMODBUS_pu8ReadDeviceIDProductCode (.ebss)
0000d4e2  global    _HMMODBUS_pu8ReadDeviceIDProductName (.ebss)
0000d4e6  global    _HMMODBUS_pu8ReadDeviceIDUserApplicationName (.ebss)
0000d4e8  global    _HMMODBUS_pu8ReadDeviceIDUserReserve0 (.ebss)
0000d4ea  global    _HMMODBUS_pu8ReadDeviceIDUserReserve1 (.ebss)
0000d4ec  global    _HMMODBUS_pu8ReadDeviceIDUserReserve2 (.ebss)
0000d4da  global    _HMMODBUS_pu8ReadDeviceIDVendorName (.ebss)
0000d4e0  global    _HMMODBUS_pu8ReadDeviceIDVendorUrl (.ebss)
0000d4d8  global    _HMMODBUS_pu8ReadServerIDDatAdr (.ebss)
0000d525  global    _HMMODBUS_u32CoilAddressDummy (.ebss)
0000d52c  global    _HMMODBUS_u32CoilAddressInRamDummy (.ebss)
0000d504  global    _HMMODBUS_u32DebugAddrReadFileCircle (.ebss)
0000d502  global    _HMMODBUS_u32DebugAddrReadFileCircleTooFarAddress (.ebss)
0000d506  global    _HMMODBUS_u32DebugAddrReadFileForRead (.ebss)
0000d508  global    _HMMODBUS_u32DebugAddrReadFileForReadLooped (.ebss)
0000d4fe  global    _HMMODBUS_u32DebugAddrReadFileFromAddress (.ebss)
0000d4fc  global    _HMMODBUS_u32DebugAddrReadFileFromIndex (.ebss)
0000d4fa  global    _HMMODBUS_u32DebugAddrReadFileReal (.ebss)
0000d500  global    _HMMODBUS_u32DebugAddrReadPlusOffset (.ebss)
0000d4bc  global    _HMMODBUS_u32DeviceSYSCLKFreq (.ebss)
0000d4ba  global    _HMMODBUS_u32FileCount (.ebss)
0000d4b6  global    _HMMODBUS_u32FreeRunTimerReceivedMessage (.ebss)
003ea070  global    _HMMODBUS_u32GetAddressMessageCounterThisDevice (.text)
003ea06c  global    _HMMODBUS_u32GetFreeRunTimerReceivedMessage (.text)
0000d49e  global    _HMMODBUS_u32HoldingCoilAddressTableInRamSize (.ebss)
0000d49c  global    _HMMODBUS_u32HoldingCoilAddressTableSize (.ebss)
0000d4a0  global    _HMMODBUS_u32HoldingCoilValuesTableSize (.ebss)
0000d488  global    _HMMODBUS_u32HoldingRegisterAddressTableInRamSize (.ebss)
0000d486  global    _HMMODBUS_u32HoldingRegisterAddressTableSize (.ebss)
0000d48a  global    _HMMODBUS_u32HoldingRegisterValuesTableSize (.ebss)
0000d4a8  global    _HMMODBUS_u32InputCoilAddressTableInRamSize (.ebss)
0000d4a6  global    _HMMODBUS_u32InputCoilAddressTableSize (.ebss)
0000d4aa  global    _HMMODBUS_u32InputCoilValuesTableSize (.ebss)
0000d494  global    _HMMODBUS_u32InputRegisterAddressTableInRamSize (.ebss)
0000d492  global    _HMMODBUS_u32InputRegisterAddressTableSize (.ebss)
0000d496  global    _HMMODBUS_u32InputRegisterValuesTableSize (.ebss)
0000d4ae  global    _HMMODBUS_u32QueueRegisterAddressTableSize (.ebss)
0000d522  global    _HMMODBUS_u32RegisterAddressDummy (.ebss)
0000d528  global    _HMMODBUS_u32RegisterAddressInRamDummy (.ebss)
0000d4b0  global    _HMMODBUS_u32TxDelayCounter (.ebss)
0000d44b  global    _HMMODBUS_u8DeviceAddress (.ebss)
0000d44c  global    _HMMODBUS_u8QueueActiveIndex (.ebss)
0000d461  global    _HMMODBUS_u8ReadDeviceIDConfLvl (.ebss)
0000d460  global    _HMMODBUS_u8ReadDeviceIDConfLvlMask (.ebss)
0000d464  global    _HMMODBUS_u8ReadDeviceIDMajorMinorRevisionLength (.ebss)
0000d467  global    _HMMODBUS_u8ReadDeviceIDModelNameLength (.ebss)
0000d463  global    _HMMODBUS_u8ReadDeviceIDProductCodeLength (.ebss)
0000d466  global    _HMMODBUS_u8ReadDeviceIDProductNameLength (.ebss)
0000d468  global    _HMMODBUS_u8ReadDeviceIDUserApplicationNameLength (.ebss)
0000d469  global    _HMMODBUS_u8ReadDeviceIDUserReserve0Length (.ebss)
0000d46a  global    _HMMODBUS_u8ReadDeviceIDUserReserve1Length (.ebss)
0000d46b  global    _HMMODBUS_u8ReadDeviceIDUserReserve2Length (.ebss)
0000d462  global    _HMMODBUS_u8ReadDeviceIDVendorNameLength (.ebss)
0000d465  global    _HMMODBUS_u8ReadDeviceIDVendorUrlLength (.ebss)
0000d45d  global    _HMMODBUS_u8ReadServerIDLength (.ebss)
0000d45e  global    _HMMODBUS_u8ReadServerIDNumber (.ebss)
0000d45f  global    _HMMODBUS_u8ReadServerOnStatus (.ebss)
003ea067  global    _HMMODBUS_vFileTable (.text)
003ea044  global    _HMMODBUS_vFileTableSetValidRecord (.text)
003ea02d  global    _HMMODBUS_vInit (.text)
003ea022  global    _HMMODBUS_vProcessFastTD (.text)
003e84f1  global    _HMMODBUS_vProcessFreeTimer (.text)
003e84fa  global    _HMMODBUS_vProcessRxDelay (.text)
003e9fc4  global    _HMMODBUS_vProcessSCI (.text)
003e84d9  global    _HMMODBUS_vProcessSCITXISR (.text)
003e84ae  global    _HMMODBUS_vProcessTxDelay (.text)
003e8470  global    _HMMODBUS_vSendResponse (.text)
003e845d  global    _HMMODBUS_vSetDeviceIDMajorMinorRevision (.text)
003e8459  global    _HMMODBUS_vSetDeviceIDMajorMinorRevisionLength (.text)
003e8455  global    _HMMODBUS_vSetDeviceIDModelName (.text)
003e8451  global    _HMMODBUS_vSetDeviceIDModelNameLength (.text)
003e844d  global    _HMMODBUS_vSetDeviceIDProductCode (.text)
003e8449  global    _HMMODBUS_vSetDeviceIDProductCodeLength (.text)
003e8445  global    _HMMODBUS_vSetDeviceIDProductName (.text)
003e8441  global    _HMMODBUS_vSetDeviceIDProductNameLength (.text)
003e843d  global    _HMMODBUS_vSetDeviceIDUserApplicationName (.text)
003e8439  global    _HMMODBUS_vSetDeviceIDUserApplicationNameLength (.text)
003e8435  global    _HMMODBUS_vSetDeviceIDUserReserve0 (.text)
003e8431  global    _HMMODBUS_vSetDeviceIDUserReserve0Length (.text)
003e842d  global    _HMMODBUS_vSetDeviceIDUserReserve1 (.text)
003e8429  global    _HMMODBUS_vSetDeviceIDUserReserve1Length (.text)
003e8425  global    _HMMODBUS_vSetDeviceIDUserReserve2 (.text)
003e8421  global    _HMMODBUS_vSetDeviceIDUserReserve2Length (.text)
003e841d  global    _HMMODBUS_vSetDeviceIDVendorName (.text)
003e8419  global    _HMMODBUS_vSetDeviceIDVendorNameLength (.text)
003e8415  global    _HMMODBUS_vSetDeviceIDVendorUrl (.text)
003e8411  global    _HMMODBUS_vSetDeviceIDVendorUrlLength (.text)
003e82e0  global    _HMMODBUS_vSetFreeRunTimerPrescaller (.text)
003e82dc  global    _HMMODBUS_vSetPortIndex (.text)
003e82d8  global    _HMMODBUS_vSetServerIDDataAddress (.text)
003e82d4  global    _HMMODBUS_vSetServerIDLength (.text)
003e82d0  global    _HMMODBUS_vSetServerIDNumber (.text)
003e82cc  global    _HMMODBUS_vSetServerOnStatus (.text)
003e82c6  global    _HMMODBUS_vSetupActiveQueueIndex (.text)
003e8283  global    _HMMODBUS_vSetupCoilDummy (.text)
003e827d  global    _HMMODBUS_vSetupHoldingCoilsAddressTable (.text)
003e8278  global    _HMMODBUS_vSetupHoldingCoilsAddressTableInRam (.text)
003e8272  global    _HMMODBUS_vSetupHoldingRegistersAddressTable (.text)
003e826c  global    _HMMODBUS_vSetupHoldingRegistersAddressTableInRam (.text)
003e8266  global    _HMMODBUS_vSetupInputCoilsAddressTable (.text)
003e8261  global    _HMMODBUS_vSetupInputCoilsAddressTableInRam (.text)
003e825b  global    _HMMODBUS_vSetupInputRegistersAddressTable (.text)
003e8255  global    _HMMODBUS_vSetupInputRegistersAddressTableInRam (.text)
003e820a  global    _HMMODBUS_vSetupQueueRegistersAddressTable (.text)
003e8201  global    _HMMODBUS_vSetupRegisterDummy (.text)
003e81fd  global    _HMMODBUS_vSetupWriteParElementCallbackFunction (.text)
003e81f6  global    _HMMODBUS_vSetupWriteParElementFixedArguments (.text)
0000d440  global    _HMMODBUS_wFlags (.ebss)
0000d441  global    _HMMODBUS_wFlagsRxTx (.ebss)
0000d4b4  global    _HMMOSBUS_nDummy (.ebss)
0000db6c  global    _HMMOSBUS_nFileWriteAddrReadLast (.ebss:_HMMOSBUS_nFileWriteAddrReadLast)
0000d4b2  global    _HMMOSBUS_nFileWritePrimaryAddrReadLast (.ebss)
003f266a  global    _auchCRCHi (.econst:.string:_auchCRCHi)
003f276a  global    _auchCRCLo (.econst:.string:_auchCRCLo)
0000d450  global    _bBareRamTable (.ebss)
0000d47a  global    _bElementsDifference (.ebss)
003e81f2  global    _bGetElementsDifference (.text)
003e81d9  global    _bGetFileReadAccess (.text)
0000d45a  global    _bHoldingCoilTableBareRam (.ebss)
0000d458  global    _bHoldingCoilTableSorted (.ebss)
0000d456  global    _bHoldingRegTableBareRam (.ebss)
0000d454  global    _bHoldingRegTableSorted (.ebss)
0000d459  global    _bInputCoilTableBareRam (.ebss)
0000d457  global    _bInputCoilTableSorted (.ebss)
0000d455  global    _bInputRegTableBareRam (.ebss)
0000d453  global    _bInputRegTableSorted (.ebss)
0000d44f  global    _bInputRegsGlobal (.ebss)
003e8180  global    _bIsValidEndAddressInBuffer (.text)
003e81ce  global    _bIsValidIndexFileTable (.text)
0000d452  global    _bLengthException (.ebss)
0000d470  global    _bNeedResetBackup (.ebss)
0000d451  global    _bUsedDummyDataAddressInResponseData (.ebss)
0000d46c  global    _eElementFixedArgument (.ebss)
0000d520  local     _nLastTimerValue$1 (.ebss)
0000d51a  global    _nTimeTickDelayModbus (.ebss)
0000d51e  global    _nTimeTickDelayModbusMax (.ebss)
0000d51c  global    _nTimeTickDelayModbusMin (.ebss)
0000d4ee  global    _pfWriteParElementCallbackFunction (.ebss)
0000d4f4  global    _realRxByteDelay (.ebss)
0000d4f6  global    _realRxByteDelayLastFail (.ebss)
0000d471  global    _realRxByteDelayLastFailBytesReceived (.ebss)
0000d46e  global    _u16DataModeFixedArgument (.ebss)
0000d45b  global    _u16FreeRunTimerPrescaller (.ebss)
003e81ca  global    _u16GetIndexFileTable (.text)
0000d478  global    _u16IndexFileTable (.ebss)
0000d476  global    _u16ModbusBadCSReceiveMessageCounter (.ebss)
0000d477  global    _u16ModbusBadTimeoutReceiveMessageCounter (.ebss)
0000d475  global    _u16ModbusBufferOverflowReceiveMessageCounter (.ebss)
0000d473  global    _u16ModbusCompleteReceiveMessageCounter (.ebss)
0000d474  global    _u16ModbusCompleteReceiveMessageCounterThisDevice (.ebss)
0000d45c  global    _u16ModbusMinMessToMess_usec (.ebss)
0000d472  global    _u16ModbusStartedReceiveMessageCounter (.ebss)
0000d46d  global    _u16NoStoreFixedArgument (.ebss)
0000d46f  global    _u16PasswordFixedArgument (.ebss)
0000d44d  global    _u16RegisterAddressDummyValue (.ebss)
0000d50c  global    _u32BufferAddressStart (.ebss)
0000d50e  global    _u32BufferSize (.ebss)
003e81ba  global    _u32BytesMemoryToBytesModbus (.text)
003e81aa  global    _u32BytesModbusToBytesMemory (.text)
0000d4ce  global    _u32ElementSizeTableB326_0 (.ebss)
0000d4d2  global    _u32ElementSizeTableB326_1 (.ebss)
0000d4d6  global    _u32ElementSizeTableB326_2 (.ebss)
0000d4cc  global    _u32ElementSizeTableD384_0 (.ebss)
0000d4d0  global    _u32ElementSizeTableD384_1 (.ebss)
0000d4d4  global    _u32ElementSizeTableD384_2 (.ebss)
0000d518  global    _u32ElementsSizeMemory (.ebss)
0000d516  global    _u32ElementsSizeModbus (.ebss)
003e819c  global    _u32FitAddressCircleBufferInside (.text)
003e8190  global    _u32FixAddressCircleBufferOverflow (.text)
003e817c  global    _u32GetBufferAddressStart (.text)
003e8178  global    _u32GetBufferSize (.text)
003e8174  global    _u32GetElementsSizeMemory (.text)
003e8170  global    _u32GetElementsSizeModbus (.text)
003e8004  global    _u32GetSampleCountAvailable (.text)
003e8000  global    _u32GetSampleCountBuffer (.text)
003e816c  global    _u32GetStartSampleIndex (.text)
0000d4be  global    _u32ModbusMaxByteToByte (.ebss)
0000d4c4  global    _u32ModbusMaxByteToByteExact (.ebss)
0000d4c0  global    _u32ModbusMaxMessToMess (.ebss)
0000d4c6  global    _u32ModbusMaxMessToMessExact (.ebss)
0000d4c2  global    _u32ModbusMinMessToMess (.ebss)
0000d4c8  global    _u32ModbusTimeout (.ebss)
0000cd00  global    _u32ModbusTimeoutBuffer (.ebss:_u32ModbusTimeoutBuffer)
0000d4f0  global    _u32ModbusTimeoutBufferIndex (.ebss)
0000d4f2  global    _u32RxTimeout (.ebss)
0000d4f8  global    _u32RxTimeoutLastFail (.ebss)
0000d512  global    _u32SampleCountAvailable (.ebss)
0000d510  global    _u32SampleCountBuffer (.ebss)
0000d514  global    _u32StartSampleIndex (.ebss)
0000d4ca  global    _u32WrongElementSizeTable (.ebss)
003e8168  global    _u8GetSampleSize (.text)
0000d479  global    _u8SampleSize (.ebss)
0000d44a  global    _u8UartModBusIndex (.ebss)
003e8151  global    _vSetBufferAddressStart (.text)
003e814d  global    _vSetBufferSize (.text)
003e80ef  global    _vSetElementsSize (.text)
003e80a9  global    _vSetIndexFileTable (.text)
003e8085  global    _vSetSampleCountAvailable (.text)
003e8065  global    _vSetSampleCountBuffer (.text)
003e8045  global    _vSetSampleSize (.text)
003e8008  global    _vSetStartSampleIndex (.text)


================================================================================

CSMON_C28xx.lib : hmprotocol.obj

Run/Load            
Value     Binding   Name (Section)
--------  --------  ---------------
003f2b9a  local     $C$FSL1 (.econst:.string)
003ef564  local     $C$L1 (.text)
003ef640  local     $C$L10 (.text)
003ef64d  local     $C$L11 (.text)
003ef65b  local     $C$L12 (.text)
003ef663  local     $C$L13 (.text)
003ef668  local     $C$L14 (.text)
003ef66e  local     $C$L15 (.text)
003ef673  local     $C$L16 (.text)
003ef679  local     $C$L17 (.text)
003ef67d  local     $C$L18 (.text)
003ef683  local     $C$L19 (.text)
003ef58b  local     $C$L2 (.text)
003ef687  local     $C$L20 (.text)
003ef68d  local     $C$L21 (.text)
003ef691  local     $C$L22 (.text)
003ef696  local     $C$L23 (.text)
003ef69c  local     $C$L24 (.text)
003ef69f  local     $C$L25 (.text)
003ef6a2  local     $C$L26 (.text)
003ef6a5  local     $C$L27 (.text)
003ef6ae  local     $C$L28 (.text)
003ef6b5  local     $C$L29 (.text)
003ef593  local     $C$L3 (.text)
003ef6b7  local     $C$L30 (.text)
003ef6ba  local     $C$L31 (.text)
003ef6c2  local     $C$L32 (.text)
003ef6c7  local     $C$L33 (.text)
003ef6cb  local     $C$L34 (.text)
003ef6cf  local     $C$L35 (.text)
003ef6d3  local     $C$L36 (.text)
003ef6d7  local     $C$L37 (.text)
003ef6db  local     $C$L38 (.text)
003ef6de  local     $C$L39 (.text)
003ef59b  local     $C$L4 (.text)
003ef6df  local     $C$L40 (.text)
003ef6e2  local     $C$L41 (.text)
003ef6e9  local     $C$L42 (.text)
003ef5e6  local     $C$L5 (.text)
003ef5f2  local     $C$L6 (.text)
003ef612  local     $C$L7 (.text)
003ef61a  local     $C$L8 (.text)
003ef638  local     $C$L9 (.text)
00000000  local     .bss (.bss)
003f330b  local     .cinit (.cinit)
00000000  local     .data (.data)
0000d77a  local     .ebss (.ebss)
003f2b9a  local     .econst:.string (.econst:.string)
003ef530  local     .text (.text)
003ef539  global    _HMPROTOCOL_GetBoardInfo (.text)
003ef5d2  global    _HMPROTOCOL_ReadMem (.text)
003ef5bb  global    _HMPROTOCOL_WriteMem (.text)
003ef5a4  global    _HMPROTOCOL_WriteMemMask (.text)
003ef5f6  global    _HMPROTOCOL_bDecoder (.text)
003ef538  global    _HMPROTOCOL_vInit (.text)
003ef530  global    _HMPROTOCOL_vRecorderSetTimeBase (.text)
0000d77c  global    _bRecorderParameterUsage (.ebss)
0000d77d  global    _bScopeParameterUsage (.ebss)
0000d77f  global    _breakData (.ebss)
0000d77a  global    _nRecorderFreemasterIndex (.ebss)
0000d77b  global    _nScopePrmFreemasterIndex (.ebss)
0000d77e  global    _u16TimeBase (.ebss)


================================================================================

CSMON_C28xx.lib : hmrec.obj

Run/Load            
Value     Binding   Name (Section)
--------  --------  ---------------
003eef4d  local     $C$L1 (.text)
003ef01b  local     $C$L10 (.text)
003ef01c  local     $C$L11 (.text)
003ef01d  local     $C$L12 (.text)
003ef034  local     $C$L13 (.text)
003ef035  local     $C$L14 (.text)
003ef04a  local     $C$L15 (.text)
003ef0a0  local     $C$L16 (.text)
003ef0a6  local     $C$L17 (.text)
003ef0c1  local     $C$L18 (.text)
003ef0c6  local     $C$L19 (.text)
003eefc9  local     $C$L2 (.text)
003ef0e2  local     $C$L20 (.text)
003ef0e5  local     $C$L21 (.text)
003ef0ea  local     $C$L22 (.text)
003ef0ed  local     $C$L23 (.text)
003ef0f2  local     $C$L24 (.text)
003ef0f5  local     $C$L25 (.text)
003ef0f7  local     $C$L26 (.text)
003ef0f9  local     $C$L27 (.text)
003ef102  local     $C$L28 (.text)
003ef104  local     $C$L29 (.text)
003eefe1  local     $C$L3 (.text)
003ef10c  local     $C$L30 (.text)
003ef10e  local     $C$L31 (.text)
003ef11a  local     $C$L32 (.text)
003ef141  local     $C$L33 (.text)
003ef146  local     $C$L34 (.text)
003ef153  local     $C$L35 (.text)
003ef15e  local     $C$L36 (.text)
003eefee  local     $C$L4 (.text)
003ef002  local     $C$L5 (.text)
003ef00d  local     $C$L6 (.text)
003ef011  local     $C$L7 (.text)
003ef013  local     $C$L8 (.text)
003ef019  local     $C$L9 (.text)
00000000  local     .bss (.bss)
00000000  local     .data (.data)
0000d835  local     .ebss (.ebss)
0000a800  local     .ebss:_au8RecBuffer0 (.ebss:_au8RecBuffer0)
0000cf00  local     .ebss:_sRecHandle (.ebss:_sRecHandle)
003eef43  local     .text (.text)
003ef051  global    _HMREC_AbortRec (.text)
003eef7f  local     _HMREC_Compare16S (.text)
003eef8d  local     _HMREC_Compare16U (.text)
003eef9b  local     _HMREC_Compare32S (.text)
003eefa9  local     _HMREC_Compare32U (.text)
003eef63  local     _HMREC_Compare8S (.text)
003eef71  local     _HMREC_Compare8U (.text)
003eef4e  local     _HMREC_Comparefloat (.text)
003ef160  global    _HMREC_GetRecBuffAddress (.text)
003ef155  global    _HMREC_GetRecBuffCheckCode (.text)
003ef138  global    _HMREC_GetRecBuffFreemaster (.text)
003ef135  global    _HMREC_GetRecBuffIndex (.text)
003ef053  global    _HMREC_GetRecBuffSize (.text)
003ef132  global    _HMREC_GetRecSampleSize (.text)
003ef128  global    _HMREC_GetRecStatus (.text)
003ef113  global    _HMREC_IsInRecBuffer (.text)
003ef055  global    _HMREC_SetUpRec (.text)
003ef04b  global    _HMREC_SetUpRecBuff (.text)
003ef036  global    _HMREC_StartRec (.text)
003ef029  global    _HMREC_StopRec (.text)
003eef43  global    _HMREC_TriggerRec (.text)
0000d835  global    _HMREC_u16FailSnapshotWrite (.ebss)
003ef021  global    _HMREC_vInit (.text)
003eefb7  global    _HMREC_vProcess (.text)
0000a800  global    _au8RecBuffer0 (.ebss:_au8RecBuffer0)
0000cf00  global    _sRecHandle (.ebss:_sRecHandle)


================================================================================

CSMON_C28xx.lib : hmrecparam.obj

Run/Load            
Value     Binding   Name (Section)
--------  --------  ---------------
003ede02  local     $C$L1 (.text)
003edfa7  local     $C$L10 (.text)
003edfab  local     $C$L11 (.text)
003edfb7  local     $C$L12 (.text)
003edfd9  local     $C$L13 (.text)
003edfe3  local     $C$L14 (.text)
003edfea  local     $C$L15 (.text)
003edfef  local     $C$L16 (.text)
003ee014  local     $C$L17 (.text)
003ee0b0  local     $C$L18 (.text)
003ee0cb  local     $C$L19 (.text)
003ede2f  local     $C$L2 (.text)
003ee0e4  local     $C$L20 (.text)
003ee0f8  local     $C$L21 (.text)
003ee106  local     $C$L22 (.text)
003ee10a  local     $C$L23 (.text)
003ee10f  local     $C$L24 (.text)
003ee117  local     $C$L25 (.text)
003ee136  local     $C$L26 (.text)
003ee13b  local     $C$L27 (.text)
003ee148  local     $C$L28 (.text)
003ee151  local     $C$L29 (.text)
003ede68  local     $C$L3 (.text)
003ee158  local     $C$L30 (.text)
003ee165  local     $C$L31 (.text)
003ee167  local     $C$L32 (.text)
003ee176  local     $C$L33 (.text)
003ee179  local     $C$L34 (.text)
003ee196  local     $C$L35 (.text)
003ee197  local     $C$L36 (.text)
003ee1a3  local     $C$L37 (.text)
003ee1a4  local     $C$L38 (.text)
003ee1ef  local     $C$L39 (.text)
003ede8c  local     $C$L4 (.text)
003ee1f2  local     $C$L40 (.text)
003ee20c  local     $C$L41 (.text)
003ee264  local     $C$L42 (.text)
003ee26a  local     $C$L43 (.text)
003ee285  local     $C$L44 (.text)
003ee28a  local     $C$L45 (.text)
003ee2a6  local     $C$L46 (.text)
003ee2a9  local     $C$L47 (.text)
003ee2ae  local     $C$L48 (.text)
003ee2b1  local     $C$L49 (.text)
003edf67  local     $C$L5 (.text)
003ee2b6  local     $C$L50 (.text)
003ee2b9  local     $C$L51 (.text)
003ee2bb  local     $C$L52 (.text)
003ee2bd  local     $C$L53 (.text)
003ee2c8  local     $C$L54 (.text)
003ee2ca  local     $C$L55 (.text)
003ee2d2  local     $C$L56 (.text)
003ee2d4  local     $C$L57 (.text)
003ee2e3  local     $C$L58 (.text)
003ee345  local     $C$L59 (.text)
003edf7c  local     $C$L6 (.text)
003ee34a  local     $C$L60 (.text)
003ee357  local     $C$L61 (.text)
003ee362  local     $C$L62 (.text)
003ee367  local     $C$L63 (.text)
003ee374  local     $C$L64 (.text)
003ee37f  local     $C$L65 (.text)
003ee38a  local     $C$L66 (.text)
003edf84  local     $C$L7 (.text)
003edf8d  local     $C$L8 (.text)
003edfa3  local     $C$L9 (.text)
00000000  local     .bss (.bss)
003f33f3  local     .cinit (.cinit)
003f31e6  local     .cinit:_sRecStatusParam (.cinit:_sRecStatusParam)
003f32c2  local     .cinit:_sRecStatusParamInternal (.cinit:_sRecStatusParamInternal)
003f3531  local     .cinit:_sRecTimeBase (.cinit:_sRecTimeBase)
00000000  local     .data (.data)
0000da68  local     .ebss (.ebss)
0000dc49  local     .ebss:_abRecorderJustStopped (.ebss:_abRecorderJustStopped)
0000dc4c  local     .ebss:_abRecorderRunning (.ebss:_abRecorderRunning)
00000000  local     .ebss:_au8RecParamBuffer0 (.ebss:_au8RecParamBuffer0)
00000000  local     .ebss:_au8RecParamBuffer1 (.ebss:_au8RecParamBuffer1)
00000000  local     .ebss:_au8RecParamBuffer2 (.ebss:_au8RecParamBuffer2)
0000d8c0  local     .ebss:_sRecExternParam (.ebss:_sRecExternParam)
0000be40  local     .ebss:_sRecHandleParam (.ebss:_sRecHandleParam)
0000d008  local     .ebss:_sRecStatusParam (.ebss:_sRecStatusParam)
0000da20  local     .ebss:_sRecStatusParamInternal (.ebss:_sRecStatusParamInternal)
0000dc57  local     .ebss:_sRecTimeBase (.ebss:_sRecTimeBase)
0000dbea  local     .ebss:_u32RecorderLastFreeCounter (.ebss:_u32RecorderLastFreeCounter)
0000dbf0  local     .ebss:_u32RecorderMicroSec (.ebss:_u32RecorderMicroSec)
003eddd9  local     .text (.text)
003edea8  global    _FillTimeData (.text)
003ee213  global    _HMRECPRM_AbortRec (.text)
003edf68  global    _HMRECPRM_ClrLastStopDetectionToRecorderStopSamplesCounter (.text)
003ee047  global    _HMRECPRM_Compare16S (.text)
003ee055  global    _HMRECPRM_Compare16U (.text)
003ee063  global    _HMRECPRM_Compare32S (.text)
003ee071  global    _HMRECPRM_Compare32U (.text)
003ee02b  global    _HMRECPRM_Compare8S (.text)
003ee039  global    _HMRECPRM_Compare8U (.text)
003ee3cd  global    _HMRECPRM_CompareBOOL (.text)
003ee016  global    _HMRECPRM_Comparefloat (.text)
003ee3c4  global    _HMRECPRM_GetBufferRecParamAddress (.text)
003ee3b8  global    _HMRECPRM_GetBufferRecParamPtrAddress (.text)
003ee3af  global    _HMRECPRM_GetExternBufferRecParamLastPointedAddress (.text)
003ee3a6  global    _HMRECPRM_GetExternBufferRecParamPtrAddress (.text)
003ee39e  global    _HMRECPRM_GetExternRecParamAddress (.text)
003ee396  global    _HMRECPRM_GetExternRecParamPtrMaximumUsedSampleCount (.text)
003ee38e  global    _HMRECPRM_GetExternRecParamPtrSampleSize (.text)
003ee38c  global    _HMRECPRM_GetRecBuffAddress (.text)
003ee381  global    _HMRECPRM_GetRecBuffCheckCode (.text)
003ee376  global    _HMRECPRM_GetRecBuffCheckCodeParam (.text)
003ee359  global    _HMRECPRM_GetRecBuffFreemaster (.text)
003ee33c  global    _HMRECPRM_GetRecBuffFreemasterParam (.text)
003ee339  global    _HMRECPRM_GetRecBuffIndex (.text)
003ee215  global    _HMRECPRM_GetRecBuffSize (.text)
003ee331  global    _HMRECPRM_GetRecParamPtrAvailableSampleCount (.text)
003ee329  global    _HMRECPRM_GetRecParamPtrLastSampleIndex (.text)
003ee321  global    _HMRECPRM_GetRecParamPtrMaximumUsedSampleCount (.text)
003ee319  global    _HMRECPRM_GetRecParamPtrSampleSize (.text)
003ee316  global    _HMRECPRM_GetRecSampleSize (.text)
003ee30c  global    _HMRECPRM_GetRecStatus (.text)
003ee302  global    _HMRECPRM_GetRecStatusParam (.text)
003ee2fa  global    _HMRECPRM_GetStatusInternalRecParamAddress (.text)
003ee2f2  global    _HMRECPRM_GetStatusRecParamAddress (.text)
003ee2ef  global    _HMRECPRM_GetTimeBase (.text)
003ee2dc  global    _HMRECPRM_IsInRecBuffer (.text)
003ede8e  global    _HMRECPRM_IsJustStopped (.text)
003ede9d  global    _HMRECPRM_IsRunning (.text)
003ee2d9  global    _HMRECPRM_SetTimeBase (.text)
003ee217  global    _HMRECPRM_SetUpRec (.text)
003ee20d  global    _HMRECPRM_SetUpRecBuff (.text)
003edee1  global    _HMRECPRM_SetUpRecParamStatusDateTime (.text)
003ee1f3  global    _HMRECPRM_StartRec (.text)
003ee1a5  global    _HMRECPRM_StartRecParam (.text)
003ee198  global    _HMRECPRM_StopRec (.text)
003ee184  global    _HMRECPRM_StopRecParam (.text)
003ee009  global    _HMRECPRM_TriggerRec (.text)
0000da72  global    _HMRECPRM_sDateTime (.ebss)
003eded3  global    _HMRECPRM_vDisableAllStopDetections (.text)
003ee17c  global    _HMRECPRM_vInit (.text)
003ee16c  global    _HMRECPRM_vInitParam (.text)
003ee07f  global    _HMRECPRM_vProcess (.text)
003edff4  global    _HMRECPRM_vResetAllStopDetections (.text)
003edf72  global    _HMRECPRM_vTimeSync (.text)
0000da6e  global    _MAIN_sDate (.ebss)
0000da6a  global    _MAIN_sDateI2C (.ebss)
0000da6c  global    _MAIN_sTime (.ebss)
0000da68  global    _MAIN_sTimeI2C (.ebss)
0000da70  global    _MAIN_u32FreeCounter (.ebss)
003ede6a  global    _RecorderDateFromLocalDateTime (.text)
003ede31  global    _RecorderDateFromRTCDate (.text)
003ede04  global    _RecorderTimeFromLocalDateTime (.text)
003eddd9  global    _RecorderTimeFromRTCTime (.text)
0000dc49  global    _abRecorderJustStopped (.ebss:_abRecorderJustStopped)
0000dc4c  global    _abRecorderRunning (.ebss:_abRecorderRunning)
00000000  global    _au8RecParamBuffer0 (.ebss:_au8RecParamBuffer0)
00000000  global    _au8RecParamBuffer1 (.ebss:_au8RecParamBuffer1)
00000000  global    _au8RecParamBuffer2 (.ebss:_au8RecParamBuffer2)
0000d8c0  global    _sRecExternParam (.ebss:_sRecExternParam)
0000be40  global    _sRecHandleParam (.ebss:_sRecHandleParam)
0000d008  global    _sRecStatusParam (.ebss:_sRecStatusParam)
0000da20  global    _sRecStatusParamInternal (.ebss:_sRecStatusParamInternal)
0000dc57  global    _sRecTimeBase (.ebss:_sRecTimeBase)
0000dbea  global    _u32RecorderLastFreeCounter (.ebss:_u32RecorderLastFreeCounter)
0000dbf0  global    _u32RecorderMicroSec (.ebss:_u32RecorderMicroSec)


================================================================================

CSMON_C28xx.lib : hmscope.obj

Run/Load            
Value     Binding   Name (Section)
--------  --------  ---------------
003f0db6  local     $C$L1 (.text)
003f0dc0  local     $C$L2 (.text)
003f0dd4  local     $C$L3 (.text)
003f0dd7  local     $C$L4 (.text)
003f0ddc  local     $C$L5 (.text)
003f0dee  local     $C$L6 (.text)
003f0df8  local     $C$L7 (.text)
003f0e0a  local     $C$L8 (.text)
003f0e0b  local     $C$L9 (.text)
00000000  local     .bss (.bss)
00000000  local     .data (.data)
0000d940  local     .ebss (.ebss)
003f0d9f  local     .text (.text)
0000d940  global    _DataChangedFlag (.ebss)
003f0de1  global    _HMSCOPE_ReadScope (.text)
003f0da5  global    _HMSCOPE_SetUpScope (.text)
003f0da4  global    _HMSCOPE_vInit (.text)
003f0d9f  global    _HMSCOPE_vSetDataChangeFlag (.text)
0000d942  local     _sScopeHandle (.ebss)


================================================================================

CSMON_C28xx.lib : hmscopeparam.obj

Run/Load            
Value     Binding   Name (Section)
--------  --------  ---------------
003efe94  local     $C$L1 (.text)
003eff49  local     $C$L10 (.text)
003eff4c  local     $C$L11 (.text)
003eff50  local     $C$L12 (.text)
003eff6a  local     $C$L13 (.text)
003eff74  local     $C$L14 (.text)
003eff84  local     $C$L15 (.text)
003eff99  local     $C$L16 (.text)
003eff9a  local     $C$L17 (.text)
003efe9d  local     $C$L2 (.text)
003efeb7  local     $C$L3 (.text)
003efed0  local     $C$L4 (.text)
003efed5  local     $C$L5 (.text)
003efed7  local     $C$L6 (.text)
003efed8  local     $C$L7 (.text)
003eff26  local     $C$L8 (.text)
003eff32  local     $C$L9 (.text)
00000000  local     .bss (.bss)
003f3515  local     .cinit (.cinit)
003f34fb  local     .cinit:_nSizeBytesScopeBuffer (.cinit:_nSizeBytesScopeBuffer)
003f347e  local     .cinit:_pBufferScope (.cinit:_pBufferScope)
00000000  local     .data (.data)
0000bffe  local     .ebss (.ebss)
0000c800  local     .ebss:_HMSCOPEPRM_u8Buffer (.ebss:_HMSCOPEPRM_u8Buffer)
0000dc4f  local     .ebss:_nSizeBytesScopeBuffer (.ebss:_nSizeBytesScopeBuffer)
0000dbe4  local     .ebss:_pBufferScope (.ebss:_pBufferScope)
0000d6c0  local     .ebss:_sScopeHandlePrm (.ebss:_sScopeHandlePrm)
0000dc52  local     .ebss:_sScopeStatusParam (.ebss:_sScopeStatusParam)
003efe73  local     .text (.text)
0000bffe  global    _DataChangedParamFlag (.ebss)
003effa6  global    _HMSCOPEPRM_GetBufferScopeParamAddress (.text)
003eff9f  global    _HMSCOPEPRM_GetStatusScopeParamAddress (.text)
003eff55  global    _HMSCOPEPRM_ReadScope (.text)
003eff0d  global    _HMSCOPEPRM_SetUpScope (.text)
0000c800  global    _HMSCOPEPRM_u8Buffer (.ebss:_HMSCOPEPRM_u8Buffer)
003efef0  global    _HMSCOPEPRM_vInit (.text)
003efee2  global    _HMSCOPEPRM_vInitBufferParam (.text)
003efedd  global    _HMSCOPEPRM_vSetDataChangeFlag (.text)
003efe73  global    _HMSCOPE_ReadScopeParam (.text)
0000bfff  global    _nScopeIndexFreemaster (.ebss)
0000dc4f  global    _nSizeBytesScopeBuffer (.ebss:_nSizeBytesScopeBuffer)
0000dbe4  global    _pBufferScope (.ebss:_pBufferScope)
0000d6c0  global    _sScopeHandlePrm (.ebss:_sScopeHandlePrm)
0000dc52  global    _sScopeStatusParam (.ebss:_sScopeStatusParam)


================================================================================

CSMON_C28xx.lib : hmserial.obj

Run/Load            
Value     Binding   Name (Section)
--------  --------  ---------------
003ef174  local     $C$L1 (.text)
003ef1ee  local     $C$L10 (.text)
003ef1f4  local     $C$L11 (.text)
003ef1fc  local     $C$L12 (.text)
003ef201  local     $C$L13 (.text)
003ef205  local     $C$L14 (.text)
003ef20c  local     $C$L15 (.text)
003ef212  local     $C$L16 (.text)
003ef220  local     $C$L17 (.text)
003ef24b  local     $C$L18 (.text)
003ef24d  local     $C$L19 (.text)
003ef17e  local     $C$L2 (.text)
003ef250  local     $C$L20 (.text)
003ef25e  local     $C$L21 (.text)
003ef265  local     $C$L22 (.text)
003ef275  local     $C$L23 (.text)
003ef277  local     $C$L24 (.text)
003ef281  local     $C$L25 (.text)
003ef286  local     $C$L26 (.text)
003ef296  local     $C$L27 (.text)
003ef2a4  local     $C$L28 (.text)
003ef2ab  local     $C$L29 (.text)
003ef184  local     $C$L3 (.text)
003ef2b2  local     $C$L30 (.text)
003ef2f0  local     $C$L31 (.text)
003ef2fd  local     $C$L32 (.text)
003ef30b  local     $C$L33 (.text)
003ef31e  local     $C$L34 (.text)
003ef328  local     $C$L35 (.text)
003ef32e  local     $C$L36 (.text)
003ef335  local     $C$L37 (.text)
003ef342  local     $C$L38 (.text)
003ef188  local     $C$L4 (.text)
003ef1b2  local     $C$L5 (.text)
003ef1c0  local     $C$L6 (.text)
003ef1c4  local     $C$L7 (.text)
003ef1d7  local     $C$L8 (.text)
003ef1da  local     $C$L9 (.text)
00000000  local     .bss (.bss)
003f346c  local     .cinit (.cinit)
00000000  local     .data (.data)
0000d532  local     .ebss (.ebss)
0000d840  local     .ebss:_pcm_pCommBuffer (.ebss:_pcm_pCommBuffer)
003ef162  local     .text (.text)
003ef350  global    _HMSERIAL_DelayedTx (.text)
003ef203  local     _HMSERIAL_Listen (.text)
003ef22e  global    _HMSERIAL_Rx (.text)
003ef1a5  global    _HMSERIAL_Tx (.text)
003ef343  global    _HMSERIAL_vInit (.text)
003ef338  global    _HMSERIAL_vProcessFastTD (.text)
003ef2b4  global    _HMSERIAL_vProcessFreeTimer (.text)
003ef2bd  global    _HMSERIAL_vProcessSCI (.text)
003ef288  global    _HMSERIAL_vProcessSCIFreemasterOnly (.text)
003ef1dc  global    _HMSERIAL_vProcessSCITXISR (.text)
003ef1c6  global    _HMSERIAL_vProcessSCITXISRFreemasterOnly (.text)
003ef166  global    _HMSERIAL_vSendResponse (.text)
003ef162  global    _HMSERIAL_vSetPortIndex (.text)
0000d53e  local     _nLastTimerValue$1 (.ebss)
0000d537  global    _pcm_nRxCheckSum (.ebss)
0000d536  global    _pcm_nRxTodo (.ebss)
0000d535  global    _pcm_nRxTodoEcho (.ebss)
0000d534  global    _pcm_nTxTodo (.ebss)
0000d840  global    _pcm_pCommBuffer (.ebss:_pcm_pCommBuffer)
0000d53c  global    _pcm_pRxBuff (.ebss)
0000d53a  global    _pcm_pTxBuff (.ebss)
0000d532  global    _pcm_wFlags (.ebss)
0000d533  global    _pcm_wFlagsRxTx (.ebss)
0000d538  global    _u8UartIndex (.ebss)


================================================================================

CSMON_C28xx.lib : Hash.obj

Run/Load            
Value     Binding   Name (Section)
--------  --------  ---------------
003eed05  local     $C$L1 (.text)
003eee05  local     $C$L10 (.text)
003eee18  local     $C$L11 (.text)
003eee50  local     $C$L12 (.text)
003eee5c  local     $C$L13 (.text)
003eee5f  local     $C$L14 (.text)
003eee66  local     $C$L15 (.text)
003eee68  local     $C$L16 (.text)
003eee74  local     $C$L17 (.text)
003eee75  local     $C$L18 (.text)
003eee7f  local     $C$L19 (.text)
003eed34  local     $C$L2 (.text)
003eee81  local     $C$L20 (.text)
003eee8d  local     $C$L21 (.text)
003eee8e  local     $C$L22 (.text)
003eee98  local     $C$L23 (.text)
003eee9a  local     $C$L24 (.text)
003eeea6  local     $C$L25 (.text)
003eeea7  local     $C$L26 (.text)
003eeeb1  local     $C$L27 (.text)
003eeeb3  local     $C$L28 (.text)
003eeebf  local     $C$L29 (.text)
003eed3b  local     $C$L3 (.text)
003eeec0  local     $C$L30 (.text)
003eeeca  local     $C$L31 (.text)
003eeecc  local     $C$L32 (.text)
003eeed8  local     $C$L33 (.text)
003eeed9  local     $C$L34 (.text)
003eef24  local     $C$L35 (.text)
003eef2b  local     $C$L36 (.text)
003eef31  local     $C$L37 (.text)
003eef3e  local     $C$L38 (.text)
003eed42  local     $C$L4 (.text)
003eed48  local     $C$L5 (.text)
003eed4f  local     $C$L6 (.text)
003eed58  local     $C$L7 (.text)
003eed5c  local     $C$L8 (.text)
003eed64  local     $C$L9 (.text)
00000000  local     .bss (.bss)
00000000  local     .data (.data)
0000db30  local     .ebss:_primeIndArr (.ebss:_primeIndArr)
003f2ad2  local     .econst:.string:_noPrime8 (.econst:.string:_noPrime8)
003f2af1  local     .econst:.string:_prime8 (.econst:.string:_prime8)
003eed01  local     .text (.text)
003eed1e  global    _Hash (.text)
003eed01  local     _InitPrimeInd (.text)
003f2ad2  local     _noPrime8 (.econst:.string:_noPrime8)
003f2af1  local     _prime8 (.econst:.string:_prime8)
0000db30  global    _primeIndArr (.ebss:_primeIndArr)


================================================================================

rts2800_ml.lib : s_sinf.c.obj

Run/Load            
Value     Binding   Name (Section)
--------  --------  ---------------
003f2b6e  local     $C$FL1 (.econst)
003f2b72  local     $C$FL2 (.econst)
003f00f5  local     $C$L1 (.text)
003f014b  local     $C$L10 (.text)
003f0152  local     $C$L11 (.text)
003f016c  local     $C$L12 (.text)
003f017e  local     $C$L13 (.text)
003f0183  local     $C$L14 (.text)
003f0185  local     $C$L15 (.text)
003f019f  local     $C$L16 (.text)
003f01b9  local     $C$L17 (.text)
003f01cb  local     $C$L18 (.text)
003f01d0  local     $C$L19 (.text)
003f0105  local     $C$L2 (.text)
003f01d2  local     $C$L20 (.text)
003f01eb  local     $C$L21 (.text)
003f01ed  local     $C$L22 (.text)
003f01f0  local     $C$L23 (.text)
003f0108  local     $C$L3 (.text)
003f0120  local     $C$L4 (.text)
003f0134  local     $C$L5 (.text)
003f0138  local     $C$L6 (.text)
003f013a  local     $C$L7 (.text)
003f013f  local     $C$L8 (.text)
003f0149  local     $C$L9 (.text)
00000000  local     .bss (.bss)
00000000  local     .data (.data)
003f2b5e  local     .econst (.econst)
003f00df  local     .text (.text)
003f2b5e  local     _s1pio2 (.econst)
003f2b62  local     _s2pio2 (.econst)
003f2b66  local     _s3pio2 (.econst)
003f2b6a  local     _s4pio2 (.econst)
003f00df  global    _sin (.text)
003f00df  global    _sinf (.text)


================================================================================

rts2800_ml.lib : boot28.asm.obj

Run/Load            
Value     Binding   Name (Section)
--------  --------  ---------------
00000000  local     .bss (.bss)
00000000  local     .data (.data)
003fffc0  local     .reset (.reset)
00000050  local     .stack (.stack)
003f0ecd  local     .text (.text)
003f0f1d  local     BYPASS_AUTO_INIT (.text)
003f0f1d  local     DONE_INIT (.text)
003f0efd  local     DO_BINIT (.text)
003f0f07  local     DO_PINIT (.text)
003f0ef9  local     GET_ADDR (.text)
003f0eee  local     GET_DATA (.text)
003f0ee7  local     LOOP (.text)
003f0f13  local     LOOP_PINIT (.text)
003f0ef5  local     START (.text)
003f0f18  local     START_PINIT (.text)
00000050  global    __stack (.stack)
003f0ecd  global    _c_int00 (.text)


================================================================================

rts2800_ml.lib : fd_add28.asm.obj

Run/Load            
Value     Binding   Name (Section)
--------  --------  ---------------
00000000  local     .bss (.bss)
00000000  local     .data (.data)
003f079e  local     .text (.text)
003f07f5  local     ADD_OP (.text)
003f07bc  local     EXP1_NZ (.text)
003f07d6  local     EXP2_NZ (.text)
003f079e  global    FD$$ADD (.text)
003f0801  local     NORMALIZE (.text)
003f07f9  local     NO_ADD (.text)
003f082c  local     OP1_ZERO (.text)
003f082f  local     OP2_ZERO (.text)
003f0832  local     OVERFLOW (.text)
003f07e5  local     PREP_ADD (.text)
003f0827  local     RETURN (.text)
003f0825  local     RETURN_VALUE (.text)
003f0818  local     RND64_SET_MANT$4$ (.text)
003f07b4  local     SAVE_MN1 (.text)
003f07ce  local     SAVE_MN2 (.text)
003f0838  local     UNDERFLOW (.text)


================================================================================

rts2800_ml.lib : fd_mpy28.asm.obj

Run/Load            
Value     Binding   Name (Section)
--------  --------  ---------------
00000000  local     .bss (.bss)
00000000  local     .data (.data)
003f0c21  local     .text (.text)
003f0c21  global    FD$$MPY (.text)
003f0c9c  local     OVERFLOW (.text)
003f0c97  local     RETURN (.text)
003f0c95  local     RETURN_VALUE (.text)
003f0c87  local     RND64_SET_MANT$3$ (.text)
003f0c7c  local     ROUND (.text)
003f0ca2  local     UNDERFLOW (.text)


================================================================================

rts2800_ml.lib : fd_neg28.asm.obj

Run/Load            
Value     Binding   Name (Section)
--------  --------  ---------------
00000000  local     .bss (.bss)
00000000  local     .data (.data)
003f123b  local     .text (.text)
003f123b  global    FD$$NEG (.text)
003f1241  local     RETURN (.text)


================================================================================

rts2800_ml.lib : fd_sub28.asm.obj

Run/Load            
Value     Binding   Name (Section)
--------  --------  ---------------
00000000  local     .bss (.bss)
00000000  local     .data (.data)
003f1219  local     .text (.text)
003f1219  global    FD$$SUB (.text)


================================================================================

rts2800_ml.lib : fd_toul28.asm.obj

Run/Load            
Value     Binding   Name (Section)
--------  --------  ---------------
00000000  local     .bss (.bss)
00000000  local     .data (.data)
003f1144  local     .text (.text)
003f1144  global    FD$$TOUL (.text)
003f115a  local     OVERFLOW (.text)
003f1159  local     RETURN_VALUE (.text)
003f115d  local     UNDERFLOW (.text)


================================================================================

rts2800_ml.lib : fs_add28.asm.obj

Run/Load            
Value     Binding   Name (Section)
--------  --------  ---------------
00000000  local     .bss (.bss)
00000000  local     .data (.data)
003f0d27  local     .text (.text)
003f0d2c  global    FS$$ADD (.text)
003f0d27  global    FS$$SUB (.text)
003f0d5b  local     NORMALIZE (.text)
003f0d65  local     NO_CARRY (.text)
003f0d7a  local     OP1_GT_OP2 (.text)
003f0d41  local     OP1_NONNEG (.text)
003f0d90  local     OP1_ZERO (.text)
003f0d85  local     OP2_GT_OP1 (.text)
003f0d53  local     OP2_NONNEG (.text)
003f0d92  local     OP2_ZERO (.text)
003f0d94  local     OVERFLOW (.text)
003f0d9c  local     RES_ZERO (.text)
003f0d92  local     RETURN_OP1 (.text)
003f0d90  local     RETURN_OP2 (.text)
003f0d77  local     RETURN_VALUE (.text)
003f0d9c  local     UNDERFLOW (.text)


================================================================================

rts2800_ml.lib : fs_cmp28.asm.obj

Run/Load            
Value     Binding   Name (Section)
--------  --------  ---------------
00000000  local     .bss (.bss)
00000000  local     .data (.data)
003f1191  local     .text (.text)
003f119a  local     CHECK_SIGNS (.text)
003f11a7  local     DONE (.text)
003f1191  global    FS$$CMP (.text)
003f1197  local     OP1_GT_OP2 (.text)
003f119e  local     OP1_NONNEG (.text)
003f11a1  local     OP2_NONNEG (.text)
003f1199  local     OPS_EQ (.text)


================================================================================

rts2800_ml.lib : fs_div28.asm.obj

Run/Load            
Value     Binding   Name (Section)
--------  --------  ---------------
00000000  local     .bss (.bss)
00000000  local     .data (.data)
003f0ca4  local     .text (.text)
003f0ca4  global    FS$$DIV (.text)
003f0d05  local     OP1_ZERO (.text)
003f0d1a  local     OP2_ZERO (.text)
003f0d0b  local     OVERFLOW (.text)
003f0d05  local     RETURN_VALUE (.text)
003f0d17  local     UNDERFLOW (.text)


================================================================================

rts2800_ml.lib : fs_mpy28.asm.obj

Run/Load            
Value     Binding   Name (Section)
--------  --------  ---------------
00000000  local     .bss (.bss)
00000000  local     .data (.data)
003f0e73  local     .text (.text)
003f0e73  global    FS$$MPY (.text)
003f0eaf  local     NORMALIZED (.text)
003f0ebf  local     OP_ZERO (.text)
003f0ec5  local     OVERFLOW (.text)
003f0ebf  local     RETURN_VALUE (.text)
003f0eca  local     UNDERFLOW (.text)


================================================================================

rts2800_ml.lib : fs_neg28.asm.obj

Run/Load            
Value     Binding   Name (Section)
--------  --------  ---------------
00000000  local     .bss (.bss)
00000000  local     .data (.data)
003f1256  local     .text (.text)
003f125a  local     CALL_ADD (.text)
003f1256  global    FS$$NEG (.text)


================================================================================

rts2800_ml.lib : fs_toi28.asm.obj

Run/Load            
Value     Binding   Name (Section)
--------  --------  ---------------
00000000  local     .bss (.bss)
00000000  local     .data (.data)
003f0fc5  local     .text (.text)
003f0fc5  global    FS$$TOI (.text)
003f0fe3  local     OVERFLOW (.text)
003f0fe0  local     POSITIVE (.text)
003f0fe0  local     RETURN (.text)
003f0fe1  local     UNDERFLOW (.text)
003f0fe0  local     ZERO (.text)


================================================================================

rts2800_ml.lib : fs_tol28.asm.obj

Run/Load            
Value     Binding   Name (Section)
--------  --------  ---------------
00000000  local     .bss (.bss)
00000000  local     .data (.data)
003f0f74  local     .text (.text)
003f0f74  global    FS$$TOL (.text)
003f0f95  local     OVERFLOW (.text)
003f0f91  local     POSITIVE (.text)
003f0f91  local     RETURN (.text)
003f0f8e  local     TEST_SIGN (.text)
003f0f8d  local     TEST_SIGN1 (.text)
003f0f92  local     UNDERFLOW (.text)
003f0f91  local     ZERO (.text)


================================================================================

rts2800_ml.lib : fs_tou28.asm.obj

Run/Load            
Value     Binding   Name (Section)
--------  --------  ---------------
00000000  local     .bss (.bss)
00000000  local     .data (.data)
003f10d2  local     .text (.text)
003f10d2  global    FS$$TOU (.text)
003f10ea  local     NEGATIVE (.text)
003f10ec  local     OVERFLOW (.text)
003f10e9  local     RETURN (.text)
003f10ea  local     UNDERFLOW (.text)
003f10e9  local     ZERO (.text)


================================================================================

rts2800_ml.lib : fs_toul28.asm.obj

Run/Load            
Value     Binding   Name (Section)
--------  --------  ---------------
00000000  local     .bss (.bss)
00000000  local     .data (.data)
003f1074  local     .text (.text)
003f1074  global    FS$$TOUL (.text)
003f1092  local     NEGATIVE (.text)
003f108d  local     OVERFLOW (.text)
003f108c  local     RETURN (.text)
003f108b  local     RETURN1 (.text)
003f1092  local     UNDERFLOW (.text)


================================================================================

rts2800_ml.lib : ll_div28.asm.obj

Run/Load            
Value     Binding   Name (Section)
--------  --------  ---------------
003f0201  local     $10 (.text)
003f020d  local     $15 (.text)
003f0242  local     $20 (.text)
003f023c  local     $25 (.text)
003f0248  local     $30 (.text)
003f0276  local     $35 (.text)
003f02a5  local     $40 (.text)
003f0207  local     $5_$2 (.text)
00000000  local     .bss (.bss)
00000000  local     .data (.data)
003f01f3  local     .text (.text)
003f0217  local     CHECK_SIGN1 (.text)
003f0252  local     CHECK_SIGN2 (.text)
003f028a  local     DGT3 (.text)
003f028c  local     DIVUDenHighZero (.text)
003f0221  local     EQ0 (.text)
003f021c  local     EQ1 (.text)
003f025a  local     EQ2 (.text)
003f0285  local     EQ3 (.text)
003f02b6  local     EQ4 (.text)
003f01f3  global    LL$$DIV (.text)
003f022f  global    LL$$MOD (.text)
003f02d5  local     LOOP (.text)
003f02c4  local     MAINDIV (.text)
003f02e3  local     MD_NEQ (.text)
003f02b8  local     MODUDenHighZero (.text)
003f021a  local     RET1 (.text)
003f0255  local     RET2 (.text)
003f0283  local     RET3 (.text)
003f02b2  local     RET4 (.text)
003f0257  local     RET_NUM1 (.text)
003f02b4  local     RET_NUM2 (.text)
003f0223  local     SDIVUDenHighZero (.text)
003f02ed  local     SKIP (.text)
003f02ef  local     SKIP1 (.text)
003f025d  local     SMODUDenHighZero (.text)
003f0269  global    ULL$$DIV (.text)
003f0298  global    ULL$$MOD (.text)


================================================================================

rts2800_ml.lib : u_div28.asm.obj

Run/Load            
Value     Binding   Name (Section)
--------  --------  ---------------
00000000  local     .bss (.bss)
00000000  local     .data (.data)
003f1227  local     .text (.text)
003f1227  global    U$$DIV (.text)
003f122c  global    U$$MOD (.text)


================================================================================

rts2800_ml.lib : u_tofd28.asm.obj

Run/Load            
Value     Binding   Name (Section)
--------  --------  ---------------
00000000  local     .bss (.bss)
00000000  local     .data (.data)
003f11a8  local     .text (.text)
003f11b5  local     NORMALIZE (.text)
003f11bd  local     OP_ZERO (.text)
003f11b7  local     PACK (.text)
003f11bc  local     RETURN (.text)
003f11ba  local     RETURN_VALUE (.text)
003f11a8  global    U$$TOFD (.text)


================================================================================

rts2800_ml.lib : u_tofs28.asm.obj

Run/Load            
Value     Binding   Name (Section)
--------  --------  ---------------
00000000  local     .bss (.bss)
00000000  local     .data (.data)
003f1209  local     .text (.text)
003f1218  local     RESTORE (.text)
003f1209  global    U$$TOFS (.text)
003f1218  local     ZERO (.text)


================================================================================

rts2800_ml.lib : l_tofs28.asm.obj

Run/Load            
Value     Binding   Name (Section)
--------  --------  ---------------
00000000  local     .bss (.bss)
00000000  local     .data (.data)
003f115f  local     .text (.text)
003f115f  global    L$$TOFS (.text)
003f1175  local     OVERFLOW (.text)
003f1174  local     RETURN (.text)
003f1174  local     ZERO (.text)


================================================================================

rts2800_ml.lib : ul_tofs28.asm.obj

Run/Load            
Value     Binding   Name (Section)
--------  --------  ---------------
00000000  local     .bss (.bss)
00000000  local     .data (.data)
003f11d4  local     .text (.text)
003f11dc  local     LEFT_SHIFT (.text)
003f11de  local     PACK (.text)
003f11e6  local     RETURN (.text)
003f11d4  global    UL$$TOFS (.text)
003f11e6  local     ZERO (.text)


================================================================================

rts2800_ml.lib : fs_tofd28.asm.obj

Run/Load            
Value     Binding   Name (Section)
--------  --------  ---------------
00000000  local     .bss (.bss)
00000000  local     .data (.data)
003f110c  local     .text (.text)
003f110c  global    FS$$TOFD (.text)
003f1120  local     OVERFLOW (.text)
003f111f  local     RETURN (.text)
003f111d  local     RETURN_VALUE (.text)
003f1126  local     UNDERFLOW (.text)


================================================================================

rts2800_ml.lib : fd_div28.asm.obj

Run/Load            
Value     Binding   Name (Section)
--------  --------  ---------------
003f0b4b  local     $1_$3 (.text)
003f0b56  local     $2_$3 (.text)
00000000  local     .bss (.bss)
00000000  local     .data (.data)
003f0b0f  local     .text (.text)
003f0b65  local     DIV_END (.text)
003f0b46  local     DIV_START (.text)
003f0b0f  global    FD$$DIV (.text)
003f0b68  local     NORMALIZE (.text)
003f0b92  local     OVERFLOW (.text)
003f0b8d  local     RETURN (.text)
003f0b8b  local     RETURN_VALUE (.text)
003f0b7d  local     RND64_SET_MANT$3$ (.text)
003f0b71  local     ROUND (.text)
003f0b98  local     UNDERFLOW (.text)


================================================================================

rts2800_ml.lib : cpy_tbl.c.obj

Run/Load            
Value     Binding   Name (Section)
--------  --------  ---------------
003f0ff2  local     $C$L1 (.text)
003f1005  local     $C$L2 (.text)
003f1006  local     $C$L3 (.text)
00000000  local     .bss (.bss)
00000000  local     .data (.data)
003f0fea  local     .text (.text)
003f0fea  global    _copy_in (.text)


================================================================================

rts2800_ml.lib : memcpy.c.obj

Run/Load            
Value     Binding   Name (Section)
--------  --------  ---------------
003f10f5  local     $C$L1 (.text)
003f10f9  local     $C$L2 (.text)
003f1100  local     $C$L3 (.text)
003f1102  local     $C$L4 (.text)
003f110a  local     $C$L5 (.text)
00000000  local     .bss (.bss)
00000000  local     .data (.data)
003f10ef  local     .text (.text)
003f10ef  global    _memcpy (.text)


================================================================================

rts2800_ml.lib : pre_init.c.obj

Run/Load            
Value     Binding   Name (Section)
--------  --------  ---------------
00000000  local     .bss (.bss)
00000000  local     .data (.data)
003f125e  local     .text (.text)
003f125e  global    __system_pre_init (.text)


================================================================================

rts2800_ml.lib : startup.c.obj

Run/Load            
Value     Binding   Name (Section)
--------  --------  ---------------
00000000  local     .bss (.bss)
00000000  local     .data (.data)
003f1260  local     .text (.text)
003f1260  global    __system_post_cinit (.text)


================================================================================

rts2800_ml.lib : e_rem_pio2f.c.obj

Run/Load            
Value     Binding   Name (Section)
--------  --------  ---------------
003f2b1a  local     $C$FL1 (.econst)
003f2b1e  local     $C$FL2 (.econst)
003f2b22  local     $C$FL3 (.econst)
003f2b26  local     $C$FL4 (.econst)
003f075a  local     $C$L1 (.text)
003f0768  local     $C$L2 (.text)
003f0794  local     $C$L3 (.text)
003f0799  local     $C$L4 (.text)
00000000  local     .bss (.bss)
00000000  local     .data (.data)
003f2b0e  local     .econst (.econst)
003f06f7  local     .text (.text)
003f06f7  global    ___rem_pio2f (.text)
003f2b0e  local     _invpio2 (.econst)
003f2b12  local     _pio2_1 (.econst)
003f2b16  local     _pio2_1t (.econst)


================================================================================

rts2800_ml.lib : k_rem_pio2.c.obj

Run/Load            
Value     Binding   Name (Section)
--------  --------  ---------------
003f2a4e  local     $C$FL1 (.econst)
003f2a52  local     $C$FL2 (.econst)
003f2a56  local     $C$FL3 (.econst)
003f2a5a  local     $C$FL4 (.econst)
003f2a5e  local     $C$FL5 (.econst)
003f2a62  local     $C$FL6 (.econst)
003f2a66  local     $C$FL7 (.econst)
003ed76f  local     $C$L1 (.text)
003ed829  local     $C$L10 (.text)
003ed856  local     $C$L11 (.text)
003ed876  local     $C$L12 (.text)
003ed89b  local     $C$L13 (.text)
003ed8ba  local     $C$L14 (.text)
003ed8c1  local     $C$L15 (.text)
003ed8de  local     $C$L16 (.text)
003ed92c  local     $C$L17 (.text)
003ed998  local     $C$L18 (.text)
003ed99c  local     $C$L19 (.text)
003ed797  local     $C$L2 (.text)
003ed9aa  local     $C$L20 (.text)
003ed9d3  local     $C$L21 (.text)
003ed9d8  local     $C$L22 (.text)
003ed9e3  local     $C$L23 (.text)
003ed9ef  local     $C$L24 (.text)
003ed9f4  local     $C$L25 (.text)
003ed9fa  local     $C$L26 (.text)
003eda17  local     $C$L27 (.text)
003eda23  local     $C$L28 (.text)
003eda4e  local     $C$L29 (.text)
003ed7a2  local     $C$L3 (.text)
003eda7c  local     $C$L30 (.text)
003edac7  local     $C$L31 (.text)
003edacc  local     $C$L32 (.text)
003edae4  local     $C$L33 (.text)
003edaee  local     $C$L34 (.text)
003edafd  local     $C$L35 (.text)
003edb07  local     $C$L36 (.text)
003edb22  local     $C$L37 (.text)
003edb32  local     $C$L38 (.text)
003edb34  local     $C$L39 (.text)
003ed7ae  local     $C$L4 (.text)
003edb54  local     $C$L40 (.text)
003edb7c  local     $C$L41 (.text)
003edb93  local     $C$L42 (.text)
003edba7  local     $C$L43 (.text)
003edbd5  local     $C$L44 (.text)
003edbf3  local     $C$L45 (.text)
003edc11  local     $C$L46 (.text)
003edc60  local     $C$L47 (.text)
003edc9a  local     $C$L48 (.text)
003edcb2  local     $C$L49 (.text)
003ed7bf  local     $C$L5 (.text)
003edcc3  local     $C$L50 (.text)
003edce0  local     $C$L51 (.text)
003edcfb  local     $C$L52 (.text)
003edd0e  local     $C$L53 (.text)
003edd1f  local     $C$L54 (.text)
003edd2d  local     $C$L55 (.text)
003edd37  local     $C$L56 (.text)
003edd58  local     $C$L57 (.text)
003edd69  local     $C$L58 (.text)
003edd77  local     $C$L59 (.text)
003ed7cb  local     $C$L6 (.text)
003edd81  local     $C$L60 (.text)
003edd8b  local     $C$L61 (.text)
003edd9e  local     $C$L62 (.text)
003eddaf  local     $C$L63 (.text)
003eddbd  local     $C$L64 (.text)
003eddc7  local     $C$L65 (.text)
003eddd0  local     $C$L66 (.text)
003ed7e8  local     $C$L7 (.text)
003ed80d  local     $C$L8 (.text)
003ed822  local     $C$L9 (.text)
00000000  local     .bss (.bss)
00000000  local     .data (.data)
003f2a3e  local     .econst (.econst)
003f2a92  local     .econst:_PIo2 (.econst:_PIo2)
003f2bb8  local     .econst:_init_jk (.econst:_init_jk)
003f296a  local     .econst:_ipio2 (.econst:_ipio2)
003ed741  local     .text (.text)
003f2a92  local     _PIo2 (.econst:_PIo2)
003ed741  global    ___kernel_rem_pio2 (.text)
003f2bb8  local     _init_jk (.econst:_init_jk)
003f296a  local     _ipio2 (.econst:_ipio2)
003f2a42  local     _one (.econst)
003f2a46  local     _two24 (.econst)
003f2a4a  local     _twon24 (.econst)
003f2a3e  local     _zero (.econst)


================================================================================

rts2800_ml.lib : exit.c.obj

Run/Load            
Value     Binding   Name (Section)
--------  --------  ---------------
003f0f4c  local     $C$L1 (.text)
003f0f5f  local     $C$L2 (.text)
003f0f6a  local     $C$L3 (.text)
003f0f70  local     $C$L4 (.text)
00000000  local     .bss (.bss)
003f3376  local     .cinit (.cinit)
00000000  local     .data (.data)
0000dc00  local     .ebss (.ebss)
003f0f4b  local     .text (.text)
003f0f4b  global    C$$EXIT (.text)
0000dc02  global    ___TI_cleanup_ptr (.ebss)
0000dc04  global    ___TI_dtors_ptr (.ebss)
0000dc00  global    ___TI_enable_exit_profile_output (.ebss)
003f0f4b  global    _abort (.text)
003f0f4d  global    _exit (.text)


================================================================================

rts2800_ml.lib : _lock.c.obj

Run/Load            
Value     Binding   Name (Section)
--------  --------  ---------------
00000000  local     .bss (.bss)
003f350b  local     .cinit:__lock (.cinit:__lock)
003f3510  local     .cinit:__unlock (.cinit:__unlock)
00000000  local     .data (.data)
0000da3e  local     .ebss:__lock (.ebss:__lock)
0000db3e  local     .ebss:__unlock (.ebss:__unlock)
003f1232  local     .text (.text)
0000da3e  global    __lock (.ebss:__lock)
003f123a  global    __nop (.text)
003f1236  global    __register_lock (.text)
003f1232  global    __register_unlock (.text)
0000db3e  global    __unlock (.ebss:__unlock)


================================================================================

rts2800_ml.lib : args_main.c.obj

Run/Load            
Value     Binding   Name (Section)
--------  --------  ---------------
003f1203  local     $C$L1 (.text)
003f1206  local     $C$L2 (.text)
00000000  local     .bss (.bss)
00000000  local     .data (.data)
003f11f8  local     .text (.text)
003f11f8  global    __args_main (.text)


================================================================================

rts2800_ml.lib : s_floor.c.obj

Run/Load            
Value     Binding   Name (Section)
--------  --------  ---------------
003f2baa  local     $C$FL1 (.econst)
003f2bae  local     $C$FL2 (.econst)
003f043c  local     $C$L1 (.text)
003f0494  local     $C$L10 (.text)
003f04b4  local     $C$L11 (.text)
003f04b6  local     $C$L12 (.text)
003f04c2  local     $C$L13 (.text)
003f04c7  local     $C$L14 (.text)
003f0441  local     $C$L2 (.text)
003f0442  local     $C$L3 (.text)
003f044a  local     $C$L4 (.text)
003f045d  local     $C$L5 (.text)
003f046c  local     $C$L6 (.text)
003f046f  local     $C$L7 (.text)
003f048b  local     $C$L8 (.text)
003f0491  local     $C$L9 (.text)
00000000  local     .bss (.bss)
00000000  local     .data (.data)
003f2ba6  local     .econst (.econst)
003f03e4  local     .text (.text)
003f03e4  global    _floorl (.text)
003f2ba6  local     _huge (.econst)


================================================================================

rts2800_ml.lib : s_scalbn.c.obj

Run/Load            
Value     Binding   Name (Section)
--------  --------  ---------------
003f2b36  local     $C$FL1 (.econst)
003f2b3a  local     $C$FL2 (.econst)
003f2b3e  local     $C$FL3 (.econst)
003f2b42  local     $C$FL4 (.econst)
003f0673  local     $C$L1 (.text)
003f068c  local     $C$L2 (.text)
003f069e  local     $C$L3 (.text)
003f06a9  local     $C$L4 (.text)
003f06be  local     $C$L5 (.text)
003f06c4  local     $C$L6 (.text)
003f06cf  local     $C$L7 (.text)
003f06ef  local     $C$L8 (.text)
003f06f3  local     $C$L9 (.text)
00000000  local     .bss (.bss)
00000000  local     .data (.data)
003f2b2a  local     .econst (.econst)
003f064d  local     .text (.text)
003f064d  global    _ldexpl (.text)
003f064d  global    _scalbnl (.text)
003f2b32  local     _tiny (.econst)
003f2b2a  local     _two54 (.econst)
003f2b2e  local     _twom54 (.econst)


================================================================================

rts2800_ml.lib : s_copysign.c.obj

Run/Load            
Value     Binding   Name (Section)
--------  --------  ---------------
003f102f  local     $C$L1 (.text)
00000000  local     .bss (.bss)
00000000  local     .data (.data)
003f100e  local     .text (.text)
003f100e  global    _copysignl (.text)


================================================================================

rts2800_ml.lib : k_cosf.c.obj

Run/Load            
Value     Binding   Name (Section)
--------  --------  ---------------
003f2a7e  local     $C$FL1 (.econst)
003f2a82  local     $C$FL2 (.econst)
003f2a86  local     $C$FL3 (.econst)
003f2a8a  local     $C$FL4 (.econst)
003f2a8e  local     $C$FL5 (.econst)
00000000  local     .bss (.bss)
00000000  local     .data (.data)
003f2a6a  local     .econst (.econst)
003f0b9a  local     .text (.text)
003f2a6e  local     _C0 (.econst)
003f2a72  local     _C1 (.econst)
003f2a76  local     _C2 (.econst)
003f2a7a  local     _C3 (.econst)
003f0b9a  global    ___kernel_cosdf (.text)
003f2a6a  local     _one (.econst)


================================================================================

rts2800_ml.lib : k_sinf.c.obj

Run/Load            
Value     Binding   Name (Section)
--------  --------  ---------------
003f2ac2  local     $C$FL1 (.econst)
003f2ac6  local     $C$FL2 (.econst)
003f2aca  local     $C$FL3 (.econst)
003f2ace  local     $C$FL4 (.econst)
00000000  local     .bss (.bss)
00000000  local     .data (.data)
003f2ab2  local     .econst (.econst)
003f08ce  local     .text (.text)
003f2ab2  local     _S1 (.econst)
003f2ab6  local     _S2 (.econst)
003f2aba  local     _S3 (.econst)
003f2abe  local     _S4 (.econst)
003f08ce  global    ___kernel_sindf (.text)


================================================================================

rts2800_ml.lib : fd_cmp28.asm.obj

Run/Load            
Value     Binding   Name (Section)
--------  --------  ---------------
00000000  local     .bss (.bss)
00000000  local     .data (.data)
003f0f21  local     .text (.text)
003f0f31  local     CHECK_INF (.text)
003f0f21  global    FD$$CMP (.text)
003f0f48  local     NO_NEG (.text)
003f0f49  local     OP_EQUAL (.text)
003f0f41  local     RETURN (.text)


================================================================================

rts2800_ml.lib : fd_tol28.asm.obj

Run/Load            
Value     Binding   Name (Section)
--------  --------  ---------------
00000000  local     .bss (.bss)
00000000  local     .data (.data)
003f1095  local     .text (.text)
003f1095  global    FD$$TOL (.text)
003f10ae  local     OVERFLOW (.text)
003f10ad  local     RETURN_VALUE (.text)
003f10b2  local     UNDERFLOW (.text)


================================================================================

rts2800_ml.lib : ll_aox28.asm.obj

Run/Load            
Value     Binding   Name (Section)
--------  --------  ---------------
00000000  local     .bss (.bss)
00000000  local     .data (.data)
003f1179  local     .text (.text)
003f1179  global    LL$$AND (.text)
003f1181  global    LL$$OR (.text)
003f1189  global    LL$$XOR (.text)


================================================================================

rts2800_ml.lib : i_div28.asm.obj

Run/Load            
Value     Binding   Name (Section)
--------  --------  ---------------
00000000  local     .bss (.bss)
00000000  local     .data (.data)
003f1031  local     .text (.text)
003f1031  global    I$$DIV (.text)
003f1042  global    I$$MOD (.text)
003f1041  local     RET1 (.text)
003f1051  local     RET2 (.text)


================================================================================

rts2800_ml.lib : l_tofd28.asm.obj

Run/Load            
Value     Binding   Name (Section)
--------  --------  ---------------
003f1136  local     $10 (.text)
00000000  local     .bss (.bss)
00000000  local     .data (.data)
003f1128  local     .text (.text)
003f1128  global    L$$TOFD (.text)
003f1142  local     OP_ZERO (.text)
003f1141  local     RETURN (.text)
003f113f  local     RETURN_VALUE (.text)


================================================================================

rts2800_ml.lib : fd_tofs28.asm.obj

Run/Load            
Value     Binding   Name (Section)
--------  --------  ---------------
00000000  local     .bss (.bss)
00000000  local     .data (.data)
003f1053  local     .text (.text)
003f1060  local     EXP_EVAL (.text)
003f1053  global    FD$$TOFS (.text)
003f106c  local     OVERFLOW (.text)
003f106b  local     RETURN_VALUE (.text)
003f1072  local     UNDERFLOW (.text)


================================================================================

rts2800_ml.lib : errno.c.obj

Run/Load            
Value     Binding   Name (Section)
--------  --------  ---------------
00000000  local     .bss (.bss)
003f3535  local     .cinit (.cinit)
00000000  local     .data (.data)
0000dc58  local     .ebss (.ebss)
00000000  local     .text (.text)
0000dc58  global    _errno (.ebss)


================================================================================

