******************************************************************************
             TMS320C2000 Linker PC v22.6.0                     
******************************************************************************
>> Linked Thu Jan 19 21:32:43 2023

OUTPUT FILE NAME:   <../../../04_Output_Files/ReleaseCS1107/TEST_CSMON_C28xx.out>
ENTRY POINT SYMBOL: "_c_int00"  address: 000898d1


MEMORY CONFIGURATION

         name            origin    length      used     unused   attr    fill
----------------------  --------  ---------  --------  --------  ----  --------
PAGE 0:
  RAMM0                 00000122   000002de  00000000  000002de  RWIX
  RAMLS0                00008000   00000800  00000062  0000079e  RWIX
  RAMLS1                00008800   00000800  00000000  00000800  RWIX
  RAMLS2                00009000   00000800  00000000  00000800  RWIX
  RAMLS3                00009800   00000800  00000000  00000800  RWIX
  RAMLS4                0000a000   00000800  00000000  00000800  RWIX
  RAMD0                 0000b000   00000800  00000000  00000800  RWIX
  RAMGS14               0001a000   00001000  00000000  00001000  RWIX
  RAMGS15               0001b000   00001000  00000000  00001000  RWIX
  BEGIN                 00080000   00000002  00000000  00000002  RWIX
  FLASHA                00080002   00001ffe  00000000  00001ffe  RWIX
  FLASHB                00082000   00002000  00001fff  00000001  RWIX
  FLASHC                00084000   00002000  00002000  00000000  RWIX
  FLASHD                00086000   00002000  00001ffd  00000003  RWIX
  FLASHE                00088000   00008000  00002e92  0000516e  RWIX
  FLASHF                00090000   00008000  000002a1  00007d5f  RWIX
  FLASHG                00098000   00008000  00000000  00008000  RWIX
  FLASHH                000a0000   00018000  00015800  00002800  RWIX
  FLASHK                000b8000   00002000  00000000  00002000  RWIX
  FLASHL                000ba000   00002000  00000000  00002000  RWIX
  FLASHM                000bc000   00002000  00000000  00002000  RWIX
  FLASHN                000be000   00002000  00000000  00002000  RWIX
  RESET                 003fffc0   00000002  00000000  00000002  RWIX

PAGE 1:
  BOOT_RSVD             00000002   00000120  00000000  00000120  RWIX
  RAMM1                 00000400   00000400  00000380  00000080  RWIX
  EMIF2_CS2n            00002000   00001000  00000000  00001000  RWIX
  RAMLS5                0000a800   00000800  00000800  00000000  RWIX
  RAMD1                 0000b800   00000800  00000000  00000800  RWIX
  RAMGS0                0000c000   00001000  00001000  00000000  RWIX
  RAMGS1                0000d000   00001000  00001000  00000000  RWIX
  RAMGS2                0000e000   00004000  00000e59  000031a7  RWIX
  RAMGS6                00012000   00001000  00000000  00001000  RWIX
  RAMGS7                00013000   00001000  00000000  00001000  RWIX
  RAMGS8                00014000   00001000  00000000  00001000  RWIX
  RAMGS9                00015000   00001000  00000000  00001000  RWIX
  RAMGS10               00016000   00001000  00000000  00001000  RWIX
  RAMGS11               00017000   00001000  00000000  00001000  RWIX
  RAMGS12               00018000   00001000  00000000  00001000  RWIX
  RAMGS13               00019000   00001000  00000000  00001000  RWIX
  CPU2TOCPU1RAM         0003f800   00000400  00000000  00000400  RWIX
  CPU1TOCPU2RAM         0003fc00   00000400  00000000  00000400  RWIX
  EMIF1_CS2n            00100000   00200000  00000000  00200000  RWIX
  FPGA_RAM              00300000   00000010  0000000a  00000006  RWIX
  EMIF1_CS4n            00380000   00060000  00000000  00060000  RWIX
  EMIF1_CS0n            80000000   10000000  00000000  10000000  RWIX
  EMIF2_CS0n            90000000   10000000  00000000  10000000  RWIX


SECTION ALLOCATION MAP

 output                                  attributes/
section   page    origin      length       input sections
--------  ----  ----------  ----------   ----------------
.cinit     0    00082000    000009a3     
                  00082000    000001d1     CSMON_C28xx.lib : hmmodbus.obj (.cinit)
                  000821d1    000001a0     main.obj (.cinit)
                  00082371    0000010a     CSMON_C28xx.lib : fpga_sci.obj (.cinit)
                  0008247b    000000e3                     : csmon.obj (.cinit)
                  0008255e    00000084                     : modbusreg.obj (.cinit)
                  000825e2    0000003f                     : csmon.obj (.cinit:_CSMON_au8FileRecorderDataElementsSizeTable)
                  00082621    00000033                     : hmrecparam.obj (.cinit:_sRecStatusParam)
                  00082654    00000030                     : csmon.obj (.cinit:_CSMON_au8FileRecorderConfigElementsSizeTable)
                  00082684    0000002d     PERIPHERAL_C28xx.lib : i2c_driver.obj (.cinit:_i2cMsgOut)
                  000826b1    0000002b     CSMON_C28xx.lib : csmon.obj (.cinit:_CSMON_au8FileScopeConfigurationElementsSizeTable)
                  000826dc    0000002a     emif_driver.obj (.cinit)
                  00082706    00000025     PERIPHERAL_C28xx.lib : i2c_driver.obj (.cinit:_i2cMsgIn)
                  0008272b    0000001f     CSMON_C28xx.lib : hmrecparam.obj (.cinit:_sRecStatusParamInternal)
                  0008274a    00000015                     : csmon.obj (.cinit:_CSMON_sFileAutorization)
                  0008275f    00000014                     : hmdrv.obj (.cinit)
                  00082773    00000014                     : hmprotocol.obj (.cinit)
                  00082787    00000013                     : modbusreg.obj (.cinit:_MODBUSREG_au8DeviceIDUserApplicationName)
                  0008279a    00000013                     : modbusreg.obj (.cinit:_MODBUSREG_au8DeviceIDVendorUrl)
                  000827ad    00000013                     : modbusreg.obj (.cinit:_MODBUSREG_au8ServerIDData)
                  000827c0    0000000f                     : device.obj (.cinit)
                  000827cf    0000000f                     : csmon.obj (.cinit:_CSMON_sDateTime)
                  000827de    0000000f                     : csmon.obj (.cinit:_CSMON_sDateTimeApplication)
                  000827ed    0000000f                     : csmon.obj (.cinit:_CSMON_sDateTimeDefault)
                  000827fc    0000000f                     : modbusreg.obj (.cinit:_MODBUSREG_au8DeviceIDModelName)
                  0008280b    0000000e     rts2800_fpu32.lib : exit.c.obj (.cinit)
                  00082819    0000000d     CSMON_C28xx.lib : tmr_drv.obj (.cinit)
                  00082826    0000000d                     : csmon.obj (.cinit:_CSMON_au8FileParameterCountElementsSizeTable)
                  00082833    0000000d                     : csmon.obj (.cinit:_CSMON_au8FileRTCElementsSizeTable)
                  00082840    0000000d                     : csmon.obj (.cinit:_sHashKey)
                  0008284d    0000000c     PERIPHERAL_C28xx.lib : ds3231mz.obj (.cinit)
                  00082859    0000000c     CSMON_C28xx.lib : csmon.obj (.cinit:_CSMON_au8FileParameterNumericElementsSizeTable)
                  00082865    0000000c                     : modbusreg.obj (.cinit:_MODBUSREG_au8DeviceIDProductName)
                  00082871    0000000c                     : modbusreg.obj (.cinit:_MODBUSREG_au8DeviceIDUserReserve0)
                  0008287d    0000000c                     : modbusreg.obj (.cinit:_MODBUSREG_au8DeviceIDUserReserve1)
                  00082889    0000000c                     : modbusreg.obj (.cinit:_MODBUSREG_au8DeviceIDUserReserve2)
                  00082895    0000000c                     : modbusreg.obj (.cinit:_MODBUSREG_au8DeviceIDVendorName)
                  000828a1    0000000b                     : hmrecparam.obj (.cinit:_HMRECPRM_sDateTime)
                  000828ac    0000000b                     : uart_drv.obj (.cinit:_UART_RXIntOverflowCounter)
                  000828b7    0000000b                     : tmr_drv.obj (.cinit:_pfDelayedFunction)
                  000828c2    0000000b                     : tmr_drv.obj (.cinit:_pfDelayedFunction_u8)
                  000828cd    0000000b                     : uart_drv.obj (.cinit:_u32TimeDiffLast)
                  000828d8    0000000b                     : uart_drv.obj (.cinit:_u32TimeDiffNow)
                  000828e3    0000000b                     : uart_drv.obj (.cinit:_u32TimeDiffRead)
                  000828ee    00000009                     : hmserial.obj (.cinit)
                  000828f7    00000009                     : csmon.obj (.cinit:_CSMON_au32FileAutorization_FunctionAfterWriteFileRecord)
                  00082900    00000009                     : csmon.obj (.cinit:_CSMON_sFileParameterCount)
                  00082909    00000009                     : hmscopeparam.obj (.cinit:_pBufferScope)
                  00082912    00000008                     : hmlib.obj (.cinit)
                  0008291a    00000007                     : csmon.obj (.cinit:_CSMON_au8FileParameterListElementsSizeTablePart1)
                  00082921    00000007                     : csmon.obj (.cinit:_CSMON_au8FileRecorderStatusElementsSizeTable)
                  00082928    00000007                     : hmmodbus.obj (.cinit:_HMMODBUS_u32RegisterAddressInRamDummy)
                  0008292f    00000007                     : modbusreg.obj (.cinit:_MODBUSREG_au8DeviceIDMajorMinorRevision)
                  00082936    00000007                     : modbusreg.obj (.cinit:_MODBUSREG_au8DeviceIDProductCode)
                  0008293d    00000007                     : uart_drv.obj (.cinit:_UARTRxBufferRDCount)
                  00082944    00000007                     : uart_drv.obj (.cinit:_UARTRxBufferRDIndex)
                  0008294b    00000007                     : uart_drv.obj (.cinit:_UARTRxBufferWRCount)
                  00082952    00000007                     : uart_drv.obj (.cinit:_UARTRxBufferWRIndex)
                  00082959    00000006                     : csmon.obj (.cinit:_CSMON_abFileAutorization_RecordReadOnly)
                  0008295f    00000006                     : csmon.obj (.cinit:_CSMON_abFileAutorization_RecordStringData)
                  00082965    00000006                     : csmon.obj (.cinit:_CSMON_au16FileAutorization_RecordOffsets)
                  0008296b    00000006                     : csmon.obj (.cinit:_CSMON_au8FileRecorderDataElementsSizeTableUsedLength)
                  00082971    00000006                     : csmon.obj (.cinit:_CSMON_sFileProtocolVersion)
                  00082977    00000005     rts2800_fpu32.lib : _lock.c.obj (.cinit:__lock)
                  0008297c    00000005                       : _lock.c.obj (.cinit:__unlock)
                  00082981    00000004     CSMON_C28xx.lib : hmscopeparam.obj (.cinit)
                  00082985    00000004                     : uart_drv.obj (.cinit)
                  00082989    00000004                     : csmon.obj (.cinit:_CSMON_au8FileParameterListElementsSizeTablePart2)
                  0008298d    00000004                     : csmon.obj (.cinit:_CSMON_au8FileParameterListElementsSizeTablePart3)
                  00082991    00000004                     : csmon.obj (.cinit:_CSMON_au8FileScopeStatusElementsSizeTable)
                  00082995    00000004                     : csmon.obj (.cinit:_CSMON_sFileParameterAccessList)
                  00082999    00000004                     : modbusreg.obj (.cinit:_MODBUSREG_asFileTable)
                  0008299d    00000004     PERIPHERAL_C28xx.lib : ds3231mz.obj (.cinit:_au8ReadBuffer)
                  000829a1    00000002     --HOLE-- [fill = 0]

.pinit     0    00082000    00000000     UNINITIALIZED

.TI.ramfunc 
*          0    00086000    00000062     RUN ADDR = 00008000
                  00086000    0000005e     flash.obj (.TI.ramfunc)
                  0008605e    00000004     sysctl.obj (.TI.ramfunc)

.stack     1    00000400    00000380     UNINITIALIZED
                  00000400    00000380     --HOLE--

.switch    0    000829a4    00000020     
                  000829a4    00000020     CSMON_C28xx.lib : csmon.obj (.switch:_CSMON_eSetParameter)

.reset     0    003fffc0    00000002     DSECT
                  003fffc0    00000002     rts2800_fpu32.lib : boot28.asm.obj (.reset)

.fpgaram   1    00300000    0000000a     UNINITIALIZED
                  00300000    0000000a     fpga_driver.obj (.fpgaram)

GETBUFFER 
*          0    0003f800    00000000     DSECT

GETWRITEIDX 
*          0    0003f800    00000000     DSECT

PUTREADIDX 
*          0    0003f800    00000000     DSECT

.text.1    0    000829c4    0000163c     
                  000829c4    00000d30     CSMON_C28xx.lib : hmmodbus.obj (.text:_HMMODBUS_bDecoder_OPT)
                  000836f4    0000075b                     : hmmodbus.obj (.text:_HMMODBUS_WriteFileRecord)
                  00083e4f    00000001                     : hmprotocol.obj (.text:_HMPROTOCOL_vInit)
                  00083e50    000001ac     PERIPHERAL_C28xx.lib : i2c_driver.obj (.text)
                  00083ffc    00000004     CSMON_C28xx.lib : csmon.obj (.text:_CSMON_eRegisterWriteParElementCallbackFunction)

.text.2    0    00084000    00002000     
                  00084000    00000a52     CSMON_C28xx.lib : modbusreg.obj (.text:_MODBUSREG_AddressTablesInit)
                  00084a52    000009c0                     : hmmodbus.obj (.text:_HMMODBUS_ReadFileRecord)
                  00085412    0000052f                     : csmon.obj (.text:_CSMON_eSetParameter)
                  00085941    000004b3     main.obj (.text)
                  00085df4    000001bc     CSMON_C28xx.lib : csmon.obj (.text:_CSMON_eInit)
                  00085fb0    0000004f                     : hmrecparam.obj (.text:_HMRECPRM_SetUpRecParamStatusDateTime)
                  00085fff    00000001     rts2800_fpu32.lib : startup.c.obj (.text)

.text.3    0    00086064    00001f9b     
                  00086064    00000436     sysctl.obj (.text)
                  0008649a    000002b7     emif_driver.obj (.text)
                  00086751    00000283     CSMON_C28xx.lib : hmdrv.obj (.text:_HMDRV_CopyMemory)
                  000869d4    00000192                     : csmon.obj (.text:_CSMON_eProcess)
                  00086b66    0000018d     gpio.obj (.text)
                  00086cf3    0000016f     CSMON_C28xx.lib : hmdrv.obj (.text:_HMDRV_CopyToBufferInternal)
                  00086e62    0000016d                     : hmmodbus.obj (.text:_HMMODBUS_Rx)
                  00086fcf    00000168                     : csmon.obj (.text:_CSMON_eSetUpRecParam)
                  00087137    00000161                     : csmon.obj (.text:_CSMON_u32GetParameterListCheckSum)
                  00087298    00000161                     : csmon.obj (.text:_CSMON_vSaveRecorderConfiguration)
                  000873f9    00000001     --HOLE-- [fill = 0]
                  000873fa    00000156     interrupt.obj (.text)
                  00087550    00000135     CSMON_C28xx.lib : hmdrv.obj (.text:_HMDRV_vInit)
                  00087685    00000128                     : hmmodbus.obj (.text:_HMMODBUS_vSetFreeRunTimerPrescaller)
                  000877ad    0000011f                     : hmmodbus.obj (.text:_HMMODBUS_GetRealRegisterAddressAndSize)
                  000878cc    00000108     PERIPHERAL_C28xx.lib : i2c_driver.obj (.text:retain)
                  000879d4    00000107     rts2800_fpu32.lib : ll_div28.asm.obj (.text)
                  00087adb    000000f9     CSMON_C28xx.lib : hmprotocol.obj (.text:_HMPROTOCOL_bDecoder)
                  00087bd4    000000f4                     : csmon.obj (.text:_CSMON_vFileRecoderStatusFix)
                  00087cc8    000000f4                     : hmmodbus.obj (.text:_HMMODBUS_ReadHoldingRegister)
                  00087dbc    000000e5                     : hmmodbus.obj (.text:_HMMODBUS_WriteHoldingRegister)
                  00087ea1    000000e1                     : device.obj (.text:_Device_enableAllPeripherals)
                  00087f82    0000007d                     : hmserial.obj (.text:_HMSERIAL_vProcessSCI)

.text.4    0    00088000    00002e92     
                  00088000    000000d8     CSMON_C28xx.lib : csmon.obj (.text:_CSMON_vSetupHoldingRegistersAndCoilsAddressTableFromCSMONParameterList)
                  000880d8    000000d7                     : hmrecparam.obj (.text:_HMRECPRM_vProcess)
                  000881af    000000d5     sci.obj (.text)
                  00088284    000000cf     CSMON_C28xx.lib : csmon.obj (.text:_CSMON_vSaveRecorderConfigTrigger)
                  00088353    000000c1                     : hmrecparam.obj (.text:_HMRECPRM_SetUpRec)
                  00088414    000000bf                     : hmdrv.obj (.text:_HMDRV_CopyToBufferInternalModbus)
                  000884d3    000000be                     : tmr_drv.obj (.text:_TMR2_ISR)
                  00088591    000000bd                     : hmrec.obj (.text:_HMREC_SetUpRec)
                  0008864e    000000b2                     : csmon.obj (.text:_CSMON_vCheckSaveRecorderTable)
                  00088700    000000b2                     : hmdrv.obj (.text:_HMDRV_CopyFromBufferInternalModbusBitField)
                  000887b2    000000a5                     : modbusreg.obj (.text:_MODBUSREG_vFileAllowAccess)
                  00088857    000000a4                     : csmon.obj (.text:_CSMON_vPrepareFileParameterAccessList)
                  000888fb    000000a0                     : csmon.obj (.text:_CSMON_u32GetParameterCheckSum)
                  0008899b    0000009c     rts2800_fpu32.lib : fd_add28.asm.obj (.text)
                  00088a37    00000001     --HOLE-- [fill = 0]
                  00088a38    0000009a     CSMON_C28xx.lib : csmon.obj (.text:_CSMON_vLoadRecorderConfiguration)
                  00088ad2    0000009a     i2c.obj (.text)
                  00088b6c    00000094     CSMON_C28xx.lib : csmon.obj (.text:_CSMON_u32GetParameterNumbCheckSum)
                  00088c00    00000091                     : csmon.obj (.text:_CSMON_vSetDateTimeAutorization)
                  00088c91    00000091                     : hmdrv.obj (.text:_HMDRV_CopyFromBufferInternal)
                  00088d22    0000008e                     : csmon.obj (.text:_CSMON_u32GetParameterShortNameCheckSum)
                  00088db0    0000008e                     : csmon.obj (.text:_CSMON_vInitRecorders)
                  00088e3e    0000008b     rts2800_fpu32.lib : fd_div28.asm.obj (.text)
                  00088ec9    00000088                       : fs_div28.asm.obj (.text)
                  00088f51    00000083     CSMON_C28xx.lib : hmdrv.obj (.text:_HMDRV_CopyFromBufferInternalModbus)
                  00088fd4    00000083     rts2800_fpu32.lib : fd_mpy28.asm.obj (.text)
                  00089057    0000007f     CSMON_C28xx.lib : hmrecparam.obj (.text:_HMRECPRM_vTimeSync)
                  000890d6    00000077                     : csmon.obj (.text:_CSMON_u32GetParameterStringCheckSum)
                  0008914d    00000077                     : csmon.obj (.text:_CSMON_vCheckLoadRecorderTable)
                  000891c4    00000073                     : csmon.obj (.text:_CSMON_u16FindIndexParameterTable)
                  00089237    00000070                     : hmmodbus.obj (.text:_HMMODBUS_vProcessSCI)
                  000892a7    0000006d                     : modbusreg.obj (.text:_MODBUSREG_vInit)
                  00089314    0000006b                     : csmon.obj (.text:_CSMON_vLoadRecorderConfigTrigger)
                  0008937f    0000006b                     : hmmodbus.obj (.text:_HMMODBUS_CopyFromBuffer)
                  000893ea    00000069                     : hmrec.obj (.text:_HMREC_vProcess)
                  00089453    00000001     --HOLE-- [fill = 0]
                  00089454    00000068                     : hmprotocol.obj (.text:_HMPROTOCOL_GetBoardInfo)
                  000894bc    00000066                     : hmdrv.obj (.text:_HMDRV_CopyFromBufferInternalWithMask)
                  00089522    00000066     rts2800_fpu32.lib : s_sinf.c.obj (.text)
                  00089588    00000065     CSMON_C28xx.lib : hmserial.obj (.text:_HMSERIAL_Rx)
                  000895ed    00000065                     : uart_drv.obj (.text:_UART_RXInterrupt)
                  00089652    00000061                     : modbusreg.obj (.text:_MODBUSREG_vFileDenyAccess)
                  000896b3    0000005f                     : hmmodbus.obj (.text:_vSetElementsSize)
                  00089712    0000005e                     : modbusreg.obj (.text:_MODBUSREG_FileRecorderExternalUpdateInit)
                  00089770    0000005a                     : csmon.obj (.text:_CSMON_vRecorderParamStartStopProcess)
                  000897ca    0000005a     fpga_driver.obj (.text)
                  00089824    00000057     CSMON_C28xx.lib : csmon.obj (.text:_CSMON_bCheckValidDateTime)
                  0008987b    00000056                     : hmlib.obj (.text:_HMLIB_vInit)
                  000898d1    00000056     rts2800_fpu32.lib : boot28.asm.obj (.text)
                  00089927    00000051     CSMON_C28xx.lib : hmmodbus.obj (.text:_HMMODBUS_GetRegisterFunction)
                  00089978    0000004c                     : hmmodbus.obj (.text:_HMMODBUS_vSendResponse)
                  000899c4    0000004b                     : csmon.obj (.text:_CSMON_eSetRecorderTriggerAtPosition)
                  00089a0f    00000049                     : hmdrv.obj (.text:_HMDRV_CopyFromBufferInternalWithMaskModbus)
                  00089a58    00000049                     : hmmodbus.obj (.text:_HMMODBUS_CopyToBuffer)
                  00089aa1    00000048                     : hmscopeparam.obj (.text:_HMSCOPEPRM_ReadScope)
                  00089ae9    00000047                     : hmscopeparam.obj (.text:_HMSCOPEPRM_SetUpScope)
                  00089b30    00000046                     : csmon.obj (.text:_CSMON_eSetRecorderConfigurationSkipSamples)
                  00089b76    00000046                     : hmserial.obj (.text:_HMSERIAL_vSendResponse)
                  00089bbc    00000046                     : hmmodbus.obj (.text:_vSetIndexFileTable)
                  00089c02    0000003e                     : sci_drv.obj (.text:_SCIA_RXFIFOISR)
                  00089c40    0000003e                     : sci_drv.obj (.text:_SCIA_TXFIFOISR)
                  00089c7e    0000003e                     : sci_drv.obj (.text:_SCIB_RXFIFOISR)
                  00089cbc    0000003e                     : sci_drv.obj (.text:_SCIB_TXFIFOISR)
                  00089cfa    0000003e                     : uart_drv.obj (.text:_UART_ReadDataRx)
                  00089d38    0000003d                     : sci_drv.obj (.text:_SCIC_RXFIFOISR)
                  00089d75    0000003d                     : sci_drv.obj (.text:_SCIC_TXFIFOISR)
                  00089db2    0000003d                     : sci_drv.obj (.text:_SCID_RXFIFOISR)
                  00089def    0000003d                     : sci_drv.obj (.text:_SCID_TXFIFOISR)
                  00089e2c    0000003d                     : hmmodbus.obj (.text:_vSetStartSampleIndex)
                  00089e69    0000003c                     : hmscope.obj (.text:_HMSCOPE_SetUpScope)
                  00089ea5    0000003b                     : hmrecparam.obj (.text:_HMRECPRM_StartRecParam)
                  00089ee0    0000003a                     : csmon.obj (.text:_CSMON_vSetupHoldingRegistersAndCoilsAddressTableAccessAll)
                  00089f1a    00000037                     : hmmodbus.obj (.text:_HMMODBUS_bDecoderInit_OPT)
                  00089f51    00000035                     : hmdrv.obj (.text:_HMDRV_GetStringLengthInternal)
                  00089f86    00000033                     : hmmodbus.obj (.text:_HMMODBUS_Listen)
                  00089fb9    00000033                     : hmscope.obj (.text:_HMSCOPE_ReadScope)
                  00089fec    00000033                     : tmr_drv.obj (.text:_configCPUTimer)
                  0008a01f    00000032     PERIPHERAL_C28xx.lib : ds3231mz.obj (.text)
                  0008a051    00000032     CSMON_C28xx.lib : device.obj (.text:_Device_init)
                  0008a083    00000031                     : csmon.obj (.text:_CSMON_u32GetRealAddressAndSizeOffsetFromParameter)
                  0008a0b4    00000030                     : csmon.obj (.text:_CSMON_u32GetParameterAuxCheckSum)
                  0008a0e4    0000002f                     : csmon.obj (.text:_CSMON_eSetParameterInRecorderAtPosition)
                  0008a113    0000002e                     : csmon.obj (.text:_CSMON_vRecorderParamSetupProcess)
                  0008a141    0000002e                     : hmserial.obj (.text:_HMSERIAL_vProcessSCIFreemasterOnly)
                  0008a16f    0000002d                     : csmon.obj (.text:_CSMON_eSetParameterInScopeAtPosition)
                  0008a19c    0000002d                     : hmrecparam.obj (.text:_FillTimeData)
                  0008a1c9    0000002d                     : hmserial.obj (.text:_HMSERIAL_Listen)
                  0008a1f6    0000002a                     : hmrecparam.obj (.text:_RecorderDateFromLocalDateTime)
                  0008a220    00000029                     : fpga_sci.obj (.text:_FPGA_SCI_vProcessUartTx)
                  0008a249    00000029     rts2800_fpu32.lib : exit.c.obj (.text)
                  0008a272    00000028     CSMON_C28xx.lib : csmon.obj (.text:_CSMON_bAutorizationPasswordCheck)
                  0008a29a    00000028                     : csmon.obj (.text:_CSMON_vSaveRecorderConfig)
                  0008a2c2    00000028                     : hmserial.obj (.text:_HMSERIAL_Tx)
                  0008a2ea    00000028                     : hmrecparam.obj (.text:_RecorderTimeFromLocalDateTime)
                  0008a312    00000027                     : hmserial.obj (.text:_HMSERIAL_vProcessSCITXISR)
                  0008a339    00000024                     : csmon.obj (.text:_CSMON_vAutorizationReset)
                  0008a35d    00000024                     : csmon.obj (.text:_CSMON_vInitParameterListRealAddressRecordTables)
                  0008a381    00000024                     : hmprotocol.obj (.text:_HMPROTOCOL_ReadMem)
                  0008a3a5    00000024                     : modbusreg.obj (.text:_MODBUSREG_FileRecorderElementSizeTableUsedSizeUpdateInit)
                  0008a3c9    00000024                     : hmmodbus.obj (.text:_vSetSampleCountAvailable)
                  0008a3ed    00000024     rts2800_fpu32.lib : cpy_tbl.c.obj (.text)
                  0008a411    00000023     CSMON_C28xx.lib : csmon.obj (.text:_CSMON_vUpdateDateTimeFromApplication)
                  0008a434    00000021                     : csmon.obj (.text:_CSMON_eApplyParameterChanges)
                  0008a455    00000020                     : hmdrv.obj (.text:_HMDRV_vProcess)
                  0008a475    00000020                     : tmr_drv.obj (.text:_TMR_vInitCPUTimers)
                  0008a495    00000020                     : hmmodbus.obj (.text:_vSetSampleCountBuffer)
                  0008a4b5    00000020                     : hmmodbus.obj (.text:_vSetSampleSize)
                  0008a4d5    0000001f                     : hmmodbus.obj (.text:_HMMODBUS_Tx)
                  0008a4f4    0000001f                     : hmmodbus.obj (.text:_HMMODBUS_vInit)
                  0008a513    0000001f                     : hmrecparam.obj (.text:_HMRECPRM_GetRecBuffFreemaster)
                  0008a532    0000001f                     : hmrec.obj (.text:_HMREC_GetRecBuffFreemaster)
                  0008a551    0000001e                     : device.obj (.text:_Device_initGPIO)
                  0008a56f    0000001e                     : tmr_drv.obj (.text:_TMR_vInit)
                  0008a58d    0000001d                     : device.obj (.text:_Device_enableUnbondedGPIOPullupsFor100Pin)
                  0008a5aa    0000001d     rts2800_fpu32.lib : memcpy.c.obj (.text)
                  0008a5c7    0000001c     CSMON_C28xx.lib : hmrecparam.obj (.text:_HMRECPRM_StartRec)
                  0008a5e3    0000001b                     : csmon.obj (.text:_CSMON_eSetParameterCountInRecorder)
                  0008a5fe    0000001b                     : hmdrv.obj (.text:_HMDRV_AddressToBuffer)
                  0008a619    0000001b     rts2800_fpu32.lib : fd_toul28.asm.obj (.text)
                  0008a634    0000001a     CSMON_C28xx.lib : csmon.obj (.text:_CSMON_vFileParameterCountCheckSumUpdate)
                  0008a64e    0000001a                     : hmmodbus.obj (.text:_HMMODBUS_vProcessSCITXISR)
                  0008a668    0000001a                     : csmon.obj (.text:_HMRECPRM_vGetDateTime)
                  0008a682    0000001a                     : hmserial.obj (.text:_HMSERIAL_vProcessSCITXISRFreemasterOnly)
                  0008a69c    0000001a                     : uart_drv.obj (.text:_UART_vInit)
                  0008a6b6    0000001a                     : hmmodbus.obj (.text:_bGetFileReadAccess)
                  0008a6d0    00000019                     : hmdrv.obj (.text:_HMDRV_AddressFromBuffer)
                  0008a6e9    00000018                     : hmlib.obj (.text:_HMLIB_vProcessSCITXISRWithIndex)
                  0008a701    00000018                     : hmprotocol.obj (.text:_HMPROTOCOL_WriteMem)
                  0008a719    00000018                     : hmprotocol.obj (.text:_HMPROTOCOL_WriteMemMask)
                  0008a731    00000018                     : modbusreg.obj (.text:_MODBUSREG_vInitHoldingRegistersTableChanges)
                  0008a749    00000017                     : csmon.obj (.text:_CSMON_u32GetFreeRunningTimerMicroseconds)
                  0008a760    00000017                     : hmmodbus.obj (.text:_HMMODBUS_vProcessTxDelay)
                  0008a777    00000017                     : hmrec.obj (.text:_HMREC_StartRec)
                  0008a78e    00000017                     : hmmodbus.obj (.text:_vSetBufferAddressStart)
                  0008a7a5    00000017     rts2800_fpu32.lib : u_tofd28.asm.obj (.text)
                  0008a7bc    00000016     CSMON_C28xx.lib : csmon.obj (.text:_CSMON_eSetParameterCountInScope)
                  0008a7d2    00000016                     : hmdrv.obj (.text:_HMDRV_AddressFromBufferBigEndian)
                  0008a7e8    00000015                     : csmon.obj (.text:_CSMON_eResetParameterTable)
                  0008a7fd    00000015                     : hmrecparam.obj (.text:_HMRECPRM_vResetAllStopDetections)
                  0008a812    00000014                     : hmlib.obj (.text:_HMLIB_vProcessFastTD)
                  0008a826    00000014                     : hmmodbus.obj (.text:_HMMODBUS_DelayedTx)
                  0008a83a    00000014                     : hmrecparam.obj (.text:_HMRECPRM_StopRecParam)
                  0008a84e    00000014                     : hmserial.obj (.text:_HMSERIAL_DelayedTx)
                  0008a862    00000013                     : csmon.obj (.text:_CSMON_eSetFlagProcessPassed)
                  0008a875    00000013                     : device.obj (.text:_Device_enableUnbondedGPIOPullupsFor176Pin)
                  0008a888    00000013                     : hmrecparam.obj (.text:_HMRECPRM_Comparefloat)
                  0008a89b    00000013                     : hmrec.obj (.text:_HMREC_Comparefloat)
                  0008a8ae    00000013                     : hmserial.obj (.text:_HMSERIAL_vInit)
                  0008a8c1    00000012                     : fpga_sci.obj (.text:_FPGA_SCI_vProcessFastTD)
                  0008a8d3    00000012                     : hmdrv.obj (.text:_HMDRV_GetStringLengthFromWordInternal)
                  0008a8e5    00000012                     : uart_drv.obj (.text:_UART_TxIntDis)
                  0008a8f7    00000012                     : uart_drv.obj (.text:_UART_TxIntEna)
                  0008a909    00000012     rts2800_fpu32.lib : args_main.c.obj (.text)
                  0008a91b    00000011     CSMON_C28xx.lib : hmrecparam.obj (.text:_HMRECPRM_CompareBOOL)
                  0008a92c    00000010                     : device.obj (.text:_Device_enableUnbondedGPIOPullups)
                  0008a93c    00000010                     : hmlib.obj (.text:_HMLIB_vInitRecParamBuff)
                  0008a94c    00000010                     : hmmodbus.obj (.text:_HMMODBUS_vSetupRegisterDummy)
                  0008a95c    00000010                     : hmrecparam.obj (.text:_HMRECPRM_Compare16S)
                  0008a96c    00000010                     : hmrecparam.obj (.text:_HMRECPRM_Compare16U)
                  0008a97c    00000010                     : hmrecparam.obj (.text:_HMRECPRM_Compare32S)
                  0008a98c    00000010                     : hmrecparam.obj (.text:_HMRECPRM_Compare32U)
                  0008a99c    00000010                     : hmrecparam.obj (.text:_HMRECPRM_Compare8S)
                  0008a9ac    00000010                     : hmrecparam.obj (.text:_HMRECPRM_Compare8U)
                  0008a9bc    00000010                     : hmrec.obj (.text:_HMREC_Compare16S)
                  0008a9cc    00000010                     : hmrec.obj (.text:_HMREC_Compare16U)
                  0008a9dc    00000010                     : hmrec.obj (.text:_HMREC_Compare32S)
                  0008a9ec    00000010                     : hmrec.obj (.text:_HMREC_Compare32U)
                  0008a9fc    00000010                     : hmrec.obj (.text:_HMREC_Compare8S)
                  0008aa0c    00000010                     : hmrec.obj (.text:_HMREC_Compare8U)
                  0008aa1c    00000010                     : hmmodbus.obj (.text:_u32BytesMemoryToBytesModbus)
                  0008aa2c    00000010                     : hmmodbus.obj (.text:_u32BytesModbusToBytesMemory)
                  0008aa3c    0000000f                     : csmon.obj (.text:_CSMON_vInitHoldingRegistersTableChanges)
                  0008aa4b    0000000f                     : hmlib.obj (.text:_HMLIB_vProcessRecorders)
                  0008aa5a    0000000f                     : hmmodbus.obj (.text:_HMMODBUS_CalcCRC)
                  0008aa69    0000000f                     : hmrecparam.obj (.text:_HMRECPRM_IsJustStopped)
                  0008aa78    0000000f                     : uart_drv.obj (.text:_UART_IsTxEmpty)
                  0008aa87    0000000f                     : hmmodbus.obj (.text:_bIsValidEndAddressInBuffer)
                  0008aa96    0000000e                     : hmrecparam.obj (.text:_HMRECPRM_vDisableAllStopDetections)
                  0008aaa4    0000000e                     : hmmodbus.obj (.text:_u32FitAddressCircleBufferInside)
                  0008aab2    0000000e     rts2800_fpu32.lib : fd_sub28.asm.obj (.text)
                  0008aac0    0000000d     CSMON_C28xx.lib : hmrecparam.obj (.text:_HMRECPRM_StopRec)
                  0008aacd    0000000d                     : hmrecparam.obj (.text:_HMRECPRM_TriggerRec)
                  0008aada    0000000d                     : hmrec.obj (.text:_HMREC_StopRec)
                  0008aae7    0000000d                     : tmr_drv.obj (.text:_TIMER_vSetupTimerMainFunctionDelayCompare)
                  0008aaf4    0000000d                     : uart_drv.obj (.text:_UART_ReadDataRxAvailable)
                  0008ab01    0000000c                     : hmlib.obj (.text:_HMLIB_vProcess)
                  0008ab0d    0000000c                     : hmrecparam.obj (.text:_HMRECPRM_GetBufferRecParamPtrAddress)
                  0008ab19    0000000c                     : hmrec.obj (.text:_HMREC_TriggerRec)
                  0008ab25    0000000c                     : hmmodbus.obj (.text:_u32FixAddressCircleBufferOverflow)
                  0008ab31    0000000b                     : hmmodbus.obj (.text:_HMMODBUS_vProcessFastTD)
                  0008ab3c    0000000b                     : hmrecparam.obj (.text:_HMRECPRM_IsRunning)
                  0008ab47    0000000b                     : hmserial.obj (.text:_HMSERIAL_vProcessFastTD)
                  0008ab52    0000000b                     : modbusreg.obj (.text:_MODBUSREG_vDataZero)
                  0008ab5d    0000000b                     : hmmodbus.obj (.text:_bIsValidIndexFileTable)
                  0008ab68    0000000b     rts2800_fpu32.lib : u_div28.asm.obj (.text)
                  0008ab73    0000000a     PERIPHERAL_C28xx.lib : peripheral.obj (.text)
                  0008ab7d    0000000a     CSMON_C28xx.lib : csmon.obj (.text:_CSMON_vInitScopes)
                  0008ab87    0000000a                     : hmrecparam.obj (.text:_HMRECPRM_ClrLastStopDetectionToRecorderStopSamplesCounter)
                  0008ab91    0000000a                     : hmrecparam.obj (.text:_HMRECPRM_GetRecStatus)
                  0008ab9b    0000000a                     : hmrec.obj (.text:_HMREC_GetRecStatus)
                  0008aba5    00000009                     : csmon.obj (.text:_CSMON_eSetServerOnStatus)
                  0008abae    00000009                     : hmmodbus.obj (.text:_HMMODBUS_vProcessRxDelay)
                  0008abb7    00000009                     : hmrecparam.obj (.text:_HMRECPRM_GetExternBufferRecParamLastPointedAddress)
                  0008abc0    00000009                     : hmrecparam.obj (.text:_HMRECPRM_GetExternBufferRecParamPtrAddress)
                  0008abc9    00000009                     : hmrecparam.obj (.text:_HMRECPRM_vInit)
                  0008abd2    00000009                     : hmscopeparam.obj (.text:_HMSCOPEPRM_GetBufferScopeParamAddress)
                  0008abdb    00000009                     : tmr_drv.obj (.text:_TIMER_vResetTimerMainFunctionDelayCounter)
                  0008abe4    00000009                     : tmr_drv.obj (.text:_TIMER_vSetupTimerMainDelayedFunctionSendData)
                  0008abed    00000009                     : uart_drv.obj (.text:_UART_PutChar)
                  0008abf6    00000009                     : uart_drv.obj (.text:_UART_ReadDataRxTimeDiff)
                  0008abff    00000009                     : uart_drv.obj (.text:_UART_TXInterrupt)
                  0008ac08    00000009                     : uart_drv.obj (.text:_UART_TransmitDisable)
                  0008ac11    00000009                     : uart_drv.obj (.text:_UART_TxDis)
                  0008ac1a    00000009                     : uart_drv.obj (.text:_UART_TxEna)
                  0008ac23    00000009     rts2800_fpu32.lib : _lock.c.obj (.text)
                  0008ac2c    00000008     CSMON_C28xx.lib : csmon.obj (.text:_CSMON_vSetupInputRegistersAndCoilsAddressTableAccessAll)
                  0008ac34    00000008                     : csmon.obj (.text:_CSMON_vSetupInputRegistersAndCoilsAddressTableFromCSMONParameterList)
                  0008ac3c    00000008                     : hmdrv.obj (.text:_HMDRV_CopyFromBufferWithMaskModbus)
                  0008ac44    00000008                     : hmmodbus.obj (.text:_HMMODBUS_vProcessFreeTimer)
                  0008ac4c    00000008                     : hmrecparam.obj (.text:_HMRECPRM_GetExternRecParamAddress)
                  0008ac54    00000008                     : hmrecparam.obj (.text:_HMRECPRM_GetExternRecParamPtrMaximumUsedSampleCount)
                  0008ac5c    00000008                     : hmrecparam.obj (.text:_HMRECPRM_GetExternRecParamPtrSampleSize)
                  0008ac64    00000008                     : hmrecparam.obj (.text:_HMRECPRM_GetRecParamPtrAvailableSampleCount)
                  0008ac6c    00000008                     : hmrecparam.obj (.text:_HMRECPRM_GetRecParamPtrLastSampleIndex)
                  0008ac74    00000008                     : hmrecparam.obj (.text:_HMRECPRM_GetRecParamPtrMaximumUsedSampleCount)
                  0008ac7c    00000008                     : hmrecparam.obj (.text:_HMRECPRM_GetRecParamPtrSampleSize)
                  0008ac84    00000008                     : hmrecparam.obj (.text:_HMRECPRM_GetStatusInternalRecParamAddress)
                  0008ac8c    00000008                     : hmrecparam.obj (.text:_HMRECPRM_GetStatusRecParamAddress)
                  0008ac94    00000008                     : hmrec.obj (.text:_HMREC_vInit)
                  0008ac9c    00000008                     : hmserial.obj (.text:_HMSERIAL_vProcessFreeTimer)
                  0008aca4    00000007                     : hmlib.obj (.text:_HMLIB_vProcessDifferentPorts)
                  0008acab    00000007                     : hmscopeparam.obj (.text:_HMSCOPEPRM_GetStatusScopeParamAddress)
                  0008acb2    00000006                     : hmmodbus.obj (.text:_HMMODBUS_vSetupHoldingRegistersAddressTable)
                  0008acb8    00000006                     : hmmodbus.obj (.text:_HMMODBUS_vSetupHoldingRegistersAddressTableInRam)
                  0008acbe    00000006                     : sci_drv.obj (.text:_SCI_u32GetBaseFromModuleIndex)
                  0008acc4    00000006                     : tmr_drv.obj (.text:_TIMER_u16ResetTimerMainPeriod)
                  0008acca    00000006                     : uart_drv.obj (.text:_UART_GetChar)
                  0008acd0    00000006     cputimer.obj (.text)
                  0008acd6    00000005     CSMON_C28xx.lib : csmon.obj (.text:_CSMON_eSetAutoServiceWatchdogInternalSlowCalculationsInMainLoop)
                  0008acdb    00000005                     : csmon.obj (.text:_CSMON_eSetFirmwareApplicationVersion)
                  0008ace0    00000005                     : csmon.obj (.text:_CSMON_eSetMaxTimeInISR)
                  0008ace5    00000005                     : csmon.obj (.text:_CSMON_eSetMinGuaranteedTimeBetweenTwoISRs)
                  0008acea    00000005                     : csmon.obj (.text:_CSMON_u16ParametersAccessListIndexGenerate)
                  0008acef    00000005                     : csmon.obj (.text:_CSMON_vSetDateTimeRequest)
                  0008acf4    00000005                     : hmlib.obj (.text:_HMLIB_vProcessSamePort)
                  0008acf9    00000005                     : hmlib.obj (.text:_HMLIB_vRecorder0)
                  0008acfe    00000005                     : hmlib.obj (.text:_HMLIB_vRecorder1)
                  0008ad03    00000005                     : hmlib.obj (.text:_HMLIB_vRecorder2)
                  0008ad08    00000005                     : hmmodbus.obj (.text:_HMMODBUS_bGetReceivedMessage)
                  0008ad0d    00000005                     : hmmodbus.obj (.text:_HMMODBUS_vFileTable)
                  0008ad12    00000005                     : hmrecparam.obj (.text:_HMRECPRM_SetUpRecBuff)
                  0008ad17    00000005                     : hmrec.obj (.text:_HMREC_SetUpRecBuff)
                  0008ad1c    00000005                     : sci_drv.obj (.text:_SCI_eGetModuleIndexFromBase)
                  0008ad21    00000005                     : tmr_drv.obj (.text:_TIMER_vSetupTimerMainDelayedData)
                  0008ad26    00000004                     : csmon.obj (.text:_CSMON_eSetInternalTimerPeriod)
                  0008ad2a    00000004                     : csmon.obj (.text:_CSMON_eSetTimerPeriodISRFunctionRegister)
                  0008ad2e    00000004                     : csmon.obj (.text:_CSMON_u32GetBaudError_PPM)
                  0008ad32    00000004                     : csmon.obj (.text:_CSMON_u32GetFreeRunningTimerTicks)
                  0008ad36    00000004                     : csmon.obj (.text:_CSMON_vAddSetupRecorderParameterMask)
                  0008ad3a    00000004                     : csmon.obj (.text:_CSMON_vSetStartRecorderParameterMask)
                  0008ad3e    00000004                     : hmdrv.obj (.text:_HMDRV_SetExAddr)
                  0008ad42    00000004                     : hmdrv.obj (.text:_HMDRV_u32GetDeviceSYSCLKFreq)
                  0008ad46    00000004                     : hmdrv.obj (.text:_HMDRV_u32GetSCIErrorPPM)
                  0008ad4a    00000004                     : hmlib.obj (.text:_HMLIB_vRecorderParam0)
                  0008ad4e    00000004                     : hmlib.obj (.text:_HMLIB_vRecorderParam1)
                  0008ad52    00000004                     : hmlib.obj (.text:_HMLIB_vRecorderParam2)
                  0008ad56    00000004                     : hmmodbus.obj (.text:_HMMODBUS_u32GetAddressMessageCounterThisDevice)
                  0008ad5a    00000004                     : hmmodbus.obj (.text:_HMMODBUS_vSetAddressMessageCounterThisDevice)
                  0008ad5e    00000004                     : hmmodbus.obj (.text:_HMMODBUS_vSetDeviceIDMajorMinorRevision)
                  0008ad62    00000004                     : hmmodbus.obj (.text:_HMMODBUS_vSetDeviceIDMajorMinorRevisionLength)
                  0008ad66    00000004                     : hmmodbus.obj (.text:_HMMODBUS_vSetDeviceIDModelName)
                  0008ad6a    00000004                     : hmmodbus.obj (.text:_HMMODBUS_vSetDeviceIDModelNameLength)
                  0008ad6e    00000004                     : hmmodbus.obj (.text:_HMMODBUS_vSetDeviceIDProductCode)
                  0008ad72    00000004                     : hmmodbus.obj (.text:_HMMODBUS_vSetDeviceIDProductCodeLength)
                  0008ad76    00000004                     : hmmodbus.obj (.text:_HMMODBUS_vSetDeviceIDProductName)
                  0008ad7a    00000004                     : hmmodbus.obj (.text:_HMMODBUS_vSetDeviceIDProductNameLength)
                  0008ad7e    00000004                     : hmmodbus.obj (.text:_HMMODBUS_vSetDeviceIDUserApplicationName)
                  0008ad82    00000004                     : hmmodbus.obj (.text:_HMMODBUS_vSetDeviceIDUserApplicationNameLength)
                  0008ad86    00000004                     : hmmodbus.obj (.text:_HMMODBUS_vSetDeviceIDUserReserve0)
                  0008ad8a    00000004                     : hmmodbus.obj (.text:_HMMODBUS_vSetDeviceIDUserReserve0Length)
                  0008ad8e    00000004                     : hmmodbus.obj (.text:_HMMODBUS_vSetDeviceIDUserReserve1)
                  0008ad92    00000004                     : hmmodbus.obj (.text:_HMMODBUS_vSetDeviceIDUserReserve1Length)
                  0008ad96    00000004                     : hmmodbus.obj (.text:_HMMODBUS_vSetDeviceIDUserReserve2)
                  0008ad9a    00000004                     : hmmodbus.obj (.text:_HMMODBUS_vSetDeviceIDUserReserve2Length)
                  0008ad9e    00000004                     : hmmodbus.obj (.text:_HMMODBUS_vSetDeviceIDVendorName)
                  0008ada2    00000004                     : hmmodbus.obj (.text:_HMMODBUS_vSetDeviceIDVendorNameLength)
                  0008ada6    00000004                     : hmmodbus.obj (.text:_HMMODBUS_vSetDeviceIDVendorUrl)
                  0008adaa    00000004                     : hmmodbus.obj (.text:_HMMODBUS_vSetDeviceIDVendorUrlLength)
                  0008adae    00000004                     : hmmodbus.obj (.text:_HMMODBUS_vSetServerIDDataAddress)
                  0008adb2    00000004                     : hmmodbus.obj (.text:_HMMODBUS_vSetServerIDLength)
                  0008adb6    00000004                     : hmmodbus.obj (.text:_HMMODBUS_vSetServerIDNumber)
                  0008adba    00000004                     : hmmodbus.obj (.text:_HMMODBUS_vSetServerOnStatus)
                  0008adbe    00000004                     : hmmodbus.obj (.text:_HMMODBUS_vSetupHoldingRegistersAccessTableInRam)
                  0008adc2    00000004                     : hmmodbus.obj (.text:_HMMODBUS_vSetupWriteParElementCallbackFunction)
                  0008adc6    00000004                     : modbusreg.obj (.text:_MODBUSREG_u16GetHoldRegFillCount)
                  0008adca    00000004                     : modbusreg.obj (.text:_MODBUSREG_u16GetHoldRegUsedCount)
                  0008adce    00000004                     : modbusreg.obj (.text:_MODBUSREG_u32GetRegisterAccessTableInRam)
                  0008add2    00000004                     : modbusreg.obj (.text:_MODBUSREG_u32GetRegisterAddressTable)
                  0008add6    00000004                     : modbusreg.obj (.text:_MODBUSREG_u32GetRegisterAddressTableInRam)
                  0008adda    00000004                     : modbusreg.obj (.text:_MODBUSREG_vSetFileAutorization_FunctionAfterWriteFileRecordTable)
                  0008adde    00000004                     : modbusreg.obj (.text:_MODBUSREG_vSetFileParamCount_FunctionBeforeReadFileRecord)
                  0008ade2    00000004                     : modbusreg.obj (.text:_MODBUSREG_vSetFileRTC_FunctionAfterReadFileRecord)
                  0008ade6    00000004                     : modbusreg.obj (.text:_MODBUSREG_vSetFileRTC_FunctionAfterWriteFileRecord)
                  0008adea    00000004                     : modbusreg.obj (.text:_MODBUSREG_vSetFileRecConfig_FunctionAfterWriteFileRecord)
                  0008adee    00000004                     : modbusreg.obj (.text:_MODBUSREG_vSetFileRecStatus_FunctionIndexGenerationFileRecord)
                  0008adf2    00000004                     : modbusreg.obj (.text:_MODBUSREG_vSetHoldRegFillCount)
                  0008adf6    00000004                     : modbusreg.obj (.text:_MODBUSREG_vSetModbusParamCount)
                  0008adfa    00000004                     : modbusreg.obj (.text:_MODBUSREG_vSetParamAuxAddress)
                  0008adfe    00000004                     : modbusreg.obj (.text:_MODBUSREG_vSetParamCount)
                  0008ae02    00000004                     : modbusreg.obj (.text:_MODBUSREG_vSetParamListAddress)
                  0008ae06    00000004                     : modbusreg.obj (.text:_MODBUSREG_vSetParamNameAddress)
                  0008ae0a    00000004                     : modbusreg.obj (.text:_MODBUSREG_vSetParamNumbAddress)
                  0008ae0e    00000004                     : modbusreg.obj (.text:_MODBUSREG_vSetParamRecorderConfigAddress)
                  0008ae12    00000004                     : modbusreg.obj (.text:_MODBUSREG_vSetParamReservedAddress)
                  0008ae16    00000004                     : modbusreg.obj (.text:_MODBUSREG_vSetParamScopeConfigAddress)
                  0008ae1a    00000004                     : modbusreg.obj (.text:_MODBUSREG_vSetParamStringAddress)
                  0008ae1e    00000004                     : tmr_drv.obj (.text:_TIMER_vGetTimerMainRollingCounter)
                  0008ae22    00000004                     : tmr_drv.obj (.text:_TIMER_vSetupTimerMainCSMONFunction)
                  0008ae26    00000004                     : tmr_drv.obj (.text:_TMR_u16GetFreeRunTimerPrescaller)
                  0008ae2a    00000004                     : hmmodbus.obj (.text:_bGetElementsDifference)
                  0008ae2e    00000004                     : hmmodbus.obj (.text:_u16GetIndexFileTable)
                  0008ae32    00000004                     : hmmodbus.obj (.text:_u32GetBufferAddressStart)
                  0008ae36    00000004                     : hmmodbus.obj (.text:_u32GetBufferSize)
                  0008ae3a    00000004                     : hmmodbus.obj (.text:_u32GetSampleCountAvailable)
                  0008ae3e    00000004                     : hmmodbus.obj (.text:_u32GetSampleCountBuffer)
                  0008ae42    00000004                     : hmmodbus.obj (.text:_u32GetStartSampleIndex)
                  0008ae46    00000004                     : hmmodbus.obj (.text:_u8GetSampleSize)
                  0008ae4a    00000004                     : hmmodbus.obj (.text:_vSetBufferAddressStartFromFunction)
                  0008ae4e    00000004                     : hmmodbus.obj (.text:_vSetBufferSize)
                  0008ae52    00000003                     : csmon.obj (.text:_CSMON_eSetParameterListDataDefault)
                  0008ae55    00000003                     : csmon.obj (.text:_CSMON_eSetParameterListDataMaximum)
                  0008ae58    00000003                     : csmon.obj (.text:_CSMON_eSetParameterListDataMinimum)
                  0008ae5b    00000003                     : csmon.obj (.text:_CSMON_eSetParameterListParameterID)
                  0008ae5e    00000003                     : csmon.obj (.text:_CSMON_eSetParameterListRealAddress)
                  0008ae61    00000003                     : csmon.obj (.text:_CSMON_eSetParameterListRegisterFlags)
                  0008ae64    00000003                     : csmon.obj (.text:_CSMON_eSetParameterListRegisterSize)
                  0008ae67    00000003                     : csmon.obj (.text:_CSMON_eSetParameterListValueFormat)
                  0008ae6a    00000003                     : csmon.obj (.text:_CSMON_u32GetModbusMessageCounterRegisterRealAddress)
                  0008ae6d    00000003                     : csmon.obj (.text:_CSMON_vSetModbusMessageCounterRegisterRealAddress)
                  0008ae70    00000003                     : hmlib.obj (.text:_HMLIB_vRecorderParamTimeSync)
                  0008ae73    00000003                     : hmrecparam.obj (.text:_HMRECPRM_GetTimeBase)
                  0008ae76    00000003                     : modbusreg.obj (.text:_MODBUSREG_u32GetAddressMessageCounterThisDevice)
                  0008ae79    00000003                     : modbusreg.obj (.text:_MODBUSREG_vSetAddressMessageCounterThisDevice)
                  0008ae7c    00000002                     : hmrecparam.obj (.text:_HMRECPRM_AbortRec)
                  0008ae7e    00000002                     : hmrecparam.obj (.text:_HMRECPRM_GetRecBuffSize)
                  0008ae80    00000002                     : hmrec.obj (.text:_HMREC_AbortRec)
                  0008ae82    00000002                     : hmrec.obj (.text:_HMREC_GetRecBuffSize)
                  0008ae84    00000002                     : modbusreg.obj (.text:_MODBUSREG_u16GetTableRegisterFlagsElementOffset)
                  0008ae86    00000002                     : modbusreg.obj (.text:_MODBUSREG_u16GetTableRegisterSizeElementOffset)
                  0008ae88    00000002                     : modbusreg.obj (.text:_MODBUSREG_u16GetTableVirtAddressElementOffset)
                  0008ae8a    00000002                     : modbusreg.obj (.text:_MODBUSREG_u32GetTableRegisterFlags)
                  0008ae8c    00000002                     : modbusreg.obj (.text:_MODBUSREG_u32GetTableRegisterSize)
                  0008ae8e    00000002                     : modbusreg.obj (.text:_MODBUSREG_u32GetTableVirtAddress)
                  0008ae90    00000002     rts2800_fpu32.lib : pre_init.c.obj (.text)

.econst.1 
*          0    00090000    000002a1     
                  00090000    00000100     CSMON_C28xx.lib : hmmodbus.obj (.econst:.string:_auchCRCHi)
                  00090100    00000100                     : hmmodbus.obj (.econst:.string:_auchCRCLo)
                  00090200    00000050                     : csmon.obj (.econst:_CSMON_asAccessLevelPasswords)
                  00090250    00000018                     : csmon.obj (.econst:_$P$T42$1)
                  00090268    00000014                     : csmon.obj (.econst:_CSMON_au8FileImplementedFunctionCodes)
                  0009027c    00000010     main.obj (.econst)
                  0009028c    0000000c     CSMON_C28xx.lib : hmprotocol.obj (.econst:.string)
                  00090298    00000006                     : csmon.obj (.econst:_$P$T43$2)
                  0009029e    00000003                     : csmon.obj (.econst:_CSMON_au8FileParameterListElementsCountInPartTable)

.econst.2 
*          0    000a0000    00015800     
                  000a0000    00015800     main.obj (.econst:_asParameterList)

.ebss.1    1    0000a800    00000800     UNINITIALIZED
                  0000a800    00000800     CSMON_C28xx.lib : uart_drv.obj (.ebss:_UARTRxBufferTimeDiff)

.ebss.2    1    0000c000    00001000     UNINITIALIZED
                  0000c000    00000800     CSMON_C28xx.lib : hmrec.obj (.ebss:_au8RecBuffer0)
                  0000c800    0000056a                     : modbusreg.obj (.ebss:_MODBUSREG_asFileTable)
                  0000cd6a    00000013     PERIPHERAL_C28xx.lib : ds3231mz.obj (.ebss:_au8ReadBuffer)
                  0000cd7d    00000003                          : ds3231mz.obj (.ebss)
                  0000cd80    00000200     CSMON_C28xx.lib : hmmodbus.obj (.ebss:_u32ModbusTimeoutBuffer)
                  0000cf80    00000080                     : fpga_sci.obj (.ebss)

.ebss.3    1    0000d000    00001000     UNINITIALIZED
                  0000d000    00000400     CSMON_C28xx.lib : csmon.obj (.ebss:_CSMON_asFileParameterDefinitionsFromAccessLevel)
                  0000d400    00000400                     : csmon.obj (.ebss:_CSMON_sFileParameterAccessList)
                  0000d800    00000400                     : modbusreg.obj (.ebss:_MODBUSREG_u32RegisterAccessTableInRam)
                  0000dc00    00000400                     : uart_drv.obj (.ebss:_UARTRxBuffer)

.ebss.4    1    0000e000    00000e59     UNINITIALIZED
                  0000e000    00000126     CSMON_C28xx.lib : hmrecparam.obj (.ebss:_sRecHandleParam)
                  0000e126    00000012                     : csmon.obj (.ebss:_CSMON_sFileAutorization)
                  0000e138    00000008                     : hmrecparam.obj (.ebss:_HMRECPRM_sDateTime)
                  0000e140    00000108                     : hmrec.obj (.ebss:_sRecHandle)
                  0000e248    00000030     PERIPHERAL_C28xx.lib : i2c_driver.obj (.ebss:_i2cMsgIn)
                  0000e278    00000008     CSMON_C28xx.lib : uart_drv.obj (.ebss:_UART_RXIntOverflowCounter)
                  0000e280    00000104                     : hmmodbus.obj (.ebss)
                  0000e384    0000003c                     : csmon.obj (.ebss:_CSMON_au8FileRecorderDataElementsSizeTable)
                  0000e3c0    00000100                     : hmmodbus.obj (.ebss:_HMMODBUS_anTxCheckSum)
                  0000e4c0    00000100                     : hmmodbus.obj (.ebss:_HMMODBUS_pCommBufferRx)
                  0000e5c0    00000100                     : hmmodbus.obj (.ebss:_HMMODBUS_pCommBufferTx)
                  0000e6c0    000000c0                     : csmon.obj (.ebss:_sRecConfigParam)
                  0000e780    000000ba                     : hmscopeparam.obj (.ebss:_sScopeHandlePrm)
                  0000e83a    00000006                     : device.obj (.ebss)
                  0000e840    00000092                     : csmon.obj (.ebss)
                  0000e8d2    0000002e                     : modbusreg.obj (.ebss)
                  0000e900    00000090     main.obj (.ebss)
                  0000e990    00000030     PERIPHERAL_C28xx.lib : i2c_driver.obj (.ebss:_i2cMsgOut)
                  0000e9c0    0000007e     CSMON_C28xx.lib : csmon.obj (.ebss:_sScopeConfigParam)
                  0000ea3e    00000002                     : hmlib.obj (.ebss)
                  0000ea40    00000079                     : hmserial.obj (.ebss:_pcm_pCommBuffer)
                  0000eab9    00000006                     : hmprotocol.obj (.ebss)
                  0000eabf    00000001                     : hmrec.obj (.ebss)
                  0000eac0    00000054                     : hmrecparam.obj (.ebss:_sRecExternParam)
                  0000eb14    0000002a                     : csmon.obj (.ebss:_CSMON_au8FileScopeConfigurationElementsSizeTable)
                  0000eb3e    00000002                     : hmrecparam.obj (.ebss)
                  0000eb40    00000040                     : fpga_sci.obj (.ebss:_FPGA_SCI_au8TxBuffer)
                  0000eb80    0000003e                     : hmscope.obj (.ebss:_sScopeHandle)
                  0000ebbe    00000002                     : hmscopeparam.obj (.ebss)
                  0000ebc0    00000030                     : hmrecparam.obj (.ebss:_sRecStatusParam)
                  0000ebf0    00000010                     : csmon.obj (.ebss:_CSMON_sFileParameterCount)
                  0000ec00    0000002d                     : csmon.obj (.ebss:_CSMON_au8FileRecorderConfigElementsSizeTable)
                  0000ec2d    00000010                     : modbusreg.obj (.ebss:_MODBUSREG_au8DeviceIDMajorMinorRevision)
                  0000ec3d    00000003                     : csmon.obj (.ebss:_CSMON_abFileAutorization_RecordReadOnly)
                  0000ec40    0000001e                     : hmrecparam.obj (.ebss:_sRecStatusParamInternal)
                  0000ec5e    0000001e     emif_driver.obj (.ebss)
                  0000ec7c    00000004     CSMON_C28xx.lib : csmon.obj (.ebss:_CSMON_au8FileParameterListElementsSizeTablePart1)
                  0000ec80    00000010                     : modbusreg.obj (.ebss:_MODBUSREG_au8DeviceIDModelName)
                  0000ec90    00000010                     : modbusreg.obj (.ebss:_MODBUSREG_au8DeviceIDProductCode)
                  0000eca0    00000010                     : modbusreg.obj (.ebss:_MODBUSREG_au8DeviceIDProductName)
                  0000ecb0    00000010                     : modbusreg.obj (.ebss:_MODBUSREG_au8DeviceIDUserApplicationName)
                  0000ecc0    00000010                     : modbusreg.obj (.ebss:_MODBUSREG_au8DeviceIDUserReserve0)
                  0000ecd0    00000010                     : modbusreg.obj (.ebss:_MODBUSREG_au8DeviceIDUserReserve1)
                  0000ece0    00000010                     : modbusreg.obj (.ebss:_MODBUSREG_au8DeviceIDUserReserve2)
                  0000ecf0    00000010                     : modbusreg.obj (.ebss:_MODBUSREG_au8DeviceIDVendorName)
                  0000ed00    00000010                     : modbusreg.obj (.ebss:_MODBUSREG_au8DeviceIDVendorUrl)
                  0000ed10    00000010                     : modbusreg.obj (.ebss:_MODBUSREG_au8ServerIDData)
                  0000ed20    0000000e                     : tmr_drv.obj (.ebss)
                  0000ed2e    0000000c                     : hmserial.obj (.ebss)
                  0000ed3a    00000006                     : csmon.obj (.ebss:_CSMON_au32FileAutorization_FunctionAfterWriteFileRecord)
                  0000ed40    0000000c                     : csmon.obj (.ebss:_CSMON_sDateTime)
                  0000ed4c    0000000c                     : csmon.obj (.ebss:_CSMON_sDateTimeApplication)
                  0000ed58    0000000c                     : csmon.obj (.ebss:_CSMON_sDateTimeDefault)
                  0000ed64    0000000a                     : hmdrv.obj (.ebss)
                  0000ed6e    0000000a                     : csmon.obj (.ebss:_CSMON_au8FileParameterCountElementsSizeTable)
                  0000ed78    00000008                     : tmr_drv.obj (.ebss:_pfDelayedFunction)
                  0000ed80    0000000a                     : csmon.obj (.ebss:_CSMON_au8FileRTCElementsSizeTable)
                  0000ed8a    0000000a                     : hmmodbus.obj (.ebss:_HMMODBUS_nFilePrimaryAddrWriteLast)
                  0000ed94    0000000a                     : hmmodbus.obj (.ebss:_HMMOSBUS_nFileWriteAddrReadLast)
                  0000ed9e    0000000a                     : csmon.obj (.ebss:_sHashKey)
                  0000eda8    0000000a     fpga_driver.obj (.ebss)
                  0000edb2    00000009     CSMON_C28xx.lib : csmon.obj (.ebss:_CSMON_au8FileParameterNumericElementsSizeTable)
                  0000edbb    00000004                     : csmon.obj (.ebss:_CSMON_au8FileRecorderStatusElementsSizeTable)
                  0000edbf    00000001                     : hmscope.obj (.ebss)
                  0000edc0    00000008                     : tmr_drv.obj (.ebss:_pfDelayedFunction_u8)
                  0000edc8    00000008                     : uart_drv.obj (.ebss:_u32TimeDiffLast)
                  0000edd0    00000008                     : uart_drv.obj (.ebss:_u32TimeDiffNow)
                  0000edd8    00000008                     : uart_drv.obj (.ebss:_u32TimeDiffRead)
                  0000ede0    00000006                     : csmon.obj (.ebss:_CSMON_au32FileParameterDefinitionsFileRecordElementsRealAddressTable)
                  0000ede6    00000006                     : csmon.obj (.ebss:_CSMON_au32FileParameterDefinitionsFileRecordElementsSizeTable)
                  0000edec    00000006                     : hmscopeparam.obj (.ebss:_pBufferScope)
                  0000edf2    00000006                     : hmrecparam.obj (.ebss:_u32RecorderLastFreeCounter)
                  0000edf8    00000006                     : hmrecparam.obj (.ebss:_u32RecorderMicroSec)
                  0000edfe    00000002                     : csmon.obj (.ebss:_CSMON_abFlagProcessPassed)
                  0000ee00    00000006     rts2800_fpu32.lib : exit.c.obj (.ebss)
                  0000ee06    00000004     CSMON_C28xx.lib : hmmodbus.obj (.ebss:_HMMODBUS_u32RegisterAddressInRamDummy)
                  0000ee0a    00000004                     : uart_drv.obj (.ebss:_UARTRxBufferRDCount)
                  0000ee0e    00000004                     : uart_drv.obj (.ebss:_UARTRxBufferRDIndex)
                  0000ee12    00000004                     : uart_drv.obj (.ebss:_UARTRxBufferWRCount)
                  0000ee16    00000004                     : uart_drv.obj (.ebss:_UARTRxBufferWRIndex)
                  0000ee1a    00000004     PERIPHERAL_C28xx.lib : i2c_driver.obj (.ebss:_currentMsgPtr)
                  0000ee1e    00000004     CSMON_C28xx.lib : tmr_drv.obj (.ebss:_u16TimerMainDelayedData)
                  0000ee22    00000004                     : tmr_drv.obj (.ebss:_u16TimerMainFunctionDelay)
                  0000ee26    00000004                     : tmr_drv.obj (.ebss:_u16TimerMainFunctionDelayCompare)
                  0000ee2a    00000004                     : tmr_drv.obj (.ebss:_u16TimerMainFunctionDelayCounter)
                  0000ee2e    00000003                     : csmon.obj (.ebss:_CSMON_abFileAutorization_RecordStringData)
                  0000ee31    00000003                     : csmon.obj (.ebss:_CSMON_au16FileAutorization_RecordOffsets)
                  0000ee34    00000003                     : csmon.obj (.ebss:_CSMON_au32FileParameterDefinitionsFileRecordElementsRecordToRecordOffsetSizeBytesTable)
                  0000ee37    00000003                     : csmon.obj (.ebss:_CSMON_au8FileRecorderDataElementsSizeTableUsedLength)
                  0000ee3a    00000003                     : csmon.obj (.ebss:_CSMON_sFileProtocolVersion)
                  0000ee3d    00000003                     : hmmodbus.obj (.ebss:_HMMODBUS_u32RegisterAddressDummy)
                  0000ee40    00000003                     : hmrecparam.obj (.ebss:_abRecorderJustStopped)
                  0000ee43    00000003                     : hmrecparam.obj (.ebss:_abRecorderRunning)
                  0000ee46    00000003                     : hmscopeparam.obj (.ebss:_sScopeStatusParam)
                  0000ee49    00000001                     : uart_drv.obj (.ebss)
                  0000ee4a    00000002                     : hmrecparam.obj (.ebss:_MAIN_sDate)
                  0000ee4c    00000002                     : hmrecparam.obj (.ebss:_MAIN_sTime)
                  0000ee4e    00000002     rts2800_fpu32.lib : _lock.c.obj (.ebss:__lock)
                  0000ee50    00000002                       : _lock.c.obj (.ebss:__unlock)
                  0000ee52    00000001     CSMON_C28xx.lib : csmon.obj (.ebss:_CSMON_au8FileParameterListElementsSizeTablePart2)
                  0000ee53    00000001                     : csmon.obj (.ebss:_CSMON_au8FileParameterListElementsSizeTablePart3)
                  0000ee54    00000001                     : csmon.obj (.ebss:_CSMON_au8FileScopeStatusElementsSizeTable)
                  0000ee55    00000001                     : hmmodbus.obj (.ebss:_HMMODBUS_wFlags)
                  0000ee56    00000001                     : hmmodbus.obj (.ebss:_HMMODBUS_wFlagsRxTx)
                  0000ee57    00000001                     : hmserial.obj (.ebss:_pcm_wFlags)
                  0000ee58    00000001                     : hmserial.obj (.ebss:_pcm_wFlagsRxTx)

MODULE SUMMARY

       Module              code    initialized data   uninitialized data
       ------              ----    ----------------   ------------------
    .\01_Source_Test\
       main.obj            1203    88496              144               
    +--+-------------------+-------+------------------+--------------------+
       Total:              1203    88496              144               
                                                                        
    .\01_Source_Test\peripheral_driver\
       emif_driver.obj     695     42                 30                
       fpga_driver.obj     90      0                  20                
    +--+-------------------+-------+------------------+--------------------+
       Total:              785     42                 50                
                                                                        
    .\C2000Ware_LIB\driverlib\
       sysctl.obj          1086    0                  0                 
       gpio.obj            397     0                  0                 
       interrupt.obj       342     0                  0                 
       sci.obj             213     0                  0                 
       flash.obj           188     0                  0                 
       i2c.obj             154     0                  0                 
       cputimer.obj        6       0                  0                 
    +--+-------------------+-------+------------------+--------------------+
       Total:              2386    0                  0                 
                                                                        
    C:/repo_github/fw_BasicAFE/02_Libraries/LIB_CSMON/04_Output_Files/Release/PERIPHERAL_C28xx.lib
       i2c_driver.obj      692     82                 100               
       ds3231mz.obj        50      16                 22                
       peripheral.obj      10      0                  0                 
    +--+-------------------+-------+------------------+--------------------+
       Total:              752     98                 122               
                                                                        
    C:/repo_github/fw_BasicAFE/02_Libraries/LIB_CSMON/04_Output_Files/ReleaseCS1107/CSMON_C28xx.lib
       hmmodbus.obj        10554   984                1569              
       csmon.obj           6736    741                2817              
       modbusreg.obj       3284    282                2632              
       uart_drv.obj        313     76                 3121              
       hmrec.obj           515     0                  2313              
       hmdrv.obj           2336    20                 10                
       hmrecparam.obj      1241    93                 488               
       hmserial.obj        550     9                  135               
       fpga_sci.obj        59      266                192               
       sci_drv.obj         503     0                  0                 
       hmprotocol.obj      438     32                 6                 
       tmr_drv.obj         357     35                 46                
       device.obj          369     15                 6                 
       hmscopeparam.obj    159     13                 197               
       hmlib.obj           215     8                  2                 
       hmscope.obj         111     0                  63                
    +--+-------------------+-------+------------------+--------------------+
       Total:              27740   2574               13597             
                                                                        
    C:\ti\ccs1210\ccs\tools\compiler\ti-cgt-c2000_22.6.0.LTS\lib\rts2800_fpu32.lib
       ll_div28.asm.obj    263     0                  0                 
       fd_add28.asm.obj    156     0                  0                 
       fd_div28.asm.obj    139     0                  0                 
       fs_div28.asm.obj    136     0                  0                 
       fd_mpy28.asm.obj    131     0                  0                 
       s_sinf.c.obj        102     0                  0                 
       boot28.asm.obj      86      0                  0                 
       exit.c.obj          41      14                 6                 
       cpy_tbl.c.obj       36      0                  0                 
       memcpy.c.obj        29      0                  0                 
       fd_toul28.asm.obj   27      0                  0                 
       _lock.c.obj         9       10                 4                 
       u_tofd28.asm.obj    23      0                  0                 
       args_main.c.obj     18      0                  0                 
       fd_sub28.asm.obj    14      0                  0                 
       u_div28.asm.obj     11      0                  0                 
       pre_init.c.obj      2       0                  0                 
       startup.c.obj       1       0                  0                 
    +--+-------------------+-------+------------------+--------------------+
       Total:              1224    24                 10                
                                                                        
       Stack:              0       0                  896               
    +--+-------------------+-------+------------------+--------------------+
       Grand Total:        34090   91234              14819             


GLOBAL DATA SYMBOLS: SORTED BY DATA PAGE

address     data page           name
--------    ----------------    ----
00000400      10 (00000400)     __stack

0000a800     2a0 (0000a800)     _UARTRxBufferTimeDiff

0000c000     300 (0000c000)     _au8RecBuffer0

0000c800     320 (0000c800)     _MODBUSREG_asFileTable

0000cd6a     335 (0000cd40)     _au8ReadBuffer
0000cd7d     335 (0000cd40)     _u16ReadStatus
0000cd7e     335 (0000cd40)     _DS3231MZ_bReadRequest
0000cd7f     335 (0000cd40)     _bReadAnswerWait

0000cd80     336 (0000cd80)     _u32ModbusTimeoutBuffer

0000cf80     33e (0000cf80)     _FPGA_SCI_u16TimeLast
0000cf81     33e (0000cf80)     _FPGA_SCI_u16TimePass
0000cf82     33e (0000cf80)     _FPGA_SCI_u16TimeCurr
0000cf83     33e (0000cf80)     _FPGA_SCI_bDataRecv
0000cf84     33e (0000cf80)     _FPGA_SCI_bDataRecvUse
0000cf85     33e (0000cf80)     _FPGA_SCI_bResetUart
0000cf86     33e (0000cf80)     _FPGA_SCI_u8UartIndex
0000cf87     33e (0000cf80)     _FPGA_SCI_nAddressDSP
0000cf88     33e (0000cf80)     _FPGA_SCI_nAddressFPGA
0000cf89     33e (0000cf80)     _FPGA_SCI_bPeriodicSend
0000cf8a     33e (0000cf80)     _FPGA_SCI_Clock_Get_Seconds
0000cf8b     33e (0000cf80)     _FPGA_SCI_Clock_Get_Minutes
0000cf8c     33e (0000cf80)     _FPGA_SCI_Clock_Get_Hours
0000cf8d     33e (0000cf80)     _FPGA_SCI_Clock_Get_Weekdays
0000cf8e     33e (0000cf80)     _FPGA_SCI_Clock_Get_Days
0000cf8f     33e (0000cf80)     _FPGA_SCI_Clock_Get_Month
0000cf90     33e (0000cf80)     _FPGA_SCI_Clock_Get_Year
0000cf91     33e (0000cf80)     _FPGA_SCI_Clock_Get_Last_Seconds
0000cf92     33e (0000cf80)     _FPGA_SCI_Clock_Get_Last_Minutes
0000cf93     33e (0000cf80)     _FPGA_SCI_Clock_Get_Last_Hours
0000cf94     33e (0000cf80)     _FPGA_SCI_Clock_Get_Last_Weekdays
0000cf95     33e (0000cf80)     _FPGA_SCI_Clock_Get_Last_Days
0000cf96     33e (0000cf80)     _FPGA_SCI_Clock_Get_Last_Month
0000cf97     33e (0000cf80)     _FPGA_SCI_Clock_Get_Last_Year
0000cf98     33e (0000cf80)     _FPGA_SCI_Clock_Set_Seconds
0000cf99     33e (0000cf80)     _FPGA_SCI_Clock_Set_Minutes
0000cf9a     33e (0000cf80)     _FPGA_SCI_Clock_Set_Hours
0000cf9b     33e (0000cf80)     _FPGA_SCI_Clock_Set_Weekdays
0000cf9c     33e (0000cf80)     _FPGA_SCI_Clock_Set_Days
0000cf9d     33e (0000cf80)     _FPGA_SCI_Clock_Set_Month
0000cf9e     33e (0000cf80)     _FPGA_SCI_Clock_Set_Year
0000cf9f     33e (0000cf80)     _FPGA_SCI_gdi_det
0000cfa0     33e (0000cf80)     _FPGA_SCI_gdi_err
0000cfa1     33e (0000cf80)     _FPGA_SCI_gdi_ovt
0000cfa2     33e (0000cf80)     _FPGA_SCI_trp_ocn
0000cfa3     33e (0000cf80)     _FPGA_SCI_trp_ocp
0000cfa4     33e (0000cf80)     _FPGA_SCI_err_glb
0000cfa5     33e (0000cf80)     _FPGA_SCI_gdi_det_err
0000cfa6     33e (0000cf80)     _FPGA_SCI_gdi_err_err
0000cfa7     33e (0000cf80)     _FPGA_SCI_gdi_ovt_err
0000cfa8     33e (0000cf80)     _FPGA_SCI_trp_ocn_err
0000cfa9     33e (0000cf80)     _FPGA_SCI_trp_ocp_err
0000cfaa     33e (0000cf80)     _FPGA_SCI_err_glb_err
0000cfab     33e (0000cf80)     _FPGA_SCI_meas_temp_err
0000cfac     33e (0000cf80)     _FPGA_SCI_gdi_det_err_Trip
0000cfad     33e (0000cf80)     _FPGA_SCI_gdi_err_err_Trip
0000cfae     33e (0000cf80)     _FPGA_SCI_gdi_ovt_err_Trip
0000cfaf     33e (0000cf80)     _FPGA_SCI_trp_ocn_err_Trip
0000cfb0     33e (0000cf80)     _FPGA_SCI_trp_ocp_err_Trip
0000cfb1     33e (0000cf80)     _FPGA_SCI_err_glb_err_Trip
0000cfb2     33e (0000cf80)     _FPGA_SCI_meas_temp_err_Trip
0000cfb3     33e (0000cf80)     _FPGA_SCI_ms_meas_temp_err
0000cfb4     33e (0000cf80)     _FPGA_SCI_ms_det
0000cfb5     33e (0000cf80)     _FPGA_SCI_ms_err
0000cfb6     33e (0000cf80)     _FPGA_SCI_ms_ovt
0000cfb7     33e (0000cf80)     _FPGA_SCI_ms_ocn
0000cfb8     33e (0000cf80)     _FPGA_SCI_ms_ocp
0000cfb9     33e (0000cf80)     _FPGA_SCI_ms_glb
0000cfba     33e (0000cf80)     _FPGA_SCI_ms_det_fbk
0000cfbb     33e (0000cf80)     _FPGA_SCI_ms_err_fbk
0000cfbc     33e (0000cf80)     _FPGA_SCI_ms_ovt_fbk
0000cfbd     33e (0000cf80)     _FPGA_SCI_ms_ocn_fbk
0000cfbe     33e (0000cf80)     _FPGA_SCI_ms_ocp_fbk
0000cfbf     33e (0000cf80)     _FPGA_SCI_ms_glb_fbk

0000cfc0     33f (0000cfc0)     _FPGA_SCI_Temp1
0000cfc1     33f (0000cfc0)     _FPGA_SCI_Temp2
0000cfc2     33f (0000cfc0)     _FPGA_SCI_Temp3
0000cfc3     33f (0000cfc0)     _FPGA_SCI_Temp4
0000cfc4     33f (0000cfc0)     _FPGA_SCI_Temp5
0000cfc5     33f (0000cfc0)     _FPGA_SCI_Temp6
0000cfc6     33f (0000cfc0)     _FPGA_SCI_Temp7
0000cfc7     33f (0000cfc0)     _FPGA_SCI_Temp8
0000cfc8     33f (0000cfc0)     _FPGA_SCI_Temp9
0000cfc9     33f (0000cfc0)     _FPGA_SCI_HuTmp
0000cfca     33f (0000cfc0)     _FPGA_SCI_Humid
0000cfcb     33f (0000cfc0)     _FPGA_SCI_Temp1_Trip
0000cfcc     33f (0000cfc0)     _FPGA_SCI_Temp2_Trip
0000cfcd     33f (0000cfc0)     _FPGA_SCI_Temp3_Trip
0000cfce     33f (0000cfc0)     _FPGA_SCI_Temp4_Trip
0000cfcf     33f (0000cfc0)     _FPGA_SCI_Temp5_Trip
0000cfd0     33f (0000cfc0)     _FPGA_SCI_Temp6_Trip
0000cfd1     33f (0000cfc0)     _FPGA_SCI_Temp7_Trip
0000cfd2     33f (0000cfc0)     _FPGA_SCI_Temp8_Trip
0000cfd3     33f (0000cfc0)     _FPGA_SCI_Temp9_Trip
0000cfd4     33f (0000cfc0)     _FPGA_SCI_HuTmp_Trip
0000cfd5     33f (0000cfc0)     _FPGA_SCI_Humid_Trip
0000cfd6     33f (0000cfc0)     _FPGA_SCI_eRxState
0000cfd7     33f (0000cfc0)     _FPGA_SCI_nRxTodoEcho
0000cfd8     33f (0000cfc0)     _FPGA_SCI_nRecvTimeout
0000cfd9     33f (0000cfc0)     _FPGA_SCI_nTxIndex
0000cfda     33f (0000cfc0)     _FPGA_SCI_nRxIndex
0000cfdb     33f (0000cfc0)     _FPGA_SCI_nTxChSum
0000cfdc     33f (0000cfc0)     _FPGA_SCI_nRxChSum
0000cfdd     33f (0000cfc0)     _FPGA_SCI_nRxData
0000cfde     33f (0000cfc0)     _FPGA_SCI_nRxByteCounter
0000cfdf     33f (0000cfc0)     _FPGA_SCI_nRxCommand
0000cfe0     33f (0000cfc0)     _FPGA_SCI_nRxCommand_Mask
0000cfe1     33f (0000cfc0)     _FPGA_SCI_nRxLength
0000cfe2     33f (0000cfc0)     _FPGA_SCI_nTxTestLength
0000cfe3     33f (0000cfc0)     _FPGA_SCI_nBytesToSend
0000cfe4     33f (0000cfc0)     _FPGA_SCI_nBytesToSendHardSet
0000cfe5     33f (0000cfc0)     _FPGA_SCI_nAddrMode
0000cfe6     33f (0000cfc0)     _FPGA_SCI_nParityMode
0000cfe7     33f (0000cfc0)     _bDataUpdate
0000cfe8     33f (0000cfc0)     _bRTCGet
0000cfe9     33f (0000cfc0)     _bUpdateNonLastExecuting
0000cfea     33f (0000cfc0)     _bUpdateLastExecuting
0000cfeb     33f (0000cfc0)     _bSendTxCommand
0000cfec     33f (0000cfc0)     _bResponseRxCommand
0000cfed     33f (0000cfc0)     _bResponseRxCommandLast
0000cfee     33f (0000cfc0)     _bSendRxResponse
0000cfef     33f (0000cfc0)     _FPGA_SCI_bUseCheckSum
0000cff0     33f (0000cfc0)     _bRxResponseIncrementData
0000cff1     33f (0000cfc0)     _FPGA_SCI_nTxCommand
0000cff2     33f (0000cfc0)     _FPGA_SCI_nTxCommandReq
0000cff3     33f (0000cfc0)     _FPGA_SCI_bTxCommandMaskAuto
0000cff4     33f (0000cfc0)     _FPGA_SCI_u32SendCounter
0000cff6     33f (0000cfc0)     _FPGA_SCI_u32SendCount
0000cff8     33f (0000cfc0)     _FPGA_SCI_nTxCommandMaskDenyTimeDelay
0000cffa     33f (0000cfc0)     _FPGA_SCI_nTxCommandMaskDenyTime
0000cffc     33f (0000cfc0)     _FPGA_SCI_nTxCommandMaskDenyTimeLast
0000cffe     33f (0000cfc0)     _FPGA_SCI_nTxCommandMaskDenyTimeDiff

0000d000     340 (0000d000)     _CSMON_asFileParameterDefinitionsFromAccessLevel

0000d400     350 (0000d400)     _CSMON_sFileParameterAccessList

0000d800     360 (0000d800)     _MODBUSREG_u32RegisterAccessTableInRam

0000dc00     370 (0000dc00)     _UARTRxBuffer

0000e000     380 (0000e000)     _sRecHandleParam

0000e126     384 (0000e100)     _CSMON_sFileAutorization
0000e138     384 (0000e100)     _HMRECPRM_sDateTime

0000e140     385 (0000e140)     _sRecHandle

0000e248     389 (0000e240)     _i2cMsgIn
0000e278     389 (0000e240)     _UART_RXIntOverflowCounter

0000e280     38a (0000e280)     _HMMODBUS_nTxTodo
0000e281     38a (0000e280)     _HMMODBUS_nRxTodoEcho
0000e282     38a (0000e280)     _HMMODBUS_nLastResponseCmd
0000e283     38a (0000e280)     _HMMODBUS_nLastResponseCode
0000e284     38a (0000e280)     _HMMODBUS_nRxTodo
0000e285     38a (0000e280)     _HMMODBUS_nRxCheckSum
0000e286     38a (0000e280)     _HMMODBUS_nTxCheckSum
0000e287     38a (0000e280)     _HMMODBUS_bOverflowReached
0000e288     38a (0000e280)     _u8UartModBusIndex
0000e289     38a (0000e280)     _HMMODBUS_u8DeviceAddress
0000e28a     38a (0000e280)     _u16RegisterAddressDummyValue
0000e28b     38a (0000e280)     _HMMODBUS_bReceivedMessage
0000e28c     38a (0000e280)     _bInputRegsGlobal
0000e28d     38a (0000e280)     _bBareRamTable
0000e28e     38a (0000e280)     _bUsedDummyDataAddressInResponseData
0000e28f     38a (0000e280)     _bLengthException
0000e290     38a (0000e280)     _bHoldingRegTableSorted
0000e291     38a (0000e280)     _bHoldingRegTableBareRam
0000e292     38a (0000e280)     _u16FreeRunTimerPrescaller
0000e293     38a (0000e280)     _u16ModbusMinMessToMess_usec
0000e294     38a (0000e280)     _HMMODBUS_u8ReadServerIDLength
0000e295     38a (0000e280)     _HMMODBUS_u8ReadServerIDNumber
0000e296     38a (0000e280)     _HMMODBUS_u8ReadServerOnStatus
0000e297     38a (0000e280)     _HMMODBUS_u8ReadDeviceIDConfLvlMask
0000e298     38a (0000e280)     _HMMODBUS_u8ReadDeviceIDConfLvl
0000e299     38a (0000e280)     _HMMODBUS_u8ReadDeviceIDVendorNameLength
0000e29a     38a (0000e280)     _HMMODBUS_u8ReadDeviceIDProductCodeLength
0000e29b     38a (0000e280)     _HMMODBUS_u8ReadDeviceIDMajorMinorRevisionLength
0000e29c     38a (0000e280)     _HMMODBUS_u8ReadDeviceIDVendorUrlLength
0000e29d     38a (0000e280)     _HMMODBUS_u8ReadDeviceIDProductNameLength
0000e29e     38a (0000e280)     _HMMODBUS_u8ReadDeviceIDModelNameLength
0000e29f     38a (0000e280)     _HMMODBUS_u8ReadDeviceIDUserApplicationNameLength
0000e2a0     38a (0000e280)     _HMMODBUS_u8ReadDeviceIDUserReserve0Length
0000e2a1     38a (0000e280)     _HMMODBUS_u8ReadDeviceIDUserReserve1Length
0000e2a2     38a (0000e280)     _HMMODBUS_u8ReadDeviceIDUserReserve2Length
0000e2a3     38a (0000e280)     _eElementFixedArgument
0000e2a4     38a (0000e280)     _u16NoStoreFixedArgument
0000e2a5     38a (0000e280)     _u16DataModeFixedArgument
0000e2a6     38a (0000e280)     _u16PasswordFixedArgument
0000e2a7     38a (0000e280)     _bNeedResetBackup
0000e2a8     38a (0000e280)     _realRxByteDelayLastFailBytesReceived
0000e2a9     38a (0000e280)     _u16ModbusStartedReceiveMessageCounter
0000e2aa     38a (0000e280)     _u16ModbusCompleteReceiveMessageCounter
0000e2ab     38a (0000e280)     _u16ModbusCompleteReceiveMessageCounterThisDevice
0000e2ac     38a (0000e280)     _u16ModbusBufferOverflowReceiveMessageCounter
0000e2ad     38a (0000e280)     _u16ModbusBadCSReceiveMessageCounter
0000e2ae     38a (0000e280)     _u16ModbusBadTimeoutReceiveMessageCounter
0000e2af     38a (0000e280)     _u16IndexFileTable
0000e2b0     38a (0000e280)     _u8SampleSize
0000e2b1     38a (0000e280)     _bElementsDifference
0000e2b2     38a (0000e280)     _bBadSizeCalculation
0000e2b3     38a (0000e280)     _bStringNullTerminationPossible
0000e2b4     38a (0000e280)     _bStringDataExpected
0000e2b5     38a (0000e280)     _bException
0000e2b6     38a (0000e280)     _bResult
0000e2b7     38a (0000e280)     _bParameterTroughFile
0000e2b8     38a (0000e280)     _nDeviceAddress
0000e2b9     38a (0000e280)     _nAddrQueue
0000e2ba     38a (0000e280)     _nFileNumber
0000e2bb     38a (0000e280)     _nSizeReadBits
0000e2bc     38a (0000e280)     _u16ElementSize
0000e2bd     38a (0000e280)     _u8ElementSize
0000e2be     38a (0000e280)     _nLoopIndex
0000e2bf     38a (0000e280)     _nLoopIndex2

0000e2c0     38b (0000e2c0)     _nLoopCount
0000e2c1     38b (0000e2c0)     _nSizeWriteBits
0000e2c2     38b (0000e2c0)     _bReadOnlyFile
0000e2c3     38b (0000e2c0)     _nResponseBytes
0000e2c4     38b (0000e2c0)     _nRecordNumber
0000e2c5     38b (0000e2c0)     _nSizeRead
0000e2c6     38b (0000e2c0)     _nBytesRead
0000e2c7     38b (0000e2c0)     _nSizeReadCheck
0000e2c8     38b (0000e2c0)     _nSizeReadRequest
0000e2c9     38b (0000e2c0)     _nSizeReadCheckMemory
0000e2ca     38b (0000e2c0)     _nSizeBytes
0000e2cb     38b (0000e2c0)     _nBytesResponseTotal
0000e2cc     38b (0000e2c0)     _nSizeCurrentRecord
0000e2cd     38b (0000e2c0)     _nSizeWrite
0000e2ce     38b (0000e2c0)     _nSizeWriteBytesAllParts
0000e2cf     38b (0000e2c0)     _nReferenceType
0000e2d0     38b (0000e2c0)     _nSizeWriteBytes
0000e2d1     38b (0000e2c0)     _nSizeReadBytes
0000e2d2     38b (0000e2c0)     _nCmd
0000e2d3     38b (0000e2c0)     _nSubCmd
0000e2d4     38b (0000e2c0)     _nSubCmdDiag
0000e2d5     38b (0000e2c0)     _nIDCode
0000e2d6     38b (0000e2c0)     _eException
0000e2d7     38b (0000e2c0)     _u16LastFileNumberRequest
0000e2d8     38b (0000e2c0)     _bFileFirstRequest
0000e2d9     38b (0000e2c0)     _nRecordNumberRequest
0000e2da     38b (0000e2c0)     _nSizeReadRequestLoop
0000e2db     38b (0000e2c0)     _nLoopIndexedRequest
0000e2dc     38b (0000e2c0)     _u32Dummy
0000e2de     38b (0000e2c0)     _HMMODBUS_pTxBuff
0000e2e0     38b (0000e2c0)     _HMMODBUS_pRxBuff
0000e2e2     38b (0000e2c0)     _HMMODBUS_pu32HoldingRegisterAccessTableInRam
0000e2e4     38b (0000e2c0)     _HMMODBUS_u32HoldingRegisterAddressTableSize
0000e2e6     38b (0000e2c0)     _HMMODBUS_u32HoldingRegisterAddressTableInRamSize
0000e2e8     38b (0000e2c0)     _HMMODBUS_pu32HoldingRegisterAddressTable
0000e2ea     38b (0000e2c0)     _HMMODBUS_pu32HoldingRegisterAddressTableInRam
0000e2ec     38b (0000e2c0)     _HMMODBUS_u32TxDelayCounter
0000e2ee     38b (0000e2c0)     _HMMOSBUS_nFileWritePrimaryAddrReadLast
0000e2f0     38b (0000e2c0)     _HMMOSBUS_nDummy
0000e2f2     38b (0000e2c0)     _HMMODBUS_u32FreeRunTimerReceivedMessage
0000e2f4     38b (0000e2c0)     _HMMODBUS_pasFileAddressTable
0000e2f6     38b (0000e2c0)     _HMMODBUS_u32FileCount
0000e2f8     38b (0000e2c0)     _HMMODBUS_u32DeviceSYSCLKFreq
0000e2fa     38b (0000e2c0)     _u32ModbusMaxByteToByte
0000e2fc     38b (0000e2c0)     _u32ModbusMaxMessToMess
0000e2fe     38b (0000e2c0)     _u32ModbusMinMessToMess

0000e300     38c (0000e300)     _u32ModbusMaxByteToByteExact
0000e302     38c (0000e300)     _u32ModbusMaxMessToMessExact
0000e304     38c (0000e300)     _u32ModbusTimeout
0000e306     38c (0000e300)     _u32WrongElementSizeTable
0000e308     38c (0000e300)     _u32ElementSizeTableD384_0
0000e30a     38c (0000e300)     _u32ElementSizeTableB326_0
0000e30c     38c (0000e300)     _u32ElementSizeTableD384_1
0000e30e     38c (0000e300)     _u32ElementSizeTableB326_1
0000e310     38c (0000e300)     _u32ElementSizeTableD384_2
0000e312     38c (0000e300)     _u32ElementSizeTableB326_2
0000e314     38c (0000e300)     _HMMODBUS_pu8ReadServerIDDatAdr
0000e316     38c (0000e300)     _HMMODBUS_pu8ReadDeviceIDVendorName
0000e318     38c (0000e300)     _HMMODBUS_pu8ReadDeviceIDProductCode
0000e31a     38c (0000e300)     _HMMODBUS_pu8ReadDeviceIDMajorMinorRevision
0000e31c     38c (0000e300)     _HMMODBUS_pu8ReadDeviceIDVendorUrl
0000e31e     38c (0000e300)     _HMMODBUS_pu8ReadDeviceIDProductName
0000e320     38c (0000e300)     _HMMODBUS_pu8ReadDeviceIDModelName
0000e322     38c (0000e300)     _HMMODBUS_pu8ReadDeviceIDUserApplicationName
0000e324     38c (0000e300)     _HMMODBUS_pu8ReadDeviceIDUserReserve0
0000e326     38c (0000e300)     _HMMODBUS_pu8ReadDeviceIDUserReserve1
0000e328     38c (0000e300)     _HMMODBUS_pu8ReadDeviceIDUserReserve2
0000e32a     38c (0000e300)     _pfWriteParElementCallbackFunction
0000e32c     38c (0000e300)     _u32ModbusTimeoutBufferIndex
0000e32e     38c (0000e300)     _u32RxTimeout
0000e330     38c (0000e300)     _realRxByteDelay
0000e332     38c (0000e300)     _realRxByteDelayLastFail
0000e334     38c (0000e300)     _u32RxTimeoutLastFail
0000e336     38c (0000e300)     _pu16ModbusCompleteReceiveMessageCounterThisDevice
0000e338     38c (0000e300)     _HMMODBUS_u32DebugAddrReadFileReal
0000e33a     38c (0000e300)     _HMMODBUS_u32DebugAddrReadFileFromIndex
0000e33c     38c (0000e300)     _HMMODBUS_u32DebugAddrReadFileFromAddress
0000e33e     38c (0000e300)     _HMMODBUS_u32DebugAddrReadPlusOffset

0000e340     38d (0000e340)     _HMMODBUS_u32DebugAddrReadFileCircleTooFarAddress
0000e342     38d (0000e340)     _HMMODBUS_u32DebugAddrReadFileCircle
0000e344     38d (0000e340)     _HMMODBUS_u32DebugAddrReadFileForRead
0000e346     38d (0000e340)     _HMMODBUS_u32DebugAddrReadFileForReadLooped
0000e348     38d (0000e340)     _HMMODBUS_nSizeReadRequestLoopLeft
0000e34a     38d (0000e340)     _u32BufferAddressStart
0000e34c     38d (0000e340)     _u32BufferSize
0000e34e     38d (0000e340)     _u32SampleCountBuffer
0000e350     38d (0000e340)     _u32SampleCountAvailable
0000e352     38d (0000e340)     _u32StartSampleIndex
0000e354     38d (0000e340)     _u32ElementsSizeModbus
0000e356     38d (0000e340)     _u32ElementsSizeMemory
0000e358     38d (0000e340)     _nAddrWrite
0000e35a     38d (0000e340)     _pu8ElementSizeTable
0000e35c     38d (0000e340)     _pu8ElementSizeTablePtr
0000e35e     38d (0000e340)     _nAddrFuncExecute
0000e360     38d (0000e340)     _nSizeOffset
0000e362     38d (0000e340)     _nSizeAllRecords
0000e364     38d (0000e340)     _nSizeOffsetCurrentRecord
0000e366     38d (0000e340)     _nCurrentElementTableIndex
0000e368     38d (0000e340)     _nSizeOffsetAdd
0000e36a     38d (0000e340)     _pfIndexGeneration
0000e36c     38d (0000e340)     _nAddrRead
0000e36e     38d (0000e340)     _pResponseStart
0000e370     38d (0000e340)     _pResponseEnd
0000e372     38d (0000e340)     _pMessageIn
0000e374     38d (0000e340)     _pMessageOut
0000e376     38d (0000e340)     _pMessageInCopy
0000e378     38d (0000e340)     _nSizeOffsetMultiplier
0000e37a     38d (0000e340)     _nSizeOffsetRequestMultMode
0000e37c     38d (0000e340)     _nTimeTickDelayModbus
0000e37e     38d (0000e340)     _nTimeTickDelayModbusMin

0000e380     38e (0000e380)     _nTimeTickDelayModbusMax
0000e384     38e (0000e380)     _CSMON_au8FileRecorderDataElementsSizeTable

0000e3c0     38f (0000e3c0)     _HMMODBUS_anTxCheckSum

0000e4c0     393 (0000e4c0)     _HMMODBUS_pCommBufferRx

0000e5c0     397 (0000e5c0)     _HMMODBUS_pCommBufferTx

0000e6c0     39b (0000e6c0)     _sRecConfigParam

0000e780     39e (0000e780)     _sScopeHandlePrm

0000e83a     3a0 (0000e800)     _Example_Result
0000e83c     3a0 (0000e800)     _Example_PassCount
0000e83e     3a0 (0000e800)     _Example_Fail

0000e840     3a1 (0000e840)     _CSMON_u16MaskSetupRecorderParam
0000e841     3a1 (0000e840)     _CSMON_u16MaskStartRecorderParam
0000e842     3a1 (0000e840)     _CSMON_u16MaskStopRecorderParam
0000e843     3a1 (0000e840)     _eResponseCodeStartRecParam0
0000e844     3a1 (0000e840)     _eResponseCodeStartRecParam1
0000e845     3a1 (0000e840)     _eResponseCodeStartRecParam2
0000e846     3a1 (0000e840)     _CSMON_bGetDateTimeAutorization
0000e847     3a1 (0000e840)     _CSMON_bSetDateTimeRequest
0000e848     3a1 (0000e840)     _CSMON_bGetDateTimeRequest
0000e849     3a1 (0000e840)     _CSMON_u16SCIErrorPercent
0000e84a     3a1 (0000e840)     _bServiceWatchdog
0000e84b     3a1 (0000e840)     _CSMON_bResetMaxMeasure
0000e84c     3a1 (0000e840)     _bRunOnceGetSavedRecorderState
0000e84d     3a1 (0000e840)     _CSMON_bWatchdogCalcNeeded
0000e84e     3a1 (0000e840)     _CSMON_u16WatchdogPrescaler
0000e84f     3a1 (0000e840)     _CSMON_u16MaxTimeInISR_usec
0000e850     3a1 (0000e840)     _CSMON_u16MinTimeProcessExit_usec
0000e851     3a1 (0000e840)     _CSMON_u16MaxTimeTillWdtClear_usec
0000e852     3a1 (0000e840)     _CSMON_u16MinTimeProcessAllowedNeeded_usec
0000e853     3a1 (0000e840)     _u16SkipProcessCounter
0000e854     3a1 (0000e840)     _u16SkipProcessTag
0000e855     3a1 (0000e840)     _bSkipProcessFlag
0000e856     3a1 (0000e840)     _CSMON_bUseAccessLevelForHoldingRegistersAndCoils
0000e857     3a1 (0000e840)     _CSMON_bUseAccessLevelForInputRegistersAndCoils
0000e858     3a1 (0000e840)     _CSMON_u16CurrentAccessLevelPrev
0000e859     3a1 (0000e840)     _CSMON_u16FileParameterFillCount
0000e85a     3a1 (0000e840)     _CSMON_u16FileParameterUseMaxCnt
0000e85b     3a1 (0000e840)     _CSMON_u16FileParameterListCount
0000e85c     3a1 (0000e840)     _CSMON_u16FileParameterNameCount
0000e85d     3a1 (0000e840)     _CSMON_u16FileParameterNumeric
0000e85e     3a1 (0000e840)     _CSMON_bUseDisconnectOnTimeout
0000e85f     3a1 (0000e840)     _CSMON_u16NoMessageTimeout_msec
0000e860     3a1 (0000e840)     _CSMON_u16NoMessageTimeoutOld_msec
0000e861     3a1 (0000e840)     _CSMON_bRunningInitialization
0000e862     3a1 (0000e840)     _eModbusDefaultCommandRead
0000e863     3a1 (0000e840)     _eModbusDefaultCommandWrite
0000e864     3a1 (0000e840)     _eModbusDefaultCommandReadArray
0000e865     3a1 (0000e840)     _eModbusDefaultCommandWriteArray
0000e866     3a1 (0000e840)     _u16ArrayReadAsHolding
0000e868     3a1 (0000e840)     _u32FreeRunTimerSysClkMHz
0000e86a     3a1 (0000e840)     _u32FreeRunTimerSysClkDiv
0000e86c     3a1 (0000e840)     _CSMON_u32SCIErrorPPM
0000e86e     3a1 (0000e840)     _CSMON_u32ServiceWatchdogTimes
0000e870     3a1 (0000e840)     _CSMON_u32FreeRunTimerCheckSumListBegin
0000e872     3a1 (0000e840)     _CSMON_u32FreeRunTimerCheckSumListEnd
0000e874     3a1 (0000e840)     _CSMON_u32FreeRunTimerCheckSumListMax
0000e876     3a1 (0000e840)     _CSMON_u32FreeRunTimerCheckSumNameBegin
0000e878     3a1 (0000e840)     _CSMON_u32FreeRunTimerCheckSumNameEnd
0000e87a     3a1 (0000e840)     _CSMON_u32FreeRunTimerCheckSumNameMax
0000e87c     3a1 (0000e840)     _CSMON_u32FreeRunTimerCheckSumNumbBegin
0000e87e     3a1 (0000e840)     _CSMON_u32FreeRunTimerCheckSumNumbEnd

0000e880     3a2 (0000e880)     _CSMON_u32FreeRunTimerCheckSumNumbMax
0000e882     3a2 (0000e880)     _CSMON_u32FreeRunTimerCheckSumStrgBegin
0000e884     3a2 (0000e880)     _CSMON_u32FreeRunTimerCheckSumStrgEnd
0000e886     3a2 (0000e880)     _CSMON_u32FreeRunTimerCheckSumStrgMax
0000e888     3a2 (0000e880)     _CSMON_u32FreeRunTimerAccessChangeBegin
0000e88a     3a2 (0000e880)     _CSMON_u32FreeRunTimerAccessChangeEnd
0000e88c     3a2 (0000e880)     _CSMON_u32FreeRunTimerAccessChangeMax
0000e88e     3a2 (0000e880)     _CSMON_u32FreeRunTimerPrepareFileParameterAccessListEnd
0000e890     3a2 (0000e880)     _CSMON_u32FreeRunTimerPrepareFileParameterAccessListMax
0000e892     3a2 (0000e880)     _CSMON_u32FreeRunTimerPasswordHashBegin
0000e894     3a2 (0000e880)     _CSMON_u32FreeRunTimerPasswordHashEnd
0000e896     3a2 (0000e880)     _CSMON_u32FreeRunTimerPasswordHashMax
0000e898     3a2 (0000e880)     _CSMON_u32FreeRunTimerProcessBegin
0000e89a     3a2 (0000e880)     _CSMON_u32FreeRunTimerProcessNow
0000e89c     3a2 (0000e880)     _CSMON_u32FreeRunTimerProcessEnd
0000e89e     3a2 (0000e880)     _CSMON_u32FreeRunTimerProcessMax
0000e8a0     3a2 (0000e880)     _CSMON_u32WatchdogPeriod_usec
0000e8a2     3a2 (0000e880)     _CSMON_u32WatchdogPeriod_Ticks
0000e8a4     3a2 (0000e880)     _CSMON_u32MaxTimeInISR_Ticks
0000e8a6     3a2 (0000e880)     _CSMON_u32MaxTimeProcess_Ticks
0000e8a8     3a2 (0000e880)     _CSMON_u32MaxTimeTillWdtClearISRs
0000e8aa     3a2 (0000e880)     _CSMON_u32MinTimeProcessExit_Ticks
0000e8ac     3a2 (0000e880)     _CSMON_u32MaxTimeTillWdtClear_Ticks
0000e8ae     3a2 (0000e880)     _CSMON_u32MinTimeProcessAllowedNeeded_Ticks
0000e8b0     3a2 (0000e880)     _CSMON_s32MaxTimeProcessAllowedCalc_Ticks
0000e8b2     3a2 (0000e880)     _CSMON_u32MaxTimeProcessAllowed_Ticks
0000e8b4     3a2 (0000e880)     _u32NumericDummy
0000e8b6     3a2 (0000e880)     _CSMON_pasFileParameterList
0000e8b8     3a2 (0000e880)     _CSMON_pasFileParameterShortName
0000e8ba     3a2 (0000e880)     _CSMON_pu32FileParameterString
0000e8bc     3a2 (0000e880)     _CSMON_psFileParameterAux
0000e8be     3a2 (0000e880)     _CSMON_pu32FileParameterReserved

0000e8c0     3a3 (0000e8c0)     _CSMON_pu32HoldingRegistersAddressTable
0000e8c2     3a3 (0000e8c0)     _CSMON_pu32HoldingRegistersAddressTableInRam
0000e8c4     3a3 (0000e8c0)     _CSMON_pu32HoldingRegistersAccessTableInRam
0000e8c6     3a3 (0000e8c0)     _CSMON_pauFileParameterNumeric
0000e8c8     3a3 (0000e8c0)     _CSMON_u32FreeRunTimerNow
0000e8ca     3a3 (0000e8c0)     _CSMON_u32FreeRunTimerPrev
0000e8cc     3a3 (0000e8c0)     _CSMON_u32FreeRunTimerDiff
0000e8ce     3a3 (0000e8c0)     _CSMON_u32NoMessageTime
0000e8d0     3a3 (0000e8c0)     _CSMON_u32NoMessageTimeout_Ticks
0000e8d2     3a3 (0000e8c0)     _MODBUSREG_u16ModbusParamCount
0000e8d3     3a3 (0000e8c0)     _MODBUSREG_u16ParamCount
0000e8d4     3a3 (0000e8c0)     _InputRegisterDummy
0000e8d5     3a3 (0000e8c0)     _InputCoilDummy
0000e8d6     3a3 (0000e8c0)     _CoilTest
0000e8d7     3a3 (0000e8c0)     _HMMODBUS_u16RegisterAddressTableControlParametersStartIndex
0000e8d8     3a3 (0000e8c0)     _MODBUSREG_u16HoldRegFillCount
0000e8d9     3a3 (0000e8c0)     _MODBUSREG_u16HoldRegUsedCount
0000e8da     3a3 (0000e8c0)     _MODBUSREG_u16HoldRegListCount
0000e8db     3a3 (0000e8c0)     _MODBUSREG_u16FileTableRecorderIndex
0000e8dc     3a3 (0000e8c0)     _MODBUSREG_u16FileTableShortNameIndex
0000e8dd     3a3 (0000e8c0)     _MODBUSREG_u16FileTableParameterListIndex
0000e8de     3a3 (0000e8c0)     _MODBUSREG_u16FileTableParameterNumbIndex
0000e8e0     3a3 (0000e8c0)     _MODBUSREG_u32ParamRecorderConfigAddress
0000e8e2     3a3 (0000e8c0)     _MODBUSREG_u32ParamScopeConfigAddress
0000e8e4     3a3 (0000e8c0)     _MODBUSREG_u32ParamListAddress
0000e8e6     3a3 (0000e8c0)     _MODBUSREG_u32ParamNameAddress
0000e8e8     3a3 (0000e8c0)     _MODBUSREG_u32ParamNumbAddress
0000e8ea     3a3 (0000e8c0)     _MODBUSREG_u32ParamStringAddress
0000e8ec     3a3 (0000e8c0)     _MODBUSREG_u32ParamAuxAddress
0000e8ee     3a3 (0000e8c0)     _MODBUSREG_u32ParamReservedAddress
0000e8f0     3a3 (0000e8c0)     _MODBUSREG_u32FileRTC_FunctionAfterWriteFileRecord
0000e8f2     3a3 (0000e8c0)     _MODBUSREG_u32FileRTC_FunctionAfterReadFileRecord
0000e8f4     3a3 (0000e8c0)     _MODBUSREG_u32FileParamCount_FunctionBeforeReadFileRecord
0000e8f6     3a3 (0000e8c0)     _MODBUSREG_u32FileAutorization_FunctionAfterWriteFileRecordTable
0000e8f8     3a3 (0000e8c0)     _MODBUSREG_u32FileRecStatus_FunctionIndexGenerationFileRecord
0000e8fa     3a3 (0000e8c0)     _MODBUSREG_u32FileRecConfig_FunctionAfterWriteFileRecord
0000e8fc     3a3 (0000e8c0)     _MODBUSREG_pu32RegisterAddressTable
0000e8fe     3a3 (0000e8c0)     _MODBUSREG_pu32RegisterAddressTableInRam

0000e900     3a4 (0000e900)     _MAIN_bDateTimeSet
0000e901     3a4 (0000e900)     _bDummyStatsDevRunning
0000e902     3a4 (0000e900)     _bDummyReqstDevRunning
0000e903     3a4 (0000e900)     _s16DummyCurrentPhaseAStartup
0000e904     3a4 (0000e900)     _s16DummyCurrentPhaseBStartup
0000e905     3a4 (0000e900)     _s16DummyCurrentPhaseCStartup
0000e906     3a4 (0000e900)     _s16DummyVoltageDCLinkStartup
0000e907     3a4 (0000e900)     _s16DummyCurrentPhaseAStop
0000e908     3a4 (0000e900)     _s16DummyCurrentPhaseBStop
0000e909     3a4 (0000e900)     _s16DummyCurrentPhaseCStop
0000e90a     3a4 (0000e900)     _s16DummyVoltageDCLinkStop
0000e90b     3a4 (0000e900)     _s16DummyCurrentPhaseAIdle
0000e90c     3a4 (0000e900)     _s16DummyCurrentPhaseBIdle
0000e90d     3a4 (0000e900)     _s16DummyCurrentPhaseCIdle
0000e90e     3a4 (0000e900)     _s16DummyVoltageDCLinkIdle
0000e90f     3a4 (0000e900)     _s16DummyIncrementLoopCDiff
0000e910     3a4 (0000e900)     _s16DummyIncrementLoopA
0000e911     3a4 (0000e900)     _s16DummyIncrementLoopB
0000e912     3a4 (0000e900)     _s16DummyIncrementLoopC
0000e913     3a4 (0000e900)     _s16DummyIncrementLoopV
0000e914     3a4 (0000e900)     _s16DummyCurrentPhaseA
0000e915     3a4 (0000e900)     _s16DummyCurrentPhaseB
0000e916     3a4 (0000e900)     _s16DummyCurrentPhaseC
0000e917     3a4 (0000e900)     _s16DummyVoltageDCLink
0000e918     3a4 (0000e900)     _s16DummyIncrementLoop
0000e919     3a4 (0000e900)     _u16DummyDataCnt
0000e91a     3a4 (0000e900)     _s16DummyDataTst
0000e91b     3a4 (0000e900)     _s16ScaleDataTst
0000e91c     3a4 (0000e900)     _u16TestData0
0000e91d     3a4 (0000e900)     _u16TestData1
0000e91e     3a4 (0000e900)     _u16TestData2
0000e91f     3a4 (0000e900)     _u16TestData3
0000e920     3a4 (0000e900)     _u16TestData4
0000e921     3a4 (0000e900)     _u16TestData5
0000e922     3a4 (0000e900)     _u16TestData6
0000e923     3a4 (0000e900)     _u16TestData7
0000e924     3a4 (0000e900)     _u16TestData8
0000e925     3a4 (0000e900)     _u16TestData9
0000e926     3a4 (0000e900)     _s16DummyData
0000e927     3a4 (0000e900)     _u16WatchdogPrescaler
0000e928     3a4 (0000e900)     _u16WatchdogPrescalerOld
0000e929     3a4 (0000e900)     _u16WatchdogPrescalerTime
0000e92a     3a4 (0000e900)     _u16WatchdogPrescalerTimeOld
0000e92b     3a4 (0000e900)     _u16DelayCtrlLoop_100nsec
0000e92c     3a4 (0000e900)     _u16DelayCtrlLoopOld_100nsec
0000e92d     3a4 (0000e900)     _u16DelayMainLoop_usec
0000e92e     3a4 (0000e900)     _u16DelayMainLoopOld_usec
0000e92f     3a4 (0000e900)     _u16PeriodControl_usec
0000e930     3a4 (0000e900)     _u16PeriodControlOld_usec
0000e931     3a4 (0000e900)     _u16CountSetParameterFree
0000e932     3a4 (0000e900)     _u16CountSetParameterFail
0000e933     3a4 (0000e900)     _u16CountMaxParameterTest
0000e934     3a4 (0000e900)     _bResetAllTimeMeasures
0000e935     3a4 (0000e900)     _eResponseCode_CSMON_eInit
0000e936     3a4 (0000e900)     _eResponseCode_CSMON_eProcess
0000e937     3a4 (0000e900)     _eResponseCode_CSMON_eSetServerOnStatus
0000e938     3a4 (0000e900)     _eResponseCode_CSMON_eSetParameter
0000e939     3a4 (0000e900)     _eResponseCode_CSMON_eSetRecorder
0000e93a     3a4 (0000e900)     _eResponseCode_CSMON_eSetScope
0000e93b     3a4 (0000e900)     _eResponseCode_CSMON_eSetTimerPeriodISRFunctionRegister
0000e93c     3a4 (0000e900)     _eResponseCode_CSMON_eSetFlagProcessPassed
0000e93d     3a4 (0000e900)     _limit_count_params
0000e93e     3a4 (0000e900)     _maximum_count_params
0000e93f     3a4 (0000e900)     _u16FreeRunningTimerTicksPerMicroSecond

0000e940     3a5 (0000e940)     _u16FreeRunningTimerPrescaller
0000e942     3a5 (0000e940)     _s32DummyCurrentPhaseA
0000e944     3a5 (0000e940)     _s32DummyCurrentPhaseB
0000e946     3a5 (0000e940)     _s32DummyCurrentPhaseC
0000e948     3a5 (0000e940)     _s32DummyVoltageDCLink
0000e94a     3a5 (0000e940)     _s32DummyIncrementLoop
0000e94c     3a5 (0000e940)     _u32DummyDataCnt
0000e94e     3a5 (0000e940)     _pu16ModbusMessageCounter
0000e950     3a5 (0000e940)     _aDummyDataTable
0000e952     3a5 (0000e940)     _u32DelayCtrlLoop_Ticks
0000e954     3a5 (0000e940)     _u32DelayMainLoop_Ticks
0000e956     3a5 (0000e940)     _u32TimeMainLoopProcessCSMON_Bgn_Ticks
0000e958     3a5 (0000e940)     _u32TimeMainLoopProcessCSMON_End_Ticks
0000e95a     3a5 (0000e940)     _u32TimeMainLoopProcessCSMON_Now_Ticks
0000e95c     3a5 (0000e940)     _u32TimeMainLoopProcessCSMON_Max_Ticks
0000e95e     3a5 (0000e940)     _u32TimeMainLoopCycle_Bgn_Ticks
0000e960     3a5 (0000e940)     _u32TimeMainLoopCycle_End_Ticks
0000e962     3a5 (0000e940)     _u32TimeMainLoopCycle_Now_Ticks
0000e964     3a5 (0000e940)     _u32TimeMainLoopCycle_Max_Ticks
0000e966     3a5 (0000e940)     _u32TimeCSMON_ISR_Ticks
0000e968     3a5 (0000e940)     _u32TimeCSMON_ISR_Max_Ticks
0000e96a     3a5 (0000e940)     _u32TimeCtrlLoop_Ticks
0000e96c     3a5 (0000e940)     _u32TimeCtrlLoopMax_Ticks
0000e96e     3a5 (0000e940)     _u32ParamTime_Ticks
0000e970     3a5 (0000e940)     _u32GetBaudError_PPM
0000e972     3a5 (0000e940)     _EMIF_AUX_pu16ParamVerBackupInEmif
0000e974     3a5 (0000e940)     _EMIF_AUX_pu16DateTimeBackupInEmif
0000e976     3a5 (0000e940)     _EMIF_AUX_pu16CheckSumBackupInEmif
0000e97a     3a5 (0000e940)     _u64DummyDataCnt

0000e980     3a6 (0000e980)     _MAIN_sDateTimeGet
0000e988     3a6 (0000e980)     _MAIN_sDateTimeSet
0000e990     3a6 (0000e980)     _i2cMsgOut

0000e9c0     3a7 (0000e9c0)     _sScopeConfigParam

0000ea40     3a9 (0000ea40)     _pcm_pCommBuffer

0000eab9     3aa (0000ea80)     _nRecorderFreemasterIndex
0000eaba     3aa (0000ea80)     _nScopePrmFreemasterIndex
0000eabb     3aa (0000ea80)     _bRecorderParameterUsage
0000eabc     3aa (0000ea80)     _bScopeParameterUsage
0000eabd     3aa (0000ea80)     _u16TimeBase
0000eabe     3aa (0000ea80)     _breakData
0000eabf     3aa (0000ea80)     _HMREC_u16FailSnapshotWrite

0000eac0     3ab (0000eac0)     _sRecExternParam

0000eb14     3ac (0000eb00)     _CSMON_au8FileScopeConfigurationElementsSizeTable
0000eb3e     3ac (0000eb00)     _MAIN_u32FreeCounter

0000eb40     3ad (0000eb40)     _FPGA_SCI_au8TxBuffer

0000ebbe     3ae (0000eb80)     _DataChangedParamFlag
0000ebbf     3ae (0000eb80)     _nScopeIndexFreemaster

0000ebc0     3af (0000ebc0)     _sRecStatusParam
0000ebf0     3af (0000ebc0)     _CSMON_sFileParameterCount

0000ec00     3b0 (0000ec00)     _CSMON_au8FileRecorderConfigElementsSizeTable
0000ec2d     3b0 (0000ec00)     _MODBUSREG_au8DeviceIDMajorMinorRevision
0000ec3d     3b0 (0000ec00)     _CSMON_abFileAutorization_RecordReadOnly

0000ec40     3b1 (0000ec40)     _sRecStatusParamInternal
0000ec5e     3b1 (0000ec40)     _eAsyncDataWidth
0000ec5f     3b1 (0000ec40)     _u16UseA19AsBA1
0000ec60     3b1 (0000ec40)     _sEMIFParamFPGA
0000ec6e     3b1 (0000ec40)     _sEMIFParam
0000ec7c     3b1 (0000ec40)     _CSMON_au8FileParameterListElementsSizeTablePart1

0000ec80     3b2 (0000ec80)     _MODBUSREG_au8DeviceIDModelName
0000ec90     3b2 (0000ec80)     _MODBUSREG_au8DeviceIDProductCode
0000eca0     3b2 (0000ec80)     _MODBUSREG_au8DeviceIDProductName
0000ecb0     3b2 (0000ec80)     _MODBUSREG_au8DeviceIDUserApplicationName

0000ecc0     3b3 (0000ecc0)     _MODBUSREG_au8DeviceIDUserReserve0
0000ecd0     3b3 (0000ecc0)     _MODBUSREG_au8DeviceIDUserReserve1
0000ece0     3b3 (0000ecc0)     _MODBUSREG_au8DeviceIDUserReserve2
0000ecf0     3b3 (0000ecc0)     _MODBUSREG_au8DeviceIDVendorName

0000ed00     3b4 (0000ed00)     _MODBUSREG_au8DeviceIDVendorUrl
0000ed10     3b4 (0000ed00)     _MODBUSREG_au8ServerIDData
0000ed20     3b4 (0000ed00)     _cpuTimer0IntCount
0000ed21     3b4 (0000ed00)     _cpuTimer1IntCount
0000ed22     3b4 (0000ed00)     _cpuTimer2IntCount
0000ed23     3b4 (0000ed00)     _u16TimerMainPeriod
0000ed24     3b4 (0000ed00)     _u16SecondPeriod
0000ed25     3b4 (0000ed00)     _u16SecondCounter
0000ed26     3b4 (0000ed00)     _u16TimerMainISRCounter
0000ed27     3b4 (0000ed00)     _TMR_u16FreeRunTimerPrescaller
0000ed28     3b4 (0000ed00)     _hours
0000ed29     3b4 (0000ed00)     _minutes
0000ed2a     3b4 (0000ed00)     _seconds
0000ed2b     3b4 (0000ed00)     _second_Passed
0000ed2c     3b4 (0000ed00)     _pfCSMONFunction
0000ed2e     3b4 (0000ed00)     _pcm_nTxTodo
0000ed2f     3b4 (0000ed00)     _pcm_nRxTodoEcho
0000ed30     3b4 (0000ed00)     _pcm_nRxTodo
0000ed31     3b4 (0000ed00)     _pcm_nRxCheckSum
0000ed32     3b4 (0000ed00)     _u8UartIndex
0000ed34     3b4 (0000ed00)     _pcm_pTxBuff
0000ed36     3b4 (0000ed00)     _pcm_pRxBuff
0000ed3a     3b4 (0000ed00)     _CSMON_au32FileAutorization_FunctionAfterWriteFileRecord

0000ed40     3b5 (0000ed40)     _CSMON_sDateTime
0000ed4c     3b5 (0000ed40)     _CSMON_sDateTimeApplication
0000ed58     3b5 (0000ed40)     _CSMON_sDateTimeDefault
0000ed66     3b5 (0000ed40)     _u32DeviceLSPCLKFreq
0000ed68     3b5 (0000ed40)     _u32DeviceLSPCLKFreqRoundAndMinErrorBaud
0000ed6a     3b5 (0000ed40)     _HMDRV_u32SCIErrorPPM
0000ed6c     3b5 (0000ed40)     _u32DeviceSYSCLKFreq
0000ed6e     3b5 (0000ed40)     _CSMON_au8FileParameterCountElementsSizeTable
0000ed78     3b5 (0000ed40)     _pfDelayedFunction

0000ed80     3b6 (0000ed80)     _CSMON_au8FileRTCElementsSizeTable
0000ed8a     3b6 (0000ed80)     _HMMODBUS_nFilePrimaryAddrWriteLast
0000ed94     3b6 (0000ed80)     _HMMOSBUS_nFileWriteAddrReadLast
0000ed9e     3b6 (0000ed80)     _sHashKey
0000eda8     3b6 (0000ed80)     _FPGA_uDataLocal
0000edb2     3b6 (0000ed80)     _CSMON_au8FileParameterNumericElementsSizeTable
0000edbb     3b6 (0000ed80)     _CSMON_au8FileRecorderStatusElementsSizeTable
0000edbf     3b6 (0000ed80)     _DataChangedFlag

0000edc0     3b7 (0000edc0)     _pfDelayedFunction_u8
0000edc8     3b7 (0000edc0)     _u32TimeDiffLast
0000edd0     3b7 (0000edc0)     _u32TimeDiffNow
0000edd8     3b7 (0000edc0)     _u32TimeDiffRead
0000ede0     3b7 (0000edc0)     _CSMON_au32FileParameterDefinitionsFileRecordElementsRealAddressTable
0000ede6     3b7 (0000edc0)     _CSMON_au32FileParameterDefinitionsFileRecordElementsSizeTable
0000edec     3b7 (0000edc0)     _pBufferScope
0000edf2     3b7 (0000edc0)     _u32RecorderLastFreeCounter
0000edf8     3b7 (0000edc0)     _u32RecorderMicroSec
0000edfe     3b7 (0000edc0)     _CSMON_abFlagProcessPassed

0000ee00     3b8 (0000ee00)     ___TI_enable_exit_profile_output
0000ee02     3b8 (0000ee00)     ___TI_cleanup_ptr
0000ee04     3b8 (0000ee00)     ___TI_dtors_ptr
0000ee06     3b8 (0000ee00)     _HMMODBUS_u32RegisterAddressInRamDummy
0000ee0a     3b8 (0000ee00)     _UARTRxBufferRDCount
0000ee0e     3b8 (0000ee00)     _UARTRxBufferRDIndex
0000ee12     3b8 (0000ee00)     _UARTRxBufferWRCount
0000ee16     3b8 (0000ee00)     _UARTRxBufferWRIndex
0000ee1a     3b8 (0000ee00)     _currentMsgPtr
0000ee1e     3b8 (0000ee00)     _u16TimerMainDelayedData
0000ee22     3b8 (0000ee00)     _u16TimerMainFunctionDelay
0000ee26     3b8 (0000ee00)     _u16TimerMainFunctionDelayCompare
0000ee2a     3b8 (0000ee00)     _u16TimerMainFunctionDelayCounter
0000ee2e     3b8 (0000ee00)     _CSMON_abFileAutorization_RecordStringData
0000ee31     3b8 (0000ee00)     _CSMON_au16FileAutorization_RecordOffsets
0000ee34     3b8 (0000ee00)     _CSMON_au32FileParameterDefinitionsFileRecordElementsRecordToRecordOffsetSizeBytesTable
0000ee37     3b8 (0000ee00)     _CSMON_au8FileRecorderDataElementsSizeTableUsedLength
0000ee3a     3b8 (0000ee00)     _CSMON_sFileProtocolVersion
0000ee3d     3b8 (0000ee00)     _HMMODBUS_u32RegisterAddressDummy

0000ee40     3b9 (0000ee40)     _abRecorderJustStopped
0000ee43     3b9 (0000ee40)     _abRecorderRunning
0000ee46     3b9 (0000ee40)     _sScopeStatusParam
0000ee49     3b9 (0000ee40)     _bUseSCIA_On_USB
0000ee4a     3b9 (0000ee40)     _MAIN_sDate
0000ee4c     3b9 (0000ee40)     _MAIN_sTime
0000ee4e     3b9 (0000ee40)     __lock
0000ee50     3b9 (0000ee40)     __unlock
0000ee52     3b9 (0000ee40)     _CSMON_au8FileParameterListElementsSizeTablePart2
0000ee53     3b9 (0000ee40)     _CSMON_au8FileParameterListElementsSizeTablePart3
0000ee54     3b9 (0000ee40)     _CSMON_au8FileScopeStatusElementsSizeTable
0000ee55     3b9 (0000ee40)     _HMMODBUS_wFlags
0000ee56     3b9 (0000ee40)     _HMMODBUS_wFlagsRxTx
0000ee57     3b9 (0000ee40)     _pcm_wFlags
0000ee58     3b9 (0000ee40)     _pcm_wFlagsRxTx

00090000    2400 (00090000)     _auchCRCHi

00090100    2404 (00090100)     _auchCRCLo

00090200    2408 (00090200)     _CSMON_asAccessLevelPasswords

00090268    2409 (00090240)     _CSMON_au8FileImplementedFunctionCodes

0009029e    240a (00090280)     _CSMON_au8FileParameterListElementsCountInPartTable

000a0000    2800 (000a0000)     _asParameterList

00300000    c000 (00300000)     _FPGA_uData


GLOBAL SYMBOLS: SORTED ALPHABETICALLY BY Name 

page  address   name                                                                                             
----  -------   ----                                                                                             
abs   ffffffff  .text                                                                                            
0     0008a249  C$$EXIT                                                                                          
0     0008899b  FD$$ADD                                                                                          
0     00088e3e  FD$$DIV                                                                                          
0     00088fd4  FD$$MPY                                                                                          
0     0008aab2  FD$$SUB                                                                                          
0     0008a619  FD$$TOUL                                                                                         
0     00088ec9  FS$$DIV                                                                                          
0     000879d4  LL$$DIV                                                                                          
0     00087a10  LL$$MOD                                                                                          
0     0008ab68  U$$DIV                                                                                           
0     0008ab6d  U$$MOD                                                                                           
0     0008a7a5  U$$TOFD                                                                                          
0     00087a4a  ULL$$DIV                                                                                         
0     00087a79  ULL$$MOD                                                                                         
0     0008acd0  _CPUTimer_setEmulationMode                                                                       
1     0000ec3d  _CSMON_abFileAutorization_RecordReadOnly                                                         
1     0000ee2e  _CSMON_abFileAutorization_RecordStringData                                                       
1     0000edfe  _CSMON_abFlagProcessPassed                                                                       
0     00090200  _CSMON_asAccessLevelPasswords                                                                    
1     0000d000  _CSMON_asFileParameterDefinitionsFromAccessLevel                                                 
1     0000ee31  _CSMON_au16FileAutorization_RecordOffsets                                                        
1     0000ed3a  _CSMON_au32FileAutorization_FunctionAfterWriteFileRecord                                         
1     0000ede0  _CSMON_au32FileParameterDefinitionsFileRecordElementsRealAddressTable                            
1     0000ee34  _CSMON_au32FileParameterDefinitionsFileRecordElementsRecordToRecordOffsetSizeBytesTable          
1     0000ede6  _CSMON_au32FileParameterDefinitionsFileRecordElementsSizeTable                                   
0     00090268  _CSMON_au8FileImplementedFunctionCodes                                                           
1     0000ed6e  _CSMON_au8FileParameterCountElementsSizeTable                                                    
0     0009029e  _CSMON_au8FileParameterListElementsCountInPartTable                                              
1     0000ec7c  _CSMON_au8FileParameterListElementsSizeTablePart1                                                
1     0000ee52  _CSMON_au8FileParameterListElementsSizeTablePart2                                                
1     0000ee53  _CSMON_au8FileParameterListElementsSizeTablePart3                                                
1     0000edb2  _CSMON_au8FileParameterNumericElementsSizeTable                                                  
1     0000ed80  _CSMON_au8FileRTCElementsSizeTable                                                               
1     0000ec00  _CSMON_au8FileRecorderConfigElementsSizeTable                                                    
1     0000e384  _CSMON_au8FileRecorderDataElementsSizeTable                                                      
1     0000ee37  _CSMON_au8FileRecorderDataElementsSizeTableUsedLength                                            
1     0000edbb  _CSMON_au8FileRecorderStatusElementsSizeTable                                                    
1     0000eb14  _CSMON_au8FileScopeConfigurationElementsSizeTable                                                
1     0000ee54  _CSMON_au8FileScopeStatusElementsSizeTable                                                       
0     0008a272  _CSMON_bAutorizationPasswordCheck                                                                
0     00089824  _CSMON_bCheckValidDateTime                                                                       
1     0000e846  _CSMON_bGetDateTimeAutorization                                                                  
1     0000e848  _CSMON_bGetDateTimeRequest                                                                       
1     0000e84b  _CSMON_bResetMaxMeasure                                                                          
1     0000e861  _CSMON_bRunningInitialization                                                                    
1     0000e847  _CSMON_bSetDateTimeRequest                                                                       
1     0000e856  _CSMON_bUseAccessLevelForHoldingRegistersAndCoils                                                
1     0000e857  _CSMON_bUseAccessLevelForInputRegistersAndCoils                                                  
1     0000e85e  _CSMON_bUseDisconnectOnTimeout                                                                   
1     0000e84d  _CSMON_bWatchdogCalcNeeded                                                                       
0     0008a434  _CSMON_eApplyParameterChanges                                                                    
0     00085df4  _CSMON_eInit                                                                                     
0     000869d4  _CSMON_eProcess                                                                                  
0     00083ffc  _CSMON_eRegisterWriteParElementCallbackFunction                                                  
0     0008a7e8  _CSMON_eResetParameterTable                                                                      
0     0008acd6  _CSMON_eSetAutoServiceWatchdogInternalSlowCalculationsInMainLoop                                 
0     0008acdb  _CSMON_eSetFirmwareApplicationVersion                                                            
0     0008a862  _CSMON_eSetFlagProcessPassed                                                                     
0     0008ad26  _CSMON_eSetInternalTimerPeriod                                                                   
0     0008ace0  _CSMON_eSetMaxTimeInISR                                                                          
0     0008ace5  _CSMON_eSetMinGuaranteedTimeBetweenTwoISRs                                                       
0     00085412  _CSMON_eSetParameter                                                                             
0     0008a5e3  _CSMON_eSetParameterCountInRecorder                                                              
0     0008a7bc  _CSMON_eSetParameterCountInScope                                                                 
0     0008a0e4  _CSMON_eSetParameterInRecorderAtPosition                                                         
0     0008a16f  _CSMON_eSetParameterInScopeAtPosition                                                            
0     0008ae52  _CSMON_eSetParameterListDataDefault                                                              
0     0008ae55  _CSMON_eSetParameterListDataMaximum                                                              
0     0008ae58  _CSMON_eSetParameterListDataMinimum                                                              
0     0008ae5b  _CSMON_eSetParameterListParameterID                                                              
0     0008ae5e  _CSMON_eSetParameterListRealAddress                                                              
0     0008ae61  _CSMON_eSetParameterListRegisterFlags                                                            
0     0008ae64  _CSMON_eSetParameterListRegisterSize                                                             
0     0008ae67  _CSMON_eSetParameterListValueFormat                                                              
0     00089b30  _CSMON_eSetRecorderConfigurationSkipSamples                                                      
0     000899c4  _CSMON_eSetRecorderTriggerAtPosition                                                             
0     0008aba5  _CSMON_eSetServerOnStatus                                                                        
0     0008ad2a  _CSMON_eSetTimerPeriodISRFunctionRegister                                                        
0     00086fcf  _CSMON_eSetUpRecParam                                                                            
1     0000e8b6  _CSMON_pasFileParameterList                                                                      
1     0000e8b8  _CSMON_pasFileParameterShortName                                                                 
1     0000e8c6  _CSMON_pauFileParameterNumeric                                                                   
1     0000e8bc  _CSMON_psFileParameterAux                                                                        
1     0000e8be  _CSMON_pu32FileParameterReserved                                                                 
1     0000e8ba  _CSMON_pu32FileParameterString                                                                   
1     0000e8c4  _CSMON_pu32HoldingRegistersAccessTableInRam                                                      
1     0000e8c0  _CSMON_pu32HoldingRegistersAddressTable                                                          
1     0000e8c2  _CSMON_pu32HoldingRegistersAddressTableInRam                                                     
1     0000e8b0  _CSMON_s32MaxTimeProcessAllowedCalc_Ticks                                                        
1     0000ed40  _CSMON_sDateTime                                                                                 
1     0000ed4c  _CSMON_sDateTimeApplication                                                                      
1     0000ed58  _CSMON_sDateTimeDefault                                                                          
1     0000e126  _CSMON_sFileAutorization                                                                         
1     0000d400  _CSMON_sFileParameterAccessList                                                                  
1     0000ebf0  _CSMON_sFileParameterCount                                                                       
1     0000ee3a  _CSMON_sFileProtocolVersion                                                                      
1     0000e858  _CSMON_u16CurrentAccessLevelPrev                                                                 
1     0000e859  _CSMON_u16FileParameterFillCount                                                                 
1     0000e85b  _CSMON_u16FileParameterListCount                                                                 
1     0000e85c  _CSMON_u16FileParameterNameCount                                                                 
1     0000e85d  _CSMON_u16FileParameterNumeric                                                                   
1     0000e85a  _CSMON_u16FileParameterUseMaxCnt                                                                 
0     000891c4  _CSMON_u16FindIndexParameterTable                                                                
1     0000e840  _CSMON_u16MaskSetupRecorderParam                                                                 
1     0000e841  _CSMON_u16MaskStartRecorderParam                                                                 
1     0000e842  _CSMON_u16MaskStopRecorderParam                                                                  
1     0000e84f  _CSMON_u16MaxTimeInISR_usec                                                                      
1     0000e851  _CSMON_u16MaxTimeTillWdtClear_usec                                                               
1     0000e852  _CSMON_u16MinTimeProcessAllowedNeeded_usec                                                       
1     0000e850  _CSMON_u16MinTimeProcessExit_usec                                                                
1     0000e860  _CSMON_u16NoMessageTimeoutOld_msec                                                               
1     0000e85f  _CSMON_u16NoMessageTimeout_msec                                                                  
0     0008acea  _CSMON_u16ParametersAccessListIndexGenerate                                                      
1     0000e849  _CSMON_u16SCIErrorPercent                                                                        
1     0000e84e  _CSMON_u16WatchdogPrescaler                                                                      
1     0000e888  _CSMON_u32FreeRunTimerAccessChangeBegin                                                          
1     0000e88a  _CSMON_u32FreeRunTimerAccessChangeEnd                                                            
1     0000e88c  _CSMON_u32FreeRunTimerAccessChangeMax                                                            
1     0000e870  _CSMON_u32FreeRunTimerCheckSumListBegin                                                          
1     0000e872  _CSMON_u32FreeRunTimerCheckSumListEnd                                                            
1     0000e874  _CSMON_u32FreeRunTimerCheckSumListMax                                                            
1     0000e876  _CSMON_u32FreeRunTimerCheckSumNameBegin                                                          
1     0000e878  _CSMON_u32FreeRunTimerCheckSumNameEnd                                                            
1     0000e87a  _CSMON_u32FreeRunTimerCheckSumNameMax                                                            
1     0000e87c  _CSMON_u32FreeRunTimerCheckSumNumbBegin                                                          
1     0000e87e  _CSMON_u32FreeRunTimerCheckSumNumbEnd                                                            
1     0000e880  _CSMON_u32FreeRunTimerCheckSumNumbMax                                                            
1     0000e882  _CSMON_u32FreeRunTimerCheckSumStrgBegin                                                          
1     0000e884  _CSMON_u32FreeRunTimerCheckSumStrgEnd                                                            
1     0000e886  _CSMON_u32FreeRunTimerCheckSumStrgMax                                                            
1     0000e8cc  _CSMON_u32FreeRunTimerDiff                                                                       
1     0000e8c8  _CSMON_u32FreeRunTimerNow                                                                        
1     0000e892  _CSMON_u32FreeRunTimerPasswordHashBegin                                                          
1     0000e894  _CSMON_u32FreeRunTimerPasswordHashEnd                                                            
1     0000e896  _CSMON_u32FreeRunTimerPasswordHashMax                                                            
1     0000e88e  _CSMON_u32FreeRunTimerPrepareFileParameterAccessListEnd                                          
1     0000e890  _CSMON_u32FreeRunTimerPrepareFileParameterAccessListMax                                          
1     0000e8ca  _CSMON_u32FreeRunTimerPrev                                                                       
1     0000e898  _CSMON_u32FreeRunTimerProcessBegin                                                               
1     0000e89c  _CSMON_u32FreeRunTimerProcessEnd                                                                 
1     0000e89e  _CSMON_u32FreeRunTimerProcessMax                                                                 
1     0000e89a  _CSMON_u32FreeRunTimerProcessNow                                                                 
0     0008ad2e  _CSMON_u32GetBaudError_PPM                                                                       
0     0008a749  _CSMON_u32GetFreeRunningTimerMicroseconds                                                        
0     0008ad32  _CSMON_u32GetFreeRunningTimerTicks                                                               
0     0008ae6a  _CSMON_u32GetModbusMessageCounterRegisterRealAddress                                             
0     0008a0b4  _CSMON_u32GetParameterAuxCheckSum                                                                
0     000888fb  _CSMON_u32GetParameterCheckSum                                                                   
0     00087137  _CSMON_u32GetParameterListCheckSum                                                               
0     00088b6c  _CSMON_u32GetParameterNumbCheckSum                                                               
0     00088d22  _CSMON_u32GetParameterShortNameCheckSum                                                          
0     000890d6  _CSMON_u32GetParameterStringCheckSum                                                             
0     0008a083  _CSMON_u32GetRealAddressAndSizeOffsetFromParameter                                               
1     0000e8a4  _CSMON_u32MaxTimeInISR_Ticks                                                                     
1     0000e8b2  _CSMON_u32MaxTimeProcessAllowed_Ticks                                                            
1     0000e8a6  _CSMON_u32MaxTimeProcess_Ticks                                                                   
1     0000e8a8  _CSMON_u32MaxTimeTillWdtClearISRs                                                                
1     0000e8ac  _CSMON_u32MaxTimeTillWdtClear_Ticks                                                              
1     0000e8ae  _CSMON_u32MinTimeProcessAllowedNeeded_Ticks                                                      
1     0000e8aa  _CSMON_u32MinTimeProcessExit_Ticks                                                               
1     0000e8ce  _CSMON_u32NoMessageTime                                                                          
1     0000e8d0  _CSMON_u32NoMessageTimeout_Ticks                                                                 
1     0000e86c  _CSMON_u32SCIErrorPPM                                                                            
1     0000e86e  _CSMON_u32ServiceWatchdogTimes                                                                   
1     0000e8a2  _CSMON_u32WatchdogPeriod_Ticks                                                                   
1     0000e8a0  _CSMON_u32WatchdogPeriod_usec                                                                    
0     0008ad36  _CSMON_vAddSetupRecorderParameterMask                                                            
0     0008a339  _CSMON_vAutorizationReset                                                                        
0     0008914d  _CSMON_vCheckLoadRecorderTable                                                                   
0     0008864e  _CSMON_vCheckSaveRecorderTable                                                                   
0     0008a634  _CSMON_vFileParameterCountCheckSumUpdate                                                         
0     00087bd4  _CSMON_vFileRecoderStatusFix                                                                     
0     00085dd5  _CSMON_vGetDateTime                                                                              
0     0008aa3c  _CSMON_vInitHoldingRegistersTableChanges                                                         
0     0008a35d  _CSMON_vInitParameterListRealAddressRecordTables                                                 
0     00088db0  _CSMON_vInitRecorders                                                                            
0     0008ab7d  _CSMON_vInitScopes                                                                               
0     00089314  _CSMON_vLoadRecorderConfigTrigger                                                                
0     00088a38  _CSMON_vLoadRecorderConfiguration                                                                
0     00088857  _CSMON_vPrepareFileParameterAccessList                                                           
0     0008a113  _CSMON_vRecorderParamSetupProcess                                                                
0     00089770  _CSMON_vRecorderParamStartStopProcess                                                            
0     0008a29a  _CSMON_vSaveRecorderConfig                                                                       
0     00088284  _CSMON_vSaveRecorderConfigTrigger                                                                
0     00087298  _CSMON_vSaveRecorderConfiguration                                                                
0     00085dc4  _CSMON_vSetDateTime                                                                              
0     00088c00  _CSMON_vSetDateTimeAutorization                                                                  
0     0008acef  _CSMON_vSetDateTimeRequest                                                                       
0     0008ae6d  _CSMON_vSetModbusMessageCounterRegisterRealAddress                                               
0     0008ad3a  _CSMON_vSetStartRecorderParameterMask                                                            
0     00089ee0  _CSMON_vSetupHoldingRegistersAndCoilsAddressTableAccessAll                                       
0     00088000  _CSMON_vSetupHoldingRegistersAndCoilsAddressTableFromCSMONParameterList                          
0     0008ac2c  _CSMON_vSetupInputRegistersAndCoilsAddressTableAccessAll                                         
0     0008ac34  _CSMON_vSetupInputRegistersAndCoilsAddressTableFromCSMONParameterList                            
0     0008a411  _CSMON_vUpdateDateTimeFromApplication                                                            
1     0000e8d6  _CoilTest                                                                                        
0     00085d08  _ControlProcess                                                                                  
1     0000cd7e  _DS3231MZ_bReadRequest                                                                           
0     0008a044  _DS3231MZ_vInit                                                                                  
0     0008a01f  _DS3231MZ_vProcess                                                                               
1     0000edbf  _DataChangedFlag                                                                                 
1     0000ebbe  _DataChangedParamFlag                                                                            
0     00087ea1  _Device_enableAllPeripherals                                                                     
0     0008a92c  _Device_enableUnbondedGPIOPullups                                                                
0     0008a58d  _Device_enableUnbondedGPIOPullupsFor100Pin                                                       
0     0008a875  _Device_enableUnbondedGPIOPullupsFor176Pin                                                       
0     0008a051  _Device_init                                                                                     
0     0008a551  _Device_initGPIO                                                                                 
1     0000e976  _EMIF_AUX_pu16CheckSumBackupInEmif                                                               
1     0000e974  _EMIF_AUX_pu16DateTimeBackupInEmif                                                               
1     0000e972  _EMIF_AUX_pu16ParamVerBackupInEmif                                                               
0     000866d6  _EMIF_DRV_vInit                                                                                  
1     0000e83e  _Example_Fail                                                                                    
1     0000e83c  _Example_PassCount                                                                               
1     0000e83a  _Example_Result                                                                                  
0     00085cdc  _ExternalParametersInitialization                                                                
0     000897e4  _FPGA_DRV_vGetData                                                                               
0     000897f7  _FPGA_DRV_vGetDateTime                                                                           
0     000897ca  _FPGA_DRV_vSetDateTime                                                                           
1     0000cf8e  _FPGA_SCI_Clock_Get_Days                                                                         
1     0000cf8c  _FPGA_SCI_Clock_Get_Hours                                                                        
1     0000cf95  _FPGA_SCI_Clock_Get_Last_Days                                                                    
1     0000cf93  _FPGA_SCI_Clock_Get_Last_Hours                                                                   
1     0000cf92  _FPGA_SCI_Clock_Get_Last_Minutes                                                                 
1     0000cf96  _FPGA_SCI_Clock_Get_Last_Month                                                                   
1     0000cf91  _FPGA_SCI_Clock_Get_Last_Seconds                                                                 
1     0000cf94  _FPGA_SCI_Clock_Get_Last_Weekdays                                                                
1     0000cf97  _FPGA_SCI_Clock_Get_Last_Year                                                                    
1     0000cf8b  _FPGA_SCI_Clock_Get_Minutes                                                                      
1     0000cf8f  _FPGA_SCI_Clock_Get_Month                                                                        
1     0000cf8a  _FPGA_SCI_Clock_Get_Seconds                                                                      
1     0000cf8d  _FPGA_SCI_Clock_Get_Weekdays                                                                     
1     0000cf90  _FPGA_SCI_Clock_Get_Year                                                                         
1     0000cf9c  _FPGA_SCI_Clock_Set_Days                                                                         
1     0000cf9a  _FPGA_SCI_Clock_Set_Hours                                                                        
1     0000cf99  _FPGA_SCI_Clock_Set_Minutes                                                                      
1     0000cf9d  _FPGA_SCI_Clock_Set_Month                                                                        
1     0000cf98  _FPGA_SCI_Clock_Set_Seconds                                                                      
1     0000cf9b  _FPGA_SCI_Clock_Set_Weekdays                                                                     
1     0000cf9e  _FPGA_SCI_Clock_Set_Year                                                                         
1     0000cfc9  _FPGA_SCI_HuTmp                                                                                  
1     0000cfd4  _FPGA_SCI_HuTmp_Trip                                                                             
1     0000cfca  _FPGA_SCI_Humid                                                                                  
1     0000cfd5  _FPGA_SCI_Humid_Trip                                                                             
1     0000cfc0  _FPGA_SCI_Temp1                                                                                  
1     0000cfcb  _FPGA_SCI_Temp1_Trip                                                                             
1     0000cfc1  _FPGA_SCI_Temp2                                                                                  
1     0000cfcc  _FPGA_SCI_Temp2_Trip                                                                             
1     0000cfc2  _FPGA_SCI_Temp3                                                                                  
1     0000cfcd  _FPGA_SCI_Temp3_Trip                                                                             
1     0000cfc3  _FPGA_SCI_Temp4                                                                                  
1     0000cfce  _FPGA_SCI_Temp4_Trip                                                                             
1     0000cfc4  _FPGA_SCI_Temp5                                                                                  
1     0000cfcf  _FPGA_SCI_Temp5_Trip                                                                             
1     0000cfc5  _FPGA_SCI_Temp6                                                                                  
1     0000cfd0  _FPGA_SCI_Temp6_Trip                                                                             
1     0000cfc6  _FPGA_SCI_Temp7                                                                                  
1     0000cfd1  _FPGA_SCI_Temp7_Trip                                                                             
1     0000cfc7  _FPGA_SCI_Temp8                                                                                  
1     0000cfd2  _FPGA_SCI_Temp8_Trip                                                                             
1     0000cfc8  _FPGA_SCI_Temp9                                                                                  
1     0000cfd3  _FPGA_SCI_Temp9_Trip                                                                             
1     0000eb40  _FPGA_SCI_au8TxBuffer                                                                            
1     0000cf83  _FPGA_SCI_bDataRecv                                                                              
1     0000cf84  _FPGA_SCI_bDataRecvUse                                                                           
1     0000cf89  _FPGA_SCI_bPeriodicSend                                                                          
1     0000cf85  _FPGA_SCI_bResetUart                                                                             
1     0000cff3  _FPGA_SCI_bTxCommandMaskAuto                                                                     
1     0000cfef  _FPGA_SCI_bUseCheckSum                                                                           
1     0000cfd6  _FPGA_SCI_eRxState                                                                               
1     0000cfa4  _FPGA_SCI_err_glb                                                                                
1     0000cfaa  _FPGA_SCI_err_glb_err                                                                            
1     0000cfb1  _FPGA_SCI_err_glb_err_Trip                                                                       
1     0000cf9f  _FPGA_SCI_gdi_det                                                                                
1     0000cfa5  _FPGA_SCI_gdi_det_err                                                                            
1     0000cfac  _FPGA_SCI_gdi_det_err_Trip                                                                       
1     0000cfa0  _FPGA_SCI_gdi_err                                                                                
1     0000cfa6  _FPGA_SCI_gdi_err_err                                                                            
1     0000cfad  _FPGA_SCI_gdi_err_err_Trip                                                                       
1     0000cfa1  _FPGA_SCI_gdi_ovt                                                                                
1     0000cfa7  _FPGA_SCI_gdi_ovt_err                                                                            
1     0000cfae  _FPGA_SCI_gdi_ovt_err_Trip                                                                       
1     0000cfab  _FPGA_SCI_meas_temp_err                                                                          
1     0000cfb2  _FPGA_SCI_meas_temp_err_Trip                                                                     
1     0000cfb4  _FPGA_SCI_ms_det                                                                                 
1     0000cfba  _FPGA_SCI_ms_det_fbk                                                                             
1     0000cfb5  _FPGA_SCI_ms_err                                                                                 
1     0000cfbb  _FPGA_SCI_ms_err_fbk                                                                             
1     0000cfb9  _FPGA_SCI_ms_glb                                                                                 
1     0000cfbf  _FPGA_SCI_ms_glb_fbk                                                                             
1     0000cfb3  _FPGA_SCI_ms_meas_temp_err                                                                       
1     0000cfb7  _FPGA_SCI_ms_ocn                                                                                 
1     0000cfbd  _FPGA_SCI_ms_ocn_fbk                                                                             
1     0000cfb8  _FPGA_SCI_ms_ocp                                                                                 
1     0000cfbe  _FPGA_SCI_ms_ocp_fbk                                                                             
1     0000cfb6  _FPGA_SCI_ms_ovt                                                                                 
1     0000cfbc  _FPGA_SCI_ms_ovt_fbk                                                                             
1     0000cfe5  _FPGA_SCI_nAddrMode                                                                              
1     0000cf87  _FPGA_SCI_nAddressDSP                                                                            
1     0000cf88  _FPGA_SCI_nAddressFPGA                                                                           
1     0000cfe3  _FPGA_SCI_nBytesToSend                                                                           
1     0000cfe4  _FPGA_SCI_nBytesToSendHardSet                                                                    
1     0000cfe6  _FPGA_SCI_nParityMode                                                                            
1     0000cfd8  _FPGA_SCI_nRecvTimeout                                                                           
1     0000cfde  _FPGA_SCI_nRxByteCounter                                                                         
1     0000cfdc  _FPGA_SCI_nRxChSum                                                                               
1     0000cfdf  _FPGA_SCI_nRxCommand                                                                             
1     0000cfe0  _FPGA_SCI_nRxCommand_Mask                                                                        
1     0000cfdd  _FPGA_SCI_nRxData                                                                                
1     0000cfda  _FPGA_SCI_nRxIndex                                                                               
1     0000cfe1  _FPGA_SCI_nRxLength                                                                              
1     0000cfd7  _FPGA_SCI_nRxTodoEcho                                                                            
1     0000cfdb  _FPGA_SCI_nTxChSum                                                                               
1     0000cff1  _FPGA_SCI_nTxCommand                                                                             
1     0000cffa  _FPGA_SCI_nTxCommandMaskDenyTime                                                                 
1     0000cff8  _FPGA_SCI_nTxCommandMaskDenyTimeDelay                                                            
1     0000cffe  _FPGA_SCI_nTxCommandMaskDenyTimeDiff                                                             
1     0000cffc  _FPGA_SCI_nTxCommandMaskDenyTimeLast                                                             
1     0000cff2  _FPGA_SCI_nTxCommandReq                                                                          
1     0000cfd9  _FPGA_SCI_nTxIndex                                                                               
1     0000cfe2  _FPGA_SCI_nTxTestLength                                                                          
1     0000cfa2  _FPGA_SCI_trp_ocn                                                                                
1     0000cfa8  _FPGA_SCI_trp_ocn_err                                                                            
1     0000cfaf  _FPGA_SCI_trp_ocn_err_Trip                                                                       
1     0000cfa3  _FPGA_SCI_trp_ocp                                                                                
1     0000cfa9  _FPGA_SCI_trp_ocp_err                                                                            
1     0000cfb0  _FPGA_SCI_trp_ocp_err_Trip                                                                       
1     0000cf82  _FPGA_SCI_u16TimeCurr                                                                            
1     0000cf80  _FPGA_SCI_u16TimeLast                                                                            
1     0000cf81  _FPGA_SCI_u16TimePass                                                                            
1     0000cff6  _FPGA_SCI_u32SendCount                                                                           
1     0000cff4  _FPGA_SCI_u32SendCounter                                                                         
1     0000cf86  _FPGA_SCI_u8UartIndex                                                                            
0     0008a8c1  _FPGA_SCI_vProcessFastTD                                                                         
0     0008a220  _FPGA_SCI_vProcessUartTx                                                                         
1     00300000  _FPGA_uData                                                                                      
1     0000eda8  _FPGA_uDataLocal                                                                                 
0     0008a19c  _FillTimeData                                                                                    
0     00008018  _Flash_initModule                                                                        00086018
0     00008000  _Flash_powerDown                                                                         00086000
0     00086ce1  _GPIO_getDirectionMode                                                                           
0     00086cb5  _GPIO_getPadConfig                                                                               
0     00086c95  _GPIO_getQualificationMode                                                                       
0     00086c74  _GPIO_setAnalogMode                                                                              
0     00086c54  _GPIO_setDirectionMode                                                                           
0     00086c34  _GPIO_setInterruptPin                                                                            
0     00086c12  _GPIO_setMasterCore                                                                              
0     00086bd3  _GPIO_setPadConfig                                                                               
0     00086ba3  _GPIO_setPinConfig                                                                               
0     00086b81  _GPIO_setQualificationMode                                                                       
0     00086b66  _GPIO_setQualificationPeriod                                                                     
0     0008a6d0  _HMDRV_AddressFromBuffer                                                                         
0     0008a7d2  _HMDRV_AddressFromBufferBigEndian                                                                
0     0008a5fe  _HMDRV_AddressToBuffer                                                                           
0     00088c91  _HMDRV_CopyFromBufferInternal                                                                    
0     00088f51  _HMDRV_CopyFromBufferInternalModbus                                                              
0     00088700  _HMDRV_CopyFromBufferInternalModbusBitField                                                      
0     000894bc  _HMDRV_CopyFromBufferInternalWithMask                                                            
0     00089a0f  _HMDRV_CopyFromBufferInternalWithMaskModbus                                                      
0     0008ac3c  _HMDRV_CopyFromBufferWithMaskModbus                                                              
0     00086751  _HMDRV_CopyMemory                                                                                
0     00086cf3  _HMDRV_CopyToBufferInternal                                                                      
0     00088414  _HMDRV_CopyToBufferInternalModbus                                                                
0     0008a8d3  _HMDRV_GetStringLengthFromWordInternal                                                           
0     00089f51  _HMDRV_GetStringLengthInternal                                                                   
0     0008ad3e  _HMDRV_SetExAddr                                                                                 
0     0008ad42  _HMDRV_u32GetDeviceSYSCLKFreq                                                                    
0     0008ad46  _HMDRV_u32GetSCIErrorPPM                                                                         
1     0000ed6a  _HMDRV_u32SCIErrorPPM                                                                            
0     00087550  _HMDRV_vInit                                                                                     
0     0008a455  _HMDRV_vProcess                                                                                  
0     0008987b  _HMLIB_vInit                                                                                     
0     0008a93c  _HMLIB_vInitRecParamBuff                                                                         
0     0008ab01  _HMLIB_vProcess                                                                                  
0     0008aca4  _HMLIB_vProcessDifferentPorts                                                                    
0     0008a812  _HMLIB_vProcessFastTD                                                                            
0     0008aa4b  _HMLIB_vProcessRecorders                                                                         
0     0008a6e9  _HMLIB_vProcessSCITXISRWithIndex                                                                 
0     0008acf4  _HMLIB_vProcessSamePort                                                                          
0     0008acf9  _HMLIB_vRecorder0                                                                                
0     0008acfe  _HMLIB_vRecorder1                                                                                
0     0008ad03  _HMLIB_vRecorder2                                                                                
0     0008ad4a  _HMLIB_vRecorderParam0                                                                           
0     0008ad4e  _HMLIB_vRecorderParam1                                                                           
0     0008ad52  _HMLIB_vRecorderParam2                                                                           
0     0008ae70  _HMLIB_vRecorderParamTimeSync                                                                    
0     0008aa5a  _HMMODBUS_CalcCRC                                                                                
0     0008937f  _HMMODBUS_CopyFromBuffer                                                                         
0     00089a58  _HMMODBUS_CopyToBuffer                                                                           
0     0008a826  _HMMODBUS_DelayedTx                                                                              
0     000877ad  _HMMODBUS_GetRealRegisterAddressAndSize                                                          
0     00089927  _HMMODBUS_GetRegisterFunction                                                                    
0     00089f86  _HMMODBUS_Listen                                                                                 
0     00084a52  _HMMODBUS_ReadFileRecord                                                                         
0     00087cc8  _HMMODBUS_ReadHoldingRegister                                                                    
0     00086e62  _HMMODBUS_Rx                                                                                     
0     0008a4d5  _HMMODBUS_Tx                                                                                     
0     000836f4  _HMMODBUS_WriteFileRecord                                                                        
0     00087dbc  _HMMODBUS_WriteHoldingRegister                                                                   
1     0000e3c0  _HMMODBUS_anTxCheckSum                                                                           
0     00089f1a  _HMMODBUS_bDecoderInit_OPT                                                                       
0     000829c4  _HMMODBUS_bDecoder_OPT                                                                           
0     0008ad08  _HMMODBUS_bGetReceivedMessage                                                                    
1     0000e287  _HMMODBUS_bOverflowReached                                                                       
1     0000e28b  _HMMODBUS_bReceivedMessage                                                                       
1     0000ed8a  _HMMODBUS_nFilePrimaryAddrWriteLast                                                              
1     0000e282  _HMMODBUS_nLastResponseCmd                                                                       
1     0000e283  _HMMODBUS_nLastResponseCode                                                                      
1     0000e285  _HMMODBUS_nRxCheckSum                                                                            
1     0000e284  _HMMODBUS_nRxTodo                                                                                
1     0000e281  _HMMODBUS_nRxTodoEcho                                                                            
1     0000e348  _HMMODBUS_nSizeReadRequestLoopLeft                                                               
1     0000e286  _HMMODBUS_nTxCheckSum                                                                            
1     0000e280  _HMMODBUS_nTxTodo                                                                                
1     0000e4c0  _HMMODBUS_pCommBufferRx                                                                          
1     0000e5c0  _HMMODBUS_pCommBufferTx                                                                          
1     0000e2e0  _HMMODBUS_pRxBuff                                                                                
1     0000e2de  _HMMODBUS_pTxBuff                                                                                
1     0000e2f4  _HMMODBUS_pasFileAddressTable                                                                    
1     0000e2e2  _HMMODBUS_pu32HoldingRegisterAccessTableInRam                                                    
1     0000e2e8  _HMMODBUS_pu32HoldingRegisterAddressTable                                                        
1     0000e2ea  _HMMODBUS_pu32HoldingRegisterAddressTableInRam                                                   
1     0000e31a  _HMMODBUS_pu8ReadDeviceIDMajorMinorRevision                                                      
1     0000e320  _HMMODBUS_pu8ReadDeviceIDModelName                                                               
1     0000e318  _HMMODBUS_pu8ReadDeviceIDProductCode                                                             
1     0000e31e  _HMMODBUS_pu8ReadDeviceIDProductName                                                             
1     0000e322  _HMMODBUS_pu8ReadDeviceIDUserApplicationName                                                     
1     0000e324  _HMMODBUS_pu8ReadDeviceIDUserReserve0                                                            
1     0000e326  _HMMODBUS_pu8ReadDeviceIDUserReserve1                                                            
1     0000e328  _HMMODBUS_pu8ReadDeviceIDUserReserve2                                                            
1     0000e316  _HMMODBUS_pu8ReadDeviceIDVendorName                                                              
1     0000e31c  _HMMODBUS_pu8ReadDeviceIDVendorUrl                                                               
1     0000e314  _HMMODBUS_pu8ReadServerIDDatAdr                                                                  
1     0000e8d7  _HMMODBUS_u16RegisterAddressTableControlParametersStartIndex                                     
1     0000e342  _HMMODBUS_u32DebugAddrReadFileCircle                                                             
1     0000e340  _HMMODBUS_u32DebugAddrReadFileCircleTooFarAddress                                                
1     0000e344  _HMMODBUS_u32DebugAddrReadFileForRead                                                            
1     0000e346  _HMMODBUS_u32DebugAddrReadFileForReadLooped                                                      
1     0000e33c  _HMMODBUS_u32DebugAddrReadFileFromAddress                                                        
1     0000e33a  _HMMODBUS_u32DebugAddrReadFileFromIndex                                                          
1     0000e338  _HMMODBUS_u32DebugAddrReadFileReal                                                               
1     0000e33e  _HMMODBUS_u32DebugAddrReadPlusOffset                                                             
1     0000e2f8  _HMMODBUS_u32DeviceSYSCLKFreq                                                                    
1     0000e2f6  _HMMODBUS_u32FileCount                                                                           
1     0000e2f2  _HMMODBUS_u32FreeRunTimerReceivedMessage                                                         
0     0008ad56  _HMMODBUS_u32GetAddressMessageCounterThisDevice                                                  
1     0000e2e6  _HMMODBUS_u32HoldingRegisterAddressTableInRamSize                                                
1     0000e2e4  _HMMODBUS_u32HoldingRegisterAddressTableSize                                                     
1     0000ee3d  _HMMODBUS_u32RegisterAddressDummy                                                                
1     0000ee06  _HMMODBUS_u32RegisterAddressInRamDummy                                                           
1     0000e2ec  _HMMODBUS_u32TxDelayCounter                                                                      
1     0000e289  _HMMODBUS_u8DeviceAddress                                                                        
1     0000e298  _HMMODBUS_u8ReadDeviceIDConfLvl                                                                  
1     0000e297  _HMMODBUS_u8ReadDeviceIDConfLvlMask                                                              
1     0000e29b  _HMMODBUS_u8ReadDeviceIDMajorMinorRevisionLength                                                 
1     0000e29e  _HMMODBUS_u8ReadDeviceIDModelNameLength                                                          
1     0000e29a  _HMMODBUS_u8ReadDeviceIDProductCodeLength                                                        
1     0000e29d  _HMMODBUS_u8ReadDeviceIDProductNameLength                                                        
1     0000e29f  _HMMODBUS_u8ReadDeviceIDUserApplicationNameLength                                                
1     0000e2a0  _HMMODBUS_u8ReadDeviceIDUserReserve0Length                                                       
1     0000e2a1  _HMMODBUS_u8ReadDeviceIDUserReserve1Length                                                       
1     0000e2a2  _HMMODBUS_u8ReadDeviceIDUserReserve2Length                                                       
1     0000e299  _HMMODBUS_u8ReadDeviceIDVendorNameLength                                                         
1     0000e29c  _HMMODBUS_u8ReadDeviceIDVendorUrlLength                                                          
1     0000e294  _HMMODBUS_u8ReadServerIDLength                                                                   
1     0000e295  _HMMODBUS_u8ReadServerIDNumber                                                                   
1     0000e296  _HMMODBUS_u8ReadServerOnStatus                                                                   
0     0008ad0d  _HMMODBUS_vFileTable                                                                             
0     0008a4f4  _HMMODBUS_vInit                                                                                  
0     0008ab31  _HMMODBUS_vProcessFastTD                                                                         
0     0008ac44  _HMMODBUS_vProcessFreeTimer                                                                      
0     0008abae  _HMMODBUS_vProcessRxDelay                                                                        
0     00089237  _HMMODBUS_vProcessSCI                                                                            
0     0008a64e  _HMMODBUS_vProcessSCITXISR                                                                       
0     0008a760  _HMMODBUS_vProcessTxDelay                                                                        
0     00089978  _HMMODBUS_vSendResponse                                                                          
0     0008ad5a  _HMMODBUS_vSetAddressMessageCounterThisDevice                                                    
0     0008ad5e  _HMMODBUS_vSetDeviceIDMajorMinorRevision                                                         
0     0008ad62  _HMMODBUS_vSetDeviceIDMajorMinorRevisionLength                                                   
0     0008ad66  _HMMODBUS_vSetDeviceIDModelName                                                                  
0     0008ad6a  _HMMODBUS_vSetDeviceIDModelNameLength                                                            
0     0008ad6e  _HMMODBUS_vSetDeviceIDProductCode                                                                
0     0008ad72  _HMMODBUS_vSetDeviceIDProductCodeLength                                                          
0     0008ad76  _HMMODBUS_vSetDeviceIDProductName                                                                
0     0008ad7a  _HMMODBUS_vSetDeviceIDProductNameLength                                                          
0     0008ad7e  _HMMODBUS_vSetDeviceIDUserApplicationName                                                        
0     0008ad82  _HMMODBUS_vSetDeviceIDUserApplicationNameLength                                                  
0     0008ad86  _HMMODBUS_vSetDeviceIDUserReserve0                                                               
0     0008ad8a  _HMMODBUS_vSetDeviceIDUserReserve0Length                                                         
0     0008ad8e  _HMMODBUS_vSetDeviceIDUserReserve1                                                               
0     0008ad92  _HMMODBUS_vSetDeviceIDUserReserve1Length                                                         
0     0008ad96  _HMMODBUS_vSetDeviceIDUserReserve2                                                               
0     0008ad9a  _HMMODBUS_vSetDeviceIDUserReserve2Length                                                         
0     0008ad9e  _HMMODBUS_vSetDeviceIDVendorName                                                                 
0     0008ada2  _HMMODBUS_vSetDeviceIDVendorNameLength                                                           
0     0008ada6  _HMMODBUS_vSetDeviceIDVendorUrl                                                                  
0     0008adaa  _HMMODBUS_vSetDeviceIDVendorUrlLength                                                            
0     00087685  _HMMODBUS_vSetFreeRunTimerPrescaller                                                             
0     0008adae  _HMMODBUS_vSetServerIDDataAddress                                                                
0     0008adb2  _HMMODBUS_vSetServerIDLength                                                                     
0     0008adb6  _HMMODBUS_vSetServerIDNumber                                                                     
0     0008adba  _HMMODBUS_vSetServerOnStatus                                                                     
0     0008adbe  _HMMODBUS_vSetupHoldingRegistersAccessTableInRam                                                 
0     0008acb2  _HMMODBUS_vSetupHoldingRegistersAddressTable                                                     
0     0008acb8  _HMMODBUS_vSetupHoldingRegistersAddressTableInRam                                                
0     0008a94c  _HMMODBUS_vSetupRegisterDummy                                                                    
0     0008adc2  _HMMODBUS_vSetupWriteParElementCallbackFunction                                                  
1     0000ee55  _HMMODBUS_wFlags                                                                                 
1     0000ee56  _HMMODBUS_wFlagsRxTx                                                                             
1     0000e2f0  _HMMOSBUS_nDummy                                                                                 
1     0000ed94  _HMMOSBUS_nFileWriteAddrReadLast                                                                 
1     0000e2ee  _HMMOSBUS_nFileWritePrimaryAddrReadLast                                                          
0     00089454  _HMPROTOCOL_GetBoardInfo                                                                         
0     0008a381  _HMPROTOCOL_ReadMem                                                                              
0     0008a701  _HMPROTOCOL_WriteMem                                                                             
0     0008a719  _HMPROTOCOL_WriteMemMask                                                                         
0     00087adb  _HMPROTOCOL_bDecoder                                                                             
0     00083e4f  _HMPROTOCOL_vInit                                                                                
0     0008ae7c  _HMRECPRM_AbortRec                                                                               
0     0008ab87  _HMRECPRM_ClrLastStopDetectionToRecorderStopSamplesCounter                                       
0     0008a95c  _HMRECPRM_Compare16S                                                                             
0     0008a96c  _HMRECPRM_Compare16U                                                                             
0     0008a97c  _HMRECPRM_Compare32S                                                                             
0     0008a98c  _HMRECPRM_Compare32U                                                                             
0     0008a99c  _HMRECPRM_Compare8S                                                                              
0     0008a9ac  _HMRECPRM_Compare8U                                                                              
0     0008a91b  _HMRECPRM_CompareBOOL                                                                            
0     0008a888  _HMRECPRM_Comparefloat                                                                           
0     0008ab0d  _HMRECPRM_GetBufferRecParamPtrAddress                                                            
0     0008abb7  _HMRECPRM_GetExternBufferRecParamLastPointedAddress                                              
0     0008abc0  _HMRECPRM_GetExternBufferRecParamPtrAddress                                                      
0     0008ac4c  _HMRECPRM_GetExternRecParamAddress                                                               
0     0008ac54  _HMRECPRM_GetExternRecParamPtrMaximumUsedSampleCount                                             
0     0008ac5c  _HMRECPRM_GetExternRecParamPtrSampleSize                                                         
0     0008a513  _HMRECPRM_GetRecBuffFreemaster                                                                   
0     0008ae7e  _HMRECPRM_GetRecBuffSize                                                                         
0     0008ac64  _HMRECPRM_GetRecParamPtrAvailableSampleCount                                                     
0     0008ac6c  _HMRECPRM_GetRecParamPtrLastSampleIndex                                                          
0     0008ac74  _HMRECPRM_GetRecParamPtrMaximumUsedSampleCount                                                   
0     0008ac7c  _HMRECPRM_GetRecParamPtrSampleSize                                                               
0     0008ab91  _HMRECPRM_GetRecStatus                                                                           
0     0008ac84  _HMRECPRM_GetStatusInternalRecParamAddress                                                       
0     0008ac8c  _HMRECPRM_GetStatusRecParamAddress                                                               
0     0008ae73  _HMRECPRM_GetTimeBase                                                                            
0     0008aa69  _HMRECPRM_IsJustStopped                                                                          
0     0008ab3c  _HMRECPRM_IsRunning                                                                              
0     00088353  _HMRECPRM_SetUpRec                                                                               
0     0008ad12  _HMRECPRM_SetUpRecBuff                                                                           
0     00085fb0  _HMRECPRM_SetUpRecParamStatusDateTime                                                            
0     0008a5c7  _HMRECPRM_StartRec                                                                               
0     00089ea5  _HMRECPRM_StartRecParam                                                                          
0     0008aac0  _HMRECPRM_StopRec                                                                                
0     0008a83a  _HMRECPRM_StopRecParam                                                                           
0     0008aacd  _HMRECPRM_TriggerRec                                                                             
1     0000e138  _HMRECPRM_sDateTime                                                                              
0     0008aa96  _HMRECPRM_vDisableAllStopDetections                                                              
0     0008a668  _HMRECPRM_vGetDateTime                                                                           
0     0008abc9  _HMRECPRM_vInit                                                                                  
0     000880d8  _HMRECPRM_vProcess                                                                               
0     0008a7fd  _HMRECPRM_vResetAllStopDetections                                                                
0     00089057  _HMRECPRM_vTimeSync                                                                              
0     0008ae80  _HMREC_AbortRec                                                                                  
0     0008a532  _HMREC_GetRecBuffFreemaster                                                                      
0     0008ae82  _HMREC_GetRecBuffSize                                                                            
0     0008ab9b  _HMREC_GetRecStatus                                                                              
0     00088591  _HMREC_SetUpRec                                                                                  
0     0008ad17  _HMREC_SetUpRecBuff                                                                              
0     0008a777  _HMREC_StartRec                                                                                  
0     0008aada  _HMREC_StopRec                                                                                   
0     0008ab19  _HMREC_TriggerRec                                                                                
1     0000eabf  _HMREC_u16FailSnapshotWrite                                                                      
0     0008ac94  _HMREC_vInit                                                                                     
0     000893ea  _HMREC_vProcess                                                                                  
0     0008abd2  _HMSCOPEPRM_GetBufferScopeParamAddress                                                           
0     0008acab  _HMSCOPEPRM_GetStatusScopeParamAddress                                                           
0     00089aa1  _HMSCOPEPRM_ReadScope                                                                            
0     00089ae9  _HMSCOPEPRM_SetUpScope                                                                           
0     00089fb9  _HMSCOPE_ReadScope                                                                               
0     00089e69  _HMSCOPE_SetUpScope                                                                              
0     0008a84e  _HMSERIAL_DelayedTx                                                                              
0     00089588  _HMSERIAL_Rx                                                                                     
0     0008a2c2  _HMSERIAL_Tx                                                                                     
0     0008a8ae  _HMSERIAL_vInit                                                                                  
0     0008ab47  _HMSERIAL_vProcessFastTD                                                                         
0     0008ac9c  _HMSERIAL_vProcessFreeTimer                                                                      
0     00087f82  _HMSERIAL_vProcessSCI                                                                            
0     0008a141  _HMSERIAL_vProcessSCIFreemasterOnly                                                              
0     0008a312  _HMSERIAL_vProcessSCITXISR                                                                       
0     0008a682  _HMSERIAL_vProcessSCITXISRFreemasterOnly                                                         
0     00089b76  _HMSERIAL_vSendResponse                                                                          
0     00083fc7  _I2C_DRIVER_vInit                                                                                
0     00083fc3  _I2C_DRIVER_vProcess                                                                             
0     00083fa3  _I2C_DRIVER_vReadData                                                                            
0     00083f93  _I2C_DRIVER_vSetupMessageSlave                                                                   
0     00083f63  _I2C_DRIVER_vWriteData                                                                           
0     00088b5b  _I2C_clearInterruptStatus                                                                        
0     00088b42  _I2C_disableInterrupt                                                                            
0     00088b2b  _I2C_enableInterrupt                                                                             
0     00088b1e  _I2C_getInterruptStatus                                                                          
0     00088ad2  _I2C_initMaster                                                                                  
0     00083f18  _I2C_u32BaseFromIndex                                                                            
1     0000e8d5  _InputCoilDummy                                                                                  
1     0000e8d4  _InputRegisterDummy                                                                              
0     00087504  _Interrupt_disable                                                                               
0     0008745c  _Interrupt_enable                                                                                
0     00087419  _Interrupt_initModule                                                                            
0     000873fc  _Interrupt_initVectorTable                                                                       
1     0000e900  _MAIN_bDateTimeSet                                                                               
1     0000ee4a  _MAIN_sDate                                                                                      
1     0000e980  _MAIN_sDateTimeGet                                                                               
1     0000e988  _MAIN_sDateTimeSet                                                                               
1     0000ee4c  _MAIN_sTime                                                                                      
1     0000eb3e  _MAIN_u32FreeCounter                                                                             
0     00084000  _MODBUSREG_AddressTablesInit                                                                     
0     0008a3a5  _MODBUSREG_FileRecorderElementSizeTableUsedSizeUpdateInit                                        
0     00089712  _MODBUSREG_FileRecorderExternalUpdateInit                                                        
1     0000c800  _MODBUSREG_asFileTable                                                                           
1     0000ec2d  _MODBUSREG_au8DeviceIDMajorMinorRevision                                                         
1     0000ec80  _MODBUSREG_au8DeviceIDModelName                                                                  
1     0000ec90  _MODBUSREG_au8DeviceIDProductCode                                                                
1     0000eca0  _MODBUSREG_au8DeviceIDProductName                                                                
1     0000ecb0  _MODBUSREG_au8DeviceIDUserApplicationName                                                        
1     0000ecc0  _MODBUSREG_au8DeviceIDUserReserve0                                                               
1     0000ecd0  _MODBUSREG_au8DeviceIDUserReserve1                                                               
1     0000ece0  _MODBUSREG_au8DeviceIDUserReserve2                                                               
1     0000ecf0  _MODBUSREG_au8DeviceIDVendorName                                                                 
1     0000ed00  _MODBUSREG_au8DeviceIDVendorUrl                                                                  
1     0000ed10  _MODBUSREG_au8ServerIDData                                                                       
1     0000e8fc  _MODBUSREG_pu32RegisterAddressTable                                                              
1     0000e8fe  _MODBUSREG_pu32RegisterAddressTableInRam                                                         
1     0000e8dd  _MODBUSREG_u16FileTableParameterListIndex                                                        
1     0000e8de  _MODBUSREG_u16FileTableParameterNumbIndex                                                        
1     0000e8db  _MODBUSREG_u16FileTableRecorderIndex                                                             
1     0000e8dc  _MODBUSREG_u16FileTableShortNameIndex                                                            
0     0008adc6  _MODBUSREG_u16GetHoldRegFillCount                                                                
0     0008adca  _MODBUSREG_u16GetHoldRegUsedCount                                                                
0     0008ae84  _MODBUSREG_u16GetTableRegisterFlagsElementOffset                                                 
0     0008ae86  _MODBUSREG_u16GetTableRegisterSizeElementOffset                                                  
0     0008ae88  _MODBUSREG_u16GetTableVirtAddressElementOffset                                                   
1     0000e8d8  _MODBUSREG_u16HoldRegFillCount                                                                   
1     0000e8da  _MODBUSREG_u16HoldRegListCount                                                                   
1     0000e8d9  _MODBUSREG_u16HoldRegUsedCount                                                                   
1     0000e8d2  _MODBUSREG_u16ModbusParamCount                                                                   
1     0000e8d3  _MODBUSREG_u16ParamCount                                                                         
1     0000e8f6  _MODBUSREG_u32FileAutorization_FunctionAfterWriteFileRecordTable                                 
1     0000e8f4  _MODBUSREG_u32FileParamCount_FunctionBeforeReadFileRecord                                        
1     0000e8f2  _MODBUSREG_u32FileRTC_FunctionAfterReadFileRecord                                                
1     0000e8f0  _MODBUSREG_u32FileRTC_FunctionAfterWriteFileRecord                                               
1     0000e8fa  _MODBUSREG_u32FileRecConfig_FunctionAfterWriteFileRecord                                         
1     0000e8f8  _MODBUSREG_u32FileRecStatus_FunctionIndexGenerationFileRecord                                    
0     0008ae76  _MODBUSREG_u32GetAddressMessageCounterThisDevice                                                 
0     0008adce  _MODBUSREG_u32GetRegisterAccessTableInRam                                                        
0     0008add2  _MODBUSREG_u32GetRegisterAddressTable                                                            
0     0008add6  _MODBUSREG_u32GetRegisterAddressTableInRam                                                       
0     0008ae8a  _MODBUSREG_u32GetTableRegisterFlags                                                              
0     0008ae8c  _MODBUSREG_u32GetTableRegisterSize                                                               
0     0008ae8e  _MODBUSREG_u32GetTableVirtAddress                                                                
1     0000e8ec  _MODBUSREG_u32ParamAuxAddress                                                                    
1     0000e8e4  _MODBUSREG_u32ParamListAddress                                                                   
1     0000e8e6  _MODBUSREG_u32ParamNameAddress                                                                   
1     0000e8e8  _MODBUSREG_u32ParamNumbAddress                                                                   
1     0000e8e0  _MODBUSREG_u32ParamRecorderConfigAddress                                                         
1     0000e8ee  _MODBUSREG_u32ParamReservedAddress                                                               
1     0000e8e2  _MODBUSREG_u32ParamScopeConfigAddress                                                            
1     0000e8ea  _MODBUSREG_u32ParamStringAddress                                                                 
1     0000d800  _MODBUSREG_u32RegisterAccessTableInRam                                                           
0     0008ab52  _MODBUSREG_vDataZero                                                                             
0     000887b2  _MODBUSREG_vFileAllowAccess                                                                      
0     00089652  _MODBUSREG_vFileDenyAccess                                                                       
0     000892a7  _MODBUSREG_vInit                                                                                 
0     0008a731  _MODBUSREG_vInitHoldingRegistersTableChanges                                                     
0     0008ae79  _MODBUSREG_vSetAddressMessageCounterThisDevice                                                   
0     0008adda  _MODBUSREG_vSetFileAutorization_FunctionAfterWriteFileRecordTable                                
0     0008adde  _MODBUSREG_vSetFileParamCount_FunctionBeforeReadFileRecord                                       
0     0008ade2  _MODBUSREG_vSetFileRTC_FunctionAfterReadFileRecord                                               
0     0008ade6  _MODBUSREG_vSetFileRTC_FunctionAfterWriteFileRecord                                              
0     0008adea  _MODBUSREG_vSetFileRecConfig_FunctionAfterWriteFileRecord                                        
0     0008adee  _MODBUSREG_vSetFileRecStatus_FunctionIndexGenerationFileRecord                                   
0     0008adf2  _MODBUSREG_vSetHoldRegFillCount                                                                  
0     0008adf6  _MODBUSREG_vSetModbusParamCount                                                                  
0     0008adfa  _MODBUSREG_vSetParamAuxAddress                                                                   
0     0008adfe  _MODBUSREG_vSetParamCount                                                                        
0     0008ae02  _MODBUSREG_vSetParamListAddress                                                                  
0     0008ae06  _MODBUSREG_vSetParamNameAddress                                                                  
0     0008ae0a  _MODBUSREG_vSetParamNumbAddress                                                                  
0     0008ae0e  _MODBUSREG_vSetParamRecorderConfigAddress                                                        
0     0008ae12  _MODBUSREG_vSetParamReservedAddress                                                              
0     0008ae16  _MODBUSREG_vSetParamScopeConfigAddress                                                           
0     0008ae1a  _MODBUSREG_vSetParamStringAddress                                                                
0     0008ab78  _PERIPHERAL_vInit                                                                                
0     0008ab73  _PERIPHERAL_vProcess                                                                             
0     00085a2e  _ParameterInitialization                                                                         
0     00086062  _RamfuncsLoadEnd                                                                                 
abs   00000062  _RamfuncsLoadSize                                                                                
0     00086000  _RamfuncsLoadStart                                                                               
0     00008062  _RamfuncsRunEnd                                                                                  
abs   00000062  _RamfuncsRunSize                                                                                 
0     00008000  _RamfuncsRunStart                                                                                
0     0008a1f6  _RecorderDateFromLocalDateTime                                                                   
0     0008a2ea  _RecorderTimeFromLocalDateTime                                                                   
0     0008596e  _RecordersInitialization                                                                         
0     00089c02  _SCIA_RXFIFOISR                                                                                  
0     00089c40  _SCIA_TXFIFOISR                                                                                  
0     00089c7e  _SCIB_RXFIFOISR                                                                                  
0     00089cbc  _SCIB_TXFIFOISR                                                                                  
0     00089d38  _SCIC_RXFIFOISR                                                                                  
0     00089d75  _SCIC_TXFIFOISR                                                                                  
0     00089db2  _SCID_RXFIFOISR                                                                                  
0     00089def  _SCID_TXFIFOISR                                                                                  
0     00088268  _SCI_clearInterruptStatus                                                                        
0     0008824e  _SCI_disableInterrupt                                                                            
0     0008ad1c  _SCI_eGetModuleIndexFromBase                                                                     
0     00088234  _SCI_enableInterrupt                                                                             
0     00088214  _SCI_getInterruptStatus                                                                          
0     000881f4  _SCI_readCharArray                                                                               
0     000881d1  _SCI_setConfig                                                                                   
0     0008acbe  _SCI_u32GetBaseFromModuleIndex                                                                   
0     000881af  _SCI_writeCharArray                                                                              
0     00085a06  _ScopesInitialization                                                                            
0     0000805e  _SysCtl_delay                                                                            0008605e
0     00086463  _SysCtl_getAuxClock                                                                              
0     000863c4  _SysCtl_getClock                                                                                 
0     0008641f  _SysCtl_getDeviceParametric                                                                      
0     0008640a  _SysCtl_getLowSpeedClock                                                                         
0     00086064  _SysCtl_selectOscSource                                                                          
0     0008626d  _SysCtl_setAuxClock                                                                              
0     00086096  _SysCtl_setClock                                                                                 
0     0008acc4  _TIMER_u16ResetTimerMainPeriod                                                                   
0     0008ae1e  _TIMER_vGetTimerMainRollingCounter                                                               
0     0008abdb  _TIMER_vResetTimerMainFunctionDelayCounter                                                       
0     0008ae22  _TIMER_vSetupTimerMainCSMONFunction                                                              
0     0008ad21  _TIMER_vSetupTimerMainDelayedData                                                                
0     0008abe4  _TIMER_vSetupTimerMainDelayedFunctionSendData                                                    
0     0008aae7  _TIMER_vSetupTimerMainFunctionDelayCompare                                                       
0     000884d3  _TMR2_ISR                                                                                        
1     0000ed27  _TMR_u16FreeRunTimerPrescaller                                                                   
0     0008ae26  _TMR_u16GetFreeRunTimerPrescaller                                                                
0     0008a56f  _TMR_vInit                                                                                       
0     0008a475  _TMR_vInitCPUTimers                                                                              
1     0000dc00  _UARTRxBuffer                                                                                    
1     0000ee0a  _UARTRxBufferRDCount                                                                             
1     0000ee0e  _UARTRxBufferRDIndex                                                                             
1     0000a800  _UARTRxBufferTimeDiff                                                                            
1     0000ee12  _UARTRxBufferWRCount                                                                             
1     0000ee16  _UARTRxBufferWRIndex                                                                             
0     0008acca  _UART_GetChar                                                                                    
0     0008aa78  _UART_IsTxEmpty                                                                                  
0     0008abed  _UART_PutChar                                                                                    
1     0000e278  _UART_RXIntOverflowCounter                                                                       
0     000895ed  _UART_RXInterrupt                                                                                
0     00089cfa  _UART_ReadDataRx                                                                                 
0     0008aaf4  _UART_ReadDataRxAvailable                                                                        
0     0008abf6  _UART_ReadDataRxTimeDiff                                                                         
0     0008abff  _UART_TXInterrupt                                                                                
0     0008ac08  _UART_TransmitDisable                                                                            
0     0008ac11  _UART_TxDis                                                                                      
0     0008ac1a  _UART_TxEna                                                                                      
0     0008a8e5  _UART_TxIntDis                                                                                   
0     0008a8f7  _UART_TxIntEna                                                                                   
0     0008a69c  _UART_vInit                                                                                      
1     00000780  __STACK_END                                                                                      
abs   00000380  __STACK_SIZE                                                                                     
1     0000ee02  ___TI_cleanup_ptr                                                                                
1     0000ee04  ___TI_dtors_ptr                                                                                  
1     0000ee00  ___TI_enable_exit_profile_output                                                                 
abs   ffffffff  ___TI_pprof_out_hndl                                                                             
abs   ffffffff  ___TI_prof_data_size                                                                             
abs   ffffffff  ___TI_prof_data_start                                                                            
abs   ffffffff  ___binit__                                                                                       
abs   ffffffff  ___c_args__                                                                                      
0     00082000  ___cinit__                                                                                       
abs   ffffffff  ___etext__                                                                                       
abs   ffffffff  ___pinit__                                                                                       
abs   ffffffff  ___text__                                                                                        
0     0008a909  __args_main                                                                                      
1     0000ee4e  __lock                                                                                           
0     0008ac2b  __nop                                                                                            
0     0008ac27  __register_lock                                                                                  
0     0008ac23  __register_unlock                                                                                
1     00000400  __stack                                                                                          
0     00085fff  __system_post_cinit                                                                              
0     0008ae90  __system_pre_init                                                                                
1     0000ee50  __unlock                                                                                         
1     0000e950  _aDummyDataTable                                                                                 
1     0000ee40  _abRecorderJustStopped                                                                           
1     0000ee43  _abRecorderRunning                                                                               
0     0008a249  _abort                                                                                           
0     000a0000  _asParameterList                                                                                 
1     0000cd6a  _au8ReadBuffer                                                                                   
1     0000c000  _au8RecBuffer0                                                                                   
0     00090000  _auchCRCHi                                                                                       
0     00090100  _auchCRCLo                                                                                       
1     0000e2b2  _bBadSizeCalculation                                                                             
1     0000e28d  _bBareRamTable                                                                                   
1     0000cfe7  _bDataUpdate                                                                                     
1     0000e902  _bDummyReqstDevRunning                                                                           
1     0000e901  _bDummyStatsDevRunning                                                                           
1     0000e2b1  _bElementsDifference                                                                             
1     0000e2b5  _bException                                                                                      
1     0000e2d8  _bFileFirstRequest                                                                               
0     0008ae2a  _bGetElementsDifference                                                                          
0     0008a6b6  _bGetFileReadAccess                                                                              
1     0000e291  _bHoldingRegTableBareRam                                                                         
1     0000e290  _bHoldingRegTableSorted                                                                          
1     0000e28c  _bInputRegsGlobal                                                                                
0     0008aa87  _bIsValidEndAddressInBuffer                                                                      
0     0008ab5d  _bIsValidIndexFileTable                                                                          
1     0000e28f  _bLengthException                                                                                
1     0000e2a7  _bNeedResetBackup                                                                                
1     0000e2b7  _bParameterTroughFile                                                                            
1     0000cfe8  _bRTCGet                                                                                         
1     0000cd7f  _bReadAnswerWait                                                                                 
1     0000e2c2  _bReadOnlyFile                                                                                   
1     0000eabb  _bRecorderParameterUsage                                                                         
1     0000e934  _bResetAllTimeMeasures                                                                           
1     0000cfec  _bResponseRxCommand                                                                              
1     0000cfed  _bResponseRxCommandLast                                                                          
1     0000e2b6  _bResult                                                                                         
1     0000e84c  _bRunOnceGetSavedRecorderState                                                                   
1     0000cff0  _bRxResponseIncrementData                                                                        
1     0000eabc  _bScopeParameterUsage                                                                            
1     0000cfee  _bSendRxResponse                                                                                 
1     0000cfeb  _bSendTxCommand                                                                                  
1     0000e84a  _bServiceWatchdog                                                                                
1     0000e855  _bSkipProcessFlag                                                                                
1     0000e2b4  _bStringDataExpected                                                                             
1     0000e2b3  _bStringNullTerminationPossible                                                                  
1     0000cfea  _bUpdateLastExecuting                                                                            
1     0000cfe9  _bUpdateNonLastExecuting                                                                         
1     0000ee49  _bUseSCIA_On_USB                                                                                 
1     0000e28e  _bUsedDummyDataAddressInResponseData                                                             
1     0000eabe  _breakData                                                                                       
0     000898d1  _c_int00                                                                                         
0     00089fec  _configCPUTimer                                                                                  
0     0008a3ed  _copy_in                                                                                         
1     0000ed20  _cpuTimer0IntCount                                                                               
1     0000ed21  _cpuTimer1IntCount                                                                               
1     0000ed22  _cpuTimer2IntCount                                                                               
1     0000ee1a  _currentMsgPtr                                                                                   
1     0000ec5e  _eAsyncDataWidth                                                                                 
1     0000e2a3  _eElementFixedArgument                                                                           
1     0000e2d6  _eException                                                                                      
1     0000e862  _eModbusDefaultCommandRead                                                                       
1     0000e864  _eModbusDefaultCommandReadArray                                                                  
1     0000e863  _eModbusDefaultCommandWrite                                                                      
1     0000e865  _eModbusDefaultCommandWriteArray                                                                 
1     0000e843  _eResponseCodeStartRecParam0                                                                     
1     0000e844  _eResponseCodeStartRecParam1                                                                     
1     0000e845  _eResponseCodeStartRecParam2                                                                     
1     0000e935  _eResponseCode_CSMON_eInit                                                                       
1     0000e936  _eResponseCode_CSMON_eProcess                                                                    
1     0000e93c  _eResponseCode_CSMON_eSetFlagProcessPassed                                                       
1     0000e938  _eResponseCode_CSMON_eSetParameter                                                               
1     0000e939  _eResponseCode_CSMON_eSetRecorder                                                                
1     0000e93a  _eResponseCode_CSMON_eSetScope                                                                   
1     0000e937  _eResponseCode_CSMON_eSetServerOnStatus                                                          
1     0000e93b  _eResponseCode_CSMON_eSetTimerPeriodISRFunctionRegister                                          
0     00085cda  _eWriteParElement                                                                                
0     0008a24b  _exit                                                                                            
0     00083f61  _fail                                                                                            
1     0000ed28  _hours                                                                                           
0     00087950  _i2cAISR                                                                                         
0     000878cc  _i2cBISR                                                                                         
1     0000e248  _i2cMsgIn                                                                                        
1     0000e990  _i2cMsgOut                                                                                       
0     00083f20  _i2cRWProcess                                                                                    
0     00083edd  _initI2C                                                                                         
1     0000e93d  _limit_count_params                                                                              
0     00085af8  _main                                                                                            
1     0000e93e  _maximum_count_params                                                                            
0     0008a5aa  _memcpy                                                                                          
1     0000ed29  _minutes                                                                                         
1     0000e35e  _nAddrFuncExecute                                                                                
1     0000e2b9  _nAddrQueue                                                                                      
1     0000e36c  _nAddrRead                                                                                       
1     0000e358  _nAddrWrite                                                                                      
1     0000e2c6  _nBytesRead                                                                                      
1     0000e2cb  _nBytesResponseTotal                                                                             
1     0000e2d2  _nCmd                                                                                            
1     0000e366  _nCurrentElementTableIndex                                                                       
1     0000e2b8  _nDeviceAddress                                                                                  
1     0000e2ba  _nFileNumber                                                                                     
1     0000e2d5  _nIDCode                                                                                         
1     0000e2c0  _nLoopCount                                                                                      
1     0000e2be  _nLoopIndex                                                                                      
1     0000e2bf  _nLoopIndex2                                                                                     
1     0000e2db  _nLoopIndexedRequest                                                                             
1     0000e2c4  _nRecordNumber                                                                                   
1     0000e2d9  _nRecordNumberRequest                                                                            
1     0000eab9  _nRecorderFreemasterIndex                                                                        
1     0000e2cf  _nReferenceType                                                                                  
1     0000e2c3  _nResponseBytes                                                                                  
1     0000ebbf  _nScopeIndexFreemaster                                                                           
1     0000eaba  _nScopePrmFreemasterIndex                                                                        
1     0000e362  _nSizeAllRecords                                                                                 
1     0000e2ca  _nSizeBytes                                                                                      
1     0000e2cc  _nSizeCurrentRecord                                                                              
1     0000e360  _nSizeOffset                                                                                     
1     0000e368  _nSizeOffsetAdd                                                                                  
1     0000e364  _nSizeOffsetCurrentRecord                                                                        
1     0000e378  _nSizeOffsetMultiplier                                                                           
1     0000e37a  _nSizeOffsetRequestMultMode                                                                      
1     0000e2c5  _nSizeRead                                                                                       
1     0000e2bb  _nSizeReadBits                                                                                   
1     0000e2d1  _nSizeReadBytes                                                                                  
1     0000e2c7  _nSizeReadCheck                                                                                  
1     0000e2c9  _nSizeReadCheckMemory                                                                            
1     0000e2c8  _nSizeReadRequest                                                                                
1     0000e2da  _nSizeReadRequestLoop                                                                            
1     0000e2cd  _nSizeWrite                                                                                      
1     0000e2c1  _nSizeWriteBits                                                                                  
1     0000e2d0  _nSizeWriteBytes                                                                                 
1     0000e2ce  _nSizeWriteBytesAllParts                                                                         
1     0000e2d3  _nSubCmd                                                                                         
1     0000e2d4  _nSubCmdDiag                                                                                     
1     0000e37c  _nTimeTickDelayModbus                                                                            
1     0000e380  _nTimeTickDelayModbusMax                                                                         
1     0000e37e  _nTimeTickDelayModbusMin                                                                         
1     0000edec  _pBufferScope                                                                                    
1     0000e372  _pMessageIn                                                                                      
1     0000e376  _pMessageInCopy                                                                                  
1     0000e374  _pMessageOut                                                                                     
1     0000e370  _pResponseEnd                                                                                    
1     0000e36e  _pResponseStart                                                                                  
0     00083edb  _pass                                                                                            
1     0000ed31  _pcm_nRxCheckSum                                                                                 
1     0000ed30  _pcm_nRxTodo                                                                                     
1     0000ed2f  _pcm_nRxTodoEcho                                                                                 
1     0000ed2e  _pcm_nTxTodo                                                                                     
1     0000ea40  _pcm_pCommBuffer                                                                                 
1     0000ed36  _pcm_pRxBuff                                                                                     
1     0000ed34  _pcm_pTxBuff                                                                                     
1     0000ee57  _pcm_wFlags                                                                                      
1     0000ee58  _pcm_wFlagsRxTx                                                                                  
1     0000ed2c  _pfCSMONFunction                                                                                 
1     0000ed78  _pfDelayedFunction                                                                               
1     0000edc0  _pfDelayedFunction_u8                                                                            
1     0000e36a  _pfIndexGeneration                                                                               
1     0000e32a  _pfWriteParElementCallbackFunction                                                               
1     0000e336  _pu16ModbusCompleteReceiveMessageCounterThisDevice                                               
1     0000e94e  _pu16ModbusMessageCounter                                                                        
1     0000e35a  _pu8ElementSizeTable                                                                             
1     0000e35c  _pu8ElementSizeTablePtr                                                                          
0     00083e97  _readData                                                                                        
1     0000e330  _realRxByteDelay                                                                                 
1     0000e332  _realRxByteDelayLastFail                                                                         
1     0000e2a8  _realRxByteDelayLastFailBytesReceived                                                            
1     0000e914  _s16DummyCurrentPhaseA                                                                           
1     0000e90b  _s16DummyCurrentPhaseAIdle                                                                       
1     0000e903  _s16DummyCurrentPhaseAStartup                                                                    
1     0000e907  _s16DummyCurrentPhaseAStop                                                                       
1     0000e915  _s16DummyCurrentPhaseB                                                                           
1     0000e90c  _s16DummyCurrentPhaseBIdle                                                                       
1     0000e904  _s16DummyCurrentPhaseBStartup                                                                    
1     0000e908  _s16DummyCurrentPhaseBStop                                                                       
1     0000e916  _s16DummyCurrentPhaseC                                                                           
1     0000e90d  _s16DummyCurrentPhaseCIdle                                                                       
1     0000e905  _s16DummyCurrentPhaseCStartup                                                                    
1     0000e909  _s16DummyCurrentPhaseCStop                                                                       
1     0000e926  _s16DummyData                                                                                    
1     0000e91a  _s16DummyDataTst                                                                                 
1     0000e918  _s16DummyIncrementLoop                                                                           
1     0000e910  _s16DummyIncrementLoopA                                                                          
1     0000e911  _s16DummyIncrementLoopB                                                                          
1     0000e912  _s16DummyIncrementLoopC                                                                          
1     0000e90f  _s16DummyIncrementLoopCDiff                                                                      
1     0000e913  _s16DummyIncrementLoopV                                                                          
1     0000e917  _s16DummyVoltageDCLink                                                                           
1     0000e90e  _s16DummyVoltageDCLinkIdle                                                                       
1     0000e906  _s16DummyVoltageDCLinkStartup                                                                    
1     0000e90a  _s16DummyVoltageDCLinkStop                                                                       
1     0000e91b  _s16ScaleDataTst                                                                                 
1     0000e942  _s32DummyCurrentPhaseA                                                                           
1     0000e944  _s32DummyCurrentPhaseB                                                                           
1     0000e946  _s32DummyCurrentPhaseC                                                                           
1     0000e94a  _s32DummyIncrementLoop                                                                           
1     0000e948  _s32DummyVoltageDCLink                                                                           
1     0000ec6e  _sEMIFParam                                                                                      
1     0000ec60  _sEMIFParamFPGA                                                                                  
1     0000ed9e  _sHashKey                                                                                        
1     0000e6c0  _sRecConfigParam                                                                                 
1     0000eac0  _sRecExternParam                                                                                 
1     0000e140  _sRecHandle                                                                                      
1     0000e000  _sRecHandleParam                                                                                 
1     0000ebc0  _sRecStatusParam                                                                                 
1     0000ec40  _sRecStatusParamInternal                                                                         
1     0000e9c0  _sScopeConfigParam                                                                               
1     0000e780  _sScopeHandlePrm                                                                                 
1     0000ee46  _sScopeStatusParam                                                                               
1     0000ed2b  _second_Passed                                                                                   
1     0000ed2a  _seconds                                                                                         
0     000865ee  _setupEMIF1PinmuxAsync16BitBoardSCC                                                              
0     0008649a  _setupEMIF1PinmuxAsync32BitBoardSCC                                                              
0     00089522  _sin                                                                                             
0     00089522  _sinf                                                                                            
1     0000e866  _u16ArrayReadAsHolding                                                                           
1     0000e933  _u16CountMaxParameterTest                                                                        
1     0000e932  _u16CountSetParameterFail                                                                        
1     0000e931  _u16CountSetParameterFree                                                                        
1     0000e2a5  _u16DataModeFixedArgument                                                                        
1     0000e92c  _u16DelayCtrlLoopOld_100nsec                                                                     
1     0000e92b  _u16DelayCtrlLoop_100nsec                                                                        
1     0000e92e  _u16DelayMainLoopOld_usec                                                                        
1     0000e92d  _u16DelayMainLoop_usec                                                                           
1     0000e919  _u16DummyDataCnt                                                                                 
1     0000e2bc  _u16ElementSize                                                                                  
1     0000e292  _u16FreeRunTimerPrescaller                                                                       
1     0000e940  _u16FreeRunningTimerPrescaller                                                                   
1     0000e93f  _u16FreeRunningTimerTicksPerMicroSecond                                                          
0     0008ae2e  _u16GetIndexFileTable                                                                            
1     0000e2af  _u16IndexFileTable                                                                               
1     0000e2d7  _u16LastFileNumberRequest                                                                        
1     0000e2ad  _u16ModbusBadCSReceiveMessageCounter                                                             
1     0000e2ae  _u16ModbusBadTimeoutReceiveMessageCounter                                                        
1     0000e2ac  _u16ModbusBufferOverflowReceiveMessageCounter                                                    
1     0000e2aa  _u16ModbusCompleteReceiveMessageCounter                                                          
1     0000e2ab  _u16ModbusCompleteReceiveMessageCounterThisDevice                                                
1     0000e293  _u16ModbusMinMessToMess_usec                                                                     
1     0000e2a9  _u16ModbusStartedReceiveMessageCounter                                                           
1     0000e2a4  _u16NoStoreFixedArgument                                                                         
1     0000e2a6  _u16PasswordFixedArgument                                                                        
1     0000e930  _u16PeriodControlOld_usec                                                                        
1     0000e92f  _u16PeriodControl_usec                                                                           
1     0000cd7d  _u16ReadStatus                                                                                   
1     0000e28a  _u16RegisterAddressDummyValue                                                                    
1     0000ed25  _u16SecondCounter                                                                                
1     0000ed24  _u16SecondPeriod                                                                                 
1     0000e853  _u16SkipProcessCounter                                                                           
1     0000e854  _u16SkipProcessTag                                                                               
1     0000e91c  _u16TestData0                                                                                    
1     0000e91d  _u16TestData1                                                                                    
1     0000e91e  _u16TestData2                                                                                    
1     0000e91f  _u16TestData3                                                                                    
1     0000e920  _u16TestData4                                                                                    
1     0000e921  _u16TestData5                                                                                    
1     0000e922  _u16TestData6                                                                                    
1     0000e923  _u16TestData7                                                                                    
1     0000e924  _u16TestData8                                                                                    
1     0000e925  _u16TestData9                                                                                    
1     0000eabd  _u16TimeBase                                                                                     
1     0000ee1e  _u16TimerMainDelayedData                                                                         
1     0000ee22  _u16TimerMainFunctionDelay                                                                       
1     0000ee26  _u16TimerMainFunctionDelayCompare                                                                
1     0000ee2a  _u16TimerMainFunctionDelayCounter                                                                
1     0000ed26  _u16TimerMainISRCounter                                                                          
1     0000ed23  _u16TimerMainPeriod                                                                              
1     0000ec5f  _u16UseA19AsBA1                                                                                  
1     0000e927  _u16WatchdogPrescaler                                                                            
1     0000e928  _u16WatchdogPrescalerOld                                                                         
1     0000e929  _u16WatchdogPrescalerTime                                                                        
1     0000e92a  _u16WatchdogPrescalerTimeOld                                                                     
1     0000e34a  _u32BufferAddressStart                                                                           
1     0000e34c  _u32BufferSize                                                                                   
0     0008aa1c  _u32BytesMemoryToBytesModbus                                                                     
0     0008aa2c  _u32BytesModbusToBytesMemory                                                                     
1     0000e952  _u32DelayCtrlLoop_Ticks                                                                          
1     0000e954  _u32DelayMainLoop_Ticks                                                                          
1     0000ed66  _u32DeviceLSPCLKFreq                                                                             
1     0000ed68  _u32DeviceLSPCLKFreqRoundAndMinErrorBaud                                                         
1     0000ed6c  _u32DeviceSYSCLKFreq                                                                             
1     0000e2dc  _u32Dummy                                                                                        
1     0000e94c  _u32DummyDataCnt                                                                                 
1     0000e30a  _u32ElementSizeTableB326_0                                                                       
1     0000e30e  _u32ElementSizeTableB326_1                                                                       
1     0000e312  _u32ElementSizeTableB326_2                                                                       
1     0000e308  _u32ElementSizeTableD384_0                                                                       
1     0000e30c  _u32ElementSizeTableD384_1                                                                       
1     0000e310  _u32ElementSizeTableD384_2                                                                       
1     0000e356  _u32ElementsSizeMemory                                                                           
1     0000e354  _u32ElementsSizeModbus                                                                           
0     0008aaa4  _u32FitAddressCircleBufferInside                                                                 
0     0008ab25  _u32FixAddressCircleBufferOverflow                                                               
1     0000e86a  _u32FreeRunTimerSysClkDiv                                                                        
1     0000e868  _u32FreeRunTimerSysClkMHz                                                                        
1     0000e970  _u32GetBaudError_PPM                                                                             
0     0008ae32  _u32GetBufferAddressStart                                                                        
0     0008ae36  _u32GetBufferSize                                                                                
0     0008ae3a  _u32GetSampleCountAvailable                                                                      
0     0008ae3e  _u32GetSampleCountBuffer                                                                         
0     0008ae42  _u32GetStartSampleIndex                                                                          
1     0000e2fa  _u32ModbusMaxByteToByte                                                                          
1     0000e300  _u32ModbusMaxByteToByteExact                                                                     
1     0000e2fc  _u32ModbusMaxMessToMess                                                                          
1     0000e302  _u32ModbusMaxMessToMessExact                                                                     
1     0000e2fe  _u32ModbusMinMessToMess                                                                          
1     0000e304  _u32ModbusTimeout                                                                                
1     0000cd80  _u32ModbusTimeoutBuffer                                                                          
1     0000e32c  _u32ModbusTimeoutBufferIndex                                                                     
1     0000e8b4  _u32NumericDummy                                                                                 
1     0000e96e  _u32ParamTime_Ticks                                                                              
1     0000edf2  _u32RecorderLastFreeCounter                                                                      
1     0000edf8  _u32RecorderMicroSec                                                                             
1     0000e32e  _u32RxTimeout                                                                                    
1     0000e334  _u32RxTimeoutLastFail                                                                            
1     0000e350  _u32SampleCountAvailable                                                                         
1     0000e34e  _u32SampleCountBuffer                                                                            
1     0000e352  _u32StartSampleIndex                                                                             
1     0000e968  _u32TimeCSMON_ISR_Max_Ticks                                                                      
1     0000e966  _u32TimeCSMON_ISR_Ticks                                                                          
1     0000e96c  _u32TimeCtrlLoopMax_Ticks                                                                        
1     0000e96a  _u32TimeCtrlLoop_Ticks                                                                           
1     0000edc8  _u32TimeDiffLast                                                                                 
1     0000edd0  _u32TimeDiffNow                                                                                  
1     0000edd8  _u32TimeDiffRead                                                                                 
1     0000e95e  _u32TimeMainLoopCycle_Bgn_Ticks                                                                  
1     0000e960  _u32TimeMainLoopCycle_End_Ticks                                                                  
1     0000e964  _u32TimeMainLoopCycle_Max_Ticks                                                                  
1     0000e962  _u32TimeMainLoopCycle_Now_Ticks                                                                  
1     0000e956  _u32TimeMainLoopProcessCSMON_Bgn_Ticks                                                           
1     0000e958  _u32TimeMainLoopProcessCSMON_End_Ticks                                                           
1     0000e95c  _u32TimeMainLoopProcessCSMON_Max_Ticks                                                           
1     0000e95a  _u32TimeMainLoopProcessCSMON_Now_Ticks                                                           
1     0000e306  _u32WrongElementSizeTable                                                                        
1     0000e97a  _u64DummyDataCnt                                                                                 
1     0000e2bd  _u8ElementSize                                                                                   
0     0008ae46  _u8GetSampleSize                                                                                 
1     0000e2b0  _u8SampleSize                                                                                    
1     0000ed32  _u8UartIndex                                                                                     
1     0000e288  _u8UartModBusIndex                                                                               
0     00085952  _vGetWatchdogPrescaler                                                                           
0     0008a78e  _vSetBufferAddressStart                                                                          
0     0008ae4a  _vSetBufferAddressStartFromFunction                                                              
0     0008ae4e  _vSetBufferSize                                                                                  
0     000896b3  _vSetElementsSize                                                                                
0     00089bbc  _vSetIndexFileTable                                                                              
0     0008a3c9  _vSetSampleCountAvailable                                                                        
0     0008a495  _vSetSampleCountBuffer                                                                           
0     0008a4b5  _vSetSampleSize                                                                                  
0     00089e2c  _vSetStartSampleIndex                                                                            
0     00085941  _vSetWatchdogPrescalerTimeDiv                                                                    
0     00083e50  _writeData                                                                                       
abs   ffffffff  binit                                                                                            
0     00082000  cinit                                                                                            
abs   ffffffff  etext                                                                                            
abs   ffffffff  pinit                                                                                            


GLOBAL SYMBOLS: SORTED BY Symbol Address 

page  address   name                                                                                             
----  -------   ----                                                                                             
0     00008000  _Flash_powerDown                                                                         00086000
0     00008000  _RamfuncsRunStart                                                                                
0     00008018  _Flash_initModule                                                                        00086018
0     0000805e  _SysCtl_delay                                                                            0008605e
0     00008062  _RamfuncsRunEnd                                                                                  
0     00082000  ___cinit__                                                                                       
0     00082000  cinit                                                                                            
0     000829c4  _HMMODBUS_bDecoder_OPT                                                                           
0     000836f4  _HMMODBUS_WriteFileRecord                                                                        
0     00083e4f  _HMPROTOCOL_vInit                                                                                
0     00083e50  _writeData                                                                                       
0     00083e97  _readData                                                                                        
0     00083edb  _pass                                                                                            
0     00083edd  _initI2C                                                                                         
0     00083f18  _I2C_u32BaseFromIndex                                                                            
0     00083f20  _i2cRWProcess                                                                                    
0     00083f61  _fail                                                                                            
0     00083f63  _I2C_DRIVER_vWriteData                                                                           
0     00083f93  _I2C_DRIVER_vSetupMessageSlave                                                                   
0     00083fa3  _I2C_DRIVER_vReadData                                                                            
0     00083fc3  _I2C_DRIVER_vProcess                                                                             
0     00083fc7  _I2C_DRIVER_vInit                                                                                
0     00083ffc  _CSMON_eRegisterWriteParElementCallbackFunction                                                  
0     00084000  _MODBUSREG_AddressTablesInit                                                                     
0     00084a52  _HMMODBUS_ReadFileRecord                                                                         
0     00085412  _CSMON_eSetParameter                                                                             
0     00085941  _vSetWatchdogPrescalerTimeDiv                                                                    
0     00085952  _vGetWatchdogPrescaler                                                                           
0     0008596e  _RecordersInitialization                                                                         
0     00085a06  _ScopesInitialization                                                                            
0     00085a2e  _ParameterInitialization                                                                         
0     00085af8  _main                                                                                            
0     00085cda  _eWriteParElement                                                                                
0     00085cdc  _ExternalParametersInitialization                                                                
0     00085d08  _ControlProcess                                                                                  
0     00085dc4  _CSMON_vSetDateTime                                                                              
0     00085dd5  _CSMON_vGetDateTime                                                                              
0     00085df4  _CSMON_eInit                                                                                     
0     00085fb0  _HMRECPRM_SetUpRecParamStatusDateTime                                                            
0     00085fff  __system_post_cinit                                                                              
0     00086000  _RamfuncsLoadStart                                                                               
0     00086062  _RamfuncsLoadEnd                                                                                 
0     00086064  _SysCtl_selectOscSource                                                                          
0     00086096  _SysCtl_setClock                                                                                 
0     0008626d  _SysCtl_setAuxClock                                                                              
0     000863c4  _SysCtl_getClock                                                                                 
0     0008640a  _SysCtl_getLowSpeedClock                                                                         
0     0008641f  _SysCtl_getDeviceParametric                                                                      
0     00086463  _SysCtl_getAuxClock                                                                              
0     0008649a  _setupEMIF1PinmuxAsync32BitBoardSCC                                                              
0     000865ee  _setupEMIF1PinmuxAsync16BitBoardSCC                                                              
0     000866d6  _EMIF_DRV_vInit                                                                                  
0     00086751  _HMDRV_CopyMemory                                                                                
0     000869d4  _CSMON_eProcess                                                                                  
0     00086b66  _GPIO_setQualificationPeriod                                                                     
0     00086b81  _GPIO_setQualificationMode                                                                       
0     00086ba3  _GPIO_setPinConfig                                                                               
0     00086bd3  _GPIO_setPadConfig                                                                               
0     00086c12  _GPIO_setMasterCore                                                                              
0     00086c34  _GPIO_setInterruptPin                                                                            
0     00086c54  _GPIO_setDirectionMode                                                                           
0     00086c74  _GPIO_setAnalogMode                                                                              
0     00086c95  _GPIO_getQualificationMode                                                                       
0     00086cb5  _GPIO_getPadConfig                                                                               
0     00086ce1  _GPIO_getDirectionMode                                                                           
0     00086cf3  _HMDRV_CopyToBufferInternal                                                                      
0     00086e62  _HMMODBUS_Rx                                                                                     
0     00086fcf  _CSMON_eSetUpRecParam                                                                            
0     00087137  _CSMON_u32GetParameterListCheckSum                                                               
0     00087298  _CSMON_vSaveRecorderConfiguration                                                                
0     000873fc  _Interrupt_initVectorTable                                                                       
0     00087419  _Interrupt_initModule                                                                            
0     0008745c  _Interrupt_enable                                                                                
0     00087504  _Interrupt_disable                                                                               
0     00087550  _HMDRV_vInit                                                                                     
0     00087685  _HMMODBUS_vSetFreeRunTimerPrescaller                                                             
0     000877ad  _HMMODBUS_GetRealRegisterAddressAndSize                                                          
0     000878cc  _i2cBISR                                                                                         
0     00087950  _i2cAISR                                                                                         
0     000879d4  LL$$DIV                                                                                          
0     00087a10  LL$$MOD                                                                                          
0     00087a4a  ULL$$DIV                                                                                         
0     00087a79  ULL$$MOD                                                                                         
0     00087adb  _HMPROTOCOL_bDecoder                                                                             
0     00087bd4  _CSMON_vFileRecoderStatusFix                                                                     
0     00087cc8  _HMMODBUS_ReadHoldingRegister                                                                    
0     00087dbc  _HMMODBUS_WriteHoldingRegister                                                                   
0     00087ea1  _Device_enableAllPeripherals                                                                     
0     00087f82  _HMSERIAL_vProcessSCI                                                                            
0     00088000  _CSMON_vSetupHoldingRegistersAndCoilsAddressTableFromCSMONParameterList                          
0     000880d8  _HMRECPRM_vProcess                                                                               
0     000881af  _SCI_writeCharArray                                                                              
0     000881d1  _SCI_setConfig                                                                                   
0     000881f4  _SCI_readCharArray                                                                               
0     00088214  _SCI_getInterruptStatus                                                                          
0     00088234  _SCI_enableInterrupt                                                                             
0     0008824e  _SCI_disableInterrupt                                                                            
0     00088268  _SCI_clearInterruptStatus                                                                        
0     00088284  _CSMON_vSaveRecorderConfigTrigger                                                                
0     00088353  _HMRECPRM_SetUpRec                                                                               
0     00088414  _HMDRV_CopyToBufferInternalModbus                                                                
0     000884d3  _TMR2_ISR                                                                                        
0     00088591  _HMREC_SetUpRec                                                                                  
0     0008864e  _CSMON_vCheckSaveRecorderTable                                                                   
0     00088700  _HMDRV_CopyFromBufferInternalModbusBitField                                                      
0     000887b2  _MODBUSREG_vFileAllowAccess                                                                      
0     00088857  _CSMON_vPrepareFileParameterAccessList                                                           
0     000888fb  _CSMON_u32GetParameterCheckSum                                                                   
0     0008899b  FD$$ADD                                                                                          
0     00088a38  _CSMON_vLoadRecorderConfiguration                                                                
0     00088ad2  _I2C_initMaster                                                                                  
0     00088b1e  _I2C_getInterruptStatus                                                                          
0     00088b2b  _I2C_enableInterrupt                                                                             
0     00088b42  _I2C_disableInterrupt                                                                            
0     00088b5b  _I2C_clearInterruptStatus                                                                        
0     00088b6c  _CSMON_u32GetParameterNumbCheckSum                                                               
0     00088c00  _CSMON_vSetDateTimeAutorization                                                                  
0     00088c91  _HMDRV_CopyFromBufferInternal                                                                    
0     00088d22  _CSMON_u32GetParameterShortNameCheckSum                                                          
0     00088db0  _CSMON_vInitRecorders                                                                            
0     00088e3e  FD$$DIV                                                                                          
0     00088ec9  FS$$DIV                                                                                          
0     00088f51  _HMDRV_CopyFromBufferInternalModbus                                                              
0     00088fd4  FD$$MPY                                                                                          
0     00089057  _HMRECPRM_vTimeSync                                                                              
0     000890d6  _CSMON_u32GetParameterStringCheckSum                                                             
0     0008914d  _CSMON_vCheckLoadRecorderTable                                                                   
0     000891c4  _CSMON_u16FindIndexParameterTable                                                                
0     00089237  _HMMODBUS_vProcessSCI                                                                            
0     000892a7  _MODBUSREG_vInit                                                                                 
0     00089314  _CSMON_vLoadRecorderConfigTrigger                                                                
0     0008937f  _HMMODBUS_CopyFromBuffer                                                                         
0     000893ea  _HMREC_vProcess                                                                                  
0     00089454  _HMPROTOCOL_GetBoardInfo                                                                         
0     000894bc  _HMDRV_CopyFromBufferInternalWithMask                                                            
0     00089522  _sin                                                                                             
0     00089522  _sinf                                                                                            
0     00089588  _HMSERIAL_Rx                                                                                     
0     000895ed  _UART_RXInterrupt                                                                                
0     00089652  _MODBUSREG_vFileDenyAccess                                                                       
0     000896b3  _vSetElementsSize                                                                                
0     00089712  _MODBUSREG_FileRecorderExternalUpdateInit                                                        
0     00089770  _CSMON_vRecorderParamStartStopProcess                                                            
0     000897ca  _FPGA_DRV_vSetDateTime                                                                           
0     000897e4  _FPGA_DRV_vGetData                                                                               
0     000897f7  _FPGA_DRV_vGetDateTime                                                                           
0     00089824  _CSMON_bCheckValidDateTime                                                                       
0     0008987b  _HMLIB_vInit                                                                                     
0     000898d1  _c_int00                                                                                         
0     00089927  _HMMODBUS_GetRegisterFunction                                                                    
0     00089978  _HMMODBUS_vSendResponse                                                                          
0     000899c4  _CSMON_eSetRecorderTriggerAtPosition                                                             
0     00089a0f  _HMDRV_CopyFromBufferInternalWithMaskModbus                                                      
0     00089a58  _HMMODBUS_CopyToBuffer                                                                           
0     00089aa1  _HMSCOPEPRM_ReadScope                                                                            
0     00089ae9  _HMSCOPEPRM_SetUpScope                                                                           
0     00089b30  _CSMON_eSetRecorderConfigurationSkipSamples                                                      
0     00089b76  _HMSERIAL_vSendResponse                                                                          
0     00089bbc  _vSetIndexFileTable                                                                              
0     00089c02  _SCIA_RXFIFOISR                                                                                  
0     00089c40  _SCIA_TXFIFOISR                                                                                  
0     00089c7e  _SCIB_RXFIFOISR                                                                                  
0     00089cbc  _SCIB_TXFIFOISR                                                                                  
0     00089cfa  _UART_ReadDataRx                                                                                 
0     00089d38  _SCIC_RXFIFOISR                                                                                  
0     00089d75  _SCIC_TXFIFOISR                                                                                  
0     00089db2  _SCID_RXFIFOISR                                                                                  
0     00089def  _SCID_TXFIFOISR                                                                                  
0     00089e2c  _vSetStartSampleIndex                                                                            
0     00089e69  _HMSCOPE_SetUpScope                                                                              
0     00089ea5  _HMRECPRM_StartRecParam                                                                          
0     00089ee0  _CSMON_vSetupHoldingRegistersAndCoilsAddressTableAccessAll                                       
0     00089f1a  _HMMODBUS_bDecoderInit_OPT                                                                       
0     00089f51  _HMDRV_GetStringLengthInternal                                                                   
0     00089f86  _HMMODBUS_Listen                                                                                 
0     00089fb9  _HMSCOPE_ReadScope                                                                               
0     00089fec  _configCPUTimer                                                                                  
0     0008a01f  _DS3231MZ_vProcess                                                                               
0     0008a044  _DS3231MZ_vInit                                                                                  
0     0008a051  _Device_init                                                                                     
0     0008a083  _CSMON_u32GetRealAddressAndSizeOffsetFromParameter                                               
0     0008a0b4  _CSMON_u32GetParameterAuxCheckSum                                                                
0     0008a0e4  _CSMON_eSetParameterInRecorderAtPosition                                                         
0     0008a113  _CSMON_vRecorderParamSetupProcess                                                                
0     0008a141  _HMSERIAL_vProcessSCIFreemasterOnly                                                              
0     0008a16f  _CSMON_eSetParameterInScopeAtPosition                                                            
0     0008a19c  _FillTimeData                                                                                    
0     0008a1f6  _RecorderDateFromLocalDateTime                                                                   
0     0008a220  _FPGA_SCI_vProcessUartTx                                                                         
0     0008a249  C$$EXIT                                                                                          
0     0008a249  _abort                                                                                           
0     0008a24b  _exit                                                                                            
0     0008a272  _CSMON_bAutorizationPasswordCheck                                                                
0     0008a29a  _CSMON_vSaveRecorderConfig                                                                       
0     0008a2c2  _HMSERIAL_Tx                                                                                     
0     0008a2ea  _RecorderTimeFromLocalDateTime                                                                   
0     0008a312  _HMSERIAL_vProcessSCITXISR                                                                       
0     0008a339  _CSMON_vAutorizationReset                                                                        
0     0008a35d  _CSMON_vInitParameterListRealAddressRecordTables                                                 
0     0008a381  _HMPROTOCOL_ReadMem                                                                              
0     0008a3a5  _MODBUSREG_FileRecorderElementSizeTableUsedSizeUpdateInit                                        
0     0008a3c9  _vSetSampleCountAvailable                                                                        
0     0008a3ed  _copy_in                                                                                         
0     0008a411  _CSMON_vUpdateDateTimeFromApplication                                                            
0     0008a434  _CSMON_eApplyParameterChanges                                                                    
0     0008a455  _HMDRV_vProcess                                                                                  
0     0008a475  _TMR_vInitCPUTimers                                                                              
0     0008a495  _vSetSampleCountBuffer                                                                           
0     0008a4b5  _vSetSampleSize                                                                                  
0     0008a4d5  _HMMODBUS_Tx                                                                                     
0     0008a4f4  _HMMODBUS_vInit                                                                                  
0     0008a513  _HMRECPRM_GetRecBuffFreemaster                                                                   
0     0008a532  _HMREC_GetRecBuffFreemaster                                                                      
0     0008a551  _Device_initGPIO                                                                                 
0     0008a56f  _TMR_vInit                                                                                       
0     0008a58d  _Device_enableUnbondedGPIOPullupsFor100Pin                                                       
0     0008a5aa  _memcpy                                                                                          
0     0008a5c7  _HMRECPRM_StartRec                                                                               
0     0008a5e3  _CSMON_eSetParameterCountInRecorder                                                              
0     0008a5fe  _HMDRV_AddressToBuffer                                                                           
0     0008a619  FD$$TOUL                                                                                         
0     0008a634  _CSMON_vFileParameterCountCheckSumUpdate                                                         
0     0008a64e  _HMMODBUS_vProcessSCITXISR                                                                       
0     0008a668  _HMRECPRM_vGetDateTime                                                                           
0     0008a682  _HMSERIAL_vProcessSCITXISRFreemasterOnly                                                         
0     0008a69c  _UART_vInit                                                                                      
0     0008a6b6  _bGetFileReadAccess                                                                              
0     0008a6d0  _HMDRV_AddressFromBuffer                                                                         
0     0008a6e9  _HMLIB_vProcessSCITXISRWithIndex                                                                 
0     0008a701  _HMPROTOCOL_WriteMem                                                                             
0     0008a719  _HMPROTOCOL_WriteMemMask                                                                         
0     0008a731  _MODBUSREG_vInitHoldingRegistersTableChanges                                                     
0     0008a749  _CSMON_u32GetFreeRunningTimerMicroseconds                                                        
0     0008a760  _HMMODBUS_vProcessTxDelay                                                                        
0     0008a777  _HMREC_StartRec                                                                                  
0     0008a78e  _vSetBufferAddressStart                                                                          
0     0008a7a5  U$$TOFD                                                                                          
0     0008a7bc  _CSMON_eSetParameterCountInScope                                                                 
0     0008a7d2  _HMDRV_AddressFromBufferBigEndian                                                                
0     0008a7e8  _CSMON_eResetParameterTable                                                                      
0     0008a7fd  _HMRECPRM_vResetAllStopDetections                                                                
0     0008a812  _HMLIB_vProcessFastTD                                                                            
0     0008a826  _HMMODBUS_DelayedTx                                                                              
0     0008a83a  _HMRECPRM_StopRecParam                                                                           
0     0008a84e  _HMSERIAL_DelayedTx                                                                              
0     0008a862  _CSMON_eSetFlagProcessPassed                                                                     
0     0008a875  _Device_enableUnbondedGPIOPullupsFor176Pin                                                       
0     0008a888  _HMRECPRM_Comparefloat                                                                           
0     0008a8ae  _HMSERIAL_vInit                                                                                  
0     0008a8c1  _FPGA_SCI_vProcessFastTD                                                                         
0     0008a8d3  _HMDRV_GetStringLengthFromWordInternal                                                           
0     0008a8e5  _UART_TxIntDis                                                                                   
0     0008a8f7  _UART_TxIntEna                                                                                   
0     0008a909  __args_main                                                                                      
0     0008a91b  _HMRECPRM_CompareBOOL                                                                            
0     0008a92c  _Device_enableUnbondedGPIOPullups                                                                
0     0008a93c  _HMLIB_vInitRecParamBuff                                                                         
0     0008a94c  _HMMODBUS_vSetupRegisterDummy                                                                    
0     0008a95c  _HMRECPRM_Compare16S                                                                             
0     0008a96c  _HMRECPRM_Compare16U                                                                             
0     0008a97c  _HMRECPRM_Compare32S                                                                             
0     0008a98c  _HMRECPRM_Compare32U                                                                             
0     0008a99c  _HMRECPRM_Compare8S                                                                              
0     0008a9ac  _HMRECPRM_Compare8U                                                                              
0     0008aa1c  _u32BytesMemoryToBytesModbus                                                                     
0     0008aa2c  _u32BytesModbusToBytesMemory                                                                     
0     0008aa3c  _CSMON_vInitHoldingRegistersTableChanges                                                         
0     0008aa4b  _HMLIB_vProcessRecorders                                                                         
0     0008aa5a  _HMMODBUS_CalcCRC                                                                                
0     0008aa69  _HMRECPRM_IsJustStopped                                                                          
0     0008aa78  _UART_IsTxEmpty                                                                                  
0     0008aa87  _bIsValidEndAddressInBuffer                                                                      
0     0008aa96  _HMRECPRM_vDisableAllStopDetections                                                              
0     0008aaa4  _u32FitAddressCircleBufferInside                                                                 
0     0008aab2  FD$$SUB                                                                                          
0     0008aac0  _HMRECPRM_StopRec                                                                                
0     0008aacd  _HMRECPRM_TriggerRec                                                                             
0     0008aada  _HMREC_StopRec                                                                                   
0     0008aae7  _TIMER_vSetupTimerMainFunctionDelayCompare                                                       
0     0008aaf4  _UART_ReadDataRxAvailable                                                                        
0     0008ab01  _HMLIB_vProcess                                                                                  
0     0008ab0d  _HMRECPRM_GetBufferRecParamPtrAddress                                                            
0     0008ab19  _HMREC_TriggerRec                                                                                
0     0008ab25  _u32FixAddressCircleBufferOverflow                                                               
0     0008ab31  _HMMODBUS_vProcessFastTD                                                                         
0     0008ab3c  _HMRECPRM_IsRunning                                                                              
0     0008ab47  _HMSERIAL_vProcessFastTD                                                                         
0     0008ab52  _MODBUSREG_vDataZero                                                                             
0     0008ab5d  _bIsValidIndexFileTable                                                                          
0     0008ab68  U$$DIV                                                                                           
0     0008ab6d  U$$MOD                                                                                           
0     0008ab73  _PERIPHERAL_vProcess                                                                             
0     0008ab78  _PERIPHERAL_vInit                                                                                
0     0008ab7d  _CSMON_vInitScopes                                                                               
0     0008ab87  _HMRECPRM_ClrLastStopDetectionToRecorderStopSamplesCounter                                       
0     0008ab91  _HMRECPRM_GetRecStatus                                                                           
0     0008ab9b  _HMREC_GetRecStatus                                                                              
0     0008aba5  _CSMON_eSetServerOnStatus                                                                        
0     0008abae  _HMMODBUS_vProcessRxDelay                                                                        
0     0008abb7  _HMRECPRM_GetExternBufferRecParamLastPointedAddress                                              
0     0008abc0  _HMRECPRM_GetExternBufferRecParamPtrAddress                                                      
0     0008abc9  _HMRECPRM_vInit                                                                                  
0     0008abd2  _HMSCOPEPRM_GetBufferScopeParamAddress                                                           
0     0008abdb  _TIMER_vResetTimerMainFunctionDelayCounter                                                       
0     0008abe4  _TIMER_vSetupTimerMainDelayedFunctionSendData                                                    
0     0008abed  _UART_PutChar                                                                                    
0     0008abf6  _UART_ReadDataRxTimeDiff                                                                         
0     0008abff  _UART_TXInterrupt                                                                                
0     0008ac08  _UART_TransmitDisable                                                                            
0     0008ac11  _UART_TxDis                                                                                      
0     0008ac1a  _UART_TxEna                                                                                      
0     0008ac23  __register_unlock                                                                                
0     0008ac27  __register_lock                                                                                  
0     0008ac2b  __nop                                                                                            
0     0008ac2c  _CSMON_vSetupInputRegistersAndCoilsAddressTableAccessAll                                         
0     0008ac34  _CSMON_vSetupInputRegistersAndCoilsAddressTableFromCSMONParameterList                            
0     0008ac3c  _HMDRV_CopyFromBufferWithMaskModbus                                                              
0     0008ac44  _HMMODBUS_vProcessFreeTimer                                                                      
0     0008ac4c  _HMRECPRM_GetExternRecParamAddress                                                               
0     0008ac54  _HMRECPRM_GetExternRecParamPtrMaximumUsedSampleCount                                             
0     0008ac5c  _HMRECPRM_GetExternRecParamPtrSampleSize                                                         
0     0008ac64  _HMRECPRM_GetRecParamPtrAvailableSampleCount                                                     
0     0008ac6c  _HMRECPRM_GetRecParamPtrLastSampleIndex                                                          
0     0008ac74  _HMRECPRM_GetRecParamPtrMaximumUsedSampleCount                                                   
0     0008ac7c  _HMRECPRM_GetRecParamPtrSampleSize                                                               
0     0008ac84  _HMRECPRM_GetStatusInternalRecParamAddress                                                       
0     0008ac8c  _HMRECPRM_GetStatusRecParamAddress                                                               
0     0008ac94  _HMREC_vInit                                                                                     
0     0008ac9c  _HMSERIAL_vProcessFreeTimer                                                                      
0     0008aca4  _HMLIB_vProcessDifferentPorts                                                                    
0     0008acab  _HMSCOPEPRM_GetStatusScopeParamAddress                                                           
0     0008acb2  _HMMODBUS_vSetupHoldingRegistersAddressTable                                                     
0     0008acb8  _HMMODBUS_vSetupHoldingRegistersAddressTableInRam                                                
0     0008acbe  _SCI_u32GetBaseFromModuleIndex                                                                   
0     0008acc4  _TIMER_u16ResetTimerMainPeriod                                                                   
0     0008acca  _UART_GetChar                                                                                    
0     0008acd0  _CPUTimer_setEmulationMode                                                                       
0     0008acd6  _CSMON_eSetAutoServiceWatchdogInternalSlowCalculationsInMainLoop                                 
0     0008acdb  _CSMON_eSetFirmwareApplicationVersion                                                            
0     0008ace0  _CSMON_eSetMaxTimeInISR                                                                          
0     0008ace5  _CSMON_eSetMinGuaranteedTimeBetweenTwoISRs                                                       
0     0008acea  _CSMON_u16ParametersAccessListIndexGenerate                                                      
0     0008acef  _CSMON_vSetDateTimeRequest                                                                       
0     0008acf4  _HMLIB_vProcessSamePort                                                                          
0     0008acf9  _HMLIB_vRecorder0                                                                                
0     0008acfe  _HMLIB_vRecorder1                                                                                
0     0008ad03  _HMLIB_vRecorder2                                                                                
0     0008ad08  _HMMODBUS_bGetReceivedMessage                                                                    
0     0008ad0d  _HMMODBUS_vFileTable                                                                             
0     0008ad12  _HMRECPRM_SetUpRecBuff                                                                           
0     0008ad17  _HMREC_SetUpRecBuff                                                                              
0     0008ad1c  _SCI_eGetModuleIndexFromBase                                                                     
0     0008ad21  _TIMER_vSetupTimerMainDelayedData                                                                
0     0008ad26  _CSMON_eSetInternalTimerPeriod                                                                   
0     0008ad2a  _CSMON_eSetTimerPeriodISRFunctionRegister                                                        
0     0008ad2e  _CSMON_u32GetBaudError_PPM                                                                       
0     0008ad32  _CSMON_u32GetFreeRunningTimerTicks                                                               
0     0008ad36  _CSMON_vAddSetupRecorderParameterMask                                                            
0     0008ad3a  _CSMON_vSetStartRecorderParameterMask                                                            
0     0008ad3e  _HMDRV_SetExAddr                                                                                 
0     0008ad42  _HMDRV_u32GetDeviceSYSCLKFreq                                                                    
0     0008ad46  _HMDRV_u32GetSCIErrorPPM                                                                         
0     0008ad4a  _HMLIB_vRecorderParam0                                                                           
0     0008ad4e  _HMLIB_vRecorderParam1                                                                           
0     0008ad52  _HMLIB_vRecorderParam2                                                                           
0     0008ad56  _HMMODBUS_u32GetAddressMessageCounterThisDevice                                                  
0     0008ad5a  _HMMODBUS_vSetAddressMessageCounterThisDevice                                                    
0     0008ad5e  _HMMODBUS_vSetDeviceIDMajorMinorRevision                                                         
0     0008ad62  _HMMODBUS_vSetDeviceIDMajorMinorRevisionLength                                                   
0     0008ad66  _HMMODBUS_vSetDeviceIDModelName                                                                  
0     0008ad6a  _HMMODBUS_vSetDeviceIDModelNameLength                                                            
0     0008ad6e  _HMMODBUS_vSetDeviceIDProductCode                                                                
0     0008ad72  _HMMODBUS_vSetDeviceIDProductCodeLength                                                          
0     0008ad76  _HMMODBUS_vSetDeviceIDProductName                                                                
0     0008ad7a  _HMMODBUS_vSetDeviceIDProductNameLength                                                          
0     0008ad7e  _HMMODBUS_vSetDeviceIDUserApplicationName                                                        
0     0008ad82  _HMMODBUS_vSetDeviceIDUserApplicationNameLength                                                  
0     0008ad86  _HMMODBUS_vSetDeviceIDUserReserve0                                                               
0     0008ad8a  _HMMODBUS_vSetDeviceIDUserReserve0Length                                                         
0     0008ad8e  _HMMODBUS_vSetDeviceIDUserReserve1                                                               
0     0008ad92  _HMMODBUS_vSetDeviceIDUserReserve1Length                                                         
0     0008ad96  _HMMODBUS_vSetDeviceIDUserReserve2                                                               
0     0008ad9a  _HMMODBUS_vSetDeviceIDUserReserve2Length                                                         
0     0008ad9e  _HMMODBUS_vSetDeviceIDVendorName                                                                 
0     0008ada2  _HMMODBUS_vSetDeviceIDVendorNameLength                                                           
0     0008ada6  _HMMODBUS_vSetDeviceIDVendorUrl                                                                  
0     0008adaa  _HMMODBUS_vSetDeviceIDVendorUrlLength                                                            
0     0008adae  _HMMODBUS_vSetServerIDDataAddress                                                                
0     0008adb2  _HMMODBUS_vSetServerIDLength                                                                     
0     0008adb6  _HMMODBUS_vSetServerIDNumber                                                                     
0     0008adba  _HMMODBUS_vSetServerOnStatus                                                                     
0     0008adbe  _HMMODBUS_vSetupHoldingRegistersAccessTableInRam                                                 
0     0008adc2  _HMMODBUS_vSetupWriteParElementCallbackFunction                                                  
0     0008adc6  _MODBUSREG_u16GetHoldRegFillCount                                                                
0     0008adca  _MODBUSREG_u16GetHoldRegUsedCount                                                                
0     0008adce  _MODBUSREG_u32GetRegisterAccessTableInRam                                                        
0     0008add2  _MODBUSREG_u32GetRegisterAddressTable                                                            
0     0008add6  _MODBUSREG_u32GetRegisterAddressTableInRam                                                       
0     0008adda  _MODBUSREG_vSetFileAutorization_FunctionAfterWriteFileRecordTable                                
0     0008adde  _MODBUSREG_vSetFileParamCount_FunctionBeforeReadFileRecord                                       
0     0008ade2  _MODBUSREG_vSetFileRTC_FunctionAfterReadFileRecord                                               
0     0008ade6  _MODBUSREG_vSetFileRTC_FunctionAfterWriteFileRecord                                              
0     0008adea  _MODBUSREG_vSetFileRecConfig_FunctionAfterWriteFileRecord                                        
0     0008adee  _MODBUSREG_vSetFileRecStatus_FunctionIndexGenerationFileRecord                                   
0     0008adf2  _MODBUSREG_vSetHoldRegFillCount                                                                  
0     0008adf6  _MODBUSREG_vSetModbusParamCount                                                                  
0     0008adfa  _MODBUSREG_vSetParamAuxAddress                                                                   
0     0008adfe  _MODBUSREG_vSetParamCount                                                                        
0     0008ae02  _MODBUSREG_vSetParamListAddress                                                                  
0     0008ae06  _MODBUSREG_vSetParamNameAddress                                                                  
0     0008ae0a  _MODBUSREG_vSetParamNumbAddress                                                                  
0     0008ae0e  _MODBUSREG_vSetParamRecorderConfigAddress                                                        
0     0008ae12  _MODBUSREG_vSetParamReservedAddress                                                              
0     0008ae16  _MODBUSREG_vSetParamScopeConfigAddress                                                           
0     0008ae1a  _MODBUSREG_vSetParamStringAddress                                                                
0     0008ae1e  _TIMER_vGetTimerMainRollingCounter                                                               
0     0008ae22  _TIMER_vSetupTimerMainCSMONFunction                                                              
0     0008ae26  _TMR_u16GetFreeRunTimerPrescaller                                                                
0     0008ae2a  _bGetElementsDifference                                                                          
0     0008ae2e  _u16GetIndexFileTable                                                                            
0     0008ae32  _u32GetBufferAddressStart                                                                        
0     0008ae36  _u32GetBufferSize                                                                                
0     0008ae3a  _u32GetSampleCountAvailable                                                                      
0     0008ae3e  _u32GetSampleCountBuffer                                                                         
0     0008ae42  _u32GetStartSampleIndex                                                                          
0     0008ae46  _u8GetSampleSize                                                                                 
0     0008ae4a  _vSetBufferAddressStartFromFunction                                                              
0     0008ae4e  _vSetBufferSize                                                                                  
0     0008ae52  _CSMON_eSetParameterListDataDefault                                                              
0     0008ae55  _CSMON_eSetParameterListDataMaximum                                                              
0     0008ae58  _CSMON_eSetParameterListDataMinimum                                                              
0     0008ae5b  _CSMON_eSetParameterListParameterID                                                              
0     0008ae5e  _CSMON_eSetParameterListRealAddress                                                              
0     0008ae61  _CSMON_eSetParameterListRegisterFlags                                                            
0     0008ae64  _CSMON_eSetParameterListRegisterSize                                                             
0     0008ae67  _CSMON_eSetParameterListValueFormat                                                              
0     0008ae6a  _CSMON_u32GetModbusMessageCounterRegisterRealAddress                                             
0     0008ae6d  _CSMON_vSetModbusMessageCounterRegisterRealAddress                                               
0     0008ae70  _HMLIB_vRecorderParamTimeSync                                                                    
0     0008ae73  _HMRECPRM_GetTimeBase                                                                            
0     0008ae76  _MODBUSREG_u32GetAddressMessageCounterThisDevice                                                 
0     0008ae79  _MODBUSREG_vSetAddressMessageCounterThisDevice                                                   
0     0008ae7c  _HMRECPRM_AbortRec                                                                               
0     0008ae7e  _HMRECPRM_GetRecBuffSize                                                                         
0     0008ae80  _HMREC_AbortRec                                                                                  
0     0008ae82  _HMREC_GetRecBuffSize                                                                            
0     0008ae84  _MODBUSREG_u16GetTableRegisterFlagsElementOffset                                                 
0     0008ae86  _MODBUSREG_u16GetTableRegisterSizeElementOffset                                                  
0     0008ae88  _MODBUSREG_u16GetTableVirtAddressElementOffset                                                   
0     0008ae8a  _MODBUSREG_u32GetTableRegisterFlags                                                              
0     0008ae8c  _MODBUSREG_u32GetTableRegisterSize                                                               
0     0008ae8e  _MODBUSREG_u32GetTableVirtAddress                                                                
0     0008ae90  __system_pre_init                                                                                
0     00090000  _auchCRCHi                                                                                       
0     00090100  _auchCRCLo                                                                                       
0     00090200  _CSMON_asAccessLevelPasswords                                                                    
0     00090268  _CSMON_au8FileImplementedFunctionCodes                                                           
0     0009029e  _CSMON_au8FileParameterListElementsCountInPartTable                                              
0     000a0000  _asParameterList                                                                                 
1     00000400  __stack                                                                                          
1     00000780  __STACK_END                                                                                      
1     0000a800  _UARTRxBufferTimeDiff                                                                            
1     0000c000  _au8RecBuffer0                                                                                   
1     0000c800  _MODBUSREG_asFileTable                                                                           
1     0000cd6a  _au8ReadBuffer                                                                                   
1     0000cd7d  _u16ReadStatus                                                                                   
1     0000cd7e  _DS3231MZ_bReadRequest                                                                           
1     0000cd7f  _bReadAnswerWait                                                                                 
1     0000cd80  _u32ModbusTimeoutBuffer                                                                          
1     0000cf80  _FPGA_SCI_u16TimeLast                                                                            
1     0000cf81  _FPGA_SCI_u16TimePass                                                                            
1     0000cf82  _FPGA_SCI_u16TimeCurr                                                                            
1     0000cf83  _FPGA_SCI_bDataRecv                                                                              
1     0000cf84  _FPGA_SCI_bDataRecvUse                                                                           
1     0000cf85  _FPGA_SCI_bResetUart                                                                             
1     0000cf86  _FPGA_SCI_u8UartIndex                                                                            
1     0000cf87  _FPGA_SCI_nAddressDSP                                                                            
1     0000cf88  _FPGA_SCI_nAddressFPGA                                                                           
1     0000cf89  _FPGA_SCI_bPeriodicSend                                                                          
1     0000cf8a  _FPGA_SCI_Clock_Get_Seconds                                                                      
1     0000cf8b  _FPGA_SCI_Clock_Get_Minutes                                                                      
1     0000cf8c  _FPGA_SCI_Clock_Get_Hours                                                                        
1     0000cf8d  _FPGA_SCI_Clock_Get_Weekdays                                                                     
1     0000cf8e  _FPGA_SCI_Clock_Get_Days                                                                         
1     0000cf8f  _FPGA_SCI_Clock_Get_Month                                                                        
1     0000cf90  _FPGA_SCI_Clock_Get_Year                                                                         
1     0000cf91  _FPGA_SCI_Clock_Get_Last_Seconds                                                                 
1     0000cf92  _FPGA_SCI_Clock_Get_Last_Minutes                                                                 
1     0000cf93  _FPGA_SCI_Clock_Get_Last_Hours                                                                   
1     0000cf94  _FPGA_SCI_Clock_Get_Last_Weekdays                                                                
1     0000cf95  _FPGA_SCI_Clock_Get_Last_Days                                                                    
1     0000cf96  _FPGA_SCI_Clock_Get_Last_Month                                                                   
1     0000cf97  _FPGA_SCI_Clock_Get_Last_Year                                                                    
1     0000cf98  _FPGA_SCI_Clock_Set_Seconds                                                                      
1     0000cf99  _FPGA_SCI_Clock_Set_Minutes                                                                      
1     0000cf9a  _FPGA_SCI_Clock_Set_Hours                                                                        
1     0000cf9b  _FPGA_SCI_Clock_Set_Weekdays                                                                     
1     0000cf9c  _FPGA_SCI_Clock_Set_Days                                                                         
1     0000cf9d  _FPGA_SCI_Clock_Set_Month                                                                        
1     0000cf9e  _FPGA_SCI_Clock_Set_Year                                                                         
1     0000cf9f  _FPGA_SCI_gdi_det                                                                                
1     0000cfa0  _FPGA_SCI_gdi_err                                                                                
1     0000cfa1  _FPGA_SCI_gdi_ovt                                                                                
1     0000cfa2  _FPGA_SCI_trp_ocn                                                                                
1     0000cfa3  _FPGA_SCI_trp_ocp                                                                                
1     0000cfa4  _FPGA_SCI_err_glb                                                                                
1     0000cfa5  _FPGA_SCI_gdi_det_err                                                                            
1     0000cfa6  _FPGA_SCI_gdi_err_err                                                                            
1     0000cfa7  _FPGA_SCI_gdi_ovt_err                                                                            
1     0000cfa8  _FPGA_SCI_trp_ocn_err                                                                            
1     0000cfa9  _FPGA_SCI_trp_ocp_err                                                                            
1     0000cfaa  _FPGA_SCI_err_glb_err                                                                            
1     0000cfab  _FPGA_SCI_meas_temp_err                                                                          
1     0000cfac  _FPGA_SCI_gdi_det_err_Trip                                                                       
1     0000cfad  _FPGA_SCI_gdi_err_err_Trip                                                                       
1     0000cfae  _FPGA_SCI_gdi_ovt_err_Trip                                                                       
1     0000cfaf  _FPGA_SCI_trp_ocn_err_Trip                                                                       
1     0000cfb0  _FPGA_SCI_trp_ocp_err_Trip                                                                       
1     0000cfb1  _FPGA_SCI_err_glb_err_Trip                                                                       
1     0000cfb2  _FPGA_SCI_meas_temp_err_Trip                                                                     
1     0000cfb3  _FPGA_SCI_ms_meas_temp_err                                                                       
1     0000cfb4  _FPGA_SCI_ms_det                                                                                 
1     0000cfb5  _FPGA_SCI_ms_err                                                                                 
1     0000cfb6  _FPGA_SCI_ms_ovt                                                                                 
1     0000cfb7  _FPGA_SCI_ms_ocn                                                                                 
1     0000cfb8  _FPGA_SCI_ms_ocp                                                                                 
1     0000cfb9  _FPGA_SCI_ms_glb                                                                                 
1     0000cfba  _FPGA_SCI_ms_det_fbk                                                                             
1     0000cfbb  _FPGA_SCI_ms_err_fbk                                                                             
1     0000cfbc  _FPGA_SCI_ms_ovt_fbk                                                                             
1     0000cfbd  _FPGA_SCI_ms_ocn_fbk                                                                             
1     0000cfbe  _FPGA_SCI_ms_ocp_fbk                                                                             
1     0000cfbf  _FPGA_SCI_ms_glb_fbk                                                                             
1     0000cfc0  _FPGA_SCI_Temp1                                                                                  
1     0000cfc1  _FPGA_SCI_Temp2                                                                                  
1     0000cfc2  _FPGA_SCI_Temp3                                                                                  
1     0000cfc3  _FPGA_SCI_Temp4                                                                                  
1     0000cfc4  _FPGA_SCI_Temp5                                                                                  
1     0000cfc5  _FPGA_SCI_Temp6                                                                                  
1     0000cfc6  _FPGA_SCI_Temp7                                                                                  
1     0000cfc7  _FPGA_SCI_Temp8                                                                                  
1     0000cfc8  _FPGA_SCI_Temp9                                                                                  
1     0000cfc9  _FPGA_SCI_HuTmp                                                                                  
1     0000cfca  _FPGA_SCI_Humid                                                                                  
1     0000cfcb  _FPGA_SCI_Temp1_Trip                                                                             
1     0000cfcc  _FPGA_SCI_Temp2_Trip                                                                             
1     0000cfcd  _FPGA_SCI_Temp3_Trip                                                                             
1     0000cfce  _FPGA_SCI_Temp4_Trip                                                                             
1     0000cfcf  _FPGA_SCI_Temp5_Trip                                                                             
1     0000cfd0  _FPGA_SCI_Temp6_Trip                                                                             
1     0000cfd1  _FPGA_SCI_Temp7_Trip                                                                             
1     0000cfd2  _FPGA_SCI_Temp8_Trip                                                                             
1     0000cfd3  _FPGA_SCI_Temp9_Trip                                                                             
1     0000cfd4  _FPGA_SCI_HuTmp_Trip                                                                             
1     0000cfd5  _FPGA_SCI_Humid_Trip                                                                             
1     0000cfd6  _FPGA_SCI_eRxState                                                                               
1     0000cfd7  _FPGA_SCI_nRxTodoEcho                                                                            
1     0000cfd8  _FPGA_SCI_nRecvTimeout                                                                           
1     0000cfd9  _FPGA_SCI_nTxIndex                                                                               
1     0000cfda  _FPGA_SCI_nRxIndex                                                                               
1     0000cfdb  _FPGA_SCI_nTxChSum                                                                               
1     0000cfdc  _FPGA_SCI_nRxChSum                                                                               
1     0000cfdd  _FPGA_SCI_nRxData                                                                                
1     0000cfde  _FPGA_SCI_nRxByteCounter                                                                         
1     0000cfdf  _FPGA_SCI_nRxCommand                                                                             
1     0000cfe0  _FPGA_SCI_nRxCommand_Mask                                                                        
1     0000cfe1  _FPGA_SCI_nRxLength                                                                              
1     0000cfe2  _FPGA_SCI_nTxTestLength                                                                          
1     0000cfe3  _FPGA_SCI_nBytesToSend                                                                           
1     0000cfe4  _FPGA_SCI_nBytesToSendHardSet                                                                    
1     0000cfe5  _FPGA_SCI_nAddrMode                                                                              
1     0000cfe6  _FPGA_SCI_nParityMode                                                                            
1     0000cfe7  _bDataUpdate                                                                                     
1     0000cfe8  _bRTCGet                                                                                         
1     0000cfe9  _bUpdateNonLastExecuting                                                                         
1     0000cfea  _bUpdateLastExecuting                                                                            
1     0000cfeb  _bSendTxCommand                                                                                  
1     0000cfec  _bResponseRxCommand                                                                              
1     0000cfed  _bResponseRxCommandLast                                                                          
1     0000cfee  _bSendRxResponse                                                                                 
1     0000cfef  _FPGA_SCI_bUseCheckSum                                                                           
1     0000cff0  _bRxResponseIncrementData                                                                        
1     0000cff1  _FPGA_SCI_nTxCommand                                                                             
1     0000cff2  _FPGA_SCI_nTxCommandReq                                                                          
1     0000cff3  _FPGA_SCI_bTxCommandMaskAuto                                                                     
1     0000cff4  _FPGA_SCI_u32SendCounter                                                                         
1     0000cff6  _FPGA_SCI_u32SendCount                                                                           
1     0000cff8  _FPGA_SCI_nTxCommandMaskDenyTimeDelay                                                            
1     0000cffa  _FPGA_SCI_nTxCommandMaskDenyTime                                                                 
1     0000cffc  _FPGA_SCI_nTxCommandMaskDenyTimeLast                                                             
1     0000cffe  _FPGA_SCI_nTxCommandMaskDenyTimeDiff                                                             
1     0000d000  _CSMON_asFileParameterDefinitionsFromAccessLevel                                                 
1     0000d400  _CSMON_sFileParameterAccessList                                                                  
1     0000d800  _MODBUSREG_u32RegisterAccessTableInRam                                                           
1     0000dc00  _UARTRxBuffer                                                                                    
1     0000e000  _sRecHandleParam                                                                                 
1     0000e126  _CSMON_sFileAutorization                                                                         
1     0000e138  _HMRECPRM_sDateTime                                                                              
1     0000e140  _sRecHandle                                                                                      
1     0000e248  _i2cMsgIn                                                                                        
1     0000e278  _UART_RXIntOverflowCounter                                                                       
1     0000e280  _HMMODBUS_nTxTodo                                                                                
1     0000e281  _HMMODBUS_nRxTodoEcho                                                                            
1     0000e282  _HMMODBUS_nLastResponseCmd                                                                       
1     0000e283  _HMMODBUS_nLastResponseCode                                                                      
1     0000e284  _HMMODBUS_nRxTodo                                                                                
1     0000e285  _HMMODBUS_nRxCheckSum                                                                            
1     0000e286  _HMMODBUS_nTxCheckSum                                                                            
1     0000e287  _HMMODBUS_bOverflowReached                                                                       
1     0000e288  _u8UartModBusIndex                                                                               
1     0000e289  _HMMODBUS_u8DeviceAddress                                                                        
1     0000e28a  _u16RegisterAddressDummyValue                                                                    
1     0000e28b  _HMMODBUS_bReceivedMessage                                                                       
1     0000e28c  _bInputRegsGlobal                                                                                
1     0000e28d  _bBareRamTable                                                                                   
1     0000e28e  _bUsedDummyDataAddressInResponseData                                                             
1     0000e28f  _bLengthException                                                                                
1     0000e290  _bHoldingRegTableSorted                                                                          
1     0000e291  _bHoldingRegTableBareRam                                                                         
1     0000e292  _u16FreeRunTimerPrescaller                                                                       
1     0000e293  _u16ModbusMinMessToMess_usec                                                                     
1     0000e294  _HMMODBUS_u8ReadServerIDLength                                                                   
1     0000e295  _HMMODBUS_u8ReadServerIDNumber                                                                   
1     0000e296  _HMMODBUS_u8ReadServerOnStatus                                                                   
1     0000e297  _HMMODBUS_u8ReadDeviceIDConfLvlMask                                                              
1     0000e298  _HMMODBUS_u8ReadDeviceIDConfLvl                                                                  
1     0000e299  _HMMODBUS_u8ReadDeviceIDVendorNameLength                                                         
1     0000e29a  _HMMODBUS_u8ReadDeviceIDProductCodeLength                                                        
1     0000e29b  _HMMODBUS_u8ReadDeviceIDMajorMinorRevisionLength                                                 
1     0000e29c  _HMMODBUS_u8ReadDeviceIDVendorUrlLength                                                          
1     0000e29d  _HMMODBUS_u8ReadDeviceIDProductNameLength                                                        
1     0000e29e  _HMMODBUS_u8ReadDeviceIDModelNameLength                                                          
1     0000e29f  _HMMODBUS_u8ReadDeviceIDUserApplicationNameLength                                                
1     0000e2a0  _HMMODBUS_u8ReadDeviceIDUserReserve0Length                                                       
1     0000e2a1  _HMMODBUS_u8ReadDeviceIDUserReserve1Length                                                       
1     0000e2a2  _HMMODBUS_u8ReadDeviceIDUserReserve2Length                                                       
1     0000e2a3  _eElementFixedArgument                                                                           
1     0000e2a4  _u16NoStoreFixedArgument                                                                         
1     0000e2a5  _u16DataModeFixedArgument                                                                        
1     0000e2a6  _u16PasswordFixedArgument                                                                        
1     0000e2a7  _bNeedResetBackup                                                                                
1     0000e2a8  _realRxByteDelayLastFailBytesReceived                                                            
1     0000e2a9  _u16ModbusStartedReceiveMessageCounter                                                           
1     0000e2aa  _u16ModbusCompleteReceiveMessageCounter                                                          
1     0000e2ab  _u16ModbusCompleteReceiveMessageCounterThisDevice                                                
1     0000e2ac  _u16ModbusBufferOverflowReceiveMessageCounter                                                    
1     0000e2ad  _u16ModbusBadCSReceiveMessageCounter                                                             
1     0000e2ae  _u16ModbusBadTimeoutReceiveMessageCounter                                                        
1     0000e2af  _u16IndexFileTable                                                                               
1     0000e2b0  _u8SampleSize                                                                                    
1     0000e2b1  _bElementsDifference                                                                             
1     0000e2b2  _bBadSizeCalculation                                                                             
1     0000e2b3  _bStringNullTerminationPossible                                                                  
1     0000e2b4  _bStringDataExpected                                                                             
1     0000e2b5  _bException                                                                                      
1     0000e2b6  _bResult                                                                                         
1     0000e2b7  _bParameterTroughFile                                                                            
1     0000e2b8  _nDeviceAddress                                                                                  
1     0000e2b9  _nAddrQueue                                                                                      
1     0000e2ba  _nFileNumber                                                                                     
1     0000e2bb  _nSizeReadBits                                                                                   
1     0000e2bc  _u16ElementSize                                                                                  
1     0000e2bd  _u8ElementSize                                                                                   
1     0000e2be  _nLoopIndex                                                                                      
1     0000e2bf  _nLoopIndex2                                                                                     
1     0000e2c0  _nLoopCount                                                                                      
1     0000e2c1  _nSizeWriteBits                                                                                  
1     0000e2c2  _bReadOnlyFile                                                                                   
1     0000e2c3  _nResponseBytes                                                                                  
1     0000e2c4  _nRecordNumber                                                                                   
1     0000e2c5  _nSizeRead                                                                                       
1     0000e2c6  _nBytesRead                                                                                      
1     0000e2c7  _nSizeReadCheck                                                                                  
1     0000e2c8  _nSizeReadRequest                                                                                
1     0000e2c9  _nSizeReadCheckMemory                                                                            
1     0000e2ca  _nSizeBytes                                                                                      
1     0000e2cb  _nBytesResponseTotal                                                                             
1     0000e2cc  _nSizeCurrentRecord                                                                              
1     0000e2cd  _nSizeWrite                                                                                      
1     0000e2ce  _nSizeWriteBytesAllParts                                                                         
1     0000e2cf  _nReferenceType                                                                                  
1     0000e2d0  _nSizeWriteBytes                                                                                 
1     0000e2d1  _nSizeReadBytes                                                                                  
1     0000e2d2  _nCmd                                                                                            
1     0000e2d3  _nSubCmd                                                                                         
1     0000e2d4  _nSubCmdDiag                                                                                     
1     0000e2d5  _nIDCode                                                                                         
1     0000e2d6  _eException                                                                                      
1     0000e2d7  _u16LastFileNumberRequest                                                                        
1     0000e2d8  _bFileFirstRequest                                                                               
1     0000e2d9  _nRecordNumberRequest                                                                            
1     0000e2da  _nSizeReadRequestLoop                                                                            
1     0000e2db  _nLoopIndexedRequest                                                                             
1     0000e2dc  _u32Dummy                                                                                        
1     0000e2de  _HMMODBUS_pTxBuff                                                                                
1     0000e2e0  _HMMODBUS_pRxBuff                                                                                
1     0000e2e2  _HMMODBUS_pu32HoldingRegisterAccessTableInRam                                                    
1     0000e2e4  _HMMODBUS_u32HoldingRegisterAddressTableSize                                                     
1     0000e2e6  _HMMODBUS_u32HoldingRegisterAddressTableInRamSize                                                
1     0000e2e8  _HMMODBUS_pu32HoldingRegisterAddressTable                                                        
1     0000e2ea  _HMMODBUS_pu32HoldingRegisterAddressTableInRam                                                   
1     0000e2ec  _HMMODBUS_u32TxDelayCounter                                                                      
1     0000e2ee  _HMMOSBUS_nFileWritePrimaryAddrReadLast                                                          
1     0000e2f0  _HMMOSBUS_nDummy                                                                                 
1     0000e2f2  _HMMODBUS_u32FreeRunTimerReceivedMessage                                                         
1     0000e2f4  _HMMODBUS_pasFileAddressTable                                                                    
1     0000e2f6  _HMMODBUS_u32FileCount                                                                           
1     0000e2f8  _HMMODBUS_u32DeviceSYSCLKFreq                                                                    
1     0000e2fa  _u32ModbusMaxByteToByte                                                                          
1     0000e2fc  _u32ModbusMaxMessToMess                                                                          
1     0000e2fe  _u32ModbusMinMessToMess                                                                          
1     0000e300  _u32ModbusMaxByteToByteExact                                                                     
1     0000e302  _u32ModbusMaxMessToMessExact                                                                     
1     0000e304  _u32ModbusTimeout                                                                                
1     0000e306  _u32WrongElementSizeTable                                                                        
1     0000e308  _u32ElementSizeTableD384_0                                                                       
1     0000e30a  _u32ElementSizeTableB326_0                                                                       
1     0000e30c  _u32ElementSizeTableD384_1                                                                       
1     0000e30e  _u32ElementSizeTableB326_1                                                                       
1     0000e310  _u32ElementSizeTableD384_2                                                                       
1     0000e312  _u32ElementSizeTableB326_2                                                                       
1     0000e314  _HMMODBUS_pu8ReadServerIDDatAdr                                                                  
1     0000e316  _HMMODBUS_pu8ReadDeviceIDVendorName                                                              
1     0000e318  _HMMODBUS_pu8ReadDeviceIDProductCode                                                             
1     0000e31a  _HMMODBUS_pu8ReadDeviceIDMajorMinorRevision                                                      
1     0000e31c  _HMMODBUS_pu8ReadDeviceIDVendorUrl                                                               
1     0000e31e  _HMMODBUS_pu8ReadDeviceIDProductName                                                             
1     0000e320  _HMMODBUS_pu8ReadDeviceIDModelName                                                               
1     0000e322  _HMMODBUS_pu8ReadDeviceIDUserApplicationName                                                     
1     0000e324  _HMMODBUS_pu8ReadDeviceIDUserReserve0                                                            
1     0000e326  _HMMODBUS_pu8ReadDeviceIDUserReserve1                                                            
1     0000e328  _HMMODBUS_pu8ReadDeviceIDUserReserve2                                                            
1     0000e32a  _pfWriteParElementCallbackFunction                                                               
1     0000e32c  _u32ModbusTimeoutBufferIndex                                                                     
1     0000e32e  _u32RxTimeout                                                                                    
1     0000e330  _realRxByteDelay                                                                                 
1     0000e332  _realRxByteDelayLastFail                                                                         
1     0000e334  _u32RxTimeoutLastFail                                                                            
1     0000e336  _pu16ModbusCompleteReceiveMessageCounterThisDevice                                               
1     0000e338  _HMMODBUS_u32DebugAddrReadFileReal                                                               
1     0000e33a  _HMMODBUS_u32DebugAddrReadFileFromIndex                                                          
1     0000e33c  _HMMODBUS_u32DebugAddrReadFileFromAddress                                                        
1     0000e33e  _HMMODBUS_u32DebugAddrReadPlusOffset                                                             
1     0000e340  _HMMODBUS_u32DebugAddrReadFileCircleTooFarAddress                                                
1     0000e342  _HMMODBUS_u32DebugAddrReadFileCircle                                                             
1     0000e344  _HMMODBUS_u32DebugAddrReadFileForRead                                                            
1     0000e346  _HMMODBUS_u32DebugAddrReadFileForReadLooped                                                      
1     0000e348  _HMMODBUS_nSizeReadRequestLoopLeft                                                               
1     0000e34a  _u32BufferAddressStart                                                                           
1     0000e34c  _u32BufferSize                                                                                   
1     0000e34e  _u32SampleCountBuffer                                                                            
1     0000e350  _u32SampleCountAvailable                                                                         
1     0000e352  _u32StartSampleIndex                                                                             
1     0000e354  _u32ElementsSizeModbus                                                                           
1     0000e356  _u32ElementsSizeMemory                                                                           
1     0000e358  _nAddrWrite                                                                                      
1     0000e35a  _pu8ElementSizeTable                                                                             
1     0000e35c  _pu8ElementSizeTablePtr                                                                          
1     0000e35e  _nAddrFuncExecute                                                                                
1     0000e360  _nSizeOffset                                                                                     
1     0000e362  _nSizeAllRecords                                                                                 
1     0000e364  _nSizeOffsetCurrentRecord                                                                        
1     0000e366  _nCurrentElementTableIndex                                                                       
1     0000e368  _nSizeOffsetAdd                                                                                  
1     0000e36a  _pfIndexGeneration                                                                               
1     0000e36c  _nAddrRead                                                                                       
1     0000e36e  _pResponseStart                                                                                  
1     0000e370  _pResponseEnd                                                                                    
1     0000e372  _pMessageIn                                                                                      
1     0000e374  _pMessageOut                                                                                     
1     0000e376  _pMessageInCopy                                                                                  
1     0000e378  _nSizeOffsetMultiplier                                                                           
1     0000e37a  _nSizeOffsetRequestMultMode                                                                      
1     0000e37c  _nTimeTickDelayModbus                                                                            
1     0000e37e  _nTimeTickDelayModbusMin                                                                         
1     0000e380  _nTimeTickDelayModbusMax                                                                         
1     0000e384  _CSMON_au8FileRecorderDataElementsSizeTable                                                      
1     0000e3c0  _HMMODBUS_anTxCheckSum                                                                           
1     0000e4c0  _HMMODBUS_pCommBufferRx                                                                          
1     0000e5c0  _HMMODBUS_pCommBufferTx                                                                          
1     0000e6c0  _sRecConfigParam                                                                                 
1     0000e780  _sScopeHandlePrm                                                                                 
1     0000e83a  _Example_Result                                                                                  
1     0000e83c  _Example_PassCount                                                                               
1     0000e83e  _Example_Fail                                                                                    
1     0000e840  _CSMON_u16MaskSetupRecorderParam                                                                 
1     0000e841  _CSMON_u16MaskStartRecorderParam                                                                 
1     0000e842  _CSMON_u16MaskStopRecorderParam                                                                  
1     0000e843  _eResponseCodeStartRecParam0                                                                     
1     0000e844  _eResponseCodeStartRecParam1                                                                     
1     0000e845  _eResponseCodeStartRecParam2                                                                     
1     0000e846  _CSMON_bGetDateTimeAutorization                                                                  
1     0000e847  _CSMON_bSetDateTimeRequest                                                                       
1     0000e848  _CSMON_bGetDateTimeRequest                                                                       
1     0000e849  _CSMON_u16SCIErrorPercent                                                                        
1     0000e84a  _bServiceWatchdog                                                                                
1     0000e84b  _CSMON_bResetMaxMeasure                                                                          
1     0000e84c  _bRunOnceGetSavedRecorderState                                                                   
1     0000e84d  _CSMON_bWatchdogCalcNeeded                                                                       
1     0000e84e  _CSMON_u16WatchdogPrescaler                                                                      
1     0000e84f  _CSMON_u16MaxTimeInISR_usec                                                                      
1     0000e850  _CSMON_u16MinTimeProcessExit_usec                                                                
1     0000e851  _CSMON_u16MaxTimeTillWdtClear_usec                                                               
1     0000e852  _CSMON_u16MinTimeProcessAllowedNeeded_usec                                                       
1     0000e853  _u16SkipProcessCounter                                                                           
1     0000e854  _u16SkipProcessTag                                                                               
1     0000e855  _bSkipProcessFlag                                                                                
1     0000e856  _CSMON_bUseAccessLevelForHoldingRegistersAndCoils                                                
1     0000e857  _CSMON_bUseAccessLevelForInputRegistersAndCoils                                                  
1     0000e858  _CSMON_u16CurrentAccessLevelPrev                                                                 
1     0000e859  _CSMON_u16FileParameterFillCount                                                                 
1     0000e85a  _CSMON_u16FileParameterUseMaxCnt                                                                 
1     0000e85b  _CSMON_u16FileParameterListCount                                                                 
1     0000e85c  _CSMON_u16FileParameterNameCount                                                                 
1     0000e85d  _CSMON_u16FileParameterNumeric                                                                   
1     0000e85e  _CSMON_bUseDisconnectOnTimeout                                                                   
1     0000e85f  _CSMON_u16NoMessageTimeout_msec                                                                  
1     0000e860  _CSMON_u16NoMessageTimeoutOld_msec                                                               
1     0000e861  _CSMON_bRunningInitialization                                                                    
1     0000e862  _eModbusDefaultCommandRead                                                                       
1     0000e863  _eModbusDefaultCommandWrite                                                                      
1     0000e864  _eModbusDefaultCommandReadArray                                                                  
1     0000e865  _eModbusDefaultCommandWriteArray                                                                 
1     0000e866  _u16ArrayReadAsHolding                                                                           
1     0000e868  _u32FreeRunTimerSysClkMHz                                                                        
1     0000e86a  _u32FreeRunTimerSysClkDiv                                                                        
1     0000e86c  _CSMON_u32SCIErrorPPM                                                                            
1     0000e86e  _CSMON_u32ServiceWatchdogTimes                                                                   
1     0000e870  _CSMON_u32FreeRunTimerCheckSumListBegin                                                          
1     0000e872  _CSMON_u32FreeRunTimerCheckSumListEnd                                                            
1     0000e874  _CSMON_u32FreeRunTimerCheckSumListMax                                                            
1     0000e876  _CSMON_u32FreeRunTimerCheckSumNameBegin                                                          
1     0000e878  _CSMON_u32FreeRunTimerCheckSumNameEnd                                                            
1     0000e87a  _CSMON_u32FreeRunTimerCheckSumNameMax                                                            
1     0000e87c  _CSMON_u32FreeRunTimerCheckSumNumbBegin                                                          
1     0000e87e  _CSMON_u32FreeRunTimerCheckSumNumbEnd                                                            
1     0000e880  _CSMON_u32FreeRunTimerCheckSumNumbMax                                                            
1     0000e882  _CSMON_u32FreeRunTimerCheckSumStrgBegin                                                          
1     0000e884  _CSMON_u32FreeRunTimerCheckSumStrgEnd                                                            
1     0000e886  _CSMON_u32FreeRunTimerCheckSumStrgMax                                                            
1     0000e888  _CSMON_u32FreeRunTimerAccessChangeBegin                                                          
1     0000e88a  _CSMON_u32FreeRunTimerAccessChangeEnd                                                            
1     0000e88c  _CSMON_u32FreeRunTimerAccessChangeMax                                                            
1     0000e88e  _CSMON_u32FreeRunTimerPrepareFileParameterAccessListEnd                                          
1     0000e890  _CSMON_u32FreeRunTimerPrepareFileParameterAccessListMax                                          
1     0000e892  _CSMON_u32FreeRunTimerPasswordHashBegin                                                          
1     0000e894  _CSMON_u32FreeRunTimerPasswordHashEnd                                                            
1     0000e896  _CSMON_u32FreeRunTimerPasswordHashMax                                                            
1     0000e898  _CSMON_u32FreeRunTimerProcessBegin                                                               
1     0000e89a  _CSMON_u32FreeRunTimerProcessNow                                                                 
1     0000e89c  _CSMON_u32FreeRunTimerProcessEnd                                                                 
1     0000e89e  _CSMON_u32FreeRunTimerProcessMax                                                                 
1     0000e8a0  _CSMON_u32WatchdogPeriod_usec                                                                    
1     0000e8a2  _CSMON_u32WatchdogPeriod_Ticks                                                                   
1     0000e8a4  _CSMON_u32MaxTimeInISR_Ticks                                                                     
1     0000e8a6  _CSMON_u32MaxTimeProcess_Ticks                                                                   
1     0000e8a8  _CSMON_u32MaxTimeTillWdtClearISRs                                                                
1     0000e8aa  _CSMON_u32MinTimeProcessExit_Ticks                                                               
1     0000e8ac  _CSMON_u32MaxTimeTillWdtClear_Ticks                                                              
1     0000e8ae  _CSMON_u32MinTimeProcessAllowedNeeded_Ticks                                                      
1     0000e8b0  _CSMON_s32MaxTimeProcessAllowedCalc_Ticks                                                        
1     0000e8b2  _CSMON_u32MaxTimeProcessAllowed_Ticks                                                            
1     0000e8b4  _u32NumericDummy                                                                                 
1     0000e8b6  _CSMON_pasFileParameterList                                                                      
1     0000e8b8  _CSMON_pasFileParameterShortName                                                                 
1     0000e8ba  _CSMON_pu32FileParameterString                                                                   
1     0000e8bc  _CSMON_psFileParameterAux                                                                        
1     0000e8be  _CSMON_pu32FileParameterReserved                                                                 
1     0000e8c0  _CSMON_pu32HoldingRegistersAddressTable                                                          
1     0000e8c2  _CSMON_pu32HoldingRegistersAddressTableInRam                                                     
1     0000e8c4  _CSMON_pu32HoldingRegistersAccessTableInRam                                                      
1     0000e8c6  _CSMON_pauFileParameterNumeric                                                                   
1     0000e8c8  _CSMON_u32FreeRunTimerNow                                                                        
1     0000e8ca  _CSMON_u32FreeRunTimerPrev                                                                       
1     0000e8cc  _CSMON_u32FreeRunTimerDiff                                                                       
1     0000e8ce  _CSMON_u32NoMessageTime                                                                          
1     0000e8d0  _CSMON_u32NoMessageTimeout_Ticks                                                                 
1     0000e8d2  _MODBUSREG_u16ModbusParamCount                                                                   
1     0000e8d3  _MODBUSREG_u16ParamCount                                                                         
1     0000e8d4  _InputRegisterDummy                                                                              
1     0000e8d5  _InputCoilDummy                                                                                  
1     0000e8d6  _CoilTest                                                                                        
1     0000e8d7  _HMMODBUS_u16RegisterAddressTableControlParametersStartIndex                                     
1     0000e8d8  _MODBUSREG_u16HoldRegFillCount                                                                   
1     0000e8d9  _MODBUSREG_u16HoldRegUsedCount                                                                   
1     0000e8da  _MODBUSREG_u16HoldRegListCount                                                                   
1     0000e8db  _MODBUSREG_u16FileTableRecorderIndex                                                             
1     0000e8dc  _MODBUSREG_u16FileTableShortNameIndex                                                            
1     0000e8dd  _MODBUSREG_u16FileTableParameterListIndex                                                        
1     0000e8de  _MODBUSREG_u16FileTableParameterNumbIndex                                                        
1     0000e8e0  _MODBUSREG_u32ParamRecorderConfigAddress                                                         
1     0000e8e2  _MODBUSREG_u32ParamScopeConfigAddress                                                            
1     0000e8e4  _MODBUSREG_u32ParamListAddress                                                                   
1     0000e8e6  _MODBUSREG_u32ParamNameAddress                                                                   
1     0000e8e8  _MODBUSREG_u32ParamNumbAddress                                                                   
1     0000e8ea  _MODBUSREG_u32ParamStringAddress                                                                 
1     0000e8ec  _MODBUSREG_u32ParamAuxAddress                                                                    
1     0000e8ee  _MODBUSREG_u32ParamReservedAddress                                                               
1     0000e8f0  _MODBUSREG_u32FileRTC_FunctionAfterWriteFileRecord                                               
1     0000e8f2  _MODBUSREG_u32FileRTC_FunctionAfterReadFileRecord                                                
1     0000e8f4  _MODBUSREG_u32FileParamCount_FunctionBeforeReadFileRecord                                        
1     0000e8f6  _MODBUSREG_u32FileAutorization_FunctionAfterWriteFileRecordTable                                 
1     0000e8f8  _MODBUSREG_u32FileRecStatus_FunctionIndexGenerationFileRecord                                    
1     0000e8fa  _MODBUSREG_u32FileRecConfig_FunctionAfterWriteFileRecord                                         
1     0000e8fc  _MODBUSREG_pu32RegisterAddressTable                                                              
1     0000e8fe  _MODBUSREG_pu32RegisterAddressTableInRam                                                         
1     0000e900  _MAIN_bDateTimeSet                                                                               
1     0000e901  _bDummyStatsDevRunning                                                                           
1     0000e902  _bDummyReqstDevRunning                                                                           
1     0000e903  _s16DummyCurrentPhaseAStartup                                                                    
1     0000e904  _s16DummyCurrentPhaseBStartup                                                                    
1     0000e905  _s16DummyCurrentPhaseCStartup                                                                    
1     0000e906  _s16DummyVoltageDCLinkStartup                                                                    
1     0000e907  _s16DummyCurrentPhaseAStop                                                                       
1     0000e908  _s16DummyCurrentPhaseBStop                                                                       
1     0000e909  _s16DummyCurrentPhaseCStop                                                                       
1     0000e90a  _s16DummyVoltageDCLinkStop                                                                       
1     0000e90b  _s16DummyCurrentPhaseAIdle                                                                       
1     0000e90c  _s16DummyCurrentPhaseBIdle                                                                       
1     0000e90d  _s16DummyCurrentPhaseCIdle                                                                       
1     0000e90e  _s16DummyVoltageDCLinkIdle                                                                       
1     0000e90f  _s16DummyIncrementLoopCDiff                                                                      
1     0000e910  _s16DummyIncrementLoopA                                                                          
1     0000e911  _s16DummyIncrementLoopB                                                                          
1     0000e912  _s16DummyIncrementLoopC                                                                          
1     0000e913  _s16DummyIncrementLoopV                                                                          
1     0000e914  _s16DummyCurrentPhaseA                                                                           
1     0000e915  _s16DummyCurrentPhaseB                                                                           
1     0000e916  _s16DummyCurrentPhaseC                                                                           
1     0000e917  _s16DummyVoltageDCLink                                                                           
1     0000e918  _s16DummyIncrementLoop                                                                           
1     0000e919  _u16DummyDataCnt                                                                                 
1     0000e91a  _s16DummyDataTst                                                                                 
1     0000e91b  _s16ScaleDataTst                                                                                 
1     0000e91c  _u16TestData0                                                                                    
1     0000e91d  _u16TestData1                                                                                    
1     0000e91e  _u16TestData2                                                                                    
1     0000e91f  _u16TestData3                                                                                    
1     0000e920  _u16TestData4                                                                                    
1     0000e921  _u16TestData5                                                                                    
1     0000e922  _u16TestData6                                                                                    
1     0000e923  _u16TestData7                                                                                    
1     0000e924  _u16TestData8                                                                                    
1     0000e925  _u16TestData9                                                                                    
1     0000e926  _s16DummyData                                                                                    
1     0000e927  _u16WatchdogPrescaler                                                                            
1     0000e928  _u16WatchdogPrescalerOld                                                                         
1     0000e929  _u16WatchdogPrescalerTime                                                                        
1     0000e92a  _u16WatchdogPrescalerTimeOld                                                                     
1     0000e92b  _u16DelayCtrlLoop_100nsec                                                                        
1     0000e92c  _u16DelayCtrlLoopOld_100nsec                                                                     
1     0000e92d  _u16DelayMainLoop_usec                                                                           
1     0000e92e  _u16DelayMainLoopOld_usec                                                                        
1     0000e92f  _u16PeriodControl_usec                                                                           
1     0000e930  _u16PeriodControlOld_usec                                                                        
1     0000e931  _u16CountSetParameterFree                                                                        
1     0000e932  _u16CountSetParameterFail                                                                        
1     0000e933  _u16CountMaxParameterTest                                                                        
1     0000e934  _bResetAllTimeMeasures                                                                           
1     0000e935  _eResponseCode_CSMON_eInit                                                                       
1     0000e936  _eResponseCode_CSMON_eProcess                                                                    
1     0000e937  _eResponseCode_CSMON_eSetServerOnStatus                                                          
1     0000e938  _eResponseCode_CSMON_eSetParameter                                                               
1     0000e939  _eResponseCode_CSMON_eSetRecorder                                                                
1     0000e93a  _eResponseCode_CSMON_eSetScope                                                                   
1     0000e93b  _eResponseCode_CSMON_eSetTimerPeriodISRFunctionRegister                                          
1     0000e93c  _eResponseCode_CSMON_eSetFlagProcessPassed                                                       
1     0000e93d  _limit_count_params                                                                              
1     0000e93e  _maximum_count_params                                                                            
1     0000e93f  _u16FreeRunningTimerTicksPerMicroSecond                                                          
1     0000e940  _u16FreeRunningTimerPrescaller                                                                   
1     0000e942  _s32DummyCurrentPhaseA                                                                           
1     0000e944  _s32DummyCurrentPhaseB                                                                           
1     0000e946  _s32DummyCurrentPhaseC                                                                           
1     0000e948  _s32DummyVoltageDCLink                                                                           
1     0000e94a  _s32DummyIncrementLoop                                                                           
1     0000e94c  _u32DummyDataCnt                                                                                 
1     0000e94e  _pu16ModbusMessageCounter                                                                        
1     0000e950  _aDummyDataTable                                                                                 
1     0000e952  _u32DelayCtrlLoop_Ticks                                                                          
1     0000e954  _u32DelayMainLoop_Ticks                                                                          
1     0000e956  _u32TimeMainLoopProcessCSMON_Bgn_Ticks                                                           
1     0000e958  _u32TimeMainLoopProcessCSMON_End_Ticks                                                           
1     0000e95a  _u32TimeMainLoopProcessCSMON_Now_Ticks                                                           
1     0000e95c  _u32TimeMainLoopProcessCSMON_Max_Ticks                                                           
1     0000e95e  _u32TimeMainLoopCycle_Bgn_Ticks                                                                  
1     0000e960  _u32TimeMainLoopCycle_End_Ticks                                                                  
1     0000e962  _u32TimeMainLoopCycle_Now_Ticks                                                                  
1     0000e964  _u32TimeMainLoopCycle_Max_Ticks                                                                  
1     0000e966  _u32TimeCSMON_ISR_Ticks                                                                          
1     0000e968  _u32TimeCSMON_ISR_Max_Ticks                                                                      
1     0000e96a  _u32TimeCtrlLoop_Ticks                                                                           
1     0000e96c  _u32TimeCtrlLoopMax_Ticks                                                                        
1     0000e96e  _u32ParamTime_Ticks                                                                              
1     0000e970  _u32GetBaudError_PPM                                                                             
1     0000e972  _EMIF_AUX_pu16ParamVerBackupInEmif                                                               
1     0000e974  _EMIF_AUX_pu16DateTimeBackupInEmif                                                               
1     0000e976  _EMIF_AUX_pu16CheckSumBackupInEmif                                                               
1     0000e97a  _u64DummyDataCnt                                                                                 
1     0000e980  _MAIN_sDateTimeGet                                                                               
1     0000e988  _MAIN_sDateTimeSet                                                                               
1     0000e990  _i2cMsgOut                                                                                       
1     0000e9c0  _sScopeConfigParam                                                                               
1     0000ea40  _pcm_pCommBuffer                                                                                 
1     0000eab9  _nRecorderFreemasterIndex                                                                        
1     0000eaba  _nScopePrmFreemasterIndex                                                                        
1     0000eabb  _bRecorderParameterUsage                                                                         
1     0000eabc  _bScopeParameterUsage                                                                            
1     0000eabd  _u16TimeBase                                                                                     
1     0000eabe  _breakData                                                                                       
1     0000eabf  _HMREC_u16FailSnapshotWrite                                                                      
1     0000eac0  _sRecExternParam                                                                                 
1     0000eb14  _CSMON_au8FileScopeConfigurationElementsSizeTable                                                
1     0000eb3e  _MAIN_u32FreeCounter                                                                             
1     0000eb40  _FPGA_SCI_au8TxBuffer                                                                            
1     0000ebbe  _DataChangedParamFlag                                                                            
1     0000ebbf  _nScopeIndexFreemaster                                                                           
1     0000ebc0  _sRecStatusParam                                                                                 
1     0000ebf0  _CSMON_sFileParameterCount                                                                       
1     0000ec00  _CSMON_au8FileRecorderConfigElementsSizeTable                                                    
1     0000ec2d  _MODBUSREG_au8DeviceIDMajorMinorRevision                                                         
1     0000ec3d  _CSMON_abFileAutorization_RecordReadOnly                                                         
1     0000ec40  _sRecStatusParamInternal                                                                         
1     0000ec5e  _eAsyncDataWidth                                                                                 
1     0000ec5f  _u16UseA19AsBA1                                                                                  
1     0000ec60  _sEMIFParamFPGA                                                                                  
1     0000ec6e  _sEMIFParam                                                                                      
1     0000ec7c  _CSMON_au8FileParameterListElementsSizeTablePart1                                                
1     0000ec80  _MODBUSREG_au8DeviceIDModelName                                                                  
1     0000ec90  _MODBUSREG_au8DeviceIDProductCode                                                                
1     0000eca0  _MODBUSREG_au8DeviceIDProductName                                                                
1     0000ecb0  _MODBUSREG_au8DeviceIDUserApplicationName                                                        
1     0000ecc0  _MODBUSREG_au8DeviceIDUserReserve0                                                               
1     0000ecd0  _MODBUSREG_au8DeviceIDUserReserve1                                                               
1     0000ece0  _MODBUSREG_au8DeviceIDUserReserve2                                                               
1     0000ecf0  _MODBUSREG_au8DeviceIDVendorName                                                                 
1     0000ed00  _MODBUSREG_au8DeviceIDVendorUrl                                                                  
1     0000ed10  _MODBUSREG_au8ServerIDData                                                                       
1     0000ed20  _cpuTimer0IntCount                                                                               
1     0000ed21  _cpuTimer1IntCount                                                                               
1     0000ed22  _cpuTimer2IntCount                                                                               
1     0000ed23  _u16TimerMainPeriod                                                                              
1     0000ed24  _u16SecondPeriod                                                                                 
1     0000ed25  _u16SecondCounter                                                                                
1     0000ed26  _u16TimerMainISRCounter                                                                          
1     0000ed27  _TMR_u16FreeRunTimerPrescaller                                                                   
1     0000ed28  _hours                                                                                           
1     0000ed29  _minutes                                                                                         
1     0000ed2a  _seconds                                                                                         
1     0000ed2b  _second_Passed                                                                                   
1     0000ed2c  _pfCSMONFunction                                                                                 
1     0000ed2e  _pcm_nTxTodo                                                                                     
1     0000ed2f  _pcm_nRxTodoEcho                                                                                 
1     0000ed30  _pcm_nRxTodo                                                                                     
1     0000ed31  _pcm_nRxCheckSum                                                                                 
1     0000ed32  _u8UartIndex                                                                                     
1     0000ed34  _pcm_pTxBuff                                                                                     
1     0000ed36  _pcm_pRxBuff                                                                                     
1     0000ed3a  _CSMON_au32FileAutorization_FunctionAfterWriteFileRecord                                         
1     0000ed40  _CSMON_sDateTime                                                                                 
1     0000ed4c  _CSMON_sDateTimeApplication                                                                      
1     0000ed58  _CSMON_sDateTimeDefault                                                                          
1     0000ed66  _u32DeviceLSPCLKFreq                                                                             
1     0000ed68  _u32DeviceLSPCLKFreqRoundAndMinErrorBaud                                                         
1     0000ed6a  _HMDRV_u32SCIErrorPPM                                                                            
1     0000ed6c  _u32DeviceSYSCLKFreq                                                                             
1     0000ed6e  _CSMON_au8FileParameterCountElementsSizeTable                                                    
1     0000ed78  _pfDelayedFunction                                                                               
1     0000ed80  _CSMON_au8FileRTCElementsSizeTable                                                               
1     0000ed8a  _HMMODBUS_nFilePrimaryAddrWriteLast                                                              
1     0000ed94  _HMMOSBUS_nFileWriteAddrReadLast                                                                 
1     0000ed9e  _sHashKey                                                                                        
1     0000eda8  _FPGA_uDataLocal                                                                                 
1     0000edb2  _CSMON_au8FileParameterNumericElementsSizeTable                                                  
1     0000edbb  _CSMON_au8FileRecorderStatusElementsSizeTable                                                    
1     0000edbf  _DataChangedFlag                                                                                 
1     0000edc0  _pfDelayedFunction_u8                                                                            
1     0000edc8  _u32TimeDiffLast                                                                                 
1     0000edd0  _u32TimeDiffNow                                                                                  
1     0000edd8  _u32TimeDiffRead                                                                                 
1     0000ede0  _CSMON_au32FileParameterDefinitionsFileRecordElementsRealAddressTable                            
1     0000ede6  _CSMON_au32FileParameterDefinitionsFileRecordElementsSizeTable                                   
1     0000edec  _pBufferScope                                                                                    
1     0000edf2  _u32RecorderLastFreeCounter                                                                      
1     0000edf8  _u32RecorderMicroSec                                                                             
1     0000edfe  _CSMON_abFlagProcessPassed                                                                       
1     0000ee00  ___TI_enable_exit_profile_output                                                                 
1     0000ee02  ___TI_cleanup_ptr                                                                                
1     0000ee04  ___TI_dtors_ptr                                                                                  
1     0000ee06  _HMMODBUS_u32RegisterAddressInRamDummy                                                           
1     0000ee0a  _UARTRxBufferRDCount                                                                             
1     0000ee0e  _UARTRxBufferRDIndex                                                                             
1     0000ee12  _UARTRxBufferWRCount                                                                             
1     0000ee16  _UARTRxBufferWRIndex                                                                             
1     0000ee1a  _currentMsgPtr                                                                                   
1     0000ee1e  _u16TimerMainDelayedData                                                                         
1     0000ee22  _u16TimerMainFunctionDelay                                                                       
1     0000ee26  _u16TimerMainFunctionDelayCompare                                                                
1     0000ee2a  _u16TimerMainFunctionDelayCounter                                                                
1     0000ee2e  _CSMON_abFileAutorization_RecordStringData                                                       
1     0000ee31  _CSMON_au16FileAutorization_RecordOffsets                                                        
1     0000ee34  _CSMON_au32FileParameterDefinitionsFileRecordElementsRecordToRecordOffsetSizeBytesTable          
1     0000ee37  _CSMON_au8FileRecorderDataElementsSizeTableUsedLength                                            
1     0000ee3a  _CSMON_sFileProtocolVersion                                                                      
1     0000ee3d  _HMMODBUS_u32RegisterAddressDummy                                                                
1     0000ee40  _abRecorderJustStopped                                                                           
1     0000ee43  _abRecorderRunning                                                                               
1     0000ee46  _sScopeStatusParam                                                                               
1     0000ee49  _bUseSCIA_On_USB                                                                                 
1     0000ee4a  _MAIN_sDate                                                                                      
1     0000ee4c  _MAIN_sTime                                                                                      
1     0000ee4e  __lock                                                                                           
1     0000ee50  __unlock                                                                                         
1     0000ee52  _CSMON_au8FileParameterListElementsSizeTablePart2                                                
1     0000ee53  _CSMON_au8FileParameterListElementsSizeTablePart3                                                
1     0000ee54  _CSMON_au8FileScopeStatusElementsSizeTable                                                       
1     0000ee55  _HMMODBUS_wFlags                                                                                 
1     0000ee56  _HMMODBUS_wFlagsRxTx                                                                             
1     0000ee57  _pcm_wFlags                                                                                      
1     0000ee58  _pcm_wFlagsRxTx                                                                                  
1     00300000  _FPGA_uData                                                                                      
abs   00000062  _RamfuncsLoadSize                                                                                
abs   00000062  _RamfuncsRunSize                                                                                 
abs   00000380  __STACK_SIZE                                                                                     
abs   ffffffff  .text                                                                                            
abs   ffffffff  ___TI_pprof_out_hndl                                                                             
abs   ffffffff  ___TI_prof_data_size                                                                             
abs   ffffffff  ___TI_prof_data_start                                                                            
abs   ffffffff  ___binit__                                                                                       
abs   ffffffff  ___c_args__                                                                                      
abs   ffffffff  ___etext__                                                                                       
abs   ffffffff  ___pinit__                                                                                       
abs   ffffffff  ___text__                                                                                        
abs   ffffffff  binit                                                                                            
abs   ffffffff  etext                                                                                            
abs   ffffffff  pinit                                                                                            

[1136 symbols]


SYMBOL DEFINITIONS BY INPUT FILE 

================================================================================

main.obj

Run/Load            
Value     Binding   Name (Section)
--------  --------  ---------------
0009027c  local     $C$FL1 (.econst)
00090280  local     $C$FL2 (.econst)
00090284  local     $C$FL3 (.econst)
00090288  local     $C$FL4 (.econst)
0008594d  local     $C$L1 (.text)
00085af3  local     $C$L10 (.text)
00085bc8  local     $C$L11 (.text)
00085be1  local     $C$L12 (.text)
00085bf8  local     $C$L13 (.text)
00085c0d  local     $C$L14 (.text)
00085c1f  local     $C$L15 (.text)
00085c66  local     $C$L16 (.text)
00085c9d  local     $C$L17 (.text)
00085ccb  local     $C$L18 (.text)
00085d19  local     $C$L19 (.text)
00085958  local     $C$L2 (.text)
00085d26  local     $C$L20 (.text)
00085d2b  local     $C$L21 (.text)
00085d73  local     $C$L22 (.text)
00085da0  local     $C$L23 (.text)
00085dba  local     $C$L24 (.text)
00085dc3  local     $C$L25 (.text)
00085968  local     $C$L3 (.text)
00085a67  local     $C$L4 (.text)
00085a71  local     $C$L5 (.text)
00085a8a  local     $C$L6 (.text)
00085ace  local     $C$L7 (.text)
00085acf  local     $C$L8 (.text)
00085ad3  local     $C$L9 (.text)
00000000  local     .bss (.bss)
000821d1  local     .cinit (.cinit)
00000000  local     .cinit:_au8TestCharArray16 (.cinit:_au8TestCharArray16)
00000000  local     .cinit:_au8TestCharArray32 (.cinit:_au8TestCharArray32)
00000000  local     .cinit:_au8TestCharArray8 (.cinit:_au8TestCharArray8)
00000000  local     .data (.data)
0000e900  local     .ebss (.ebss)
00000000  local     .ebss:_au8TestCharArray16 (.ebss:_au8TestCharArray16)
00000000  local     .ebss:_au8TestCharArray32 (.ebss:_au8TestCharArray32)
00000000  local     .ebss:_au8TestCharArray8 (.ebss:_au8TestCharArray8)
0009027c  local     .econst (.econst)
000a0000  local     .econst:_asParameterList (.econst:_asParameterList)
00085941  local     .text (.text)
00085dd5  global    _CSMON_vGetDateTime (.text)
00085dc4  global    _CSMON_vSetDateTime (.text)
00085d08  global    _ControlProcess (.text)
0000e976  global    _EMIF_AUX_pu16CheckSumBackupInEmif (.ebss)
0000e974  global    _EMIF_AUX_pu16DateTimeBackupInEmif (.ebss)
0000e972  global    _EMIF_AUX_pu16ParamVerBackupInEmif (.ebss)
00085cdc  global    _ExternalParametersInitialization (.text)
0000e900  global    _MAIN_bDateTimeSet (.ebss)
0000e980  global    _MAIN_sDateTimeGet (.ebss)
0000e988  global    _MAIN_sDateTimeSet (.ebss)
00085a2e  global    _ParameterInitialization (.text)
0008596e  global    _RecordersInitialization (.text)
00085a06  global    _ScopesInitialization (.text)
0000e950  global    _aDummyDataTable (.ebss)
000a0000  global    _asParameterList (.econst:_asParameterList)
00000000  global    _au8TestCharArray16 (.ebss:_au8TestCharArray16)
00000000  global    _au8TestCharArray32 (.ebss:_au8TestCharArray32)
00000000  global    _au8TestCharArray8 (.ebss:_au8TestCharArray8)
0000e902  global    _bDummyReqstDevRunning (.ebss)
0000e901  global    _bDummyStatsDevRunning (.ebss)
0000e934  global    _bResetAllTimeMeasures (.ebss)
0000e935  global    _eResponseCode_CSMON_eInit (.ebss)
0000e936  global    _eResponseCode_CSMON_eProcess (.ebss)
0000e93c  global    _eResponseCode_CSMON_eSetFlagProcessPassed (.ebss)
0000e938  global    _eResponseCode_CSMON_eSetParameter (.ebss)
0000e939  global    _eResponseCode_CSMON_eSetRecorder (.ebss)
0000e93a  global    _eResponseCode_CSMON_eSetScope (.ebss)
0000e937  global    _eResponseCode_CSMON_eSetServerOnStatus (.ebss)
0000e93b  global    _eResponseCode_CSMON_eSetTimerPeriodISRFunctionRegister (.ebss)
00085cda  global    _eWriteParElement (.text)
0000e93d  global    _limit_count_params (.ebss)
00085af8  global    _main (.text)
0000e93e  global    _maximum_count_params (.ebss)
0000e94e  global    _pu16ModbusMessageCounter (.ebss)
0000e914  global    _s16DummyCurrentPhaseA (.ebss)
0000e90b  global    _s16DummyCurrentPhaseAIdle (.ebss)
0000e903  global    _s16DummyCurrentPhaseAStartup (.ebss)
0000e907  global    _s16DummyCurrentPhaseAStop (.ebss)
0000e915  global    _s16DummyCurrentPhaseB (.ebss)
0000e90c  global    _s16DummyCurrentPhaseBIdle (.ebss)
0000e904  global    _s16DummyCurrentPhaseBStartup (.ebss)
0000e908  global    _s16DummyCurrentPhaseBStop (.ebss)
0000e916  global    _s16DummyCurrentPhaseC (.ebss)
0000e90d  global    _s16DummyCurrentPhaseCIdle (.ebss)
0000e905  global    _s16DummyCurrentPhaseCStartup (.ebss)
0000e909  global    _s16DummyCurrentPhaseCStop (.ebss)
0000e926  global    _s16DummyData (.ebss)
0000e91a  global    _s16DummyDataTst (.ebss)
0000e918  global    _s16DummyIncrementLoop (.ebss)
0000e910  global    _s16DummyIncrementLoopA (.ebss)
0000e911  global    _s16DummyIncrementLoopB (.ebss)
0000e912  global    _s16DummyIncrementLoopC (.ebss)
0000e90f  global    _s16DummyIncrementLoopCDiff (.ebss)
0000e913  global    _s16DummyIncrementLoopV (.ebss)
0000e917  global    _s16DummyVoltageDCLink (.ebss)
0000e90e  global    _s16DummyVoltageDCLinkIdle (.ebss)
0000e906  global    _s16DummyVoltageDCLinkStartup (.ebss)
0000e90a  global    _s16DummyVoltageDCLinkStop (.ebss)
0000e91b  global    _s16ScaleDataTst (.ebss)
0000e942  global    _s32DummyCurrentPhaseA (.ebss)
0000e944  global    _s32DummyCurrentPhaseB (.ebss)
0000e946  global    _s32DummyCurrentPhaseC (.ebss)
0000e94a  global    _s32DummyIncrementLoop (.ebss)
0000e948  global    _s32DummyVoltageDCLink (.ebss)
0000e978  local     _t$1 (.ebss)
0000e933  global    _u16CountMaxParameterTest (.ebss)
0000e932  global    _u16CountSetParameterFail (.ebss)
0000e931  global    _u16CountSetParameterFree (.ebss)
0000e92c  global    _u16DelayCtrlLoopOld_100nsec (.ebss)
0000e92b  global    _u16DelayCtrlLoop_100nsec (.ebss)
0000e92e  global    _u16DelayMainLoopOld_usec (.ebss)
0000e92d  global    _u16DelayMainLoop_usec (.ebss)
0000e919  global    _u16DummyDataCnt (.ebss)
0000e940  global    _u16FreeRunningTimerPrescaller (.ebss)
0000e93f  global    _u16FreeRunningTimerTicksPerMicroSecond (.ebss)
0000e930  global    _u16PeriodControlOld_usec (.ebss)
0000e92f  global    _u16PeriodControl_usec (.ebss)
0000e91c  global    _u16TestData0 (.ebss)
0000e91d  global    _u16TestData1 (.ebss)
0000e91e  global    _u16TestData2 (.ebss)
0000e91f  global    _u16TestData3 (.ebss)
0000e920  global    _u16TestData4 (.ebss)
0000e921  global    _u16TestData5 (.ebss)
0000e922  global    _u16TestData6 (.ebss)
0000e923  global    _u16TestData7 (.ebss)
0000e924  global    _u16TestData8 (.ebss)
0000e925  global    _u16TestData9 (.ebss)
0000e927  global    _u16WatchdogPrescaler (.ebss)
0000e928  global    _u16WatchdogPrescalerOld (.ebss)
0000e929  global    _u16WatchdogPrescalerTime (.ebss)
0000e92a  global    _u16WatchdogPrescalerTimeOld (.ebss)
0000e952  global    _u32DelayCtrlLoop_Ticks (.ebss)
0000e954  global    _u32DelayMainLoop_Ticks (.ebss)
0000e94c  global    _u32DummyDataCnt (.ebss)
0000e970  global    _u32GetBaudError_PPM (.ebss)
0000e96e  global    _u32ParamTime_Ticks (.ebss)
0000e968  global    _u32TimeCSMON_ISR_Max_Ticks (.ebss)
0000e966  global    _u32TimeCSMON_ISR_Ticks (.ebss)
0000e96c  global    _u32TimeCtrlLoopMax_Ticks (.ebss)
0000e96a  global    _u32TimeCtrlLoop_Ticks (.ebss)
0000e95e  global    _u32TimeMainLoopCycle_Bgn_Ticks (.ebss)
0000e960  global    _u32TimeMainLoopCycle_End_Ticks (.ebss)
0000e964  global    _u32TimeMainLoopCycle_Max_Ticks (.ebss)
0000e962  global    _u32TimeMainLoopCycle_Now_Ticks (.ebss)
0000e956  global    _u32TimeMainLoopProcessCSMON_Bgn_Ticks (.ebss)
0000e958  global    _u32TimeMainLoopProcessCSMON_End_Ticks (.ebss)
0000e95c  global    _u32TimeMainLoopProcessCSMON_Max_Ticks (.ebss)
0000e95a  global    _u32TimeMainLoopProcessCSMON_Now_Ticks (.ebss)
0000e97a  global    _u64DummyDataCnt (.ebss)
00085952  global    _vGetWatchdogPrescaler (.text)
00085941  global    _vSetWatchdogPrescalerTimeDiv (.text)


================================================================================

emif_driver.obj

Run/Load            
Value     Binding   Name (Section)
--------  --------  ---------------
000865be  local     $C$L1 (.text)
000865d9  local     $C$L2 (.text)
000865da  local     $C$L3 (.text)
000865e7  local     $C$L4 (.text)
0008666d  local     $C$L5 (.text)
0008666f  local     $C$L6 (.text)
000866c2  local     $C$L7 (.text)
000866cf  local     $C$L8 (.text)
00000000  local     .bss (.bss)
000826dc  local     .cinit (.cinit)
00000000  local     .data (.data)
0000ec5e  local     .ebss (.ebss)
0008649a  local     .text (.text)
000866d6  global    _EMIF_DRV_vInit (.text)
0000ec5e  global    _eAsyncDataWidth (.ebss)
0000ec6e  global    _sEMIFParam (.ebss)
0000ec60  global    _sEMIFParamFPGA (.ebss)
000865ee  global    _setupEMIF1PinmuxAsync16BitBoardSCC (.text)
0008649a  global    _setupEMIF1PinmuxAsync32BitBoardSCC (.text)
0000ec5f  global    _u16UseA19AsBA1 (.ebss)


================================================================================

fpga_driver.obj

Run/Load            
Value     Binding   Name (Section)
--------  --------  ---------------
00000000  local     .bss (.bss)
00000000  local     .data (.data)
0000eda8  local     .ebss (.ebss)
00300000  local     .fpgaram (.fpgaram)
000897ca  local     .text (.text)
000897e4  global    _FPGA_DRV_vGetData (.text)
000897f7  global    _FPGA_DRV_vGetDateTime (.text)
000897ca  global    _FPGA_DRV_vSetDateTime (.text)
00300000  global    _FPGA_uData (.fpgaram)
0000eda8  global    _FPGA_uDataLocal (.ebss)


================================================================================

adc.obj

Run/Load            
Value     Binding   Name (Section)
--------  --------  ---------------
0000004c  local     $C$L1 (.text)
00000058  local     $C$L2 (.text)
00000064  local     $C$L3 (.text)
0000006f  local     $C$L4 (.text)
00000071  local     $C$L5 (.text)
00000072  local     $C$L6 (.text)
0000007c  local     $C$L7 (.text)
0000008d  local     $C$L8 (.text)
000000a9  local     $C$L9 (.text)
00000000  local     .bss (.bss)
00000000  local     .data (.data)
00000000  local     .text (.text)
00000028  global    _ADC_setMode (.text)
00000000  global    _ADC_setPPBTripLimits (.text)


================================================================================

asysctl.obj

Run/Load            
Value     Binding   Name (Section)
--------  --------  ---------------
00000000  local     .bss (.bss)
00000000  local     .data (.data)
00000000  local     .text (.text)


================================================================================

can.obj

Run/Load            
Value     Binding   Name (Section)
--------  --------  ---------------
0000000e  local     $C$L1 (.text)
000000e8  local     $C$L10 (.text)
000000e9  local     $C$L11 (.text)
000000f1  local     $C$L12 (.text)
000000f2  local     $C$L13 (.text)
00000108  local     $C$L14 (.text)
00000111  local     $C$L15 (.text)
00000117  local     $C$L16 (.text)
0000012a  local     $C$L17 (.text)
00000140  local     $C$L18 (.text)
00000141  local     $C$L19 (.text)
0000001c  local     $C$L2 (.text)
0000014f  local     $C$L20 (.text)
00000157  local     $C$L21 (.text)
00000168  local     $C$L22 (.text)
00000180  local     $C$L23 (.text)
00000183  local     $C$L24 (.text)
0000018c  local     $C$L25 (.text)
000001a0  local     $C$L26 (.text)
000001bb  local     $C$L27 (.text)
000001c6  local     $C$L28 (.text)
000001c9  local     $C$L29 (.text)
0000001e  local     $C$L3 (.text)
00000021  local     $C$L4 (.text)
0000002f  local     $C$L5 (.text)
0000003b  local     $C$L6 (.text)
00000049  local     $C$L7 (.text)
0000006a  local     $C$L8 (.text)
000000cf  local     $C$L9 (.text)
00000000  local     .bss (.bss)
00000000  local     .data (.data)
00000000  local     .text (.text)
000001b2  global    _CAN_clearInterruptStatus (.text)
0000019c  global    _CAN_clearMessage (.text)
00000185  global    _CAN_initModule (.text)
0000014a  local     _CAN_readDataReg (.text)
00000158  global    _CAN_readMessage (.text)
00000118  global    _CAN_sendMessage (.text)
000000d2  global    _CAN_setBitRate (.text)
0000009e  global    _CAN_setBitTiming (.text)
00000000  global    _CAN_setupMessageObject (.text)
00000102  local     _CAN_writeDataReg (.text)


================================================================================

cla.obj

Run/Load            
Value     Binding   Name (Section)
--------  --------  ---------------
0000000d  local     $C$L1 (.text)
0000000f  local     $C$L2 (.text)
00000000  local     .bss (.bss)
00000000  local     .data (.data)
00000000  local     .text (.text)
00000000  global    _CLA_setTriggerSource (.text)


================================================================================

cmpss.obj

Run/Load            
Value     Binding   Name (Section)
--------  --------  ---------------
00000014  local     $C$L1 (.text)
00000016  local     $C$L2 (.text)
00000029  local     $C$L3 (.text)
0000002b  local     $C$L4 (.text)
00000030  local     $C$L5 (.text)
00000032  local     $C$L6 (.text)
00000000  local     .bss (.bss)
00000000  local     .data (.data)
00000000  local     .text (.text)
0000004b  global    _CMPSS_configFilterHigh (.text)
00000034  global    _CMPSS_configFilterLow (.text)
0000001f  global    _CMPSS_configLatchOnPWMSYNC (.text)
00000000  global    _CMPSS_configRamp (.text)


================================================================================

cputimer.obj

Run/Load            
Value     Binding   Name (Section)
--------  --------  ---------------
00000000  local     .bss (.bss)
00000000  local     .data (.data)
0008acd0  local     .text (.text)
0008acd0  global    _CPUTimer_setEmulationMode (.text)


================================================================================

dac.obj

Run/Load            
Value     Binding   Name (Section)
--------  --------  ---------------
00000000  local     .bss (.bss)
00000000  local     .data (.data)
00000000  local     .text (.text)
00000000  global    _DAC_tuneOffsetTrim (.text)


================================================================================

dcsm.obj

Run/Load            
Value     Binding   Name (Section)
--------  --------  ---------------
0000000c  local     $C$L1 (.text)
000000a5  local     $C$L10 (.text)
000000c1  local     $C$L11 (.text)
000000d2  local     $C$L12 (.text)
00000010  local     $C$L2 (.text)
0000001d  local     $C$L3 (.text)
00000037  local     $C$L4 (.text)
00000045  local     $C$L5 (.text)
00000049  local     $C$L6 (.text)
00000056  local     $C$L7 (.text)
00000070  local     $C$L8 (.text)
00000094  local     $C$L9 (.text)
00000000  local     .bss (.bss)
00000000  local     .data (.data)
00000000  local     .text (.text)
000000d9  global    _DCSM_claimZoneSemaphore (.text)
000000c3  global    _DCSM_getZone1FlashEXEStatus (.text)
000000ac  global    _DCSM_getZone1RAMEXEStatus (.text)
00000096  global    _DCSM_getZone2FlashEXEStatus (.text)
0000007f  global    _DCSM_getZone2RAMEXEStatus (.text)
00000072  global    _DCSM_releaseZoneSemaphore (.text)
00000039  global    _DCSM_unlockZone1CSM (.text)
00000000  global    _DCSM_unlockZone2CSM (.text)


================================================================================

dma.obj

Run/Load            
Value     Binding   Name (Section)
--------  --------  ---------------
00000037  local     $C$L1 (.text)
00000052  local     $C$L2 (.text)
00000061  local     $C$L3 (.text)
00000075  local     $C$L4 (.text)
00000087  local     $C$L5 (.text)
0000009a  local     $C$L6 (.text)
000000a8  local     $C$L7 (.text)
00000000  local     .bss (.bss)
00000000  local     .data (.data)
00000000  local     .text (.text)
000000b8  global    _DMA_configAddresses (.text)
000000ae  global    _DMA_configBurst (.text)
00000021  global    _DMA_configMode (.text)
00000013  global    _DMA_configTransfer (.text)
00000000  global    _DMA_configWrap (.text)


================================================================================

ecap.obj

Run/Load            
Value     Binding   Name (Section)
--------  --------  ---------------
00000000  local     .bss (.bss)
00000000  local     .data (.data)
00000000  local     .text (.text)
00000000  global    _ECAP_setEmulationMode (.text)


================================================================================

emif.obj

Run/Load            
Value     Binding   Name (Section)
--------  --------  ---------------
00000000  local     .bss (.bss)
00000000  local     .data (.data)
00000000  local     .text (.text)


================================================================================

epwm.obj

Run/Load            
Value     Binding   Name (Section)
--------  --------  ---------------
00000000  local     .bss (.bss)
00000000  local     .data (.data)
00000000  local     .text (.text)
00000000  global    _EPWM_setEmulationMode (.text)


================================================================================

eqep.obj

Run/Load            
Value     Binding   Name (Section)
--------  --------  ---------------
0000000c  local     $C$L1 (.text)
00000010  local     $C$L2 (.text)
00000018  local     $C$L3 (.text)
0000001c  local     $C$L4 (.text)
00000024  local     $C$L5 (.text)
00000028  local     $C$L6 (.text)
0000002f  local     $C$L7 (.text)
00000033  local     $C$L8 (.text)
00000000  local     .bss (.bss)
00000000  local     .data (.data)
00000000  local     .text (.text)
00000035  global    _EQEP_setCompareConfig (.text)
00000000  global    _EQEP_setInputPolarity (.text)


================================================================================

flash.obj

Run/Load             
Value      Binding   Name (Section)
--------   --------  ---------------
00008000   local     .TI.ramfunc (.TI.ramfunc)
 00086000            
00000000   local     .bss (.bss)
00000000   local     .data (.data)
00000000   local     .text (.text)
00008018   global    _Flash_initModule (.TI.ramfunc)
 00086018            
00008000   global    _Flash_powerDown (.TI.ramfunc)
 00086000            


================================================================================

gpio.obj

Run/Load            
Value     Binding   Name (Section)
--------  --------  ---------------
00086bec  local     $C$L1 (.text)
00086c49  local     $C$L10 (.text)
00086c4b  local     $C$L11 (.text)
00086c4c  local     $C$L12 (.text)
00086c53  local     $C$L13 (.text)
00086c6c  local     $C$L14 (.text)
00086c72  local     $C$L15 (.text)
00086c8d  local     $C$L16 (.text)
00086c93  local     $C$L17 (.text)
00086cca  local     $C$L18 (.text)
00086ccb  local     $C$L19 (.text)
00086bf2  local     $C$L2 (.text)
00086cd6  local     $C$L20 (.text)
00086cdf  local     $C$L21 (.text)
00086bfc  local     $C$L3 (.text)
00086c02  local     $C$L4 (.text)
00086c0b  local     $C$L5 (.text)
00086c10  local     $C$L6 (.text)
00086c3f  local     $C$L7 (.text)
00086c45  local     $C$L8 (.text)
00086c47  local     $C$L9 (.text)
00000000  local     .bss (.bss)
00000000  local     .data (.data)
00086b66  local     .text (.text)
00086ce1  global    _GPIO_getDirectionMode (.text)
00086cb5  global    _GPIO_getPadConfig (.text)
00086c95  global    _GPIO_getQualificationMode (.text)
00086c74  global    _GPIO_setAnalogMode (.text)
00086c54  global    _GPIO_setDirectionMode (.text)
00086c34  global    _GPIO_setInterruptPin (.text)
00086c12  global    _GPIO_setMasterCore (.text)
00086bd3  global    _GPIO_setPadConfig (.text)
00086ba3  global    _GPIO_setPinConfig (.text)
00086b81  global    _GPIO_setQualificationMode (.text)
00086b66  global    _GPIO_setQualificationPeriod (.text)


================================================================================

hrpwm.obj

Run/Load            
Value     Binding   Name (Section)
--------  --------  ---------------
00000000  local     .bss (.bss)
00000000  local     .data (.data)
00000000  local     .text (.text)


================================================================================

i2c.obj

Run/Load            
Value     Binding   Name (Section)
--------  --------  ---------------
00088af2  local     $C$L1 (.text)
00088b41  local     $C$L10 (.text)
00088b4e  local     $C$L11 (.text)
00088b55  local     $C$L12 (.text)
00088b5a  local     $C$L13 (.text)
00088b66  local     $C$L14 (.text)
00088b6b  local     $C$L15 (.text)
00088af4  local     $C$L2 (.text)
00088af5  local     $C$L3 (.text)
00088b14  local     $C$L4 (.text)
00088b18  local     $C$L5 (.text)
00088b26  local     $C$L6 (.text)
00088b2a  local     $C$L7 (.text)
00088b35  local     $C$L8 (.text)
00088b3c  local     $C$L9 (.text)
00000000  local     .bss (.bss)
00000000  local     .data (.data)
00088ad2  local     .text (.text)
00088b5b  global    _I2C_clearInterruptStatus (.text)
00088b42  global    _I2C_disableInterrupt (.text)
00088b2b  global    _I2C_enableInterrupt (.text)
00088b1e  global    _I2C_getInterruptStatus (.text)
00088ad2  global    _I2C_initMaster (.text)


================================================================================

interrupt.obj

Run/Load            
Value     Binding   Name (Section)
--------  --------  ---------------
000873fb  local     $C$L1 (.text)
000874ae  local     $C$L10 (.text)
000874c4  local     $C$L11 (.text)
000874d4  local     $C$L12 (.text)
000874d7  local     $C$L13 (.text)
000874da  local     $C$L14 (.text)
000874dd  local     $C$L15 (.text)
000874e0  local     $C$L16 (.text)
000874e3  local     $C$L17 (.text)
000874e6  local     $C$L18 (.text)
000874e9  local     $C$L19 (.text)
00087404  local     $C$L2 (.text)
000874ec  local     $C$L20 (.text)
000874ef  local     $C$L21 (.text)
000874f2  local     $C$L22 (.text)
000874f5  local     $C$L23 (.text)
000874f8  local     $C$L24 (.text)
000874fb  local     $C$L25 (.text)
000874fe  local     $C$L26 (.text)
00087501  local     $C$L27 (.text)
00087524  local     $C$L28 (.text)
00087545  local     $C$L29 (.text)
0008740d  local     $C$L3 (.text)
0008754b  local     $C$L30 (.text)
0008754f  local     $C$L31 (.text)
0008745b  local     $C$L4 (.text)
0008746b  local     $C$L5 (.text)
00087472  local     $C$L6 (.text)
00087489  local     $C$L7 (.text)
0008748f  local     $C$L8 (.text)
000874a7  local     $C$L9 (.text)
00000000  local     .bss (.bss)
00000000  local     .data (.data)
000873fa  local     .text (.text)
00087490  local     _Interrupt_clearIFR (.text)
0008754c  local     _Interrupt_defaultHandler (.text)
00087504  global    _Interrupt_disable (.text)
0008745c  global    _Interrupt_enable (.text)
0008745a  local     _Interrupt_illegalOperationHandler (.text)
00087419  global    _Interrupt_initModule (.text)
000873fc  global    _Interrupt_initVectorTable (.text)
000873fa  local     _Interrupt_nmiHandler (.text)


================================================================================

mcbsp.obj

Run/Load            
Value     Binding   Name (Section)
--------  --------  ---------------
00000002  local     $C$L1 (.text)
00000073  local     $C$L10 (.text)
00000098  local     $C$L11 (.text)
0000009a  local     $C$L12 (.text)
0000009b  local     $C$L13 (.text)
000000c0  local     $C$L14 (.text)
000000c2  local     $C$L15 (.text)
000000c3  local     $C$L16 (.text)
000000e9  local     $C$L17 (.text)
000000eb  local     $C$L18 (.text)
000000ec  local     $C$L19 (.text)
00000009  local     $C$L2 (.text)
00000117  local     $C$L20 (.text)
0000011e  local     $C$L21 (.text)
00000137  local     $C$L22 (.text)
0000013d  local     $C$L23 (.text)
00000144  local     $C$L24 (.text)
0000014b  local     $C$L25 (.text)
0000014f  local     $C$L26 (.text)
00000160  local     $C$L27 (.text)
00000166  local     $C$L28 (.text)
0000016d  local     $C$L29 (.text)
00000018  local     $C$L3 (.text)
00000175  local     $C$L30 (.text)
0000017a  local     $C$L31 (.text)
0000017f  local     $C$L32 (.text)
00000184  local     $C$L33 (.text)
00000187  local     $C$L34 (.text)
00000192  local     $C$L35 (.text)
000001bc  local     $C$L36 (.text)
000001c8  local     $C$L37 (.text)
000001cb  local     $C$L38 (.text)
000001d7  local     $C$L39 (.text)
0000001c  local     $C$L4 (.text)
000001d9  local     $C$L40 (.text)
000001f3  local     $C$L41 (.text)
00000206  local     $C$L42 (.text)
00000208  local     $C$L43 (.text)
00000240  local     $C$L44 (.text)
00000244  local     $C$L45 (.text)
0000024a  local     $C$L46 (.text)
00000262  local     $C$L47 (.text)
0000026b  local     $C$L48 (.text)
0000026d  local     $C$L49 (.text)
00000032  local     $C$L5 (.text)
000002aa  local     $C$L50 (.text)
000002be  local     $C$L51 (.text)
000002c7  local     $C$L52 (.text)
000002c9  local     $C$L53 (.text)
00000310  local     $C$L54 (.text)
00000336  local     $C$L55 (.text)
0000033d  local     $C$L56 (.text)
00000356  local     $C$L57 (.text)
0000035c  local     $C$L58 (.text)
00000363  local     $C$L59 (.text)
00000042  local     $C$L6 (.text)
0000036a  local     $C$L60 (.text)
0000037b  local     $C$L61 (.text)
00000381  local     $C$L62 (.text)
00000388  local     $C$L63 (.text)
00000390  local     $C$L64 (.text)
00000395  local     $C$L65 (.text)
0000039a  local     $C$L66 (.text)
0000039f  local     $C$L67 (.text)
000003a2  local     $C$L68 (.text)
000003ad  local     $C$L69 (.text)
0000004e  local     $C$L7 (.text)
000003cd  local     $C$L70 (.text)
000003d9  local     $C$L71 (.text)
000003db  local     $C$L72 (.text)
000003e6  local     $C$L73 (.text)
000003e8  local     $C$L74 (.text)
000003fe  local     $C$L75 (.text)
0000043c  local     $C$L76 (.text)
00000442  local     $C$L77 (.text)
00000070  local     $C$L8 (.text)
00000072  local     $C$L9 (.text)
00000000  local     .bss (.bss)
00000000  local     .data (.data)
00000000  local     .text (.text)
00000414  global    _McBSP_configureRxClock (.text)
000003dd  global    _McBSP_configureRxDataFormat (.text)
000003b3  global    _McBSP_configureRxFrameSync (.text)
00000314  global    _McBSP_configureRxMultichannel (.text)
000002ae  global    _McBSP_configureSPIMasterMode (.text)
00000252  global    _McBSP_configureSPISlaveMode (.text)
00000211  global    _McBSP_configureTxClock (.text)
000001cd  global    _McBSP_configureTxDataFormat (.text)
00000198  global    _McBSP_configureTxFrameSync (.text)
000000f5  global    _McBSP_configureTxMultichannel (.text)
000000cc  global    _McBSP_disableRxChannel (.text)
000000a3  global    _McBSP_disableTxChannel (.text)
0000007b  global    _McBSP_enableRxChannel (.text)
00000053  global    _McBSP_enableTxChannel (.text)
0000004d  global    _McBSP_receive16BitDataBlocking (.text)
00000049  global    _McBSP_receive16BitDataNonBlocking (.text)
00000041  global    _McBSP_receive32BitDataBlocking (.text)
0000003b  global    _McBSP_receive32BitDataNonBlocking (.text)
00000023  global    _McBSP_setRxDataSize (.text)
0000000d  global    _McBSP_setTxDataSize (.text)
00000008  global    _McBSP_transmit16BitDataBlocking (.text)
00000450  global    _McBSP_transmit16BitDataNonBlocking (.text)
00000000  global    _McBSP_transmit32BitDataBlocking (.text)
0000044a  global    _McBSP_transmit32BitDataNonBlocking (.text)
00000450  local     _McBSP_write16bitData (.text)
0000044a  local     _McBSP_write32bitData (.text)


================================================================================

memcfg.obj

Run/Load            
Value     Binding   Name (Section)
--------  --------  ---------------
00000017  local     $C$L1 (.text)
000000a1  local     $C$L10 (.text)
000000a6  local     $C$L11 (.text)
000000aa  local     $C$L12 (.text)
000000b2  local     $C$L13 (.text)
000000bf  local     $C$L14 (.text)
00000100  local     $C$L15 (.text)
00000123  local     $C$L16 (.text)
00000126  local     $C$L17 (.text)
00000128  local     $C$L18 (.text)
00000133  local     $C$L19 (.text)
00000029  local     $C$L2 (.text)
0000013c  local     $C$L20 (.text)
00000174  local     $C$L21 (.text)
00000199  local     $C$L22 (.text)
0000019f  local     $C$L23 (.text)
000001b8  local     $C$L24 (.text)
000001c9  local     $C$L25 (.text)
000001cc  local     $C$L26 (.text)
000001cf  local     $C$L27 (.text)
000001d1  local     $C$L28 (.text)
000001d5  local     $C$L29 (.text)
0000002c  local     $C$L3 (.text)
000001ec  local     $C$L30 (.text)
000001f5  local     $C$L31 (.text)
00000209  local     $C$L32 (.text)
0000020c  local     $C$L33 (.text)
0000020f  local     $C$L34 (.text)
00000212  local     $C$L35 (.text)
00000214  local     $C$L36 (.text)
00000216  local     $C$L37 (.text)
00000218  local     $C$L38 (.text)
00000223  local     $C$L39 (.text)
0000002f  local     $C$L4 (.text)
00000229  local     $C$L40 (.text)
0000022d  local     $C$L41 (.text)
00000265  local     $C$L42 (.text)
0000026e  local     $C$L43 (.text)
000002a6  local     $C$L44 (.text)
000002bb  local     $C$L45 (.text)
000002c4  local     $C$L46 (.text)
000002e3  local     $C$L47 (.text)
000002e5  local     $C$L48 (.text)
000002e8  local     $C$L49 (.text)
00000031  local     $C$L5 (.text)
000002eb  local     $C$L50 (.text)
000002ee  local     $C$L51 (.text)
000002f0  local     $C$L52 (.text)
000002f1  local     $C$L53 (.text)
00000316  local     $C$L54 (.text)
00000327  local     $C$L55 (.text)
0000032a  local     $C$L56 (.text)
0000032d  local     $C$L57 (.text)
0000032f  local     $C$L58 (.text)
00000333  local     $C$L59 (.text)
00000039  local     $C$L6 (.text)
00000044  local     $C$L7 (.text)
0000007c  local     $C$L8 (.text)
0000009c  local     $C$L9 (.text)
00000000  local     .bss (.bss)
00000000  local     .data (.data)
00000000  local     .text (.text)
000002ff  global    _MemCfg_commitConfig (.text)
000002fb  global    _MemCfg_getCorrErrorAddress (.text)
000002a8  global    _MemCfg_getInitStatus (.text)
00000267  global    _MemCfg_getUncorrErrorAddress (.text)
0000021a  global    _MemCfg_getViolationAddress (.text)
000001d7  global    _MemCfg_initSections (.text)
000001a1  global    _MemCfg_lockConfig (.text)
00000187  global    _MemCfg_setGSRAMMasterSel (.text)
00000135  global    _MemCfg_setLSRAMMasterSel (.text)
000000b4  global    _MemCfg_setProtection (.text)
0000003b  global    _MemCfg_setTestMode (.text)
00000000  global    _MemCfg_unlockConfig (.text)


================================================================================

sci.obj

Run/Load            
Value     Binding   Name (Section)
--------  --------  ---------------
000881b9  local     $C$L1 (.text)
0008821a  local     $C$L10 (.text)
0008821d  local     $C$L11 (.text)
00088221  local     $C$L12 (.text)
00088222  local     $C$L13 (.text)
00088226  local     $C$L14 (.text)
0008822a  local     $C$L15 (.text)
0008822d  local     $C$L16 (.text)
00088230  local     $C$L17 (.text)
00088233  local     $C$L18 (.text)
0008823a  local     $C$L19 (.text)
000881c1  local     $C$L2 (.text)
0008823e  local     $C$L20 (.text)
00088242  local     $C$L21 (.text)
00088248  local     $C$L22 (.text)
0008824d  local     $C$L23 (.text)
00088254  local     $C$L24 (.text)
00088258  local     $C$L25 (.text)
0008825c  local     $C$L26 (.text)
00088262  local     $C$L27 (.text)
00088267  local     $C$L28 (.text)
00088274  local     $C$L29 (.text)
000881c5  local     $C$L3 (.text)
00088278  local     $C$L30 (.text)
0008827e  local     $C$L31 (.text)
00088283  local     $C$L32 (.text)
000881d0  local     $C$L4 (.text)
000881fe  local     $C$L5 (.text)
00088206  local     $C$L6 (.text)
00088209  local     $C$L7 (.text)
00088213  local     $C$L8 (.text)
00088219  local     $C$L9 (.text)
00000000  local     .bss (.bss)
00000000  local     .data (.data)
000881af  local     .text (.text)
00088268  global    _SCI_clearInterruptStatus (.text)
0008824e  global    _SCI_disableInterrupt (.text)
00088234  global    _SCI_enableInterrupt (.text)
00088214  global    _SCI_getInterruptStatus (.text)
000881f4  global    _SCI_readCharArray (.text)
000881d1  global    _SCI_setConfig (.text)
000881af  global    _SCI_writeCharArray (.text)


================================================================================

sdfm.obj

Run/Load            
Value     Binding   Name (Section)
--------  --------  ---------------
00000025  local     $C$L1 (.text)
0000002e  local     $C$L2 (.text)
00000045  local     $C$L3 (.text)
00000000  local     .bss (.bss)
00000000  local     .data (.data)
00000000  local     .text (.text)
00000046  global    _SDFM_configComparator (.text)
00000000  global    _SDFM_configDataFilter (.text)


================================================================================

spi.obj

Run/Load            
Value     Binding   Name (Section)
--------  --------  ---------------
0000002f  local     $C$L1 (.text)
00000057  local     $C$L10 (.text)
0000005e  local     $C$L11 (.text)
00000062  local     $C$L12 (.text)
00000068  local     $C$L13 (.text)
0000006f  local     $C$L14 (.text)
00000078  local     $C$L15 (.text)
0000007c  local     $C$L16 (.text)
00000082  local     $C$L17 (.text)
00000088  local     $C$L18 (.text)
0000008d  local     $C$L19 (.text)
00000030  local     $C$L2 (.text)
00000033  local     $C$L3 (.text)
00000037  local     $C$L4 (.text)
0000003b  local     $C$L5 (.text)
0000003f  local     $C$L6 (.text)
00000046  local     $C$L7 (.text)
0000004a  local     $C$L8 (.text)
00000050  local     $C$L9 (.text)
00000000  local     .bss (.bss)
00000000  local     .data (.data)
00000000  local     .text (.text)
00000070  global    _SPI_clearInterruptStatus (.text)
00000058  global    _SPI_disableInterrupt (.text)
00000040  global    _SPI_enableInterrupt (.text)
0000002a  global    _SPI_getInterruptStatus (.text)
0000001f  global    _SPI_setBaudRate (.text)
00000000  global    _SPI_setConfig (.text)


================================================================================

sysctl.obj

Run/Load             
Value      Binding   Name (Section)
--------   --------  ---------------
0008607d   local     $C$L1 (.text)
000860f2   local     $C$L10 (.text)
00086121   local     $C$L11 (.text)
00086180   local     $C$L12 (.text)
0008618b   local     $C$L13 (.text)
00086193   local     $C$L14 (.text)
000861d6   local     $C$L15 (.text)
000861de   local     $C$L16 (.text)
0008620c   local     $C$L17 (.text)
0008620f   local     $C$L18 (.text)
00086238   local     $C$L19 (.text)
0008608a   local     $C$L2 (.text)
0008623c   local     $C$L20 (.text)
00086258   local     $C$L21 (.text)
0008625b   local     $C$L22 (.text)
00086268   local     $C$L23 (.text)
00086295   local     $C$L24 (.text)
000862a2   local     $C$L25 (.text)
000862aa   local     $C$L26 (.text)
000862f6   local     $C$L27 (.text)
0008630b   local     $C$L28 (.text)
00086321   local     $C$L29 (.text)
00086092   local     $C$L3 (.text)
00086344   local     $C$L30 (.text)
0008634c   local     $C$L31 (.text)
0008635c   local     $C$L32 (.text)
00086377   local     $C$L33 (.text)
00086380   local     $C$L34 (.text)
00086384   local     $C$L35 (.text)
000863a7   local     $C$L36 (.text)
000863b6   local     $C$L37 (.text)
000863d4   local     $C$L38 (.text)
000863d8   local     $C$L39 (.text)
00086094   local     $C$L4 (.text)
000863f3   local     $C$L40 (.text)
00086404   local     $C$L41 (.text)
00086408   local     $C$L42 (.text)
0008641d   local     $C$L43 (.text)
0008642c   local     $C$L44 (.text)
00086432   local     $C$L45 (.text)
00086434   local     $C$L46 (.text)
00086439   local     $C$L47 (.text)
0008643b   local     $C$L48 (.text)
0008643d   local     $C$L49 (.text)
000860bc   local     $C$L5 (.text)
0008643f   local     $C$L50 (.text)
00086445   local     $C$L51 (.text)
00086449   local     $C$L52 (.text)
0008644c   local     $C$L53 (.text)
0008644f   local     $C$L54 (.text)
00086455   local     $C$L55 (.text)
0008645c   local     $C$L56 (.text)
00086461   local     $C$L57 (.text)
00086470   local     $C$L58 (.text)
00086471   local     $C$L59 (.text)
000860cf   local     $C$L6 (.text)
0008648c   local     $C$L60 (.text)
000860dc   local     $C$L7 (.text)
000860e0   local     $C$L8 (.text)
000860eb   local     $C$L9 (.text)
0000805e   local     .TI.ramfunc (.TI.ramfunc)
 0008605e            
00000000   local     .bss (.bss)
00000000   local     .data (.data)
00086064   local     .text (.text)
0000805e   global    _SysCtl_delay (.TI.ramfunc)
 0008605e            
00086463   global    _SysCtl_getAuxClock (.text)
000863c4   global    _SysCtl_getClock (.text)
0008641f   global    _SysCtl_getDeviceParametric (.text)
0008640a   global    _SysCtl_getLowSpeedClock (.text)
00086064   global    _SysCtl_selectOscSource (.text)
0008626d   global    _SysCtl_setAuxClock (.text)
00086096   global    _SysCtl_setClock (.text)


================================================================================

upp.obj

Run/Load            
Value     Binding   Name (Section)
--------  --------  ---------------
0000000c  local     $C$L1 (.text)
0000005e  local     $C$L10 (.text)
00000068  local     $C$L11 (.text)
00000069  local     $C$L12 (.text)
00000072  local     $C$L13 (.text)
00000073  local     $C$L14 (.text)
0000007f  local     $C$L15 (.text)
00000082  local     $C$L16 (.text)
00000015  local     $C$L2 (.text)
0000001f  local     $C$L3 (.text)
00000026  local     $C$L4 (.text)
00000034  local     $C$L5 (.text)
00000039  local     $C$L6 (.text)
0000004d  local     $C$L7 (.text)
00000056  local     $C$L8 (.text)
0000005d  local     $C$L9 (.text)
00000000  local     .bss (.bss)
00000000  local     .data (.data)
00000000  local     .text (.text)
00000077  global    _UPP_getDMAChannelStatus (.text)
0000006c  global    _UPP_getDMAFIFOWatermark (.text)
00000062  global    _UPP_isDescriptorActive (.text)
00000057  global    _UPP_isDescriptorPending (.text)
00000041  global    _UPP_readRxMsgRAM (.text)
00000029  global    _UPP_setDMADescriptor (.text)
00000016  global    _UPP_setDMAReadThreshold (.text)
00000000  global    _UPP_writeTxMsgRAM (.text)


================================================================================

version.obj

Run/Load            
Value     Binding   Name (Section)
--------  --------  ---------------
00000000  local     .bss (.bss)
00000000  local     .data (.data)
00000000  local     .text (.text)
00000000  global    _Version_getLibVersion (.text)


================================================================================

xbar.obj

Run/Load            
Value     Binding   Name (Section)
--------  --------  ---------------
0000005a  local     $C$L1 (.text)
0000005c  local     $C$L2 (.text)
0000005d  local     $C$L3 (.text)
00000083  local     $C$L4 (.text)
00000085  local     $C$L5 (.text)
00000087  local     $C$L6 (.text)
00000088  local     $C$L7 (.text)
00000000  local     .bss (.bss)
00000000  local     .data (.data)
00000000  local     .text (.text)
00000072  global    _XBAR_clearInputFlag (.text)
0000004a  global    _XBAR_getInputFlagStatus (.text)
00000025  global    _XBAR_setEPWMMuxConfig (.text)
00000000  global    _XBAR_setOutputMuxConfig (.text)


================================================================================

<linker>

<< No Symbols Defined >>


================================================================================

CSMON_C28xx.lib : device.obj

Run/Load            
Value     Binding   Name (Section)
--------  --------  ---------------
00000000  local     $C$L1 (.text:_Example_done)
0008a939  local     $C$L2 (.text:_Device_enableUnbondedGPIOPullups)
0008a93b  local     $C$L3 (.text:_Device_enableUnbondedGPIOPullups)
00000000  local     .bss (.bss)
000827c0  local     .cinit (.cinit)
00000000  local     .data (.data)
0000e83a  local     .ebss (.ebss)
00000000  local     .text (.text)
00087ea1  local     .text:_Device_enableAllPeripherals (.text:_Device_enableAllPeripherals)
0008a92c  local     .text:_Device_enableUnbondedGPIOPullups (.text:_Device_enableUnbondedGPIOPullups)
0008a58d  local     .text:_Device_enableUnbondedGPIOPullupsFor100Pin (.text:_Device_enableUnbondedGPIOPullupsFor100Pin)
0008a875  local     .text:_Device_enableUnbondedGPIOPullupsFor176Pin (.text:_Device_enableUnbondedGPIOPullupsFor176Pin)
0008a051  local     .text:_Device_init (.text:_Device_init)
0008a551  local     .text:_Device_initGPIO (.text:_Device_initGPIO)
00000000  local     .text:_Example_done (.text:_Example_done)
00000000  local     .text:_Example_setResultFail (.text:_Example_setResultFail)
00000000  local     .text:_Example_setResultPass (.text:_Example_setResultPass)
00087ea1  global    _Device_enableAllPeripherals (.text:_Device_enableAllPeripherals)
0008a92c  global    _Device_enableUnbondedGPIOPullups (.text:_Device_enableUnbondedGPIOPullups)
0008a58d  global    _Device_enableUnbondedGPIOPullupsFor100Pin (.text:_Device_enableUnbondedGPIOPullupsFor100Pin)
0008a875  global    _Device_enableUnbondedGPIOPullupsFor176Pin (.text:_Device_enableUnbondedGPIOPullupsFor176Pin)
0008a051  global    _Device_init (.text:_Device_init)
0008a551  global    _Device_initGPIO (.text:_Device_initGPIO)
0000e83e  global    _Example_Fail (.ebss)
0000e83c  global    _Example_PassCount (.ebss)
0000e83a  global    _Example_Result (.ebss)
00000000  global    _Example_done (.text:_Example_done)
00000000  global    _Example_setResultFail (.text:_Example_setResultFail)
00000000  global    _Example_setResultPass (.text:_Example_setResultPass)


================================================================================

CSMON_C28xx.lib : csmon.obj

Run/Load            
Value     Binding   Name (Section)
--------  --------  ---------------
00089879  local     $C$L1 (.text:_CSMON_bCheckValidDateTime)
00088090  local     $C$L10 (.text:_CSMON_vSetupHoldingRegistersAndCoilsAddressTableFromCSMONParameterList)
0008723f  local     $C$L100 (.text:_CSMON_u32GetParameterListCheckSum)
00087252  local     $C$L101 (.text:_CSMON_u32GetParameterListCheckSum)
00087265  local     $C$L102 (.text:_CSMON_u32GetParameterListCheckSum)
0008726b  local     $C$L103 (.text:_CSMON_u32GetParameterListCheckSum)
0008727e  local     $C$L104 (.text:_CSMON_u32GetParameterListCheckSum)
0008727f  local     $C$L105 (.text:_CSMON_u32GetParameterListCheckSum)
00087284  local     $C$L106 (.text:_CSMON_u32GetParameterListCheckSum)
00087292  local     $C$L107 (.text:_CSMON_u32GetParameterListCheckSum)
00088d4b  local     $C$L108 (.text:_CSMON_u32GetParameterShortNameCheckSum)
00088d5b  local     $C$L109 (.text:_CSMON_u32GetParameterShortNameCheckSum)
00088097  local     $C$L11 (.text:_CSMON_vSetupHoldingRegistersAndCoilsAddressTableFromCSMONParameterList)
00088d6e  local     $C$L110 (.text:_CSMON_u32GetParameterShortNameCheckSum)
00088d81  local     $C$L111 (.text:_CSMON_u32GetParameterShortNameCheckSum)
00088d84  local     $C$L112 (.text:_CSMON_u32GetParameterShortNameCheckSum)
00088d97  local     $C$L113 (.text:_CSMON_u32GetParameterShortNameCheckSum)
00088d98  local     $C$L114 (.text:_CSMON_u32GetParameterShortNameCheckSum)
00088d9d  local     $C$L115 (.text:_CSMON_u32GetParameterShortNameCheckSum)
00088dab  local     $C$L116 (.text:_CSMON_u32GetParameterShortNameCheckSum)
00088b95  local     $C$L117 (.text:_CSMON_u32GetParameterNumbCheckSum)
00088ba5  local     $C$L118 (.text:_CSMON_u32GetParameterNumbCheckSum)
00088bb8  local     $C$L119 (.text:_CSMON_u32GetParameterNumbCheckSum)
0008809c  local     $C$L12 (.text:_CSMON_vSetupHoldingRegistersAndCoilsAddressTableFromCSMONParameterList)
00088bcb  local     $C$L120 (.text:_CSMON_u32GetParameterNumbCheckSum)
00088bce  local     $C$L121 (.text:_CSMON_u32GetParameterNumbCheckSum)
00088be1  local     $C$L122 (.text:_CSMON_u32GetParameterNumbCheckSum)
00088be2  local     $C$L123 (.text:_CSMON_u32GetParameterNumbCheckSum)
00088be7  local     $C$L124 (.text:_CSMON_u32GetParameterNumbCheckSum)
00088bfb  local     $C$L125 (.text:_CSMON_u32GetParameterNumbCheckSum)
000890f3  local     $C$L126 (.text:_CSMON_u32GetParameterStringCheckSum)
000890ff  local     $C$L127 (.text:_CSMON_u32GetParameterStringCheckSum)
00089118  local     $C$L128 (.text:_CSMON_u32GetParameterStringCheckSum)
00089121  local     $C$L129 (.text:_CSMON_u32GetParameterStringCheckSum)
000880a4  local     $C$L13 (.text:_CSMON_vSetupHoldingRegistersAndCoilsAddressTableFromCSMONParameterList)
00089131  local     $C$L130 (.text:_CSMON_u32GetParameterStringCheckSum)
00089137  local     $C$L131 (.text:_CSMON_u32GetParameterStringCheckSum)
0008913c  local     $C$L132 (.text:_CSMON_u32GetParameterStringCheckSum)
0008914a  local     $C$L133 (.text:_CSMON_u32GetParameterStringCheckSum)
0008a0c6  local     $C$L134 (.text:_CSMON_u32GetParameterAuxCheckSum)
0008a0d8  local     $C$L135 (.text:_CSMON_u32GetParameterAuxCheckSum)
0008a0df  local     $C$L136 (.text:_CSMON_u32GetParameterAuxCheckSum)
0008886e  local     $C$L137 (.text:_CSMON_vPrepareFileParameterAccessList)
00088878  local     $C$L138 (.text:_CSMON_vPrepareFileParameterAccessList)
0008887b  local     $C$L139 (.text:_CSMON_vPrepareFileParameterAccessList)
000880a6  local     $C$L14 (.text:_CSMON_vSetupHoldingRegistersAndCoilsAddressTableFromCSMONParameterList)
00088885  local     $C$L140 (.text:_CSMON_vPrepareFileParameterAccessList)
000888a6  local     $C$L141 (.text:_CSMON_vPrepareFileParameterAccessList)
000888a9  local     $C$L142 (.text:_CSMON_vPrepareFileParameterAccessList)
000888af  local     $C$L143 (.text:_CSMON_vPrepareFileParameterAccessList)
000888b3  local     $C$L144 (.text:_CSMON_vPrepareFileParameterAccessList)
000888b9  local     $C$L145 (.text:_CSMON_vPrepareFileParameterAccessList)
000888bd  local     $C$L146 (.text:_CSMON_vPrepareFileParameterAccessList)
000888c5  local     $C$L147 (.text:_CSMON_vPrepareFileParameterAccessList)
000888c9  local     $C$L148 (.text:_CSMON_vPrepareFileParameterAccessList)
000888e5  local     $C$L149 (.text:_CSMON_vPrepareFileParameterAccessList)
000880b5  local     $C$L15 (.text:_CSMON_vSetupHoldingRegistersAndCoilsAddressTableFromCSMONParameterList)
000888eb  local     $C$L150 (.text:_CSMON_vPrepareFileParameterAccessList)
000888f1  local     $C$L151 (.text:_CSMON_vPrepareFileParameterAccessList)
00088a43  local     $C$L152 (.text:_CSMON_vLoadRecorderConfiguration)
00088a4d  local     $C$L153 (.text:_CSMON_vLoadRecorderConfiguration)
00088a57  local     $C$L154 (.text:_CSMON_vLoadRecorderConfiguration)
00088ab9  local     $C$L155 (.text:_CSMON_vLoadRecorderConfiguration)
00088ac2  local     $C$L156 (.text:_CSMON_vLoadRecorderConfiguration)
00088ac7  local     $C$L157 (.text:_CSMON_vLoadRecorderConfiguration)
00088acd  local     $C$L158 (.text:_CSMON_vLoadRecorderConfiguration)
0008931d  local     $C$L159 (.text:_CSMON_vLoadRecorderConfigTrigger)
000880b7  local     $C$L16 (.text:_CSMON_vSetupHoldingRegistersAndCoilsAddressTableFromCSMONParameterList)
00089376  local     $C$L160 (.text:_CSMON_vLoadRecorderConfigTrigger)
0008937b  local     $C$L161 (.text:_CSMON_vLoadRecorderConfigTrigger)
00087bff  local     $C$L162 (.text:_CSMON_vFileRecoderStatusFix)
00087c04  local     $C$L163 (.text:_CSMON_vFileRecoderStatusFix)
00087c06  local     $C$L164 (.text:_CSMON_vFileRecoderStatusFix)
00087c0b  local     $C$L165 (.text:_CSMON_vFileRecoderStatusFix)
00087c0d  local     $C$L166 (.text:_CSMON_vFileRecoderStatusFix)
00087c8a  local     $C$L167 (.text:_CSMON_vFileRecoderStatusFix)
00087cbc  local     $C$L168 (.text:_CSMON_vFileRecoderStatusFix)
00087cc2  local     $C$L169 (.text:_CSMON_vFileRecoderStatusFix)
000880c8  local     $C$L17 (.text:_CSMON_vSetupHoldingRegistersAndCoilsAddressTableFromCSMONParameterList)
00088659  local     $C$L170 (.text:_CSMON_vCheckSaveRecorderTable)
000886f0  local     $C$L171 (.text:_CSMON_vCheckSaveRecorderTable)
000886f6  local     $C$L172 (.text:_CSMON_vCheckSaveRecorderTable)
000886fb  local     $C$L173 (.text:_CSMON_vCheckSaveRecorderTable)
0008a288  local     $C$L174 (.text:_CSMON_bAutorizationPasswordCheck)
0008a28e  local     $C$L175 (.text:_CSMON_bAutorizationPasswordCheck)
0008a297  local     $C$L176 (.text:_CSMON_bAutorizationPasswordCheck)
0008a298  local     $C$L177 (.text:_CSMON_bAutorizationPasswordCheck)
0008a346  local     $C$L178 (.text:_CSMON_vAutorizationReset)
0008a34a  local     $C$L179 (.text:_CSMON_vAutorizationReset)
000880ca  local     $C$L18 (.text:_CSMON_vSetupHoldingRegistersAndCoilsAddressTableFromCSMONParameterList)
0008a355  local     $C$L180 (.text:_CSMON_vAutorizationReset)
0008a35c  local     $C$L181 (.text:_CSMON_vAutorizationReset)
0008890d  local     $C$L182 (.text:_CSMON_u32GetParameterCheckSum)
00088996  local     $C$L183 (.text:_CSMON_u32GetParameterCheckSum)
0008a75d  local     $C$L184 (.text:_CSMON_u32GetFreeRunningTimerMicroseconds)
00000009  local     $C$L185 (.text:_CSMON_eSetUpScopeParam)
00000021  local     $C$L186 (.text:_CSMON_eSetUpScopeParam)
0000003e  local     $C$L187 (.text:_CSMON_eSetUpScopeParam)
00000042  local     $C$L188 (.text:_CSMON_eSetUpScopeParam)
0000004e  local     $C$L189 (.text:_CSMON_eSetUpScopeParam)
000880ce  local     $C$L19 (.text:_CSMON_vSetupHoldingRegistersAndCoilsAddressTableFromCSMONParameterList)
00000054  local     $C$L190 (.text:_CSMON_eSetUpScopeParam)
00000058  local     $C$L191 (.text:_CSMON_eSetUpScopeParam)
0000005d  local     $C$L192 (.text:_CSMON_eSetUpScopeParam)
0000005f  local     $C$L193 (.text:_CSMON_eSetUpScopeParam)
0008aba9  local     $C$L194 (.text:_CSMON_eSetServerOnStatus)
0008abaa  local     $C$L195 (.text:_CSMON_eSetServerOnStatus)
000899d2  local     $C$L196 (.text:_CSMON_eSetRecorderTriggerAtPosition)
000899fa  local     $C$L197 (.text:_CSMON_eSetRecorderTriggerAtPosition)
000899fd  local     $C$L198 (.text:_CSMON_eSetRecorderTriggerAtPosition)
00089a07  local     $C$L199 (.text:_CSMON_eSetRecorderTriggerAtPosition)
0008a421  local     $C$L2 (.text:_CSMON_vUpdateDateTimeFromApplication)
00089f00  local     $C$L20 (.text:_CSMON_vSetupHoldingRegistersAndCoilsAddressTableAccessAll)
00089a0a  local     $C$L200 (.text:_CSMON_eSetRecorderTriggerAtPosition)
00089b3c  local     $C$L201 (.text:_CSMON_eSetRecorderConfigurationSkipSamples)
00089b5a  local     $C$L202 (.text:_CSMON_eSetRecorderConfigurationSkipSamples)
00089b73  local     $C$L203 (.text:_CSMON_eSetRecorderConfigurationSkipSamples)
00000020  local     $C$L204 (.text:_CSMON_eSetRecorderConfiguration)
00000022  local     $C$L205 (.text:_CSMON_eSetRecorderConfiguration)
0008a179  local     $C$L206 (.text:_CSMON_eSetParameterInScopeAtPosition)
0008a17f  local     $C$L207 (.text:_CSMON_eSetParameterInScopeAtPosition)
0008a18a  local     $C$L208 (.text:_CSMON_eSetParameterInScopeAtPosition)
0008a197  local     $C$L209 (.text:_CSMON_eSetParameterInScopeAtPosition)
00089f11  local     $C$L21 (.text:_CSMON_vSetupHoldingRegistersAndCoilsAddressTableAccessAll)
0008a0ee  local     $C$L210 (.text:_CSMON_eSetParameterInRecorderAtPosition)
0008a0f4  local     $C$L211 (.text:_CSMON_eSetParameterInRecorderAtPosition)
0008a0ff  local     $C$L212 (.text:_CSMON_eSetParameterInRecorderAtPosition)
0008a10f  local     $C$L213 (.text:_CSMON_eSetParameterInRecorderAtPosition)
0008a7c3  local     $C$L214 (.text:_CSMON_eSetParameterCountInScope)
0008a7cf  local     $C$L215 (.text:_CSMON_eSetParameterCountInScope)
0008a5e9  local     $C$L216 (.text:_CSMON_eSetParameterCountInRecorder)
0008a5fb  local     $C$L217 (.text:_CSMON_eSetParameterCountInRecorder)
00085465  local     $C$L218 (.text:_CSMON_eSetParameter)
00085475  local     $C$L219 (.text:_CSMON_eSetParameter)
00088c8f  local     $C$L22 (.text:_CSMON_vSetDateTimeAutorization)
00085479  local     $C$L220 (.text:_CSMON_eSetParameter)
00085481  local     $C$L221 (.text:_CSMON_eSetParameter)
00085487  local     $C$L222 (.text:_CSMON_eSetParameter)
00085489  local     $C$L223 (.text:_CSMON_eSetParameter)
0008548c  local     $C$L224 (.text:_CSMON_eSetParameter)
000854e6  local     $C$L225 (.text:_CSMON_eSetParameter)
00085513  local     $C$L226 (.text:_CSMON_eSetParameter)
00085516  local     $C$L227 (.text:_CSMON_eSetParameter)
00085548  local     $C$L228 (.text:_CSMON_eSetParameter)
00085566  local     $C$L229 (.text:_CSMON_eSetParameter)
00088c90  local     $C$L23 (.text:_CSMON_vSetDateTimeAutorization)
00085575  local     $C$L230 (.text:_CSMON_eSetParameter)
00085584  local     $C$L231 (.text:_CSMON_eSetParameter)
000855b4  local     $C$L232 (.text:_CSMON_eSetParameter)
000855c0  local     $C$L233 (.text:_CSMON_eSetParameter)
000855c4  local     $C$L234 (.text:_CSMON_eSetParameter)
000855f4  local     $C$L235 (.text:_CSMON_eSetParameter)
000855ff  local     $C$L236 (.text:_CSMON_eSetParameter)
00085601  local     $C$L237 (.text:_CSMON_eSetParameter)
00085604  local     $C$L238 (.text:_CSMON_eSetParameter)
00085611  local     $C$L239 (.text:_CSMON_eSetParameter)
000872a8  local     $C$L24 (.text:_CSMON_vSaveRecorderConfiguration)
0008561d  local     $C$L240 (.text:_CSMON_eSetParameter)
00085623  local     $C$L241 (.text:_CSMON_eSetParameter)
00085653  local     $C$L242 (.text:_CSMON_eSetParameter)
00085656  local     $C$L243 (.text:_CSMON_eSetParameter)
00085658  local     $C$L244 (.text:_CSMON_eSetParameter)
0008565b  local     $C$L245 (.text:_CSMON_eSetParameter)
0008566b  local     $C$L246 (.text:_CSMON_eSetParameter)
0008566e  local     $C$L247 (.text:_CSMON_eSetParameter)
00085695  local     $C$L248 (.text:_CSMON_eSetParameter)
0008569e  local     $C$L249 (.text:_CSMON_eSetParameter)
0008734e  local     $C$L25 (.text:_CSMON_vSaveRecorderConfiguration)
000856b2  local     $C$L250 (.text:_CSMON_eSetParameter)
000856ba  local     $C$L251 (.text:_CSMON_eSetParameter)
000856c1  local     $C$L252 (.text:_CSMON_eSetParameter)
000856cd  local     $C$L253 (.text:_CSMON_eSetParameter)
000856d8  local     $C$L254 (.text:_CSMON_eSetParameter)
000856da  local     $C$L255 (.text:_CSMON_eSetParameter)
000856dc  local     $C$L256 (.text:_CSMON_eSetParameter)
000856eb  local     $C$L257 (.text:_CSMON_eSetParameter)
000856f2  local     $C$L258 (.text:_CSMON_eSetParameter)
000856fd  local     $C$L259 (.text:_CSMON_eSetParameter)
000873cb  local     $C$L26 (.text:_CSMON_vSaveRecorderConfiguration)
000856fe  local     $C$L260 (.text:_CSMON_eSetParameter)
00085700  local     $C$L261 (.text:_CSMON_eSetParameter)
0008570b  local     $C$L262 (.text:_CSMON_eSetParameter)
00085712  local     $C$L263 (.text:_CSMON_eSetParameter)
00085749  local     $C$L264 (.text:_CSMON_eSetParameter)
0008574e  local     $C$L265 (.text:_CSMON_eSetParameter)
00085755  local     $C$L266 (.text:_CSMON_eSetParameter)
00085759  local     $C$L267 (.text:_CSMON_eSetParameter)
0008581c  local     $C$L268 (.text:_CSMON_eSetParameter)
00085835  local     $C$L269 (.text:_CSMON_eSetParameter)
000873d5  local     $C$L27 (.text:_CSMON_vSaveRecorderConfiguration)
00085842  local     $C$L270 (.text:_CSMON_eSetParameter)
0008584e  local     $C$L271 (.text:_CSMON_eSetParameter)
0008584f  local     $C$L272 (.text:_CSMON_eSetParameter)
00085863  local     $C$L273 (.text:_CSMON_eSetParameter)
0008586f  local     $C$L274 (.text:_CSMON_eSetParameter)
00085870  local     $C$L275 (.text:_CSMON_eSetParameter)
00085878  local     $C$L276 (.text:_CSMON_eSetParameter)
00085892  local     $C$L277 (.text:_CSMON_eSetParameter)
0008589f  local     $C$L278 (.text:_CSMON_eSetParameter)
000858a6  local     $C$L279 (.text:_CSMON_eSetParameter)
000873dd  local     $C$L28 (.text:_CSMON_vSaveRecorderConfiguration)
000858ad  local     $C$L280 (.text:_CSMON_eSetParameter)
000858af  local     $C$L281 (.text:_CSMON_eSetParameter)
000858b2  local     $C$L282 (.text:_CSMON_eSetParameter)
000858c3  local     $C$L283 (.text:_CSMON_eSetParameter)
000858d8  local     $C$L284 (.text:_CSMON_eSetParameter)
000858ed  local     $C$L285 (.text:_CSMON_eSetParameter)
00085902  local     $C$L286 (.text:_CSMON_eSetParameter)
00085906  local     $C$L287 (.text:_CSMON_eSetParameter)
0008590c  local     $C$L288 (.text:_CSMON_eSetParameter)
0008590d  local     $C$L289 (.text:_CSMON_eSetParameter)
000873e7  local     $C$L29 (.text:_CSMON_vSaveRecorderConfiguration)
0008591e  local     $C$L290 (.text:_CSMON_eSetParameter)
0008592e  local     $C$L291 (.text:_CSMON_eSetParameter)
00085937  local     $C$L292 (.text:_CSMON_eSetParameter)
00085939  local     $C$L293 (.text:_CSMON_eSetParameter)
0008a869  local     $C$L294 (.text:_CSMON_eSetFlagProcessPassed)
0008a86e  local     $C$L295 (.text:_CSMON_eSetFlagProcessPassed)
0000004b  local     $C$L296 (.text:_CSMON_eSetExternalRecorderUsage)
0000004d  local     $C$L297 (.text:_CSMON_eSetExternalRecorderUsage)
0008a7fb  local     $C$L298 (.text:_CSMON_eResetParameterTable)
000869dd  local     $C$L299 (.text:_CSMON_eProcess)
0008a42a  local     $C$L3 (.text:_CSMON_vUpdateDateTimeFromApplication)
000873f4  local     $C$L30 (.text:_CSMON_vSaveRecorderConfiguration)
00086a4e  local     $C$L300 (.text:_CSMON_eProcess)
00086a4f  local     $C$L301 (.text:_CSMON_eProcess)
00086a5f  local     $C$L302 (.text:_CSMON_eProcess)
00086a7c  local     $C$L303 (.text:_CSMON_eProcess)
00086aa0  local     $C$L304 (.text:_CSMON_eProcess)
00086aa6  local     $C$L305 (.text:_CSMON_eProcess)
00086aae  local     $C$L306 (.text:_CSMON_eProcess)
00086ab6  local     $C$L307 (.text:_CSMON_eProcess)
00086ad0  local     $C$L308 (.text:_CSMON_eProcess)
00086ae7  local     $C$L309 (.text:_CSMON_eProcess)
00088294  local     $C$L31 (.text:_CSMON_vSaveRecorderConfigTrigger)
00086b27  local     $C$L310 (.text:_CSMON_eProcess)
00086b32  local     $C$L311 (.text:_CSMON_eProcess)
00086b3b  local     $C$L312 (.text:_CSMON_eProcess)
00086b3e  local     $C$L313 (.text:_CSMON_eProcess)
00086b40  local     $C$L314 (.text:_CSMON_eProcess)
00086b4b  local     $C$L315 (.text:_CSMON_eProcess)
00086b5b  local     $C$L316 (.text:_CSMON_eProcess)
00086b62  local     $C$L317 (.text:_CSMON_eProcess)
00086b63  local     $C$L318 (.text:_CSMON_eProcess)
00085e10  local     $C$L319 (.text:_CSMON_eInit)
00088337  local     $C$L32 (.text:_CSMON_vSaveRecorderConfigTrigger)
00085e25  local     $C$L320 (.text:_CSMON_eInit)
00085e4a  local     $C$L321 (.text:_CSMON_eInit)
00085e91  local     $C$L322 (.text:_CSMON_eInit)
00085e95  local     $C$L323 (.text:_CSMON_eInit)
00085ea1  local     $C$L324 (.text:_CSMON_eInit)
00085eaa  local     $C$L325 (.text:_CSMON_eInit)
00085ead  local     $C$L326 (.text:_CSMON_eInit)
00085eb8  local     $C$L327 (.text:_CSMON_eInit)
00085ebb  local     $C$L328 (.text:_CSMON_eInit)
00085f50  local     $C$L329 (.text:_CSMON_eInit)
00088341  local     $C$L33 (.text:_CSMON_vSaveRecorderConfigTrigger)
00085f69  local     $C$L330 (.text:_CSMON_eInit)
00085f99  local     $C$L331 (.text:_CSMON_eInit)
00085f9f  local     $C$L332 (.text:_CSMON_eInit)
00085fa7  local     $C$L333 (.text:_CSMON_eInit)
00000017  local     $C$L334 (.text:_CSMON_eGetRecorderTriggerAtPosition)
00000019  local     $C$L335 (.text:_CSMON_eGetRecorderTriggerAtPosition)
00000012  local     $C$L336 (.text:_CSMON_eGetRecorderConfiguration)
00000006  local     $C$L337 (.text:_CSMON_eGetParameterInRecorderAtPosition)
00000019  local     $C$L338 (.text:_CSMON_eGetParameterInRecorderAtPosition)
0000001b  local     $C$L339 (.text:_CSMON_eGetParameterInRecorderAtPosition)
0008834e  local     $C$L34 (.text:_CSMON_vSaveRecorderConfigTrigger)
0000000e  local     $C$L340 (.text:_CSMON_eGetParameterCountInRecorder)
00000034  local     $C$L341 (.text:_CSMON_bPasswordGenerateFromHash)
00000036  local     $C$L342 (.text:_CSMON_bPasswordGenerateFromHash)
00000038  local     $C$L343 (.text:_CSMON_bPasswordGenerateFromHash)
0000003a  local     $C$L344 (.text:_CSMON_bPasswordGenerateFromHash)
0000003c  local     $C$L345 (.text:_CSMON_bPasswordGenerateFromHash)
0000003e  local     $C$L346 (.text:_CSMON_bPasswordGenerateFromHash)
00000040  local     $C$L347 (.text:_CSMON_bPasswordGenerateFromHash)
00000042  local     $C$L348 (.text:_CSMON_bPasswordGenerateFromHash)
00000044  local     $C$L349 (.text:_CSMON_bPasswordGenerateFromHash)
0008a2a0  local     $C$L35 (.text:_CSMON_vSaveRecorderConfig)
00000046  local     $C$L350 (.text:_CSMON_bPasswordGenerateFromHash)
00000048  local     $C$L351 (.text:_CSMON_bPasswordGenerateFromHash)
0000004a  local     $C$L352 (.text:_CSMON_bPasswordGenerateFromHash)
0000004c  local     $C$L353 (.text:_CSMON_bPasswordGenerateFromHash)
0000004e  local     $C$L354 (.text:_CSMON_bPasswordGenerateFromHash)
00000050  local     $C$L355 (.text:_CSMON_bPasswordGenerateFromHash)
00000052  local     $C$L356 (.text:_CSMON_bPasswordGenerateFromHash)
00000053  local     $C$L357 (.text:_CSMON_bPasswordGenerateFromHash)
00000068  local     $C$L358 (.text:_CSMON_bPasswordGenerateFromHash)
00089786  local     $C$L36 (.text:_CSMON_vRecorderParamStartStopProcess)
0008979a  local     $C$L37 (.text:_CSMON_vRecorderParamStartStopProcess)
000897ae  local     $C$L38 (.text:_CSMON_vRecorderParamStartStopProcess)
000897b1  local     $C$L39 (.text:_CSMON_vRecorderParamStartStopProcess)
00088038  local     $C$L4 (.text:_CSMON_vSetupHoldingRegistersAndCoilsAddressTableFromCSMONParameterList)
000897b8  local     $C$L40 (.text:_CSMON_vRecorderParamStartStopProcess)
000897bf  local     $C$L41 (.text:_CSMON_vRecorderParamStartStopProcess)
000897c6  local     $C$L42 (.text:_CSMON_vRecorderParamStartStopProcess)
000897c9  local     $C$L43 (.text:_CSMON_vRecorderParamStartStopProcess)
000891db  local     $C$L44 (.text:_CSMON_u16FindIndexParameterTable)
00089234  local     $C$L45 (.text:_CSMON_u16FindIndexParameterTable)
00089235  local     $C$L46 (.text:_CSMON_u16FindIndexParameterTable)
0008a0ab  local     $C$L47 (.text:_CSMON_u32GetRealAddressAndSizeOffsetFromParameter)
0008a0ae  local     $C$L48 (.text:_CSMON_u32GetRealAddressAndSizeOffsetFromParameter)
00087027  local     $C$L49 (.text:_CSMON_eSetUpRecParam)
00088047  local     $C$L5 (.text:_CSMON_vSetupHoldingRegistersAndCoilsAddressTableFromCSMONParameterList)
0008702b  local     $C$L50 (.text:_CSMON_eSetUpRecParam)
00087035  local     $C$L51 (.text:_CSMON_eSetUpRecParam)
00087068  local     $C$L52 (.text:_CSMON_eSetUpRecParam)
00087088  local     $C$L53 (.text:_CSMON_eSetUpRecParam)
0008708c  local     $C$L54 (.text:_CSMON_eSetUpRecParam)
00087092  local     $C$L55 (.text:_CSMON_eSetUpRecParam)
0008709a  local     $C$L56 (.text:_CSMON_eSetUpRecParam)
000870b6  local     $C$L57 (.text:_CSMON_eSetUpRecParam)
000870bb  local     $C$L58 (.text:_CSMON_eSetUpRecParam)
000870be  local     $C$L59 (.text:_CSMON_eSetUpRecParam)
0008805f  local     $C$L6 (.text:_CSMON_vSetupHoldingRegistersAndCoilsAddressTableFromCSMONParameterList)
000870e4  local     $C$L60 (.text:_CSMON_eSetUpRecParam)
000870e7  local     $C$L61 (.text:_CSMON_eSetUpRecParam)
000870ec  local     $C$L62 (.text:_CSMON_eSetUpRecParam)
000870ef  local     $C$L63 (.text:_CSMON_eSetUpRecParam)
000870f4  local     $C$L64 (.text:_CSMON_eSetUpRecParam)
000870f7  local     $C$L65 (.text:_CSMON_eSetUpRecParam)
000870fa  local     $C$L66 (.text:_CSMON_eSetUpRecParam)
000870fc  local     $C$L67 (.text:_CSMON_eSetUpRecParam)
000870fe  local     $C$L68 (.text:_CSMON_eSetUpRecParam)
00087109  local     $C$L69 (.text:_CSMON_eSetUpRecParam)
00088066  local     $C$L7 (.text:_CSMON_vSetupHoldingRegistersAndCoilsAddressTableFromCSMONParameterList)
0008710b  local     $C$L70 (.text:_CSMON_eSetUpRecParam)
0008711f  local     $C$L71 (.text:_CSMON_eSetUpRecParam)
0008712a  local     $C$L72 (.text:_CSMON_eSetUpRecParam)
0008712e  local     $C$L73 (.text:_CSMON_eSetUpRecParam)
00087130  local     $C$L74 (.text:_CSMON_eSetUpRecParam)
00087131  local     $C$L75 (.text:_CSMON_eSetUpRecParam)
00089158  local     $C$L76 (.text:_CSMON_vCheckLoadRecorderTable)
0008918c  local     $C$L77 (.text:_CSMON_vCheckLoadRecorderTable)
000891b2  local     $C$L78 (.text:_CSMON_vCheckLoadRecorderTable)
000891b8  local     $C$L79 (.text:_CSMON_vCheckLoadRecorderTable)
00088089  local     $C$L8 (.text:_CSMON_vSetupHoldingRegistersAndCoilsAddressTableFromCSMONParameterList)
0008a124  local     $C$L80 (.text:_CSMON_vRecorderParamSetupProcess)
0008a12c  local     $C$L81 (.text:_CSMON_vRecorderParamSetupProcess)
0008a134  local     $C$L82 (.text:_CSMON_vRecorderParamSetupProcess)
0008a135  local     $C$L83 (.text:_CSMON_vRecorderParamSetupProcess)
0008a140  local     $C$L84 (.text:_CSMON_vRecorderParamSetupProcess)
00087161  local     $C$L85 (.text:_CSMON_u32GetParameterListCheckSum)
00087171  local     $C$L86 (.text:_CSMON_u32GetParameterListCheckSum)
00087184  local     $C$L87 (.text:_CSMON_u32GetParameterListCheckSum)
00087197  local     $C$L88 (.text:_CSMON_u32GetParameterListCheckSum)
0008719a  local     $C$L89 (.text:_CSMON_u32GetParameterListCheckSum)
0008808b  local     $C$L9 (.text:_CSMON_vSetupHoldingRegistersAndCoilsAddressTableFromCSMONParameterList)
000871ad  local     $C$L90 (.text:_CSMON_u32GetParameterListCheckSum)
000871ae  local     $C$L91 (.text:_CSMON_u32GetParameterListCheckSum)
000871b3  local     $C$L92 (.text:_CSMON_u32GetParameterListCheckSum)
000871cf  local     $C$L93 (.text:_CSMON_u32GetParameterListCheckSum)
000871de  local     $C$L94 (.text:_CSMON_u32GetParameterListCheckSum)
000871e7  local     $C$L95 (.text:_CSMON_u32GetParameterListCheckSum)
000871fe  local     $C$L96 (.text:_CSMON_u32GetParameterListCheckSum)
0008720a  local     $C$L97 (.text:_CSMON_u32GetParameterListCheckSum)
0008720f  local     $C$L98 (.text:_CSMON_u32GetParameterListCheckSum)
0008722b  local     $C$L99 (.text:_CSMON_u32GetParameterListCheckSum)
000829a4  local     $C$SW1 (.switch:_CSMON_eSetParameter)
00000000  local     .bss (.bss)
0008247b  local     .cinit (.cinit)
00082959  local     .cinit:_CSMON_abFileAutorization_RecordReadOnly (.cinit:_CSMON_abFileAutorization_RecordReadOnly)
0008295f  local     .cinit:_CSMON_abFileAutorization_RecordStringData (.cinit:_CSMON_abFileAutorization_RecordStringData)
00082965  local     .cinit:_CSMON_au16FileAutorization_RecordOffsets (.cinit:_CSMON_au16FileAutorization_RecordOffsets)
000828f7  local     .cinit:_CSMON_au32FileAutorization_FunctionAfterWriteFileRecord (.cinit:_CSMON_au32FileAutorization_FunctionAfterWriteFileRecord)
00082826  local     .cinit:_CSMON_au8FileParameterCountElementsSizeTable (.cinit:_CSMON_au8FileParameterCountElementsSizeTable)
0008291a  local     .cinit:_CSMON_au8FileParameterListElementsSizeTablePart1 (.cinit:_CSMON_au8FileParameterListElementsSizeTablePart1)
00082989  local     .cinit:_CSMON_au8FileParameterListElementsSizeTablePart2 (.cinit:_CSMON_au8FileParameterListElementsSizeTablePart2)
0008298d  local     .cinit:_CSMON_au8FileParameterListElementsSizeTablePart3 (.cinit:_CSMON_au8FileParameterListElementsSizeTablePart3)
00000000  local     .cinit:_CSMON_au8FileParameterNumbElementsSizeTablePart16Bits (.cinit:_CSMON_au8FileParameterNumbElementsSizeTablePart16Bits)
00000000  local     .cinit:_CSMON_au8FileParameterNumbElementsSizeTablePart32Bits (.cinit:_CSMON_au8FileParameterNumbElementsSizeTablePart32Bits)
00000000  local     .cinit:_CSMON_au8FileParameterNumbElementsSizeTablePart64Bits (.cinit:_CSMON_au8FileParameterNumbElementsSizeTablePart64Bits)
00082859  local     .cinit:_CSMON_au8FileParameterNumericElementsSizeTable (.cinit:_CSMON_au8FileParameterNumericElementsSizeTable)
00082833  local     .cinit:_CSMON_au8FileRTCElementsSizeTable (.cinit:_CSMON_au8FileRTCElementsSizeTable)
00082654  local     .cinit:_CSMON_au8FileRecorderConfigElementsSizeTable (.cinit:_CSMON_au8FileRecorderConfigElementsSizeTable)
000825e2  local     .cinit:_CSMON_au8FileRecorderDataElementsSizeTable (.cinit:_CSMON_au8FileRecorderDataElementsSizeTable)
0008296b  local     .cinit:_CSMON_au8FileRecorderDataElementsSizeTableUsedLength (.cinit:_CSMON_au8FileRecorderDataElementsSizeTableUsedLength)
00082921  local     .cinit:_CSMON_au8FileRecorderStatusElementsSizeTable (.cinit:_CSMON_au8FileRecorderStatusElementsSizeTable)
000826b1  local     .cinit:_CSMON_au8FileScopeConfigurationElementsSizeTable (.cinit:_CSMON_au8FileScopeConfigurationElementsSizeTable)
00082991  local     .cinit:_CSMON_au8FileScopeStatusElementsSizeTable (.cinit:_CSMON_au8FileScopeStatusElementsSizeTable)
00000000  local     .cinit:_CSMON_bPasswordGenerate (.cinit:_CSMON_bPasswordGenerate)
000827cf  local     .cinit:_CSMON_sDateTime (.cinit:_CSMON_sDateTime)
000827de  local     .cinit:_CSMON_sDateTimeApplication (.cinit:_CSMON_sDateTimeApplication)
000827ed  local     .cinit:_CSMON_sDateTimeDefault (.cinit:_CSMON_sDateTimeDefault)
0008274a  local     .cinit:_CSMON_sFileAutorization (.cinit:_CSMON_sFileAutorization)
00082995  local     .cinit:_CSMON_sFileParameterAccessList (.cinit:_CSMON_sFileParameterAccessList)
00082900  local     .cinit:_CSMON_sFileParameterCount (.cinit:_CSMON_sFileParameterCount)
00082971  local     .cinit:_CSMON_sFileProtocolVersion (.cinit:_CSMON_sFileProtocolVersion)
00000000  local     .cinit:_arr (.cinit:_arr)
00000000  local     .cinit:_arr2 (.cinit:_arr2)
00082840  local     .cinit:_sHashKey (.cinit:_sHashKey)
00000000  local     .data (.data)
0000e840  local     .ebss (.ebss)
0000ec3d  local     .ebss:_CSMON_abFileAutorization_RecordReadOnly (.ebss:_CSMON_abFileAutorization_RecordReadOnly)
0000ee2e  local     .ebss:_CSMON_abFileAutorization_RecordStringData (.ebss:_CSMON_abFileAutorization_RecordStringData)
0000edfe  local     .ebss:_CSMON_abFlagProcessPassed (.ebss:_CSMON_abFlagProcessPassed)
0000d000  local     .ebss:_CSMON_asFileParameterDefinitionsFromAccessLevel (.ebss:_CSMON_asFileParameterDefinitionsFromAccessLevel)
0000ee31  local     .ebss:_CSMON_au16FileAutorization_RecordOffsets (.ebss:_CSMON_au16FileAutorization_RecordOffsets)
0000ed3a  local     .ebss:_CSMON_au32FileAutorization_FunctionAfterWriteFileRecord (.ebss:_CSMON_au32FileAutorization_FunctionAfterWriteFileRecord)
0000ede0  local     .ebss:_CSMON_au32FileParameterDefinitionsFileRecordElementsRealAddressTable (.ebss:_CSMON_au32FileParameterDefinitionsFileRecordElementsRealAddressTable)
0000ee34  local     .ebss:_CSMON_au32FileParameterDefinitionsFileRecordElementsRecordToRecordOffsetSizeBytesTable (.ebss:_CSMON_au32FileParameterDefinitionsFileRecordElementsRecordToRecordOffsetSizeBytesTable)
0000ede6  local     .ebss:_CSMON_au32FileParameterDefinitionsFileRecordElementsSizeTable (.ebss:_CSMON_au32FileParameterDefinitionsFileRecordElementsSizeTable)
0000ed6e  local     .ebss:_CSMON_au8FileParameterCountElementsSizeTable (.ebss:_CSMON_au8FileParameterCountElementsSizeTable)
0000ec7c  local     .ebss:_CSMON_au8FileParameterListElementsSizeTablePart1 (.ebss:_CSMON_au8FileParameterListElementsSizeTablePart1)
0000ee52  local     .ebss:_CSMON_au8FileParameterListElementsSizeTablePart2 (.ebss:_CSMON_au8FileParameterListElementsSizeTablePart2)
0000ee53  local     .ebss:_CSMON_au8FileParameterListElementsSizeTablePart3 (.ebss:_CSMON_au8FileParameterListElementsSizeTablePart3)
00000000  local     .ebss:_CSMON_au8FileParameterNumbElementsSizeTablePart16Bits (.ebss:_CSMON_au8FileParameterNumbElementsSizeTablePart16Bits)
00000000  local     .ebss:_CSMON_au8FileParameterNumbElementsSizeTablePart32Bits (.ebss:_CSMON_au8FileParameterNumbElementsSizeTablePart32Bits)
00000000  local     .ebss:_CSMON_au8FileParameterNumbElementsSizeTablePart64Bits (.ebss:_CSMON_au8FileParameterNumbElementsSizeTablePart64Bits)
0000edb2  local     .ebss:_CSMON_au8FileParameterNumericElementsSizeTable (.ebss:_CSMON_au8FileParameterNumericElementsSizeTable)
0000ed80  local     .ebss:_CSMON_au8FileRTCElementsSizeTable (.ebss:_CSMON_au8FileRTCElementsSizeTable)
0000ec00  local     .ebss:_CSMON_au8FileRecorderConfigElementsSizeTable (.ebss:_CSMON_au8FileRecorderConfigElementsSizeTable)
0000e384  local     .ebss:_CSMON_au8FileRecorderDataElementsSizeTable (.ebss:_CSMON_au8FileRecorderDataElementsSizeTable)
0000ee37  local     .ebss:_CSMON_au8FileRecorderDataElementsSizeTableUsedLength (.ebss:_CSMON_au8FileRecorderDataElementsSizeTableUsedLength)
0000edbb  local     .ebss:_CSMON_au8FileRecorderStatusElementsSizeTable (.ebss:_CSMON_au8FileRecorderStatusElementsSizeTable)
0000eb14  local     .ebss:_CSMON_au8FileScopeConfigurationElementsSizeTable (.ebss:_CSMON_au8FileScopeConfigurationElementsSizeTable)
0000ee54  local     .ebss:_CSMON_au8FileScopeStatusElementsSizeTable (.ebss:_CSMON_au8FileScopeStatusElementsSizeTable)
00000000  local     .ebss:_CSMON_bPasswordGenerate (.ebss:_CSMON_bPasswordGenerate)
00000000  local     .ebss:_CSMON_nHashOutputLength (.ebss:_CSMON_nHashOutputLength)
0000ed40  local     .ebss:_CSMON_sDateTime (.ebss:_CSMON_sDateTime)
0000ed4c  local     .ebss:_CSMON_sDateTimeApplication (.ebss:_CSMON_sDateTimeApplication)
0000ed58  local     .ebss:_CSMON_sDateTimeDefault (.ebss:_CSMON_sDateTimeDefault)
0000e126  local     .ebss:_CSMON_sFileAutorization (.ebss:_CSMON_sFileAutorization)
0000d400  local     .ebss:_CSMON_sFileParameterAccessList (.ebss:_CSMON_sFileParameterAccessList)
0000ebf0  local     .ebss:_CSMON_sFileParameterCount (.ebss:_CSMON_sFileParameterCount)
0000ee3a  local     .ebss:_CSMON_sFileProtocolVersion (.ebss:_CSMON_sFileProtocolVersion)
00000000  local     .ebss:_arr (.ebss:_arr)
00000000  local     .ebss:_arr2 (.ebss:_arr2)
0000ed9e  local     .ebss:_sHashKey (.ebss:_sHashKey)
0000e6c0  local     .ebss:_sRecConfigParam (.ebss:_sRecConfigParam)
0000e9c0  local     .ebss:_sScopeConfigParam (.ebss:_sScopeConfigParam)
00090250  local     .econst:_$P$T42$1 (.econst:_$P$T42$1)
00090298  local     .econst:_$P$T43$2 (.econst:_$P$T43$2)
00000000  local     .econst:_$P$T44$3 (.econst:_$P$T44$3)
00090200  local     .econst:_CSMON_asAccessLevelPasswords (.econst:_CSMON_asAccessLevelPasswords)
00090268  local     .econst:_CSMON_au8FileImplementedFunctionCodes (.econst:_CSMON_au8FileImplementedFunctionCodes)
0009029e  local     .econst:_CSMON_au8FileParameterListElementsCountInPartTable (.econst:_CSMON_au8FileParameterListElementsCountInPartTable)
000829a4  local     .switch:_CSMON_eSetParameter (.switch:_CSMON_eSetParameter)
00000000  local     .text (.text)
0008a272  local     .text:_CSMON_bAutorizationPasswordCheck (.text:_CSMON_bAutorizationPasswordCheck)
00089824  local     .text:_CSMON_bCheckValidDateTime (.text:_CSMON_bCheckValidDateTime)
00000000  local     .text:_CSMON_bPasswordGenerateFromHash (.text:_CSMON_bPasswordGenerateFromHash)
0008a434  local     .text:_CSMON_eApplyParameterChanges (.text:_CSMON_eApplyParameterChanges)
00000000  local     .text:_CSMON_eGetParameterCountInRecorder (.text:_CSMON_eGetParameterCountInRecorder)
00000000  local     .text:_CSMON_eGetParameterInRecorderAtPosition (.text:_CSMON_eGetParameterInRecorderAtPosition)
00000000  local     .text:_CSMON_eGetRecorderConfiguration (.text:_CSMON_eGetRecorderConfiguration)
00000000  local     .text:_CSMON_eGetRecorderTriggerAtPosition (.text:_CSMON_eGetRecorderTriggerAtPosition)
00085df4  local     .text:_CSMON_eInit (.text:_CSMON_eInit)
000869d4  local     .text:_CSMON_eProcess (.text:_CSMON_eProcess)
00083ffc  local     .text:_CSMON_eRegisterWriteParElementCallbackFunction (.text:_CSMON_eRegisterWriteParElementCallbackFunction)
0008a7e8  local     .text:_CSMON_eResetParameterTable (.text:_CSMON_eResetParameterTable)
0008acd6  local     .text:_CSMON_eSetAutoServiceWatchdogInternalSlowCalculationsInMainLoop (.text:_CSMON_eSetAutoServiceWatchdogInternalSlowCalculationsInMainLoop)
00000000  local     .text:_CSMON_eSetExternalRecorderUsage (.text:_CSMON_eSetExternalRecorderUsage)
0008acdb  local     .text:_CSMON_eSetFirmwareApplicationVersion (.text:_CSMON_eSetFirmwareApplicationVersion)
0008a862  local     .text:_CSMON_eSetFlagProcessPassed (.text:_CSMON_eSetFlagProcessPassed)
0008ad26  local     .text:_CSMON_eSetInternalTimerPeriod (.text:_CSMON_eSetInternalTimerPeriod)
0008ace0  local     .text:_CSMON_eSetMaxTimeInISR (.text:_CSMON_eSetMaxTimeInISR)
0008ace5  local     .text:_CSMON_eSetMinGuaranteedTimeBetweenTwoISRs (.text:_CSMON_eSetMinGuaranteedTimeBetweenTwoISRs)
00085412  local     .text:_CSMON_eSetParameter (.text:_CSMON_eSetParameter)
0008a5e3  local     .text:_CSMON_eSetParameterCountInRecorder (.text:_CSMON_eSetParameterCountInRecorder)
0008a7bc  local     .text:_CSMON_eSetParameterCountInScope (.text:_CSMON_eSetParameterCountInScope)
0008a0e4  local     .text:_CSMON_eSetParameterInRecorderAtPosition (.text:_CSMON_eSetParameterInRecorderAtPosition)
0008a16f  local     .text:_CSMON_eSetParameterInScopeAtPosition (.text:_CSMON_eSetParameterInScopeAtPosition)
00000000  local     .text:_CSMON_eSetParameterListAccessLevel (.text:_CSMON_eSetParameterListAccessLevel)
00000000  local     .text:_CSMON_eSetParameterListBitsCount (.text:_CSMON_eSetParameterListBitsCount)
0008ae52  local     .text:_CSMON_eSetParameterListDataDefault (.text:_CSMON_eSetParameterListDataDefault)
0008ae55  local     .text:_CSMON_eSetParameterListDataMaximum (.text:_CSMON_eSetParameterListDataMaximum)
0008ae58  local     .text:_CSMON_eSetParameterListDataMinimum (.text:_CSMON_eSetParameterListDataMinimum)
00000000  local     .text:_CSMON_eSetParameterListDataOffset (.text:_CSMON_eSetParameterListDataOffset)
00000000  local     .text:_CSMON_eSetParameterListDataType (.text:_CSMON_eSetParameterListDataType)
00000000  local     .text:_CSMON_eSetParameterListFunctionCode (.text:_CSMON_eSetParameterListFunctionCode)
0008ae5b  local     .text:_CSMON_eSetParameterListParameterID (.text:_CSMON_eSetParameterListParameterID)
0008ae5e  local     .text:_CSMON_eSetParameterListRealAddress (.text:_CSMON_eSetParameterListRealAddress)
0008ae61  local     .text:_CSMON_eSetParameterListRegisterFlags (.text:_CSMON_eSetParameterListRegisterFlags)
0008ae64  local     .text:_CSMON_eSetParameterListRegisterSize (.text:_CSMON_eSetParameterListRegisterSize)
00000000  local     .text:_CSMON_eSetParameterListShortNaming (.text:_CSMON_eSetParameterListShortNaming)
0008ae67  local     .text:_CSMON_eSetParameterListValueFormat (.text:_CSMON_eSetParameterListValueFormat)
00000000  local     .text:_CSMON_eSetParameterListVisualType (.text:_CSMON_eSetParameterListVisualType)
00000000  local     .text:_CSMON_eSetParameterTableDescr (.text:_CSMON_eSetParameterTableDescr)
00000000  local     .text:_CSMON_eSetParameterTableIndex (.text:_CSMON_eSetParameterTableIndex)
00000000  local     .text:_CSMON_eSetRecorderConfiguration (.text:_CSMON_eSetRecorderConfiguration)
00089b30  local     .text:_CSMON_eSetRecorderConfigurationSkipSamples (.text:_CSMON_eSetRecorderConfigurationSkipSamples)
000899c4  local     .text:_CSMON_eSetRecorderTriggerAtPosition (.text:_CSMON_eSetRecorderTriggerAtPosition)
0008aba5  local     .text:_CSMON_eSetServerOnStatus (.text:_CSMON_eSetServerOnStatus)
0008ad2a  local     .text:_CSMON_eSetTimerPeriodISRFunctionRegister (.text:_CSMON_eSetTimerPeriodISRFunctionRegister)
00086fcf  local     .text:_CSMON_eSetUpRecParam (.text:_CSMON_eSetUpRecParam)
00000000  local     .text:_CSMON_eSetUpScopeParam (.text:_CSMON_eSetUpScopeParam)
00000000  local     .text:_CSMON_eSetupWriteParElementFixedArguments (.text:_CSMON_eSetupWriteParElementFixedArguments)
000891c4  local     .text:_CSMON_u16FindIndexParameterTable (.text:_CSMON_u16FindIndexParameterTable)
0008acea  local     .text:_CSMON_u16ParametersAccessListIndexGenerate (.text:_CSMON_u16ParametersAccessListIndexGenerate)
0008ad2e  local     .text:_CSMON_u32GetBaudError_PPM (.text:_CSMON_u32GetBaudError_PPM)
0008a749  local     .text:_CSMON_u32GetFreeRunningTimerMicroseconds (.text:_CSMON_u32GetFreeRunningTimerMicroseconds)
0008ad32  local     .text:_CSMON_u32GetFreeRunningTimerTicks (.text:_CSMON_u32GetFreeRunningTimerTicks)
0008ae6a  local     .text:_CSMON_u32GetModbusMessageCounterRegisterRealAddress (.text:_CSMON_u32GetModbusMessageCounterRegisterRealAddress)
0008a0b4  local     .text:_CSMON_u32GetParameterAuxCheckSum (.text:_CSMON_u32GetParameterAuxCheckSum)
000888fb  local     .text:_CSMON_u32GetParameterCheckSum (.text:_CSMON_u32GetParameterCheckSum)
00087137  local     .text:_CSMON_u32GetParameterListCheckSum (.text:_CSMON_u32GetParameterListCheckSum)
00088b6c  local     .text:_CSMON_u32GetParameterNumbCheckSum (.text:_CSMON_u32GetParameterNumbCheckSum)
00088d22  local     .text:_CSMON_u32GetParameterShortNameCheckSum (.text:_CSMON_u32GetParameterShortNameCheckSum)
000890d6  local     .text:_CSMON_u32GetParameterStringCheckSum (.text:_CSMON_u32GetParameterStringCheckSum)
0008a083  local     .text:_CSMON_u32GetRealAddressAndSizeOffsetFromParameter (.text:_CSMON_u32GetRealAddressAndSizeOffsetFromParameter)
0008ad36  local     .text:_CSMON_vAddSetupRecorderParameterMask (.text:_CSMON_vAddSetupRecorderParameterMask)
0008a339  local     .text:_CSMON_vAutorizationReset (.text:_CSMON_vAutorizationReset)
0008914d  local     .text:_CSMON_vCheckLoadRecorderTable (.text:_CSMON_vCheckLoadRecorderTable)
0008864e  local     .text:_CSMON_vCheckSaveRecorderTable (.text:_CSMON_vCheckSaveRecorderTable)
0008a634  local     .text:_CSMON_vFileParameterCountCheckSumUpdate (.text:_CSMON_vFileParameterCountCheckSumUpdate)
00087bd4  local     .text:_CSMON_vFileRecoderStatusFix (.text:_CSMON_vFileRecoderStatusFix)
0008aa3c  local     .text:_CSMON_vInitHoldingRegistersTableChanges (.text:_CSMON_vInitHoldingRegistersTableChanges)
0008a35d  local     .text:_CSMON_vInitParameterListRealAddressRecordTables (.text:_CSMON_vInitParameterListRealAddressRecordTables)
00088db0  local     .text:_CSMON_vInitRecorders (.text:_CSMON_vInitRecorders)
0008ab7d  local     .text:_CSMON_vInitScopes (.text:_CSMON_vInitScopes)
00089314  local     .text:_CSMON_vLoadRecorderConfigTrigger (.text:_CSMON_vLoadRecorderConfigTrigger)
00088a38  local     .text:_CSMON_vLoadRecorderConfiguration (.text:_CSMON_vLoadRecorderConfiguration)
00088857  local     .text:_CSMON_vPrepareFileParameterAccessList (.text:_CSMON_vPrepareFileParameterAccessList)
0008a113  local     .text:_CSMON_vRecorderParamSetupProcess (.text:_CSMON_vRecorderParamSetupProcess)
00089770  local     .text:_CSMON_vRecorderParamStartStopProcess (.text:_CSMON_vRecorderParamStartStopProcess)
0008a29a  local     .text:_CSMON_vSaveRecorderConfig (.text:_CSMON_vSaveRecorderConfig)
00088284  local     .text:_CSMON_vSaveRecorderConfigTrigger (.text:_CSMON_vSaveRecorderConfigTrigger)
00087298  local     .text:_CSMON_vSaveRecorderConfiguration (.text:_CSMON_vSaveRecorderConfiguration)
00088c00  local     .text:_CSMON_vSetDateTimeAutorization (.text:_CSMON_vSetDateTimeAutorization)
0008acef  local     .text:_CSMON_vSetDateTimeRequest (.text:_CSMON_vSetDateTimeRequest)
0008ae6d  local     .text:_CSMON_vSetModbusMessageCounterRegisterRealAddress (.text:_CSMON_vSetModbusMessageCounterRegisterRealAddress)
00000000  local     .text:_CSMON_vSetSetupRecorderParameterMask (.text:_CSMON_vSetSetupRecorderParameterMask)
0008ad3a  local     .text:_CSMON_vSetStartRecorderParameterMask (.text:_CSMON_vSetStartRecorderParameterMask)
00000000  local     .text:_CSMON_vSetStopRecorderParameterMask (.text:_CSMON_vSetStopRecorderParameterMask)
00089ee0  local     .text:_CSMON_vSetupHoldingRegistersAndCoilsAddressTableAccessAll (.text:_CSMON_vSetupHoldingRegistersAndCoilsAddressTableAccessAll)
00088000  local     .text:_CSMON_vSetupHoldingRegistersAndCoilsAddressTableFromCSMONParameterList (.text:_CSMON_vSetupHoldingRegistersAndCoilsAddressTableFromCSMONParameterList)
0008ac2c  local     .text:_CSMON_vSetupInputRegistersAndCoilsAddressTableAccessAll (.text:_CSMON_vSetupInputRegistersAndCoilsAddressTableAccessAll)
0008ac34  local     .text:_CSMON_vSetupInputRegistersAndCoilsAddressTableFromCSMONParameterList (.text:_CSMON_vSetupInputRegistersAndCoilsAddressTableFromCSMONParameterList)
0008a411  local     .text:_CSMON_vUpdateDateTimeFromApplication (.text:_CSMON_vUpdateDateTimeFromApplication)
0008a668  local     .text:_HMRECPRM_vGetDateTime (.text:_HMRECPRM_vGetDateTime)
00090250  local     _$P$T42$1 (.econst:_$P$T42$1)
00090298  local     _$P$T43$2 (.econst:_$P$T43$2)
00000000  local     _$P$T44$3 (.econst:_$P$T44$3)
0000ec3d  global    _CSMON_abFileAutorization_RecordReadOnly (.ebss:_CSMON_abFileAutorization_RecordReadOnly)
0000ee2e  global    _CSMON_abFileAutorization_RecordStringData (.ebss:_CSMON_abFileAutorization_RecordStringData)
0000edfe  global    _CSMON_abFlagProcessPassed (.ebss:_CSMON_abFlagProcessPassed)
00090200  global    _CSMON_asAccessLevelPasswords (.econst:_CSMON_asAccessLevelPasswords)
0000d000  global    _CSMON_asFileParameterDefinitionsFromAccessLevel (.ebss:_CSMON_asFileParameterDefinitionsFromAccessLevel)
0000ee31  global    _CSMON_au16FileAutorization_RecordOffsets (.ebss:_CSMON_au16FileAutorization_RecordOffsets)
0000ed3a  global    _CSMON_au32FileAutorization_FunctionAfterWriteFileRecord (.ebss:_CSMON_au32FileAutorization_FunctionAfterWriteFileRecord)
0000ede0  global    _CSMON_au32FileParameterDefinitionsFileRecordElementsRealAddressTable (.ebss:_CSMON_au32FileParameterDefinitionsFileRecordElementsRealAddressTable)
0000ee34  global    _CSMON_au32FileParameterDefinitionsFileRecordElementsRecordToRecordOffsetSizeBytesTable (.ebss:_CSMON_au32FileParameterDefinitionsFileRecordElementsRecordToRecordOffsetSizeBytesTable)
0000ede6  global    _CSMON_au32FileParameterDefinitionsFileRecordElementsSizeTable (.ebss:_CSMON_au32FileParameterDefinitionsFileRecordElementsSizeTable)
00090268  global    _CSMON_au8FileImplementedFunctionCodes (.econst:_CSMON_au8FileImplementedFunctionCodes)
0000ed6e  global    _CSMON_au8FileParameterCountElementsSizeTable (.ebss:_CSMON_au8FileParameterCountElementsSizeTable)
0009029e  global    _CSMON_au8FileParameterListElementsCountInPartTable (.econst:_CSMON_au8FileParameterListElementsCountInPartTable)
0000ec7c  global    _CSMON_au8FileParameterListElementsSizeTablePart1 (.ebss:_CSMON_au8FileParameterListElementsSizeTablePart1)
0000ee52  global    _CSMON_au8FileParameterListElementsSizeTablePart2 (.ebss:_CSMON_au8FileParameterListElementsSizeTablePart2)
0000ee53  global    _CSMON_au8FileParameterListElementsSizeTablePart3 (.ebss:_CSMON_au8FileParameterListElementsSizeTablePart3)
00000000  global    _CSMON_au8FileParameterNumbElementsSizeTablePart16Bits (.ebss:_CSMON_au8FileParameterNumbElementsSizeTablePart16Bits)
00000000  global    _CSMON_au8FileParameterNumbElementsSizeTablePart32Bits (.ebss:_CSMON_au8FileParameterNumbElementsSizeTablePart32Bits)
00000000  global    _CSMON_au8FileParameterNumbElementsSizeTablePart64Bits (.ebss:_CSMON_au8FileParameterNumbElementsSizeTablePart64Bits)
0000edb2  global    _CSMON_au8FileParameterNumericElementsSizeTable (.ebss:_CSMON_au8FileParameterNumericElementsSizeTable)
0000ed80  global    _CSMON_au8FileRTCElementsSizeTable (.ebss:_CSMON_au8FileRTCElementsSizeTable)
0000ec00  global    _CSMON_au8FileRecorderConfigElementsSizeTable (.ebss:_CSMON_au8FileRecorderConfigElementsSizeTable)
0000e384  global    _CSMON_au8FileRecorderDataElementsSizeTable (.ebss:_CSMON_au8FileRecorderDataElementsSizeTable)
0000ee37  global    _CSMON_au8FileRecorderDataElementsSizeTableUsedLength (.ebss:_CSMON_au8FileRecorderDataElementsSizeTableUsedLength)
0000edbb  global    _CSMON_au8FileRecorderStatusElementsSizeTable (.ebss:_CSMON_au8FileRecorderStatusElementsSizeTable)
0000eb14  global    _CSMON_au8FileScopeConfigurationElementsSizeTable (.ebss:_CSMON_au8FileScopeConfigurationElementsSizeTable)
0000ee54  global    _CSMON_au8FileScopeStatusElementsSizeTable (.ebss:_CSMON_au8FileScopeStatusElementsSizeTable)
0008a272  global    _CSMON_bAutorizationPasswordCheck (.text:_CSMON_bAutorizationPasswordCheck)
00089824  global    _CSMON_bCheckValidDateTime (.text:_CSMON_bCheckValidDateTime)
0000e846  global    _CSMON_bGetDateTimeAutorization (.ebss)
0000e848  global    _CSMON_bGetDateTimeRequest (.ebss)
00000000  global    _CSMON_bPasswordGenerate (.ebss:_CSMON_bPasswordGenerate)
00000000  global    _CSMON_bPasswordGenerateFromHash (.text:_CSMON_bPasswordGenerateFromHash)
0000e84b  global    _CSMON_bResetMaxMeasure (.ebss)
0000e861  global    _CSMON_bRunningInitialization (.ebss)
0000e847  global    _CSMON_bSetDateTimeRequest (.ebss)
0000e856  global    _CSMON_bUseAccessLevelForHoldingRegistersAndCoils (.ebss)
0000e857  global    _CSMON_bUseAccessLevelForInputRegistersAndCoils (.ebss)
0000e85e  global    _CSMON_bUseDisconnectOnTimeout (.ebss)
0000e84d  global    _CSMON_bWatchdogCalcNeeded (.ebss)
0008a434  global    _CSMON_eApplyParameterChanges (.text:_CSMON_eApplyParameterChanges)
00000000  global    _CSMON_eGetParameterCountInRecorder (.text:_CSMON_eGetParameterCountInRecorder)
00000000  global    _CSMON_eGetParameterInRecorderAtPosition (.text:_CSMON_eGetParameterInRecorderAtPosition)
00000000  global    _CSMON_eGetRecorderConfiguration (.text:_CSMON_eGetRecorderConfiguration)
00000000  global    _CSMON_eGetRecorderTriggerAtPosition (.text:_CSMON_eGetRecorderTriggerAtPosition)
00085df4  global    _CSMON_eInit (.text:_CSMON_eInit)
000869d4  global    _CSMON_eProcess (.text:_CSMON_eProcess)
00083ffc  global    _CSMON_eRegisterWriteParElementCallbackFunction (.text:_CSMON_eRegisterWriteParElementCallbackFunction)
0008a7e8  global    _CSMON_eResetParameterTable (.text:_CSMON_eResetParameterTable)
0008acd6  global    _CSMON_eSetAutoServiceWatchdogInternalSlowCalculationsInMainLoop (.text:_CSMON_eSetAutoServiceWatchdogInternalSlowCalculationsInMainLoop)
00000000  global    _CSMON_eSetExternalRecorderUsage (.text:_CSMON_eSetExternalRecorderUsage)
0008acdb  global    _CSMON_eSetFirmwareApplicationVersion (.text:_CSMON_eSetFirmwareApplicationVersion)
0008a862  global    _CSMON_eSetFlagProcessPassed (.text:_CSMON_eSetFlagProcessPassed)
0008ad26  global    _CSMON_eSetInternalTimerPeriod (.text:_CSMON_eSetInternalTimerPeriod)
0008ace0  global    _CSMON_eSetMaxTimeInISR (.text:_CSMON_eSetMaxTimeInISR)
0008ace5  global    _CSMON_eSetMinGuaranteedTimeBetweenTwoISRs (.text:_CSMON_eSetMinGuaranteedTimeBetweenTwoISRs)
00085412  global    _CSMON_eSetParameter (.text:_CSMON_eSetParameter)
0008a5e3  global    _CSMON_eSetParameterCountInRecorder (.text:_CSMON_eSetParameterCountInRecorder)
0008a7bc  global    _CSMON_eSetParameterCountInScope (.text:_CSMON_eSetParameterCountInScope)
0008a0e4  global    _CSMON_eSetParameterInRecorderAtPosition (.text:_CSMON_eSetParameterInRecorderAtPosition)
0008a16f  global    _CSMON_eSetParameterInScopeAtPosition (.text:_CSMON_eSetParameterInScopeAtPosition)
00000000  global    _CSMON_eSetParameterListAccessLevel (.text:_CSMON_eSetParameterListAccessLevel)
00000000  global    _CSMON_eSetParameterListBitsCount (.text:_CSMON_eSetParameterListBitsCount)
0008ae52  global    _CSMON_eSetParameterListDataDefault (.text:_CSMON_eSetParameterListDataDefault)
0008ae55  global    _CSMON_eSetParameterListDataMaximum (.text:_CSMON_eSetParameterListDataMaximum)
0008ae58  global    _CSMON_eSetParameterListDataMinimum (.text:_CSMON_eSetParameterListDataMinimum)
00000000  global    _CSMON_eSetParameterListDataOffset (.text:_CSMON_eSetParameterListDataOffset)
00000000  global    _CSMON_eSetParameterListDataType (.text:_CSMON_eSetParameterListDataType)
00000000  global    _CSMON_eSetParameterListFunctionCode (.text:_CSMON_eSetParameterListFunctionCode)
0008ae5b  global    _CSMON_eSetParameterListParameterID (.text:_CSMON_eSetParameterListParameterID)
0008ae5e  global    _CSMON_eSetParameterListRealAddress (.text:_CSMON_eSetParameterListRealAddress)
0008ae61  global    _CSMON_eSetParameterListRegisterFlags (.text:_CSMON_eSetParameterListRegisterFlags)
0008ae64  global    _CSMON_eSetParameterListRegisterSize (.text:_CSMON_eSetParameterListRegisterSize)
00000000  global    _CSMON_eSetParameterListShortNaming (.text:_CSMON_eSetParameterListShortNaming)
0008ae67  global    _CSMON_eSetParameterListValueFormat (.text:_CSMON_eSetParameterListValueFormat)
00000000  global    _CSMON_eSetParameterListVisualType (.text:_CSMON_eSetParameterListVisualType)
00000000  global    _CSMON_eSetParameterTableDescr (.text:_CSMON_eSetParameterTableDescr)
00000000  global    _CSMON_eSetParameterTableIndex (.text:_CSMON_eSetParameterTableIndex)
00000000  global    _CSMON_eSetRecorderConfiguration (.text:_CSMON_eSetRecorderConfiguration)
00089b30  global    _CSMON_eSetRecorderConfigurationSkipSamples (.text:_CSMON_eSetRecorderConfigurationSkipSamples)
000899c4  global    _CSMON_eSetRecorderTriggerAtPosition (.text:_CSMON_eSetRecorderTriggerAtPosition)
0008aba5  global    _CSMON_eSetServerOnStatus (.text:_CSMON_eSetServerOnStatus)
0008ad2a  global    _CSMON_eSetTimerPeriodISRFunctionRegister (.text:_CSMON_eSetTimerPeriodISRFunctionRegister)
00086fcf  global    _CSMON_eSetUpRecParam (.text:_CSMON_eSetUpRecParam)
00000000  global    _CSMON_eSetUpScopeParam (.text:_CSMON_eSetUpScopeParam)
00000000  global    _CSMON_eSetupWriteParElementFixedArguments (.text:_CSMON_eSetupWriteParElementFixedArguments)
00000000  global    _CSMON_nHashOutputLength (.ebss:_CSMON_nHashOutputLength)
0000e8b6  global    _CSMON_pasFileParameterList (.ebss)
0000e8b8  global    _CSMON_pasFileParameterShortName (.ebss)
0000e8c6  global    _CSMON_pauFileParameterNumeric (.ebss)
0000e8bc  global    _CSMON_psFileParameterAux (.ebss)
0000e8be  global    _CSMON_pu32FileParameterReserved (.ebss)
0000e8ba  global    _CSMON_pu32FileParameterString (.ebss)
0000e8c4  global    _CSMON_pu32HoldingRegistersAccessTableInRam (.ebss)
0000e8c0  global    _CSMON_pu32HoldingRegistersAddressTable (.ebss)
0000e8c2  global    _CSMON_pu32HoldingRegistersAddressTableInRam (.ebss)
0000e8b0  global    _CSMON_s32MaxTimeProcessAllowedCalc_Ticks (.ebss)
0000ed40  global    _CSMON_sDateTime (.ebss:_CSMON_sDateTime)
0000ed4c  global    _CSMON_sDateTimeApplication (.ebss:_CSMON_sDateTimeApplication)
0000ed58  global    _CSMON_sDateTimeDefault (.ebss:_CSMON_sDateTimeDefault)
0000e126  global    _CSMON_sFileAutorization (.ebss:_CSMON_sFileAutorization)
0000d400  global    _CSMON_sFileParameterAccessList (.ebss:_CSMON_sFileParameterAccessList)
0000ebf0  global    _CSMON_sFileParameterCount (.ebss:_CSMON_sFileParameterCount)
0000ee3a  global    _CSMON_sFileProtocolVersion (.ebss:_CSMON_sFileProtocolVersion)
0000e858  global    _CSMON_u16CurrentAccessLevelPrev (.ebss)
0000e859  global    _CSMON_u16FileParameterFillCount (.ebss)
0000e85b  global    _CSMON_u16FileParameterListCount (.ebss)
0000e85c  global    _CSMON_u16FileParameterNameCount (.ebss)
0000e85d  global    _CSMON_u16FileParameterNumeric (.ebss)
0000e85a  global    _CSMON_u16FileParameterUseMaxCnt (.ebss)
000891c4  global    _CSMON_u16FindIndexParameterTable (.text:_CSMON_u16FindIndexParameterTable)
0000e840  global    _CSMON_u16MaskSetupRecorderParam (.ebss)
0000e841  global    _CSMON_u16MaskStartRecorderParam (.ebss)
0000e842  global    _CSMON_u16MaskStopRecorderParam (.ebss)
0000e84f  global    _CSMON_u16MaxTimeInISR_usec (.ebss)
0000e851  global    _CSMON_u16MaxTimeTillWdtClear_usec (.ebss)
0000e852  global    _CSMON_u16MinTimeProcessAllowedNeeded_usec (.ebss)
0000e850  global    _CSMON_u16MinTimeProcessExit_usec (.ebss)
0000e860  global    _CSMON_u16NoMessageTimeoutOld_msec (.ebss)
0000e85f  global    _CSMON_u16NoMessageTimeout_msec (.ebss)
0008acea  global    _CSMON_u16ParametersAccessListIndexGenerate (.text:_CSMON_u16ParametersAccessListIndexGenerate)
0000e849  global    _CSMON_u16SCIErrorPercent (.ebss)
0000e84e  global    _CSMON_u16WatchdogPrescaler (.ebss)
0000e888  global    _CSMON_u32FreeRunTimerAccessChangeBegin (.ebss)
0000e88a  global    _CSMON_u32FreeRunTimerAccessChangeEnd (.ebss)
0000e88c  global    _CSMON_u32FreeRunTimerAccessChangeMax (.ebss)
0000e870  global    _CSMON_u32FreeRunTimerCheckSumListBegin (.ebss)
0000e872  global    _CSMON_u32FreeRunTimerCheckSumListEnd (.ebss)
0000e874  global    _CSMON_u32FreeRunTimerCheckSumListMax (.ebss)
0000e876  global    _CSMON_u32FreeRunTimerCheckSumNameBegin (.ebss)
0000e878  global    _CSMON_u32FreeRunTimerCheckSumNameEnd (.ebss)
0000e87a  global    _CSMON_u32FreeRunTimerCheckSumNameMax (.ebss)
0000e87c  global    _CSMON_u32FreeRunTimerCheckSumNumbBegin (.ebss)
0000e87e  global    _CSMON_u32FreeRunTimerCheckSumNumbEnd (.ebss)
0000e880  global    _CSMON_u32FreeRunTimerCheckSumNumbMax (.ebss)
0000e882  global    _CSMON_u32FreeRunTimerCheckSumStrgBegin (.ebss)
0000e884  global    _CSMON_u32FreeRunTimerCheckSumStrgEnd (.ebss)
0000e886  global    _CSMON_u32FreeRunTimerCheckSumStrgMax (.ebss)
0000e8cc  global    _CSMON_u32FreeRunTimerDiff (.ebss)
0000e8c8  global    _CSMON_u32FreeRunTimerNow (.ebss)
0000e892  global    _CSMON_u32FreeRunTimerPasswordHashBegin (.ebss)
0000e894  global    _CSMON_u32FreeRunTimerPasswordHashEnd (.ebss)
0000e896  global    _CSMON_u32FreeRunTimerPasswordHashMax (.ebss)
0000e88e  global    _CSMON_u32FreeRunTimerPrepareFileParameterAccessListEnd (.ebss)
0000e890  global    _CSMON_u32FreeRunTimerPrepareFileParameterAccessListMax (.ebss)
0000e8ca  global    _CSMON_u32FreeRunTimerPrev (.ebss)
0000e898  global    _CSMON_u32FreeRunTimerProcessBegin (.ebss)
0000e89c  global    _CSMON_u32FreeRunTimerProcessEnd (.ebss)
0000e89e  global    _CSMON_u32FreeRunTimerProcessMax (.ebss)
0000e89a  global    _CSMON_u32FreeRunTimerProcessNow (.ebss)
0008ad2e  global    _CSMON_u32GetBaudError_PPM (.text:_CSMON_u32GetBaudError_PPM)
0008a749  global    _CSMON_u32GetFreeRunningTimerMicroseconds (.text:_CSMON_u32GetFreeRunningTimerMicroseconds)
0008ad32  global    _CSMON_u32GetFreeRunningTimerTicks (.text:_CSMON_u32GetFreeRunningTimerTicks)
0008ae6a  global    _CSMON_u32GetModbusMessageCounterRegisterRealAddress (.text:_CSMON_u32GetModbusMessageCounterRegisterRealAddress)
0008a0b4  global    _CSMON_u32GetParameterAuxCheckSum (.text:_CSMON_u32GetParameterAuxCheckSum)
000888fb  global    _CSMON_u32GetParameterCheckSum (.text:_CSMON_u32GetParameterCheckSum)
00087137  global    _CSMON_u32GetParameterListCheckSum (.text:_CSMON_u32GetParameterListCheckSum)
00088b6c  global    _CSMON_u32GetParameterNumbCheckSum (.text:_CSMON_u32GetParameterNumbCheckSum)
00088d22  global    _CSMON_u32GetParameterShortNameCheckSum (.text:_CSMON_u32GetParameterShortNameCheckSum)
000890d6  global    _CSMON_u32GetParameterStringCheckSum (.text:_CSMON_u32GetParameterStringCheckSum)
0008a083  global    _CSMON_u32GetRealAddressAndSizeOffsetFromParameter (.text:_CSMON_u32GetRealAddressAndSizeOffsetFromParameter)
0000e8a4  global    _CSMON_u32MaxTimeInISR_Ticks (.ebss)
0000e8b2  global    _CSMON_u32MaxTimeProcessAllowed_Ticks (.ebss)
0000e8a6  global    _CSMON_u32MaxTimeProcess_Ticks (.ebss)
0000e8a8  global    _CSMON_u32MaxTimeTillWdtClearISRs (.ebss)
0000e8ac  global    _CSMON_u32MaxTimeTillWdtClear_Ticks (.ebss)
0000e8ae  global    _CSMON_u32MinTimeProcessAllowedNeeded_Ticks (.ebss)
0000e8aa  global    _CSMON_u32MinTimeProcessExit_Ticks (.ebss)
0000e8ce  global    _CSMON_u32NoMessageTime (.ebss)
0000e8d0  global    _CSMON_u32NoMessageTimeout_Ticks (.ebss)
0000e86c  global    _CSMON_u32SCIErrorPPM (.ebss)
0000e86e  global    _CSMON_u32ServiceWatchdogTimes (.ebss)
0000e8a2  global    _CSMON_u32WatchdogPeriod_Ticks (.ebss)
0000e8a0  global    _CSMON_u32WatchdogPeriod_usec (.ebss)
0008ad36  global    _CSMON_vAddSetupRecorderParameterMask (.text:_CSMON_vAddSetupRecorderParameterMask)
0008a339  global    _CSMON_vAutorizationReset (.text:_CSMON_vAutorizationReset)
0008914d  global    _CSMON_vCheckLoadRecorderTable (.text:_CSMON_vCheckLoadRecorderTable)
0008864e  global    _CSMON_vCheckSaveRecorderTable (.text:_CSMON_vCheckSaveRecorderTable)
0008a634  global    _CSMON_vFileParameterCountCheckSumUpdate (.text:_CSMON_vFileParameterCountCheckSumUpdate)
00087bd4  global    _CSMON_vFileRecoderStatusFix (.text:_CSMON_vFileRecoderStatusFix)
0008aa3c  global    _CSMON_vInitHoldingRegistersTableChanges (.text:_CSMON_vInitHoldingRegistersTableChanges)
0008a35d  global    _CSMON_vInitParameterListRealAddressRecordTables (.text:_CSMON_vInitParameterListRealAddressRecordTables)
00088db0  global    _CSMON_vInitRecorders (.text:_CSMON_vInitRecorders)
0008ab7d  global    _CSMON_vInitScopes (.text:_CSMON_vInitScopes)
00089314  global    _CSMON_vLoadRecorderConfigTrigger (.text:_CSMON_vLoadRecorderConfigTrigger)
00088a38  global    _CSMON_vLoadRecorderConfiguration (.text:_CSMON_vLoadRecorderConfiguration)
00088857  global    _CSMON_vPrepareFileParameterAccessList (.text:_CSMON_vPrepareFileParameterAccessList)
0008a113  global    _CSMON_vRecorderParamSetupProcess (.text:_CSMON_vRecorderParamSetupProcess)
00089770  global    _CSMON_vRecorderParamStartStopProcess (.text:_CSMON_vRecorderParamStartStopProcess)
0008a29a  global    _CSMON_vSaveRecorderConfig (.text:_CSMON_vSaveRecorderConfig)
00088284  global    _CSMON_vSaveRecorderConfigTrigger (.text:_CSMON_vSaveRecorderConfigTrigger)
00087298  global    _CSMON_vSaveRecorderConfiguration (.text:_CSMON_vSaveRecorderConfiguration)
00088c00  global    _CSMON_vSetDateTimeAutorization (.text:_CSMON_vSetDateTimeAutorization)
0008acef  global    _CSMON_vSetDateTimeRequest (.text:_CSMON_vSetDateTimeRequest)
0008ae6d  global    _CSMON_vSetModbusMessageCounterRegisterRealAddress (.text:_CSMON_vSetModbusMessageCounterRegisterRealAddress)
00000000  global    _CSMON_vSetSetupRecorderParameterMask (.text:_CSMON_vSetSetupRecorderParameterMask)
0008ad3a  global    _CSMON_vSetStartRecorderParameterMask (.text:_CSMON_vSetStartRecorderParameterMask)
00000000  global    _CSMON_vSetStopRecorderParameterMask (.text:_CSMON_vSetStopRecorderParameterMask)
00089ee0  global    _CSMON_vSetupHoldingRegistersAndCoilsAddressTableAccessAll (.text:_CSMON_vSetupHoldingRegistersAndCoilsAddressTableAccessAll)
00088000  global    _CSMON_vSetupHoldingRegistersAndCoilsAddressTableFromCSMONParameterList (.text:_CSMON_vSetupHoldingRegistersAndCoilsAddressTableFromCSMONParameterList)
0008ac2c  global    _CSMON_vSetupInputRegistersAndCoilsAddressTableAccessAll (.text:_CSMON_vSetupInputRegistersAndCoilsAddressTableAccessAll)
0008ac34  global    _CSMON_vSetupInputRegistersAndCoilsAddressTableFromCSMONParameterList (.text:_CSMON_vSetupInputRegistersAndCoilsAddressTableFromCSMONParameterList)
0008a411  global    _CSMON_vUpdateDateTimeFromApplication (.text:_CSMON_vUpdateDateTimeFromApplication)
0008a668  global    _HMRECPRM_vGetDateTime (.text:_HMRECPRM_vGetDateTime)
00000000  global    _arr (.ebss:_arr)
00000000  global    _arr2 (.ebss:_arr2)
0000e84c  global    _bRunOnceGetSavedRecorderState (.ebss)
0000e84a  global    _bServiceWatchdog (.ebss)
0000e855  global    _bSkipProcessFlag (.ebss)
0000e862  global    _eModbusDefaultCommandRead (.ebss)
0000e864  global    _eModbusDefaultCommandReadArray (.ebss)
0000e863  global    _eModbusDefaultCommandWrite (.ebss)
0000e865  global    _eModbusDefaultCommandWriteArray (.ebss)
0000e843  global    _eResponseCodeStartRecParam0 (.ebss)
0000e844  global    _eResponseCodeStartRecParam1 (.ebss)
0000e845  global    _eResponseCodeStartRecParam2 (.ebss)
0000ed9e  global    _sHashKey (.ebss:_sHashKey)
0000e6c0  global    _sRecConfigParam (.ebss:_sRecConfigParam)
0000e9c0  global    _sScopeConfigParam (.ebss:_sScopeConfigParam)
0000e866  global    _u16ArrayReadAsHolding (.ebss)
0000e853  global    _u16SkipProcessCounter (.ebss)
0000e854  global    _u16SkipProcessTag (.ebss)
0000e86a  global    _u32FreeRunTimerSysClkDiv (.ebss)
0000e868  global    _u32FreeRunTimerSysClkMHz (.ebss)
0000e8b4  global    _u32NumericDummy (.ebss)


================================================================================

CSMON_C28xx.lib : modbusreg.obj

Run/Load            
Value     Binding   Name (Section)
--------  --------  ---------------
0008ab56  local     $C$L1 (.text:_MODBUSREG_vDataZero)
00084175  local     $C$L10 (.text:_MODBUSREG_AddressTablesInit)
000841f5  local     $C$L11 (.text:_MODBUSREG_AddressTablesInit)
000841f9  local     $C$L12 (.text:_MODBUSREG_AddressTablesInit)
00084279  local     $C$L13 (.text:_MODBUSREG_AddressTablesInit)
0008427d  local     $C$L14 (.text:_MODBUSREG_AddressTablesInit)
000842fc  local     $C$L15 (.text:_MODBUSREG_AddressTablesInit)
00084300  local     $C$L16 (.text:_MODBUSREG_AddressTablesInit)
0008438e  local     $C$L17 (.text:_MODBUSREG_AddressTablesInit)
00084392  local     $C$L18 (.text:_MODBUSREG_AddressTablesInit)
000844bf  local     $C$L19 (.text:_MODBUSREG_AddressTablesInit)
0008ab5c  local     $C$L2 (.text:_MODBUSREG_vDataZero)
000844c3  local     $C$L20 (.text:_MODBUSREG_AddressTablesInit)
00084545  local     $C$L21 (.text:_MODBUSREG_AddressTablesInit)
00084549  local     $C$L22 (.text:_MODBUSREG_AddressTablesInit)
000845cf  local     $C$L23 (.text:_MODBUSREG_AddressTablesInit)
000845d3  local     $C$L24 (.text:_MODBUSREG_AddressTablesInit)
00084621  local     $C$L25 (.text:_MODBUSREG_AddressTablesInit)
00084636  local     $C$L26 (.text:_MODBUSREG_AddressTablesInit)
000846d7  local     $C$L27 (.text:_MODBUSREG_AddressTablesInit)
000846ec  local     $C$L28 (.text:_MODBUSREG_AddressTablesInit)
00084787  local     $C$L29 (.text:_MODBUSREG_AddressTablesInit)
00084037  local     $C$L3 (.text:_MODBUSREG_AddressTablesInit)
0008479b  local     $C$L30 (.text:_MODBUSREG_AddressTablesInit)
0008485c  local     $C$L31 (.text:_MODBUSREG_AddressTablesInit)
00084860  local     $C$L32 (.text:_MODBUSREG_AddressTablesInit)
000848e2  local     $C$L33 (.text:_MODBUSREG_AddressTablesInit)
000848e6  local     $C$L34 (.text:_MODBUSREG_AddressTablesInit)
00089655  local     $C$L35 (.text:_MODBUSREG_vFileDenyAccess)
00089660  local     $C$L36 (.text:_MODBUSREG_vFileDenyAccess)
0008966d  local     $C$L37 (.text:_MODBUSREG_vFileDenyAccess)
0008967a  local     $C$L38 (.text:_MODBUSREG_vFileDenyAccess)
00089687  local     $C$L39 (.text:_MODBUSREG_vFileDenyAccess)
0008403b  local     $C$L4 (.text:_MODBUSREG_AddressTablesInit)
00089694  local     $C$L40 (.text:_MODBUSREG_vFileDenyAccess)
000896a1  local     $C$L41 (.text:_MODBUSREG_vFileDenyAccess)
000896ae  local     $C$L42 (.text:_MODBUSREG_vFileDenyAccess)
00000010  local     $C$L43 (.text:_MODBUSREG_FileShortNameElementSizeandAddressUpdateInit)
0008973c  local     $C$L44 (.text:_MODBUSREG_FileRecorderExternalUpdateInit)
00089751  local     $C$L45 (.text:_MODBUSREG_FileRecorderExternalUpdateInit)
0008976b  local     $C$L46 (.text:_MODBUSREG_FileRecorderExternalUpdateInit)
0008a3c8  local     $C$L47 (.text:_MODBUSREG_FileRecorderElementSizeTableUsedSizeUpdateInit)
0000000e  local     $C$L48 (.text:_MODBUSREG_FileParameterNumbAddressUpdateInit)
0000000e  local     $C$L49 (.text:_MODBUSREG_FileParameterListAddressUpdateInit)
0008409b  local     $C$L5 (.text:_MODBUSREG_AddressTablesInit)
0008409f  local     $C$L6 (.text:_MODBUSREG_AddressTablesInit)
000840ff  local     $C$L7 (.text:_MODBUSREG_AddressTablesInit)
00084103  local     $C$L8 (.text:_MODBUSREG_AddressTablesInit)
00084171  local     $C$L9 (.text:_MODBUSREG_AddressTablesInit)
00000000  local     .bss (.bss)
0008255e  local     .cinit (.cinit)
00082999  local     .cinit:_MODBUSREG_asFileTable (.cinit:_MODBUSREG_asFileTable)
0008292f  local     .cinit:_MODBUSREG_au8DeviceIDMajorMinorRevision (.cinit:_MODBUSREG_au8DeviceIDMajorMinorRevision)
000827fc  local     .cinit:_MODBUSREG_au8DeviceIDModelName (.cinit:_MODBUSREG_au8DeviceIDModelName)
00082936  local     .cinit:_MODBUSREG_au8DeviceIDProductCode (.cinit:_MODBUSREG_au8DeviceIDProductCode)
00082865  local     .cinit:_MODBUSREG_au8DeviceIDProductName (.cinit:_MODBUSREG_au8DeviceIDProductName)
00082787  local     .cinit:_MODBUSREG_au8DeviceIDUserApplicationName (.cinit:_MODBUSREG_au8DeviceIDUserApplicationName)
00082871  local     .cinit:_MODBUSREG_au8DeviceIDUserReserve0 (.cinit:_MODBUSREG_au8DeviceIDUserReserve0)
0008287d  local     .cinit:_MODBUSREG_au8DeviceIDUserReserve1 (.cinit:_MODBUSREG_au8DeviceIDUserReserve1)
00082889  local     .cinit:_MODBUSREG_au8DeviceIDUserReserve2 (.cinit:_MODBUSREG_au8DeviceIDUserReserve2)
00082895  local     .cinit:_MODBUSREG_au8DeviceIDVendorName (.cinit:_MODBUSREG_au8DeviceIDVendorName)
0008279a  local     .cinit:_MODBUSREG_au8DeviceIDVendorUrl (.cinit:_MODBUSREG_au8DeviceIDVendorUrl)
000827ad  local     .cinit:_MODBUSREG_au8ServerIDData (.cinit:_MODBUSREG_au8ServerIDData)
00000000  local     .data (.data)
0000e8d2  local     .ebss (.ebss)
0000c800  local     .ebss:_MODBUSREG_asFileTable (.ebss:_MODBUSREG_asFileTable)
0000ec2d  local     .ebss:_MODBUSREG_au8DeviceIDMajorMinorRevision (.ebss:_MODBUSREG_au8DeviceIDMajorMinorRevision)
0000ec80  local     .ebss:_MODBUSREG_au8DeviceIDModelName (.ebss:_MODBUSREG_au8DeviceIDModelName)
0000ec90  local     .ebss:_MODBUSREG_au8DeviceIDProductCode (.ebss:_MODBUSREG_au8DeviceIDProductCode)
0000eca0  local     .ebss:_MODBUSREG_au8DeviceIDProductName (.ebss:_MODBUSREG_au8DeviceIDProductName)
0000ecb0  local     .ebss:_MODBUSREG_au8DeviceIDUserApplicationName (.ebss:_MODBUSREG_au8DeviceIDUserApplicationName)
0000ecc0  local     .ebss:_MODBUSREG_au8DeviceIDUserReserve0 (.ebss:_MODBUSREG_au8DeviceIDUserReserve0)
0000ecd0  local     .ebss:_MODBUSREG_au8DeviceIDUserReserve1 (.ebss:_MODBUSREG_au8DeviceIDUserReserve1)
0000ece0  local     .ebss:_MODBUSREG_au8DeviceIDUserReserve2 (.ebss:_MODBUSREG_au8DeviceIDUserReserve2)
0000ecf0  local     .ebss:_MODBUSREG_au8DeviceIDVendorName (.ebss:_MODBUSREG_au8DeviceIDVendorName)
0000ed00  local     .ebss:_MODBUSREG_au8DeviceIDVendorUrl (.ebss:_MODBUSREG_au8DeviceIDVendorUrl)
0000ed10  local     .ebss:_MODBUSREG_au8ServerIDData (.ebss:_MODBUSREG_au8ServerIDData)
0000d800  local     .ebss:_MODBUSREG_u32RegisterAccessTableInRam (.ebss:_MODBUSREG_u32RegisterAccessTableInRam)
00000000  local     .text (.text)
00084000  local     .text:_MODBUSREG_AddressTablesInit (.text:_MODBUSREG_AddressTablesInit)
00000000  local     .text:_MODBUSREG_FileParameterListAddressUpdateInit (.text:_MODBUSREG_FileParameterListAddressUpdateInit)
00000000  local     .text:_MODBUSREG_FileParameterNumbAddressUpdateInit (.text:_MODBUSREG_FileParameterNumbAddressUpdateInit)
0008a3a5  local     .text:_MODBUSREG_FileRecorderElementSizeTableUsedSizeUpdateInit (.text:_MODBUSREG_FileRecorderElementSizeTableUsedSizeUpdateInit)
00089712  local     .text:_MODBUSREG_FileRecorderExternalUpdateInit (.text:_MODBUSREG_FileRecorderExternalUpdateInit)
00000000  local     .text:_MODBUSREG_FileShortNameElementSizeandAddressUpdateInit (.text:_MODBUSREG_FileShortNameElementSizeandAddressUpdateInit)
0008adc6  local     .text:_MODBUSREG_u16GetHoldRegFillCount (.text:_MODBUSREG_u16GetHoldRegFillCount)
0008adca  local     .text:_MODBUSREG_u16GetHoldRegUsedCount (.text:_MODBUSREG_u16GetHoldRegUsedCount)
0008ae84  local     .text:_MODBUSREG_u16GetTableRegisterFlagsElementOffset (.text:_MODBUSREG_u16GetTableRegisterFlagsElementOffset)
0008ae86  local     .text:_MODBUSREG_u16GetTableRegisterSizeElementOffset (.text:_MODBUSREG_u16GetTableRegisterSizeElementOffset)
0008ae88  local     .text:_MODBUSREG_u16GetTableVirtAddressElementOffset (.text:_MODBUSREG_u16GetTableVirtAddressElementOffset)
0008ae76  local     .text:_MODBUSREG_u32GetAddressMessageCounterThisDevice (.text:_MODBUSREG_u32GetAddressMessageCounterThisDevice)
0008adce  local     .text:_MODBUSREG_u32GetRegisterAccessTableInRam (.text:_MODBUSREG_u32GetRegisterAccessTableInRam)
0008add2  local     .text:_MODBUSREG_u32GetRegisterAddressTable (.text:_MODBUSREG_u32GetRegisterAddressTable)
0008add6  local     .text:_MODBUSREG_u32GetRegisterAddressTableInRam (.text:_MODBUSREG_u32GetRegisterAddressTableInRam)
0008ae8a  local     .text:_MODBUSREG_u32GetTableRegisterFlags (.text:_MODBUSREG_u32GetTableRegisterFlags)
0008ae8c  local     .text:_MODBUSREG_u32GetTableRegisterSize (.text:_MODBUSREG_u32GetTableRegisterSize)
0008ae8e  local     .text:_MODBUSREG_u32GetTableVirtAddress (.text:_MODBUSREG_u32GetTableVirtAddress)
0008ab52  local     .text:_MODBUSREG_vDataZero (.text:_MODBUSREG_vDataZero)
000887b2  local     .text:_MODBUSREG_vFileAllowAccess (.text:_MODBUSREG_vFileAllowAccess)
00089652  local     .text:_MODBUSREG_vFileDenyAccess (.text:_MODBUSREG_vFileDenyAccess)
000892a7  local     .text:_MODBUSREG_vInit (.text:_MODBUSREG_vInit)
0008a731  local     .text:_MODBUSREG_vInitHoldingRegistersTableChanges (.text:_MODBUSREG_vInitHoldingRegistersTableChanges)
00000000  local     .text:_MODBUSREG_vInitHoldingRegistersTableChangesExternalList (.text:_MODBUSREG_vInitHoldingRegistersTableChangesExternalList)
00000000  local     .text:_MODBUSREG_vProcess (.text:_MODBUSREG_vProcess)
0008ae79  local     .text:_MODBUSREG_vSetAddressMessageCounterThisDevice (.text:_MODBUSREG_vSetAddressMessageCounterThisDevice)
0008adda  local     .text:_MODBUSREG_vSetFileAutorization_FunctionAfterWriteFileRecordTable (.text:_MODBUSREG_vSetFileAutorization_FunctionAfterWriteFileRecordTable)
0008adde  local     .text:_MODBUSREG_vSetFileParamCount_FunctionBeforeReadFileRecord (.text:_MODBUSREG_vSetFileParamCount_FunctionBeforeReadFileRecord)
0008ade2  local     .text:_MODBUSREG_vSetFileRTC_FunctionAfterReadFileRecord (.text:_MODBUSREG_vSetFileRTC_FunctionAfterReadFileRecord)
0008ade6  local     .text:_MODBUSREG_vSetFileRTC_FunctionAfterWriteFileRecord (.text:_MODBUSREG_vSetFileRTC_FunctionAfterWriteFileRecord)
0008adea  local     .text:_MODBUSREG_vSetFileRecConfig_FunctionAfterWriteFileRecord (.text:_MODBUSREG_vSetFileRecConfig_FunctionAfterWriteFileRecord)
0008adee  local     .text:_MODBUSREG_vSetFileRecStatus_FunctionIndexGenerationFileRecord (.text:_MODBUSREG_vSetFileRecStatus_FunctionIndexGenerationFileRecord)
0008adf2  local     .text:_MODBUSREG_vSetHoldRegFillCount (.text:_MODBUSREG_vSetHoldRegFillCount)
0008adf6  local     .text:_MODBUSREG_vSetModbusParamCount (.text:_MODBUSREG_vSetModbusParamCount)
0008adfa  local     .text:_MODBUSREG_vSetParamAuxAddress (.text:_MODBUSREG_vSetParamAuxAddress)
0008adfe  local     .text:_MODBUSREG_vSetParamCount (.text:_MODBUSREG_vSetParamCount)
0008ae02  local     .text:_MODBUSREG_vSetParamListAddress (.text:_MODBUSREG_vSetParamListAddress)
0008ae06  local     .text:_MODBUSREG_vSetParamNameAddress (.text:_MODBUSREG_vSetParamNameAddress)
0008ae0a  local     .text:_MODBUSREG_vSetParamNumbAddress (.text:_MODBUSREG_vSetParamNumbAddress)
0008ae0e  local     .text:_MODBUSREG_vSetParamRecorderConfigAddress (.text:_MODBUSREG_vSetParamRecorderConfigAddress)
0008ae12  local     .text:_MODBUSREG_vSetParamReservedAddress (.text:_MODBUSREG_vSetParamReservedAddress)
0008ae16  local     .text:_MODBUSREG_vSetParamScopeConfigAddress (.text:_MODBUSREG_vSetParamScopeConfigAddress)
0008ae1a  local     .text:_MODBUSREG_vSetParamStringAddress (.text:_MODBUSREG_vSetParamStringAddress)
00000000  local     .text:_MODBUSREG_vSetTableProcessFuncInRam (.text:_MODBUSREG_vSetTableProcessFuncInRam)
00000000  local     .text:_MODBUSREG_vSetTableRealAddressInRam (.text:_MODBUSREG_vSetTableRealAddressInRam)
00000000  local     .text:_MODBUSREG_vSetTableRegisterFlags (.text:_MODBUSREG_vSetTableRegisterFlags)
00000000  local     .text:_MODBUSREG_vSetTableRegisterSize (.text:_MODBUSREG_vSetTableRegisterSize)
00000000  local     .text:_MODBUSREG_vSetTableVirtAddress (.text:_MODBUSREG_vSetTableVirtAddress)
0000e8d6  global    _CoilTest (.ebss)
0000e8d7  global    _HMMODBUS_u16RegisterAddressTableControlParametersStartIndex (.ebss)
0000e8d5  global    _InputCoilDummy (.ebss)
0000e8d4  global    _InputRegisterDummy (.ebss)
00084000  global    _MODBUSREG_AddressTablesInit (.text:_MODBUSREG_AddressTablesInit)
00000000  global    _MODBUSREG_FileParameterListAddressUpdateInit (.text:_MODBUSREG_FileParameterListAddressUpdateInit)
00000000  global    _MODBUSREG_FileParameterNumbAddressUpdateInit (.text:_MODBUSREG_FileParameterNumbAddressUpdateInit)
0008a3a5  global    _MODBUSREG_FileRecorderElementSizeTableUsedSizeUpdateInit (.text:_MODBUSREG_FileRecorderElementSizeTableUsedSizeUpdateInit)
00089712  global    _MODBUSREG_FileRecorderExternalUpdateInit (.text:_MODBUSREG_FileRecorderExternalUpdateInit)
00000000  global    _MODBUSREG_FileShortNameElementSizeandAddressUpdateInit (.text:_MODBUSREG_FileShortNameElementSizeandAddressUpdateInit)
0000c800  global    _MODBUSREG_asFileTable (.ebss:_MODBUSREG_asFileTable)
0000ec2d  global    _MODBUSREG_au8DeviceIDMajorMinorRevision (.ebss:_MODBUSREG_au8DeviceIDMajorMinorRevision)
0000ec80  global    _MODBUSREG_au8DeviceIDModelName (.ebss:_MODBUSREG_au8DeviceIDModelName)
0000ec90  global    _MODBUSREG_au8DeviceIDProductCode (.ebss:_MODBUSREG_au8DeviceIDProductCode)
0000eca0  global    _MODBUSREG_au8DeviceIDProductName (.ebss:_MODBUSREG_au8DeviceIDProductName)
0000ecb0  global    _MODBUSREG_au8DeviceIDUserApplicationName (.ebss:_MODBUSREG_au8DeviceIDUserApplicationName)
0000ecc0  global    _MODBUSREG_au8DeviceIDUserReserve0 (.ebss:_MODBUSREG_au8DeviceIDUserReserve0)
0000ecd0  global    _MODBUSREG_au8DeviceIDUserReserve1 (.ebss:_MODBUSREG_au8DeviceIDUserReserve1)
0000ece0  global    _MODBUSREG_au8DeviceIDUserReserve2 (.ebss:_MODBUSREG_au8DeviceIDUserReserve2)
0000ecf0  global    _MODBUSREG_au8DeviceIDVendorName (.ebss:_MODBUSREG_au8DeviceIDVendorName)
0000ed00  global    _MODBUSREG_au8DeviceIDVendorUrl (.ebss:_MODBUSREG_au8DeviceIDVendorUrl)
0000ed10  global    _MODBUSREG_au8ServerIDData (.ebss:_MODBUSREG_au8ServerIDData)
0000e8fc  global    _MODBUSREG_pu32RegisterAddressTable (.ebss)
0000e8fe  global    _MODBUSREG_pu32RegisterAddressTableInRam (.ebss)
0000e8dd  global    _MODBUSREG_u16FileTableParameterListIndex (.ebss)
0000e8de  global    _MODBUSREG_u16FileTableParameterNumbIndex (.ebss)
0000e8db  global    _MODBUSREG_u16FileTableRecorderIndex (.ebss)
0000e8dc  global    _MODBUSREG_u16FileTableShortNameIndex (.ebss)
0008adc6  global    _MODBUSREG_u16GetHoldRegFillCount (.text:_MODBUSREG_u16GetHoldRegFillCount)
0008adca  global    _MODBUSREG_u16GetHoldRegUsedCount (.text:_MODBUSREG_u16GetHoldRegUsedCount)
0008ae84  global    _MODBUSREG_u16GetTableRegisterFlagsElementOffset (.text:_MODBUSREG_u16GetTableRegisterFlagsElementOffset)
0008ae86  global    _MODBUSREG_u16GetTableRegisterSizeElementOffset (.text:_MODBUSREG_u16GetTableRegisterSizeElementOffset)
0008ae88  global    _MODBUSREG_u16GetTableVirtAddressElementOffset (.text:_MODBUSREG_u16GetTableVirtAddressElementOffset)
0000e8d8  global    _MODBUSREG_u16HoldRegFillCount (.ebss)
0000e8da  global    _MODBUSREG_u16HoldRegListCount (.ebss)
0000e8d9  global    _MODBUSREG_u16HoldRegUsedCount (.ebss)
0000e8d2  global    _MODBUSREG_u16ModbusParamCount (.ebss)
0000e8d3  global    _MODBUSREG_u16ParamCount (.ebss)
0000e8f6  global    _MODBUSREG_u32FileAutorization_FunctionAfterWriteFileRecordTable (.ebss)
0000e8f4  global    _MODBUSREG_u32FileParamCount_FunctionBeforeReadFileRecord (.ebss)
0000e8f2  global    _MODBUSREG_u32FileRTC_FunctionAfterReadFileRecord (.ebss)
0000e8f0  global    _MODBUSREG_u32FileRTC_FunctionAfterWriteFileRecord (.ebss)
0000e8fa  global    _MODBUSREG_u32FileRecConfig_FunctionAfterWriteFileRecord (.ebss)
0000e8f8  global    _MODBUSREG_u32FileRecStatus_FunctionIndexGenerationFileRecord (.ebss)
0008ae76  global    _MODBUSREG_u32GetAddressMessageCounterThisDevice (.text:_MODBUSREG_u32GetAddressMessageCounterThisDevice)
0008adce  global    _MODBUSREG_u32GetRegisterAccessTableInRam (.text:_MODBUSREG_u32GetRegisterAccessTableInRam)
0008add2  global    _MODBUSREG_u32GetRegisterAddressTable (.text:_MODBUSREG_u32GetRegisterAddressTable)
0008add6  global    _MODBUSREG_u32GetRegisterAddressTableInRam (.text:_MODBUSREG_u32GetRegisterAddressTableInRam)
0008ae8a  global    _MODBUSREG_u32GetTableRegisterFlags (.text:_MODBUSREG_u32GetTableRegisterFlags)
0008ae8c  global    _MODBUSREG_u32GetTableRegisterSize (.text:_MODBUSREG_u32GetTableRegisterSize)
0008ae8e  global    _MODBUSREG_u32GetTableVirtAddress (.text:_MODBUSREG_u32GetTableVirtAddress)
0000e8ec  global    _MODBUSREG_u32ParamAuxAddress (.ebss)
0000e8e4  global    _MODBUSREG_u32ParamListAddress (.ebss)
0000e8e6  global    _MODBUSREG_u32ParamNameAddress (.ebss)
0000e8e8  global    _MODBUSREG_u32ParamNumbAddress (.ebss)
0000e8e0  global    _MODBUSREG_u32ParamRecorderConfigAddress (.ebss)
0000e8ee  global    _MODBUSREG_u32ParamReservedAddress (.ebss)
0000e8e2  global    _MODBUSREG_u32ParamScopeConfigAddress (.ebss)
0000e8ea  global    _MODBUSREG_u32ParamStringAddress (.ebss)
0000d800  global    _MODBUSREG_u32RegisterAccessTableInRam (.ebss:_MODBUSREG_u32RegisterAccessTableInRam)
0008ab52  global    _MODBUSREG_vDataZero (.text:_MODBUSREG_vDataZero)
000887b2  global    _MODBUSREG_vFileAllowAccess (.text:_MODBUSREG_vFileAllowAccess)
00089652  global    _MODBUSREG_vFileDenyAccess (.text:_MODBUSREG_vFileDenyAccess)
000892a7  global    _MODBUSREG_vInit (.text:_MODBUSREG_vInit)
0008a731  global    _MODBUSREG_vInitHoldingRegistersTableChanges (.text:_MODBUSREG_vInitHoldingRegistersTableChanges)
00000000  global    _MODBUSREG_vInitHoldingRegistersTableChangesExternalList (.text:_MODBUSREG_vInitHoldingRegistersTableChangesExternalList)
00000000  global    _MODBUSREG_vProcess (.text:_MODBUSREG_vProcess)
0008ae79  global    _MODBUSREG_vSetAddressMessageCounterThisDevice (.text:_MODBUSREG_vSetAddressMessageCounterThisDevice)
0008adda  global    _MODBUSREG_vSetFileAutorization_FunctionAfterWriteFileRecordTable (.text:_MODBUSREG_vSetFileAutorization_FunctionAfterWriteFileRecordTable)
0008adde  global    _MODBUSREG_vSetFileParamCount_FunctionBeforeReadFileRecord (.text:_MODBUSREG_vSetFileParamCount_FunctionBeforeReadFileRecord)
0008ade2  global    _MODBUSREG_vSetFileRTC_FunctionAfterReadFileRecord (.text:_MODBUSREG_vSetFileRTC_FunctionAfterReadFileRecord)
0008ade6  global    _MODBUSREG_vSetFileRTC_FunctionAfterWriteFileRecord (.text:_MODBUSREG_vSetFileRTC_FunctionAfterWriteFileRecord)
0008adea  global    _MODBUSREG_vSetFileRecConfig_FunctionAfterWriteFileRecord (.text:_MODBUSREG_vSetFileRecConfig_FunctionAfterWriteFileRecord)
0008adee  global    _MODBUSREG_vSetFileRecStatus_FunctionIndexGenerationFileRecord (.text:_MODBUSREG_vSetFileRecStatus_FunctionIndexGenerationFileRecord)
0008adf2  global    _MODBUSREG_vSetHoldRegFillCount (.text:_MODBUSREG_vSetHoldRegFillCount)
0008adf6  global    _MODBUSREG_vSetModbusParamCount (.text:_MODBUSREG_vSetModbusParamCount)
0008adfa  global    _MODBUSREG_vSetParamAuxAddress (.text:_MODBUSREG_vSetParamAuxAddress)
0008adfe  global    _MODBUSREG_vSetParamCount (.text:_MODBUSREG_vSetParamCount)
0008ae02  global    _MODBUSREG_vSetParamListAddress (.text:_MODBUSREG_vSetParamListAddress)
0008ae06  global    _MODBUSREG_vSetParamNameAddress (.text:_MODBUSREG_vSetParamNameAddress)
0008ae0a  global    _MODBUSREG_vSetParamNumbAddress (.text:_MODBUSREG_vSetParamNumbAddress)
0008ae0e  global    _MODBUSREG_vSetParamRecorderConfigAddress (.text:_MODBUSREG_vSetParamRecorderConfigAddress)
0008ae12  global    _MODBUSREG_vSetParamReservedAddress (.text:_MODBUSREG_vSetParamReservedAddress)
0008ae16  global    _MODBUSREG_vSetParamScopeConfigAddress (.text:_MODBUSREG_vSetParamScopeConfigAddress)
0008ae1a  global    _MODBUSREG_vSetParamStringAddress (.text:_MODBUSREG_vSetParamStringAddress)
00000000  global    _MODBUSREG_vSetTableProcessFuncInRam (.text:_MODBUSREG_vSetTableProcessFuncInRam)
00000000  global    _MODBUSREG_vSetTableRealAddressInRam (.text:_MODBUSREG_vSetTableRealAddressInRam)
00000000  global    _MODBUSREG_vSetTableRegisterFlags (.text:_MODBUSREG_vSetTableRegisterFlags)
00000000  global    _MODBUSREG_vSetTableRegisterSize (.text:_MODBUSREG_vSetTableRegisterSize)
00000000  global    _MODBUSREG_vSetTableVirtAddress (.text:_MODBUSREG_vSetTableVirtAddress)


================================================================================

CSMON_C28xx.lib : tmr_drv.obj

Run/Load            
Value     Binding   Name (Section)
--------  --------  ---------------
0008a016  local     $C$L1 (.text:_configCPUTimer)
00088535  local     $C$L10 (.text:_TMR2_ISR)
0008853a  local     $C$L11 (.text:_TMR2_ISR)
0008853d  local     $C$L12 (.text:_TMR2_ISR)
00088561  local     $C$L13 (.text:_TMR2_ISR)
00088566  local     $C$L14 (.text:_TMR2_ISR)
00088569  local     $C$L15 (.text:_TMR2_ISR)
0008857a  local     $C$L16 (.text:_TMR2_ISR)
0008abe3  local     $C$L17 (.text:_TIMER_vResetTimerMainFunctionDelayCounter)
0008a01a  local     $C$L2 (.text:_configCPUTimer)
0008a01d  local     $C$L3 (.text:_configCPUTimer)
00088502  local     $C$L4 (.text:_TMR2_ISR)
00088504  local     $C$L5 (.text:_TMR2_ISR)
00088506  local     $C$L6 (.text:_TMR2_ISR)
00088507  local     $C$L7 (.text:_TMR2_ISR)
00088509  local     $C$L8 (.text:_TMR2_ISR)
00088513  local     $C$L9 (.text:_TMR2_ISR)
00000000  local     .bss (.bss)
00082819  local     .cinit (.cinit)
000828b7  local     .cinit:_pfDelayedFunction (.cinit:_pfDelayedFunction)
000828c2  local     .cinit:_pfDelayedFunction_u8 (.cinit:_pfDelayedFunction_u8)
00000000  local     .data (.data)
0000ed20  local     .ebss (.ebss)
0000ed78  local     .ebss:_pfDelayedFunction (.ebss:_pfDelayedFunction)
0000edc0  local     .ebss:_pfDelayedFunction_u8 (.ebss:_pfDelayedFunction_u8)
0000ee1e  local     .ebss:_u16TimerMainDelayedData (.ebss:_u16TimerMainDelayedData)
0000ee22  local     .ebss:_u16TimerMainFunctionDelay (.ebss:_u16TimerMainFunctionDelay)
0000ee26  local     .ebss:_u16TimerMainFunctionDelayCompare (.ebss:_u16TimerMainFunctionDelayCompare)
0000ee2a  local     .ebss:_u16TimerMainFunctionDelayCounter (.ebss:_u16TimerMainFunctionDelayCounter)
00000000  local     .text (.text)
0008acc4  local     .text:_TIMER_u16ResetTimerMainPeriod (.text:_TIMER_u16ResetTimerMainPeriod)
0008ae1e  local     .text:_TIMER_vGetTimerMainRollingCounter (.text:_TIMER_vGetTimerMainRollingCounter)
0008abdb  local     .text:_TIMER_vResetTimerMainFunctionDelayCounter (.text:_TIMER_vResetTimerMainFunctionDelayCounter)
0008ae22  local     .text:_TIMER_vSetupTimerMainCSMONFunction (.text:_TIMER_vSetupTimerMainCSMONFunction)
0008ad21  local     .text:_TIMER_vSetupTimerMainDelayedData (.text:_TIMER_vSetupTimerMainDelayedData)
00000000  local     .text:_TIMER_vSetupTimerMainDelayedFunction (.text:_TIMER_vSetupTimerMainDelayedFunction)
0008abe4  local     .text:_TIMER_vSetupTimerMainDelayedFunctionSendData (.text:_TIMER_vSetupTimerMainDelayedFunctionSendData)
00000000  local     .text:_TIMER_vSetupTimerMainFunctionDelay (.text:_TIMER_vSetupTimerMainFunctionDelay)
0008aae7  local     .text:_TIMER_vSetupTimerMainFunctionDelayCompare (.text:_TIMER_vSetupTimerMainFunctionDelayCompare)
000884d3  local     .text:_TMR2_ISR (.text:_TMR2_ISR)
0008ae26  local     .text:_TMR_u16GetFreeRunTimerPrescaller (.text:_TMR_u16GetFreeRunTimerPrescaller)
0008a56f  local     .text:_TMR_vInit (.text:_TMR_vInit)
0008a475  local     .text:_TMR_vInitCPUTimers (.text:_TMR_vInitCPUTimers)
00089fec  local     .text:_configCPUTimer (.text:_configCPUTimer)
0008acc4  global    _TIMER_u16ResetTimerMainPeriod (.text:_TIMER_u16ResetTimerMainPeriod)
0008ae1e  global    _TIMER_vGetTimerMainRollingCounter (.text:_TIMER_vGetTimerMainRollingCounter)
0008abdb  global    _TIMER_vResetTimerMainFunctionDelayCounter (.text:_TIMER_vResetTimerMainFunctionDelayCounter)
0008ae22  global    _TIMER_vSetupTimerMainCSMONFunction (.text:_TIMER_vSetupTimerMainCSMONFunction)
0008ad21  global    _TIMER_vSetupTimerMainDelayedData (.text:_TIMER_vSetupTimerMainDelayedData)
00000000  global    _TIMER_vSetupTimerMainDelayedFunction (.text:_TIMER_vSetupTimerMainDelayedFunction)
0008abe4  global    _TIMER_vSetupTimerMainDelayedFunctionSendData (.text:_TIMER_vSetupTimerMainDelayedFunctionSendData)
00000000  global    _TIMER_vSetupTimerMainFunctionDelay (.text:_TIMER_vSetupTimerMainFunctionDelay)
0008aae7  global    _TIMER_vSetupTimerMainFunctionDelayCompare (.text:_TIMER_vSetupTimerMainFunctionDelayCompare)
000884d3  global    _TMR2_ISR (.text:_TMR2_ISR)
0000ed27  global    _TMR_u16FreeRunTimerPrescaller (.ebss)
0008ae26  global    _TMR_u16GetFreeRunTimerPrescaller (.text:_TMR_u16GetFreeRunTimerPrescaller)
0008a56f  global    _TMR_vInit (.text:_TMR_vInit)
0008a475  global    _TMR_vInitCPUTimers (.text:_TMR_vInitCPUTimers)
00089fec  global    _configCPUTimer (.text:_configCPUTimer)
0000ed20  global    _cpuTimer0IntCount (.ebss)
0000ed21  global    _cpuTimer1IntCount (.ebss)
0000ed22  global    _cpuTimer2IntCount (.ebss)
0000ed28  global    _hours (.ebss)
0000ed29  global    _minutes (.ebss)
0000ed2c  global    _pfCSMONFunction (.ebss)
0000ed78  global    _pfDelayedFunction (.ebss:_pfDelayedFunction)
0000edc0  global    _pfDelayedFunction_u8 (.ebss:_pfDelayedFunction_u8)
0000ed2b  global    _second_Passed (.ebss)
0000ed2a  global    _seconds (.ebss)
0000ed25  global    _u16SecondCounter (.ebss)
0000ed24  global    _u16SecondPeriod (.ebss)
0000ee1e  global    _u16TimerMainDelayedData (.ebss:_u16TimerMainDelayedData)
0000ee22  global    _u16TimerMainFunctionDelay (.ebss:_u16TimerMainFunctionDelay)
0000ee26  global    _u16TimerMainFunctionDelayCompare (.ebss:_u16TimerMainFunctionDelayCompare)
0000ee2a  global    _u16TimerMainFunctionDelayCounter (.ebss:_u16TimerMainFunctionDelayCounter)
0000ed26  global    _u16TimerMainISRCounter (.ebss)
0000ed23  global    _u16TimerMainPeriod (.ebss)


================================================================================

CSMON_C28xx.lib : uart_drv.obj

Run/Load            
Value     Binding   Name (Section)
--------  --------  ---------------
0008ac22  local     $C$L1 (.text:_UART_TxEna)
0008963c  local     $C$L10 (.text:_UART_RXInterrupt)
00089640  local     $C$L11 (.text:_UART_RXInterrupt)
0008964d  local     $C$L12 (.text:_UART_RXInterrupt)
0008aa85  local     $C$L13 (.text:_UART_IsTxEmpty)
0008ac19  local     $C$L2 (.text:_UART_TxDis)
00000008  local     $C$L3 (.text:_UART_TransmitEnable)
0008ac10  local     $C$L4 (.text:_UART_TransmitDisable)
00000007  local     $C$L5 (.text:_UART_RxEna)
00000007  local     $C$L6 (.text:_UART_RxDis)
0008aaff  local     $C$L7 (.text:_UART_ReadDataRxAvailable)
00089d34  local     $C$L8 (.text:_UART_ReadDataRx)
00089d36  local     $C$L9 (.text:_UART_ReadDataRx)
00000000  local     .bss (.bss)
00082985  local     .cinit (.cinit)
0008293d  local     .cinit:_UARTRxBufferRDCount (.cinit:_UARTRxBufferRDCount)
00082944  local     .cinit:_UARTRxBufferRDIndex (.cinit:_UARTRxBufferRDIndex)
0008294b  local     .cinit:_UARTRxBufferWRCount (.cinit:_UARTRxBufferWRCount)
00082952  local     .cinit:_UARTRxBufferWRIndex (.cinit:_UARTRxBufferWRIndex)
000828ac  local     .cinit:_UART_RXIntOverflowCounter (.cinit:_UART_RXIntOverflowCounter)
00000000  local     .cinit:_UART_RXOverflowCounter (.cinit:_UART_RXOverflowCounter)
000828cd  local     .cinit:_u32TimeDiffLast (.cinit:_u32TimeDiffLast)
000828d8  local     .cinit:_u32TimeDiffNow (.cinit:_u32TimeDiffNow)
000828e3  local     .cinit:_u32TimeDiffRead (.cinit:_u32TimeDiffRead)
00000000  local     .data (.data)
0000ee49  local     .ebss (.ebss)
0000dc00  local     .ebss:_UARTRxBuffer (.ebss:_UARTRxBuffer)
0000ee0a  local     .ebss:_UARTRxBufferRDCount (.ebss:_UARTRxBufferRDCount)
0000ee0e  local     .ebss:_UARTRxBufferRDIndex (.ebss:_UARTRxBufferRDIndex)
0000a800  local     .ebss:_UARTRxBufferTimeDiff (.ebss:_UARTRxBufferTimeDiff)
0000ee12  local     .ebss:_UARTRxBufferWRCount (.ebss:_UARTRxBufferWRCount)
0000ee16  local     .ebss:_UARTRxBufferWRIndex (.ebss:_UARTRxBufferWRIndex)
0000e278  local     .ebss:_UART_RXIntOverflowCounter (.ebss:_UART_RXIntOverflowCounter)
00000000  local     .ebss:_UART_RXOverflowCounter (.ebss:_UART_RXOverflowCounter)
00000000  local     .ebss:_UART_sHandle (.ebss:_UART_sHandle)
0000edc8  local     .ebss:_u32TimeDiffLast (.ebss:_u32TimeDiffLast)
0000edd0  local     .ebss:_u32TimeDiffNow (.ebss:_u32TimeDiffNow)
0000edd8  local     .ebss:_u32TimeDiffRead (.ebss:_u32TimeDiffRead)
00000000  local     .text (.text)
0008acca  local     .text:_UART_GetChar (.text:_UART_GetChar)
00000000  local     .text:_UART_IsRxReady (.text:_UART_IsRxReady)
0008aa78  local     .text:_UART_IsTxEmpty (.text:_UART_IsTxEmpty)
00000000  local     .text:_UART_IsTxReady (.text:_UART_IsTxReady)
0008abed  local     .text:_UART_PutChar (.text:_UART_PutChar)
00000000  local     .text:_UART_PutNextAddress (.text:_UART_PutNextAddress)
000895ed  local     .text:_UART_RXInterrupt (.text:_UART_RXInterrupt)
00089cfa  local     .text:_UART_ReadDataRx (.text:_UART_ReadDataRx)
0008aaf4  local     .text:_UART_ReadDataRxAvailable (.text:_UART_ReadDataRxAvailable)
0008abf6  local     .text:_UART_ReadDataRxTimeDiff (.text:_UART_ReadDataRxTimeDiff)
00000000  local     .text:_UART_RxDis (.text:_UART_RxDis)
00000000  local     .text:_UART_RxEna (.text:_UART_RxEna)
0008abff  local     .text:_UART_TXInterrupt (.text:_UART_TXInterrupt)
0008ac08  local     .text:_UART_TransmitDisable (.text:_UART_TransmitDisable)
00000000  local     .text:_UART_TransmitEnable (.text:_UART_TransmitEnable)
0008ac11  local     .text:_UART_TxDis (.text:_UART_TxDis)
0008ac1a  local     .text:_UART_TxEna (.text:_UART_TxEna)
0008a8e5  local     .text:_UART_TxIntDis (.text:_UART_TxIntDis)
0008a8f7  local     .text:_UART_TxIntEna (.text:_UART_TxIntEna)
00000000  local     .text:_UART_bUseSCIA_On_USB_Connector (.text:_UART_bUseSCIA_On_USB_Connector)
0008a69c  local     .text:_UART_vInit (.text:_UART_vInit)
00000000  local     .text:_UART_vReset (.text:_UART_vReset)
0000dc00  global    _UARTRxBuffer (.ebss:_UARTRxBuffer)
0000ee0a  global    _UARTRxBufferRDCount (.ebss:_UARTRxBufferRDCount)
0000ee0e  global    _UARTRxBufferRDIndex (.ebss:_UARTRxBufferRDIndex)
0000a800  global    _UARTRxBufferTimeDiff (.ebss:_UARTRxBufferTimeDiff)
0000ee12  global    _UARTRxBufferWRCount (.ebss:_UARTRxBufferWRCount)
0000ee16  global    _UARTRxBufferWRIndex (.ebss:_UARTRxBufferWRIndex)
0008acca  global    _UART_GetChar (.text:_UART_GetChar)
00000000  global    _UART_IsRxReady (.text:_UART_IsRxReady)
0008aa78  global    _UART_IsTxEmpty (.text:_UART_IsTxEmpty)
00000000  global    _UART_IsTxReady (.text:_UART_IsTxReady)
0008abed  global    _UART_PutChar (.text:_UART_PutChar)
00000000  global    _UART_PutNextAddress (.text:_UART_PutNextAddress)
0000e278  global    _UART_RXIntOverflowCounter (.ebss:_UART_RXIntOverflowCounter)
000895ed  global    _UART_RXInterrupt (.text:_UART_RXInterrupt)
00000000  global    _UART_RXOverflowCounter (.ebss:_UART_RXOverflowCounter)
00089cfa  global    _UART_ReadDataRx (.text:_UART_ReadDataRx)
0008aaf4  global    _UART_ReadDataRxAvailable (.text:_UART_ReadDataRxAvailable)
0008abf6  global    _UART_ReadDataRxTimeDiff (.text:_UART_ReadDataRxTimeDiff)
00000000  global    _UART_RxDis (.text:_UART_RxDis)
00000000  global    _UART_RxEna (.text:_UART_RxEna)
0008abff  global    _UART_TXInterrupt (.text:_UART_TXInterrupt)
0008ac08  global    _UART_TransmitDisable (.text:_UART_TransmitDisable)
00000000  global    _UART_TransmitEnable (.text:_UART_TransmitEnable)
0008ac11  global    _UART_TxDis (.text:_UART_TxDis)
0008ac1a  global    _UART_TxEna (.text:_UART_TxEna)
0008a8e5  global    _UART_TxIntDis (.text:_UART_TxIntDis)
0008a8f7  global    _UART_TxIntEna (.text:_UART_TxIntEna)
00000000  global    _UART_bUseSCIA_On_USB_Connector (.text:_UART_bUseSCIA_On_USB_Connector)
00000000  global    _UART_sHandle (.ebss:_UART_sHandle)
0008a69c  global    _UART_vInit (.text:_UART_vInit)
00000000  global    _UART_vReset (.text:_UART_vReset)
0000ee49  global    _bUseSCIA_On_USB (.ebss)
0000edc8  global    _u32TimeDiffLast (.ebss:_u32TimeDiffLast)
0000edd0  global    _u32TimeDiffNow (.ebss:_u32TimeDiffNow)
0000edd8  global    _u32TimeDiffRead (.ebss:_u32TimeDiffRead)


================================================================================

CSMON_C28xx.lib : hmdrv.obj

Run/Load            
Value     Binding   Name (Section)
--------  --------  ---------------
0008a45d  local     $C$L1 (.text:_HMDRV_vProcess)
0000000a  local     $C$L10 (.text:_HMDRV_CopyToBufferInternalSingleCoil)
0000000b  local     $C$L100 (.text:_HMDRV_CopyFromBufferInternalModbusSingleCoil)
0000000d  local     $C$L101 (.text:_HMDRV_CopyFromBufferInternalModbusSingleCoil)
0000000f  local     $C$L102 (.text:_HMDRV_CopyFromBufferInternalModbusSingleCoil)
00000010  local     $C$L103 (.text:_HMDRV_CopyFromBufferInternalModbusSingleCoil)
00000013  local     $C$L104 (.text:_HMDRV_CopyFromBufferInternalModbusSingleCoil)
00000043  local     $C$L105 (.text:_HMDRV_CopyFromBufferInternalModbusSingleCoil)
0000004b  local     $C$L106 (.text:_HMDRV_CopyFromBufferInternalModbusSingleCoil)
00000008  local     $C$L107 (.text:_HMDRV_CopyFromBufferInternalModbusCoil)
00000009  local     $C$L108 (.text:_HMDRV_CopyFromBufferInternalModbusCoil)
0000000c  local     $C$L109 (.text:_HMDRV_CopyFromBufferInternalModbusCoil)
00000003  local     $C$L11 (.text:_HMDRV_CopyToBufferInternalModbusSingleCoil)
00000034  local     $C$L110 (.text:_HMDRV_CopyFromBufferInternalModbusCoil)
0000003a  local     $C$L111 (.text:_HMDRV_CopyFromBufferInternalModbusCoil)
0000003e  local     $C$L112 (.text:_HMDRV_CopyFromBufferInternalModbusCoil)
0008872a  local     $C$L113 (.text:_HMDRV_CopyFromBufferInternalModbusBitField)
00088735  local     $C$L114 (.text:_HMDRV_CopyFromBufferInternalModbusBitField)
0008873e  local     $C$L115 (.text:_HMDRV_CopyFromBufferInternalModbusBitField)
0008873f  local     $C$L116 (.text:_HMDRV_CopyFromBufferInternalModbusBitField)
00088741  local     $C$L117 (.text:_HMDRV_CopyFromBufferInternalModbusBitField)
00088743  local     $C$L118 (.text:_HMDRV_CopyFromBufferInternalModbusBitField)
0008874f  local     $C$L119 (.text:_HMDRV_CopyFromBufferInternalModbusBitField)
0000002b  local     $C$L12 (.text:_HMDRV_CopyToBufferInternalModbusSingleCoil)
0008875f  local     $C$L120 (.text:_HMDRV_CopyFromBufferInternalModbusBitField)
00088769  local     $C$L121 (.text:_HMDRV_CopyFromBufferInternalModbusBitField)
0008877c  local     $C$L122 (.text:_HMDRV_CopyFromBufferInternalModbusBitField)
00088788  local     $C$L123 (.text:_HMDRV_CopyFromBufferInternalModbusBitField)
00088798  local     $C$L124 (.text:_HMDRV_CopyFromBufferInternalModbusBitField)
0008879c  local     $C$L125 (.text:_HMDRV_CopyFromBufferInternalModbusBitField)
000887a1  local     $C$L126 (.text:_HMDRV_CopyFromBufferInternalModbusBitField)
000887ad  local     $C$L127 (.text:_HMDRV_CopyFromBufferInternalModbusBitField)
00088f62  local     $C$L128 (.text:_HMDRV_CopyFromBufferInternalModbus)
00088f6d  local     $C$L129 (.text:_HMDRV_CopyFromBufferInternalModbus)
00000032  local     $C$L13 (.text:_HMDRV_CopyToBufferInternalModbusSingleCoil)
00088f76  local     $C$L130 (.text:_HMDRV_CopyFromBufferInternalModbus)
00088f77  local     $C$L131 (.text:_HMDRV_CopyFromBufferInternalModbus)
00088f79  local     $C$L132 (.text:_HMDRV_CopyFromBufferInternalModbus)
00088f7b  local     $C$L133 (.text:_HMDRV_CopyFromBufferInternalModbus)
00088f86  local     $C$L134 (.text:_HMDRV_CopyFromBufferInternalModbus)
00088f96  local     $C$L135 (.text:_HMDRV_CopyFromBufferInternalModbus)
00088f9c  local     $C$L136 (.text:_HMDRV_CopyFromBufferInternalModbus)
00088fa8  local     $C$L137 (.text:_HMDRV_CopyFromBufferInternalModbus)
00088faf  local     $C$L138 (.text:_HMDRV_CopyFromBufferInternalModbus)
00088fbe  local     $C$L139 (.text:_HMDRV_CopyFromBufferInternalModbus)
00000034  local     $C$L14 (.text:_HMDRV_CopyToBufferInternalModbusSingleCoil)
00088fc2  local     $C$L140 (.text:_HMDRV_CopyFromBufferInternalModbus)
00088fc7  local     $C$L141 (.text:_HMDRV_CopyFromBufferInternalModbus)
00088fcf  local     $C$L142 (.text:_HMDRV_CopyFromBufferInternalModbus)
0000000c  local     $C$L143 (.text:_HMDRV_CopyFromBufferInternalCoil)
00000017  local     $C$L144 (.text:_HMDRV_CopyFromBufferInternalCoil)
0000001b  local     $C$L145 (.text:_HMDRV_CopyFromBufferInternalCoil)
0000003b  local     $C$L146 (.text:_HMDRV_CopyFromBufferInternalCoil)
0000003f  local     $C$L147 (.text:_HMDRV_CopyFromBufferInternalCoil)
0000005f  local     $C$L148 (.text:_HMDRV_CopyFromBufferInternalCoil)
00000063  local     $C$L149 (.text:_HMDRV_CopyFromBufferInternalCoil)
00000004  local     $C$L15 (.text:_HMDRV_CopyToBufferInternalModbusCoil)
00000083  local     $C$L150 (.text:_HMDRV_CopyFromBufferInternalCoil)
00000087  local     $C$L151 (.text:_HMDRV_CopyFromBufferInternalCoil)
0000009d  local     $C$L152 (.text:_HMDRV_CopyFromBufferInternalCoil)
00088c9b  local     $C$L153 (.text:_HMDRV_CopyFromBufferInternal)
00088ca3  local     $C$L154 (.text:_HMDRV_CopyFromBufferInternal)
00088cba  local     $C$L155 (.text:_HMDRV_CopyFromBufferInternal)
00088cc2  local     $C$L156 (.text:_HMDRV_CopyFromBufferInternal)
00088cc3  local     $C$L157 (.text:_HMDRV_CopyFromBufferInternal)
00088d1f  local     $C$L158 (.text:_HMDRV_CopyFromBufferInternal)
00088d20  local     $C$L159 (.text:_HMDRV_CopyFromBufferInternal)
0000002c  local     $C$L16 (.text:_HMDRV_CopyToBufferInternalModbusCoil)
00000014  local     $C$L160 (.text:_HMDRV_AddressToBufferBigEndian)
00000019  local     $C$L161 (.text:_HMDRV_AddressToBufferBigEndian)
0008a612  local     $C$L162 (.text:_HMDRV_AddressToBuffer)
0008a617  local     $C$L163 (.text:_HMDRV_AddressToBuffer)
0008a7dc  local     $C$L164 (.text:_HMDRV_AddressFromBufferBigEndian)
0008a7e5  local     $C$L165 (.text:_HMDRV_AddressFromBufferBigEndian)
00000032  local     $C$L17 (.text:_HMDRV_CopyToBufferInternalModbusCoil)
00000033  local     $C$L18 (.text:_HMDRV_CopyToBufferInternalModbusCoil)
00000036  local     $C$L19 (.text:_HMDRV_CopyToBufferInternalModbusCoil)
0008a474  local     $C$L2 (.text:_HMDRV_vProcess)
0000005e  local     $C$L20 (.text:_HMDRV_CopyToBufferInternalModbusCoil)
00000066  local     $C$L21 (.text:_HMDRV_CopyToBufferInternalModbusCoil)
0008841f  local     $C$L22 (.text:_HMDRV_CopyToBufferInternalModbus)
00088427  local     $C$L23 (.text:_HMDRV_CopyToBufferInternalModbus)
0008842b  local     $C$L24 (.text:_HMDRV_CopyToBufferInternalModbus)
00088433  local     $C$L25 (.text:_HMDRV_CopyToBufferInternalModbus)
00088437  local     $C$L26 (.text:_HMDRV_CopyToBufferInternalModbus)
00088439  local     $C$L27 (.text:_HMDRV_CopyToBufferInternalModbus)
0008843b  local     $C$L28 (.text:_HMDRV_CopyToBufferInternalModbus)
00088440  local     $C$L29 (.text:_HMDRV_CopyToBufferInternalModbus)
00000009  local     $C$L3 (.text:_HMDRV_vDebugSend)
00088446  local     $C$L30 (.text:_HMDRV_CopyToBufferInternalModbus)
0008844a  local     $C$L31 (.text:_HMDRV_CopyToBufferInternalModbus)
0008844c  local     $C$L32 (.text:_HMDRV_CopyToBufferInternalModbus)
00088455  local     $C$L33 (.text:_HMDRV_CopyToBufferInternalModbus)
00088458  local     $C$L34 (.text:_HMDRV_CopyToBufferInternalModbus)
0008845f  local     $C$L35 (.text:_HMDRV_CopyToBufferInternalModbus)
00088468  local     $C$L36 (.text:_HMDRV_CopyToBufferInternalModbus)
0008846c  local     $C$L37 (.text:_HMDRV_CopyToBufferInternalModbus)
00088477  local     $C$L38 (.text:_HMDRV_CopyToBufferInternalModbus)
00088484  local     $C$L39 (.text:_HMDRV_CopyToBufferInternalModbus)
00089f54  local     $C$L4 (.text:_HMDRV_GetStringLengthInternal)
00088489  local     $C$L40 (.text:_HMDRV_CopyToBufferInternalModbus)
00088494  local     $C$L41 (.text:_HMDRV_CopyToBufferInternalModbus)
00088498  local     $C$L42 (.text:_HMDRV_CopyToBufferInternalModbus)
0008849a  local     $C$L43 (.text:_HMDRV_CopyToBufferInternalModbus)
000884a0  local     $C$L44 (.text:_HMDRV_CopyToBufferInternalModbus)
000884a2  local     $C$L45 (.text:_HMDRV_CopyToBufferInternalModbus)
000884a9  local     $C$L46 (.text:_HMDRV_CopyToBufferInternalModbus)
000884b4  local     $C$L47 (.text:_HMDRV_CopyToBufferInternalModbus)
000884b7  local     $C$L48 (.text:_HMDRV_CopyToBufferInternalModbus)
000884bd  local     $C$L49 (.text:_HMDRV_CopyToBufferInternalModbus)
00089f84  local     $C$L5 (.text:_HMDRV_GetStringLengthInternal)
000884bf  local     $C$L50 (.text:_HMDRV_CopyToBufferInternalModbus)
000884cb  local     $C$L51 (.text:_HMDRV_CopyToBufferInternalModbus)
000884cc  local     $C$L52 (.text:_HMDRV_CopyToBufferInternalModbus)
000884ce  local     $C$L53 (.text:_HMDRV_CopyToBufferInternalModbus)
000884d1  local     $C$L54 (.text:_HMDRV_CopyToBufferInternalModbus)
0000000b  local     $C$L55 (.text:_HMDRV_CopyToBufferInternalCoil)
00000016  local     $C$L56 (.text:_HMDRV_CopyToBufferInternalCoil)
0000001a  local     $C$L57 (.text:_HMDRV_CopyToBufferInternalCoil)
00000021  local     $C$L58 (.text:_HMDRV_CopyToBufferInternalCoil)
0000002a  local     $C$L59 (.text:_HMDRV_CopyToBufferInternalCoil)
0008a8d5  local     $C$L6 (.text:_HMDRV_GetStringLengthFromWordInternal)
0000003b  local     $C$L60 (.text:_HMDRV_CopyToBufferInternalCoil)
0000003f  local     $C$L61 (.text:_HMDRV_CopyToBufferInternalCoil)
00000046  local     $C$L62 (.text:_HMDRV_CopyToBufferInternalCoil)
0000004f  local     $C$L63 (.text:_HMDRV_CopyToBufferInternalCoil)
00000060  local     $C$L64 (.text:_HMDRV_CopyToBufferInternalCoil)
00000064  local     $C$L65 (.text:_HMDRV_CopyToBufferInternalCoil)
0000006b  local     $C$L66 (.text:_HMDRV_CopyToBufferInternalCoil)
00000074  local     $C$L67 (.text:_HMDRV_CopyToBufferInternalCoil)
00000085  local     $C$L68 (.text:_HMDRV_CopyToBufferInternalCoil)
00000089  local     $C$L69 (.text:_HMDRV_CopyToBufferInternalCoil)
0008a8d7  local     $C$L7 (.text:_HMDRV_GetStringLengthFromWordInternal)
00000090  local     $C$L70 (.text:_HMDRV_CopyToBufferInternalCoil)
00000099  local     $C$L71 (.text:_HMDRV_CopyToBufferInternalCoil)
000000a0  local     $C$L72 (.text:_HMDRV_CopyToBufferInternalCoil)
00086d04  local     $C$L73 (.text:_HMDRV_CopyToBufferInternal)
00086db5  local     $C$L74 (.text:_HMDRV_CopyToBufferInternal)
00086dbe  local     $C$L75 (.text:_HMDRV_CopyToBufferInternal)
00086e61  local     $C$L76 (.text:_HMDRV_CopyToBufferInternal)
00086769  local     $C$L77 (.text:_HMDRV_CopyMemory)
000867b3  local     $C$L78 (.text:_HMDRV_CopyMemory)
000867be  local     $C$L79 (.text:_HMDRV_CopyMemory)
0008a8e3  local     $C$L8 (.text:_HMDRV_GetStringLengthFromWordInternal)
000867c9  local     $C$L80 (.text:_HMDRV_CopyMemory)
00086849  local     $C$L81 (.text:_HMDRV_CopyMemory)
00086857  local     $C$L82 (.text:_HMDRV_CopyMemory)
00086936  local     $C$L83 (.text:_HMDRV_CopyMemory)
00086942  local     $C$L84 (.text:_HMDRV_CopyMemory)
000869d3  local     $C$L85 (.text:_HMDRV_CopyMemory)
00089a13  local     $C$L86 (.text:_HMDRV_CopyFromBufferInternalWithMaskModbus)
00089a21  local     $C$L87 (.text:_HMDRV_CopyFromBufferInternalWithMaskModbus)
00089a33  local     $C$L88 (.text:_HMDRV_CopyFromBufferInternalWithMaskModbus)
00089a42  local     $C$L89 (.text:_HMDRV_CopyFromBufferInternalWithMaskModbus)
00000008  local     $C$L9 (.text:_HMDRV_CopyToBufferInternalSingleCoil)
00089a52  local     $C$L90 (.text:_HMDRV_CopyFromBufferInternalWithMaskModbus)
00089a57  local     $C$L91 (.text:_HMDRV_CopyFromBufferInternalWithMaskModbus)
000894c6  local     $C$L92 (.text:_HMDRV_CopyFromBufferInternalWithMask)
000894d2  local     $C$L93 (.text:_HMDRV_CopyFromBufferInternalWithMask)
000894e9  local     $C$L94 (.text:_HMDRV_CopyFromBufferInternalWithMask)
00089500  local     $C$L95 (.text:_HMDRV_CopyFromBufferInternalWithMask)
00089517  local     $C$L96 (.text:_HMDRV_CopyFromBufferInternalWithMask)
00089521  local     $C$L97 (.text:_HMDRV_CopyFromBufferInternalWithMask)
00000009  local     $C$L98 (.text:_HMDRV_CopyFromBufferInternalSingleCoil)
0000000b  local     $C$L99 (.text:_HMDRV_CopyFromBufferInternalSingleCoil)
00000000  local     .bss (.bss)
0008275f  local     .cinit (.cinit)
00000000  local     .data (.data)
0000ed64  local     .ebss (.ebss)
00000000  local     .text (.text)
0008a6d0  local     .text:_HMDRV_AddressFromBuffer (.text:_HMDRV_AddressFromBuffer)
0008a7d2  local     .text:_HMDRV_AddressFromBufferBigEndian (.text:_HMDRV_AddressFromBufferBigEndian)
0008a5fe  local     .text:_HMDRV_AddressToBuffer (.text:_HMDRV_AddressToBuffer)
00000000  local     .text:_HMDRV_AddressToBufferBigEndian (.text:_HMDRV_AddressToBufferBigEndian)
00088c91  local     .text:_HMDRV_CopyFromBufferInternal (.text:_HMDRV_CopyFromBufferInternal)
00000000  local     .text:_HMDRV_CopyFromBufferInternalCoil (.text:_HMDRV_CopyFromBufferInternalCoil)
00088f51  local     .text:_HMDRV_CopyFromBufferInternalModbus (.text:_HMDRV_CopyFromBufferInternalModbus)
00088700  local     .text:_HMDRV_CopyFromBufferInternalModbusBitField (.text:_HMDRV_CopyFromBufferInternalModbusBitField)
00000000  local     .text:_HMDRV_CopyFromBufferInternalModbusCoil (.text:_HMDRV_CopyFromBufferInternalModbusCoil)
00000000  local     .text:_HMDRV_CopyFromBufferInternalModbusSingleCoil (.text:_HMDRV_CopyFromBufferInternalModbusSingleCoil)
00000000  local     .text:_HMDRV_CopyFromBufferInternalSingleCoil (.text:_HMDRV_CopyFromBufferInternalSingleCoil)
000894bc  local     .text:_HMDRV_CopyFromBufferInternalWithMask (.text:_HMDRV_CopyFromBufferInternalWithMask)
00089a0f  local     .text:_HMDRV_CopyFromBufferInternalWithMaskModbus (.text:_HMDRV_CopyFromBufferInternalWithMaskModbus)
0008ac3c  local     .text:_HMDRV_CopyFromBufferWithMaskModbus (.text:_HMDRV_CopyFromBufferWithMaskModbus)
00086751  local     .text:_HMDRV_CopyMemory (.text:_HMDRV_CopyMemory)
00086cf3  local     .text:_HMDRV_CopyToBufferInternal (.text:_HMDRV_CopyToBufferInternal)
00000000  local     .text:_HMDRV_CopyToBufferInternalCoil (.text:_HMDRV_CopyToBufferInternalCoil)
00088414  local     .text:_HMDRV_CopyToBufferInternalModbus (.text:_HMDRV_CopyToBufferInternalModbus)
00000000  local     .text:_HMDRV_CopyToBufferInternalModbusCoil (.text:_HMDRV_CopyToBufferInternalModbusCoil)
00000000  local     .text:_HMDRV_CopyToBufferInternalModbusSingleCoil (.text:_HMDRV_CopyToBufferInternalModbusSingleCoil)
00000000  local     .text:_HMDRV_CopyToBufferInternalSingleCoil (.text:_HMDRV_CopyToBufferInternalSingleCoil)
0008a8d3  local     .text:_HMDRV_GetStringLengthFromWordInternal (.text:_HMDRV_GetStringLengthFromWordInternal)
00089f51  local     .text:_HMDRV_GetStringLengthInternal (.text:_HMDRV_GetStringLengthInternal)
0008ad3e  local     .text:_HMDRV_SetExAddr (.text:_HMDRV_SetExAddr)
0008ad42  local     .text:_HMDRV_u32GetDeviceSYSCLKFreq (.text:_HMDRV_u32GetDeviceSYSCLKFreq)
0008ad46  local     .text:_HMDRV_u32GetSCIErrorPPM (.text:_HMDRV_u32GetSCIErrorPPM)
00000000  local     .text:_HMDRV_vDebugSend (.text:_HMDRV_vDebugSend)
00087550  local     .text:_HMDRV_vInit (.text:_HMDRV_vInit)
0008a455  local     .text:_HMDRV_vProcess (.text:_HMDRV_vProcess)
0008a6d0  global    _HMDRV_AddressFromBuffer (.text:_HMDRV_AddressFromBuffer)
0008a7d2  global    _HMDRV_AddressFromBufferBigEndian (.text:_HMDRV_AddressFromBufferBigEndian)
0008a5fe  global    _HMDRV_AddressToBuffer (.text:_HMDRV_AddressToBuffer)
00000000  global    _HMDRV_AddressToBufferBigEndian (.text:_HMDRV_AddressToBufferBigEndian)
00088c91  global    _HMDRV_CopyFromBufferInternal (.text:_HMDRV_CopyFromBufferInternal)
00000000  global    _HMDRV_CopyFromBufferInternalCoil (.text:_HMDRV_CopyFromBufferInternalCoil)
00088f51  global    _HMDRV_CopyFromBufferInternalModbus (.text:_HMDRV_CopyFromBufferInternalModbus)
00088700  global    _HMDRV_CopyFromBufferInternalModbusBitField (.text:_HMDRV_CopyFromBufferInternalModbusBitField)
00000000  global    _HMDRV_CopyFromBufferInternalModbusCoil (.text:_HMDRV_CopyFromBufferInternalModbusCoil)
00000000  global    _HMDRV_CopyFromBufferInternalModbusSingleCoil (.text:_HMDRV_CopyFromBufferInternalModbusSingleCoil)
00000000  global    _HMDRV_CopyFromBufferInternalSingleCoil (.text:_HMDRV_CopyFromBufferInternalSingleCoil)
000894bc  global    _HMDRV_CopyFromBufferInternalWithMask (.text:_HMDRV_CopyFromBufferInternalWithMask)
00089a0f  global    _HMDRV_CopyFromBufferInternalWithMaskModbus (.text:_HMDRV_CopyFromBufferInternalWithMaskModbus)
0008ac3c  global    _HMDRV_CopyFromBufferWithMaskModbus (.text:_HMDRV_CopyFromBufferWithMaskModbus)
00086751  global    _HMDRV_CopyMemory (.text:_HMDRV_CopyMemory)
00086cf3  global    _HMDRV_CopyToBufferInternal (.text:_HMDRV_CopyToBufferInternal)
00000000  global    _HMDRV_CopyToBufferInternalCoil (.text:_HMDRV_CopyToBufferInternalCoil)
00088414  global    _HMDRV_CopyToBufferInternalModbus (.text:_HMDRV_CopyToBufferInternalModbus)
00000000  global    _HMDRV_CopyToBufferInternalModbusCoil (.text:_HMDRV_CopyToBufferInternalModbusCoil)
00000000  global    _HMDRV_CopyToBufferInternalModbusSingleCoil (.text:_HMDRV_CopyToBufferInternalModbusSingleCoil)
00000000  global    _HMDRV_CopyToBufferInternalSingleCoil (.text:_HMDRV_CopyToBufferInternalSingleCoil)
0008a8d3  global    _HMDRV_GetStringLengthFromWordInternal (.text:_HMDRV_GetStringLengthFromWordInternal)
00089f51  global    _HMDRV_GetStringLengthInternal (.text:_HMDRV_GetStringLengthInternal)
0008ad3e  global    _HMDRV_SetExAddr (.text:_HMDRV_SetExAddr)
0008ad42  global    _HMDRV_u32GetDeviceSYSCLKFreq (.text:_HMDRV_u32GetDeviceSYSCLKFreq)
0008ad46  global    _HMDRV_u32GetSCIErrorPPM (.text:_HMDRV_u32GetSCIErrorPPM)
0000ed6a  global    _HMDRV_u32SCIErrorPPM (.ebss)
00000000  global    _HMDRV_vDebugSend (.text:_HMDRV_vDebugSend)
00087550  global    _HMDRV_vInit (.text:_HMDRV_vInit)
0008a455  global    _HMDRV_vProcess (.text:_HMDRV_vProcess)
0000ed64  local     _pcm_bNextAddrIsEx (.ebss)
0000ed66  global    _u32DeviceLSPCLKFreq (.ebss)
0000ed68  global    _u32DeviceLSPCLKFreqRoundAndMinErrorBaud (.ebss)
0000ed6c  global    _u32DeviceSYSCLKFreq (.ebss)


================================================================================

CSMON_C28xx.lib : hmlib.obj

Run/Load            
Value     Binding   Name (Section)
--------  --------  ---------------
00000004  local     $C$L1 (.text:_HMLIB_vRecorderParam)
0008a945  local     $C$L10 (.text:_HMLIB_vInitRecParamBuff)
00089884  local     $C$L11 (.text:_HMLIB_vInit)
000898a6  local     $C$L12 (.text:_HMLIB_vInit)
0000000b  local     $C$L13 (.text:_HMLIB_GetRecSampleSize)
0000000b  local     $C$L14 (.text:_HMLIB_GetRecParamSampleSize)
0000000b  local     $C$L15 (.text:_HMLIB_GetRecParamBufferSize)
0000000b  local     $C$L16 (.text:_HMLIB_GetRecParamBuffAddress)
0000000d  local     $C$L17 (.text:_HMLIB_GetRecParamBuffAddress)
00000006  local     $C$L18 (.text:_HMLIB_GetRecBufferSize)
0000000b  local     $C$L19 (.text:_HMLIB_GetRecBuffAddress)
0000000b  local     $C$L2 (.text:_HMLIB_vRecorder)
0000000d  local     $C$L20 (.text:_HMLIB_GetRecBuffAddress)
0008a6f7  local     $C$L3 (.text:_HMLIB_vProcessSCITXISRWithIndex)
0008a6fe  local     $C$L4 (.text:_HMLIB_vProcessSCITXISRWithIndex)
0008a700  local     $C$L5 (.text:_HMLIB_vProcessSCITXISRWithIndex)
0008a81c  local     $C$L6 (.text:_HMLIB_vProcessFastTD)
0008a824  local     $C$L7 (.text:_HMLIB_vProcessFastTD)
0008ab0a  local     $C$L8 (.text:_HMLIB_vProcess)
0008a942  local     $C$L9 (.text:_HMLIB_vInitRecParamBuff)
00000000  local     .bss (.bss)
00082912  local     .cinit (.cinit)
00000000  local     .data (.data)
0000ea3e  local     .ebss (.ebss)
00000000  local     .text (.text)
00000000  local     .text:_HMLIB_GetRecBuffAddress (.text:_HMLIB_GetRecBuffAddress)
00000000  local     .text:_HMLIB_GetRecBufferSize (.text:_HMLIB_GetRecBufferSize)
00000000  local     .text:_HMLIB_GetRecParamBuffAddress (.text:_HMLIB_GetRecParamBuffAddress)
00000000  local     .text:_HMLIB_GetRecParamBufferSize (.text:_HMLIB_GetRecParamBufferSize)
00000000  local     .text:_HMLIB_GetRecParamSampleSize (.text:_HMLIB_GetRecParamSampleSize)
00000000  local     .text:_HMLIB_GetRecSampleSize (.text:_HMLIB_GetRecSampleSize)
00000000  local     .text:_HMLIB_vDebugSend (.text:_HMLIB_vDebugSend)
0008987b  local     .text:_HMLIB_vInit (.text:_HMLIB_vInit)
0008a93c  local     .text:_HMLIB_vInitRecParamBuff (.text:_HMLIB_vInitRecParamBuff)
0008ab01  local     .text:_HMLIB_vProcess (.text:_HMLIB_vProcess)
0008aca4  local     .text:_HMLIB_vProcessDifferentPorts (.text:_HMLIB_vProcessDifferentPorts)
0008a812  local     .text:_HMLIB_vProcessFastTD (.text:_HMLIB_vProcessFastTD)
0008aa4b  local     .text:_HMLIB_vProcessRecorders (.text:_HMLIB_vProcessRecorders)
00000000  local     .text:_HMLIB_vProcessSCITXISR (.text:_HMLIB_vProcessSCITXISR)
0008a6e9  local     .text:_HMLIB_vProcessSCITXISRWithIndex (.text:_HMLIB_vProcessSCITXISRWithIndex)
0008acf4  local     .text:_HMLIB_vProcessSamePort (.text:_HMLIB_vProcessSamePort)
00000000  local     .text:_HMLIB_vRecorder (.text:_HMLIB_vRecorder)
0008acf9  local     .text:_HMLIB_vRecorder0 (.text:_HMLIB_vRecorder0)
0008acfe  local     .text:_HMLIB_vRecorder1 (.text:_HMLIB_vRecorder1)
0008ad03  local     .text:_HMLIB_vRecorder2 (.text:_HMLIB_vRecorder2)
00000000  local     .text:_HMLIB_vRecorderParam (.text:_HMLIB_vRecorderParam)
0008ad4a  local     .text:_HMLIB_vRecorderParam0 (.text:_HMLIB_vRecorderParam0)
0008ad4e  local     .text:_HMLIB_vRecorderParam1 (.text:_HMLIB_vRecorderParam1)
0008ad52  local     .text:_HMLIB_vRecorderParam2 (.text:_HMLIB_vRecorderParam2)
0008ae70  local     .text:_HMLIB_vRecorderParamTimeSync (.text:_HMLIB_vRecorderParamTimeSync)
00000000  local     .text:_HMLIB_vRecorderSetTimeBase (.text:_HMLIB_vRecorderSetTimeBase)
00000000  local     .text:_HMLIB_vScopeDataUpdate (.text:_HMLIB_vScopeDataUpdate)
00000000  local     .text:_HMLIB_vScopeParamDataUpdate (.text:_HMLIB_vScopeParamDataUpdate)
00000000  local     .text:_HMLIB_vSetPortIndexHexMon (.text:_HMLIB_vSetPortIndexHexMon)
00000000  local     .text:_HMLIB_vSetPortIndexModBus (.text:_HMLIB_vSetPortIndexModBus)
00000000  global    _HMLIB_GetRecBuffAddress (.text:_HMLIB_GetRecBuffAddress)
00000000  global    _HMLIB_GetRecBufferSize (.text:_HMLIB_GetRecBufferSize)
00000000  global    _HMLIB_GetRecParamBuffAddress (.text:_HMLIB_GetRecParamBuffAddress)
00000000  global    _HMLIB_GetRecParamBufferSize (.text:_HMLIB_GetRecParamBufferSize)
00000000  global    _HMLIB_GetRecParamSampleSize (.text:_HMLIB_GetRecParamSampleSize)
00000000  global    _HMLIB_GetRecSampleSize (.text:_HMLIB_GetRecSampleSize)
00000000  global    _HMLIB_vDebugSend (.text:_HMLIB_vDebugSend)
0008987b  global    _HMLIB_vInit (.text:_HMLIB_vInit)
0008a93c  global    _HMLIB_vInitRecParamBuff (.text:_HMLIB_vInitRecParamBuff)
0008ab01  global    _HMLIB_vProcess (.text:_HMLIB_vProcess)
0008aca4  global    _HMLIB_vProcessDifferentPorts (.text:_HMLIB_vProcessDifferentPorts)
0008a812  global    _HMLIB_vProcessFastTD (.text:_HMLIB_vProcessFastTD)
0008aa4b  global    _HMLIB_vProcessRecorders (.text:_HMLIB_vProcessRecorders)
00000000  global    _HMLIB_vProcessSCITXISR (.text:_HMLIB_vProcessSCITXISR)
0008a6e9  global    _HMLIB_vProcessSCITXISRWithIndex (.text:_HMLIB_vProcessSCITXISRWithIndex)
0008acf4  global    _HMLIB_vProcessSamePort (.text:_HMLIB_vProcessSamePort)
00000000  global    _HMLIB_vRecorder (.text:_HMLIB_vRecorder)
0008acf9  global    _HMLIB_vRecorder0 (.text:_HMLIB_vRecorder0)
0008acfe  global    _HMLIB_vRecorder1 (.text:_HMLIB_vRecorder1)
0008ad03  global    _HMLIB_vRecorder2 (.text:_HMLIB_vRecorder2)
00000000  global    _HMLIB_vRecorderParam (.text:_HMLIB_vRecorderParam)
0008ad4a  global    _HMLIB_vRecorderParam0 (.text:_HMLIB_vRecorderParam0)
0008ad4e  global    _HMLIB_vRecorderParam1 (.text:_HMLIB_vRecorderParam1)
0008ad52  global    _HMLIB_vRecorderParam2 (.text:_HMLIB_vRecorderParam2)
0008ae70  global    _HMLIB_vRecorderParamTimeSync (.text:_HMLIB_vRecorderParamTimeSync)
00000000  global    _HMLIB_vRecorderSetTimeBase (.text:_HMLIB_vRecorderSetTimeBase)
00000000  global    _HMLIB_vScopeDataUpdate (.text:_HMLIB_vScopeDataUpdate)
00000000  global    _HMLIB_vScopeParamDataUpdate (.text:_HMLIB_vScopeParamDataUpdate)
00000000  global    _HMLIB_vSetPortIndexHexMon (.text:_HMLIB_vSetPortIndexHexMon)
00000000  global    _HMLIB_vSetPortIndexModBus (.text:_HMLIB_vSetPortIndexModBus)
0000ea3e  local     _u8SCIHexMonIndex (.ebss)
0000ea3f  local     _u8SCIModBusIndex (.ebss)


================================================================================

CSMON_C28xx.lib : hmmodbus.obj

Run/Load            
Value     Binding   Name (Section)
--------  --------  ---------------
00089e4a  local     $C$L1 (.text:_vSetStartSampleIndex)
00089bc4  local     $C$L10 (.text:_vSetIndexFileTable)
00083842  local     $C$L100 (.text:_HMMODBUS_WriteFileRecord)
00083849  local     $C$L101 (.text:_HMMODBUS_WriteFileRecord)
0008385d  local     $C$L102 (.text:_HMMODBUS_WriteFileRecord)
00083883  local     $C$L103 (.text:_HMMODBUS_WriteFileRecord)
00083884  local     $C$L104 (.text:_HMMODBUS_WriteFileRecord)
000838a5  local     $C$L105 (.text:_HMMODBUS_WriteFileRecord)
000838dc  local     $C$L106 (.text:_HMMODBUS_WriteFileRecord)
0008390d  local     $C$L107 (.text:_HMMODBUS_WriteFileRecord)
00083913  local     $C$L108 (.text:_HMMODBUS_WriteFileRecord)
0008391e  local     $C$L109 (.text:_HMMODBUS_WriteFileRecord)
00089bfd  local     $C$L11 (.text:_vSetIndexFileTable)
00083945  local     $C$L110 (.text:_HMMODBUS_WriteFileRecord)
00083959  local     $C$L111 (.text:_HMMODBUS_WriteFileRecord)
0008395e  local     $C$L112 (.text:_HMMODBUS_WriteFileRecord)
0008397d  local     $C$L113 (.text:_HMMODBUS_WriteFileRecord)
00083981  local     $C$L114 (.text:_HMMODBUS_WriteFileRecord)
0008398e  local     $C$L115 (.text:_HMMODBUS_WriteFileRecord)
00083992  local     $C$L116 (.text:_HMMODBUS_WriteFileRecord)
0008399d  local     $C$L117 (.text:_HMMODBUS_WriteFileRecord)
0008399f  local     $C$L118 (.text:_HMMODBUS_WriteFileRecord)
000839cc  local     $C$L119 (.text:_HMMODBUS_WriteFileRecord)
00089bfe  local     $C$L12 (.text:_vSetIndexFileTable)
000839d9  local     $C$L120 (.text:_HMMODBUS_WriteFileRecord)
000839e3  local     $C$L121 (.text:_HMMODBUS_WriteFileRecord)
000839e7  local     $C$L122 (.text:_HMMODBUS_WriteFileRecord)
000839e8  local     $C$L123 (.text:_HMMODBUS_WriteFileRecord)
000839f7  local     $C$L124 (.text:_HMMODBUS_WriteFileRecord)
000839f9  local     $C$L125 (.text:_HMMODBUS_WriteFileRecord)
00083a14  local     $C$L126 (.text:_HMMODBUS_WriteFileRecord)
00083a5e  local     $C$L127 (.text:_HMMODBUS_WriteFileRecord)
00083a70  local     $C$L128 (.text:_HMMODBUS_WriteFileRecord)
00083a89  local     $C$L129 (.text:_HMMODBUS_WriteFileRecord)
000896d5  local     $C$L13 (.text:_vSetElementsSize)
00083aab  local     $C$L130 (.text:_HMMODBUS_WriteFileRecord)
00083adb  local     $C$L131 (.text:_HMMODBUS_WriteFileRecord)
00083aef  local     $C$L132 (.text:_HMMODBUS_WriteFileRecord)
00083b02  local     $C$L133 (.text:_HMMODBUS_WriteFileRecord)
00083b06  local     $C$L134 (.text:_HMMODBUS_WriteFileRecord)
00083b08  local     $C$L135 (.text:_HMMODBUS_WriteFileRecord)
00083b0e  local     $C$L136 (.text:_HMMODBUS_WriteFileRecord)
00083b18  local     $C$L137 (.text:_HMMODBUS_WriteFileRecord)
00083b2a  local     $C$L138 (.text:_HMMODBUS_WriteFileRecord)
00083b4f  local     $C$L139 (.text:_HMMODBUS_WriteFileRecord)
000896d8  local     $C$L14 (.text:_vSetElementsSize)
00083b5b  local     $C$L140 (.text:_HMMODBUS_WriteFileRecord)
00083b6f  local     $C$L141 (.text:_HMMODBUS_WriteFileRecord)
00083b7b  local     $C$L142 (.text:_HMMODBUS_WriteFileRecord)
00083b98  local     $C$L143 (.text:_HMMODBUS_WriteFileRecord)
00083bb0  local     $C$L144 (.text:_HMMODBUS_WriteFileRecord)
00083be5  local     $C$L145 (.text:_HMMODBUS_WriteFileRecord)
00083bf0  local     $C$L146 (.text:_HMMODBUS_WriteFileRecord)
00083c13  local     $C$L147 (.text:_HMMODBUS_WriteFileRecord)
00083c17  local     $C$L148 (.text:_HMMODBUS_WriteFileRecord)
00083c32  local     $C$L149 (.text:_HMMODBUS_WriteFileRecord)
000896dc  local     $C$L15 (.text:_vSetElementsSize)
00083c36  local     $C$L150 (.text:_HMMODBUS_WriteFileRecord)
00083c41  local     $C$L151 (.text:_HMMODBUS_WriteFileRecord)
00083c46  local     $C$L152 (.text:_HMMODBUS_WriteFileRecord)
00083c51  local     $C$L153 (.text:_HMMODBUS_WriteFileRecord)
00083c7c  local     $C$L154 (.text:_HMMODBUS_WriteFileRecord)
00083ca8  local     $C$L155 (.text:_HMMODBUS_WriteFileRecord)
00083cbd  local     $C$L156 (.text:_HMMODBUS_WriteFileRecord)
00083ce5  local     $C$L157 (.text:_HMMODBUS_WriteFileRecord)
00083d29  local     $C$L158 (.text:_HMMODBUS_WriteFileRecord)
00083d34  local     $C$L159 (.text:_HMMODBUS_WriteFileRecord)
000896e7  local     $C$L16 (.text:_vSetElementsSize)
00083d58  local     $C$L160 (.text:_HMMODBUS_WriteFileRecord)
00083d60  local     $C$L161 (.text:_HMMODBUS_WriteFileRecord)
00083d6f  local     $C$L162 (.text:_HMMODBUS_WriteFileRecord)
00083d82  local     $C$L163 (.text:_HMMODBUS_WriteFileRecord)
00083d95  local     $C$L164 (.text:_HMMODBUS_WriteFileRecord)
00083dba  local     $C$L165 (.text:_HMMODBUS_WriteFileRecord)
00083dbf  local     $C$L166 (.text:_HMMODBUS_WriteFileRecord)
00083dcc  local     $C$L167 (.text:_HMMODBUS_WriteFileRecord)
00083dea  local     $C$L168 (.text:_HMMODBUS_WriteFileRecord)
00083df3  local     $C$L169 (.text:_HMMODBUS_WriteFileRecord)
000896f1  local     $C$L17 (.text:_vSetElementsSize)
00083e0c  local     $C$L170 (.text:_HMMODBUS_WriteFileRecord)
00083e10  local     $C$L171 (.text:_HMMODBUS_WriteFileRecord)
00083e24  local     $C$L172 (.text:_HMMODBUS_WriteFileRecord)
00083e3d  local     $C$L173 (.text:_HMMODBUS_WriteFileRecord)
00083e4b  local     $C$L174 (.text:_HMMODBUS_WriteFileRecord)
00084aa2  local     $C$L175 (.text:_HMMODBUS_ReadFileRecord)
00084ad0  local     $C$L176 (.text:_HMMODBUS_ReadFileRecord)
00084adb  local     $C$L177 (.text:_HMMODBUS_ReadFileRecord)
00084ae6  local     $C$L178 (.text:_HMMODBUS_ReadFileRecord)
00084af1  local     $C$L179 (.text:_HMMODBUS_ReadFileRecord)
000896f2  local     $C$L18 (.text:_vSetElementsSize)
00084b4d  local     $C$L180 (.text:_HMMODBUS_ReadFileRecord)
00084b5f  local     $C$L181 (.text:_HMMODBUS_ReadFileRecord)
00084b6b  local     $C$L182 (.text:_HMMODBUS_ReadFileRecord)
00084b77  local     $C$L183 (.text:_HMMODBUS_ReadFileRecord)
00084b7f  local     $C$L184 (.text:_HMMODBUS_ReadFileRecord)
00084b9c  local     $C$L185 (.text:_HMMODBUS_ReadFileRecord)
00084bf1  local     $C$L186 (.text:_HMMODBUS_ReadFileRecord)
00084bf7  local     $C$L187 (.text:_HMMODBUS_ReadFileRecord)
00084c0b  local     $C$L188 (.text:_HMMODBUS_ReadFileRecord)
00084c24  local     $C$L189 (.text:_HMMODBUS_ReadFileRecord)
000896f7  local     $C$L19 (.text:_vSetElementsSize)
00084c31  local     $C$L190 (.text:_HMMODBUS_ReadFileRecord)
00084c3e  local     $C$L191 (.text:_HMMODBUS_ReadFileRecord)
00084c4c  local     $C$L192 (.text:_HMMODBUS_ReadFileRecord)
00084c60  local     $C$L193 (.text:_HMMODBUS_ReadFileRecord)
00084c7a  local     $C$L194 (.text:_HMMODBUS_ReadFileRecord)
00084c87  local     $C$L195 (.text:_HMMODBUS_ReadFileRecord)
00084c99  local     $C$L196 (.text:_HMMODBUS_ReadFileRecord)
00084ca3  local     $C$L197 (.text:_HMMODBUS_ReadFileRecord)
00084caa  local     $C$L198 (.text:_HMMODBUS_ReadFileRecord)
00084cbe  local     $C$L199 (.text:_HMMODBUS_ReadFileRecord)
00089e64  local     $C$L2 (.text:_vSetStartSampleIndex)
000896fd  local     $C$L20 (.text:_vSetElementsSize)
00084cdf  local     $C$L200 (.text:_HMMODBUS_ReadFileRecord)
00084d16  local     $C$L201 (.text:_HMMODBUS_ReadFileRecord)
00084d47  local     $C$L202 (.text:_HMMODBUS_ReadFileRecord)
00084d4d  local     $C$L203 (.text:_HMMODBUS_ReadFileRecord)
00084d58  local     $C$L204 (.text:_HMMODBUS_ReadFileRecord)
00084d7f  local     $C$L205 (.text:_HMMODBUS_ReadFileRecord)
00084d98  local     $C$L206 (.text:_HMMODBUS_ReadFileRecord)
00084db7  local     $C$L207 (.text:_HMMODBUS_ReadFileRecord)
00084dbb  local     $C$L208 (.text:_HMMODBUS_ReadFileRecord)
00084dc8  local     $C$L209 (.text:_HMMODBUS_ReadFileRecord)
000896fe  local     $C$L21 (.text:_vSetElementsSize)
00084dce  local     $C$L210 (.text:_HMMODBUS_ReadFileRecord)
00084dd2  local     $C$L211 (.text:_HMMODBUS_ReadFileRecord)
00084ddd  local     $C$L212 (.text:_HMMODBUS_ReadFileRecord)
00084ddf  local     $C$L213 (.text:_HMMODBUS_ReadFileRecord)
00084e1d  local     $C$L214 (.text:_HMMODBUS_ReadFileRecord)
00084e26  local     $C$L215 (.text:_HMMODBUS_ReadFileRecord)
00084e53  local     $C$L216 (.text:_HMMODBUS_ReadFileRecord)
00084e68  local     $C$L217 (.text:_HMMODBUS_ReadFileRecord)
00084e8d  local     $C$L218 (.text:_HMMODBUS_ReadFileRecord)
00084e95  local     $C$L219 (.text:_HMMODBUS_ReadFileRecord)
000896ff  local     $C$L22 (.text:_vSetElementsSize)
00084eac  local     $C$L220 (.text:_HMMODBUS_ReadFileRecord)
00084eb4  local     $C$L221 (.text:_HMMODBUS_ReadFileRecord)
00084ebc  local     $C$L222 (.text:_HMMODBUS_ReadFileRecord)
00084ec4  local     $C$L223 (.text:_HMMODBUS_ReadFileRecord)
00084ec6  local     $C$L224 (.text:_HMMODBUS_ReadFileRecord)
00084ec7  local     $C$L225 (.text:_HMMODBUS_ReadFileRecord)
00084ed2  local     $C$L226 (.text:_HMMODBUS_ReadFileRecord)
00084ed9  local     $C$L227 (.text:_HMMODBUS_ReadFileRecord)
00084ede  local     $C$L228 (.text:_HMMODBUS_ReadFileRecord)
00084ee6  local     $C$L229 (.text:_HMMODBUS_ReadFileRecord)
00089708  local     $C$L23 (.text:_vSetElementsSize)
00084efd  local     $C$L230 (.text:_HMMODBUS_ReadFileRecord)
00084f00  local     $C$L231 (.text:_HMMODBUS_ReadFileRecord)
00084f07  local     $C$L232 (.text:_HMMODBUS_ReadFileRecord)
00084f15  local     $C$L233 (.text:_HMMODBUS_ReadFileRecord)
00084f18  local     $C$L234 (.text:_HMMODBUS_ReadFileRecord)
00084f21  local     $C$L235 (.text:_HMMODBUS_ReadFileRecord)
00084f30  local     $C$L236 (.text:_HMMODBUS_ReadFileRecord)
00084f41  local     $C$L237 (.text:_HMMODBUS_ReadFileRecord)
00084f48  local     $C$L238 (.text:_HMMODBUS_ReadFileRecord)
00084f5b  local     $C$L239 (.text:_HMMODBUS_ReadFileRecord)
0008970c  local     $C$L24 (.text:_vSetElementsSize)
00084f5f  local     $C$L240 (.text:_HMMODBUS_ReadFileRecord)
00084f6d  local     $C$L241 (.text:_HMMODBUS_ReadFileRecord)
00084f7c  local     $C$L242 (.text:_HMMODBUS_ReadFileRecord)
00084f7e  local     $C$L243 (.text:_HMMODBUS_ReadFileRecord)
00084f86  local     $C$L244 (.text:_HMMODBUS_ReadFileRecord)
00084f90  local     $C$L245 (.text:_HMMODBUS_ReadFileRecord)
00084f97  local     $C$L246 (.text:_HMMODBUS_ReadFileRecord)
00084f99  local     $C$L247 (.text:_HMMODBUS_ReadFileRecord)
00084fad  local     $C$L248 (.text:_HMMODBUS_ReadFileRecord)
00084fe2  local     $C$L249 (.text:_HMMODBUS_ReadFileRecord)
0008970d  local     $C$L25 (.text:_vSetElementsSize)
00085001  local     $C$L250 (.text:_HMMODBUS_ReadFileRecord)
00085012  local     $C$L251 (.text:_HMMODBUS_ReadFileRecord)
0008501f  local     $C$L252 (.text:_HMMODBUS_ReadFileRecord)
00085065  local     $C$L253 (.text:_HMMODBUS_ReadFileRecord)
00085068  local     $C$L254 (.text:_HMMODBUS_ReadFileRecord)
00085072  local     $C$L255 (.text:_HMMODBUS_ReadFileRecord)
00085078  local     $C$L256 (.text:_HMMODBUS_ReadFileRecord)
0008507d  local     $C$L257 (.text:_HMMODBUS_ReadFileRecord)
00085089  local     $C$L258 (.text:_HMMODBUS_ReadFileRecord)
0008508e  local     $C$L259 (.text:_HMMODBUS_ReadFileRecord)
0008a797  local     $C$L26 (.text:_vSetBufferAddressStart)
00085098  local     $C$L260 (.text:_HMMODBUS_ReadFileRecord)
000850c6  local     $C$L261 (.text:_HMMODBUS_ReadFileRecord)
000850d1  local     $C$L262 (.text:_HMMODBUS_ReadFileRecord)
000850e0  local     $C$L263 (.text:_HMMODBUS_ReadFileRecord)
000850e4  local     $C$L264 (.text:_HMMODBUS_ReadFileRecord)
000850e6  local     $C$L265 (.text:_HMMODBUS_ReadFileRecord)
000850ea  local     $C$L266 (.text:_HMMODBUS_ReadFileRecord)
00085108  local     $C$L267 (.text:_HMMODBUS_ReadFileRecord)
00085126  local     $C$L268 (.text:_HMMODBUS_ReadFileRecord)
0008514b  local     $C$L269 (.text:_HMMODBUS_ReadFileRecord)
0008a7a1  local     $C$L27 (.text:_vSetBufferAddressStart)
00085163  local     $C$L270 (.text:_HMMODBUS_ReadFileRecord)
000851c5  local     $C$L271 (.text:_HMMODBUS_ReadFileRecord)
000851e1  local     $C$L272 (.text:_HMMODBUS_ReadFileRecord)
000851f3  local     $C$L273 (.text:_HMMODBUS_ReadFileRecord)
00085206  local     $C$L274 (.text:_HMMODBUS_ReadFileRecord)
0008520e  local     $C$L275 (.text:_HMMODBUS_ReadFileRecord)
00085212  local     $C$L276 (.text:_HMMODBUS_ReadFileRecord)
00085216  local     $C$L277 (.text:_HMMODBUS_ReadFileRecord)
00085248  local     $C$L278 (.text:_HMMODBUS_ReadFileRecord)
00085251  local     $C$L279 (.text:_HMMODBUS_ReadFileRecord)
0008aa94  local     $C$L28 (.text:_bIsValidEndAddressInBuffer)
0008526e  local     $C$L280 (.text:_HMMODBUS_ReadFileRecord)
00085286  local     $C$L281 (.text:_HMMODBUS_ReadFileRecord)
0008529b  local     $C$L282 (.text:_HMMODBUS_ReadFileRecord)
000852ba  local     $C$L283 (.text:_HMMODBUS_ReadFileRecord)
000852ef  local     $C$L284 (.text:_HMMODBUS_ReadFileRecord)
000852fa  local     $C$L285 (.text:_HMMODBUS_ReadFileRecord)
0008531e  local     $C$L286 (.text:_HMMODBUS_ReadFileRecord)
00085326  local     $C$L287 (.text:_HMMODBUS_ReadFileRecord)
00085335  local     $C$L288 (.text:_HMMODBUS_ReadFileRecord)
00085348  local     $C$L289 (.text:_HMMODBUS_ReadFileRecord)
0008ab2f  local     $C$L29 (.text:_u32FixAddressCircleBufferOverflow)
0008535a  local     $C$L290 (.text:_HMMODBUS_ReadFileRecord)
0008535e  local     $C$L291 (.text:_HMMODBUS_ReadFileRecord)
00085362  local     $C$L292 (.text:_HMMODBUS_ReadFileRecord)
00085367  local     $C$L293 (.text:_HMMODBUS_ReadFileRecord)
00085374  local     $C$L294 (.text:_HMMODBUS_ReadFileRecord)
00085386  local     $C$L295 (.text:_HMMODBUS_ReadFileRecord)
00085399  local     $C$L296 (.text:_HMMODBUS_ReadFileRecord)
000853a0  local     $C$L297 (.text:_HMMODBUS_ReadFileRecord)
000853b9  local     $C$L298 (.text:_HMMODBUS_ReadFileRecord)
000853bd  local     $C$L299 (.text:_HMMODBUS_ReadFileRecord)
00089e68  local     $C$L3 (.text:_vSetStartSampleIndex)
0008aaa7  local     $C$L30 (.text:_u32FitAddressCircleBufferInside)
000853d7  local     $C$L300 (.text:_HMMODBUS_ReadFileRecord)
000853f0  local     $C$L301 (.text:_HMMODBUS_ReadFileRecord)
0008540e  local     $C$L302 (.text:_HMMODBUS_ReadFileRecord)
00087e00  local     $C$L303 (.text:_HMMODBUS_WriteHoldingRegister)
00087e10  local     $C$L304 (.text:_HMMODBUS_WriteHoldingRegister)
00087e52  local     $C$L305 (.text:_HMMODBUS_WriteHoldingRegister)
00087e69  local     $C$L306 (.text:_HMMODBUS_WriteHoldingRegister)
00087e7d  local     $C$L307 (.text:_HMMODBUS_WriteHoldingRegister)
00087e88  local     $C$L308 (.text:_HMMODBUS_WriteHoldingRegister)
00087e99  local     $C$L309 (.text:_HMMODBUS_WriteHoldingRegister)
0008aaab  local     $C$L31 (.text:_u32FitAddressCircleBufferInside)
00087e9a  local     $C$L310 (.text:_HMMODBUS_WriteHoldingRegister)
00087e9e  local     $C$L311 (.text:_HMMODBUS_WriteHoldingRegister)
00087cf2  local     $C$L312 (.text:_HMMODBUS_ReadHoldingRegister)
00087cf5  local     $C$L313 (.text:_HMMODBUS_ReadHoldingRegister)
00087d35  local     $C$L314 (.text:_HMMODBUS_ReadHoldingRegister)
00087d4c  local     $C$L315 (.text:_HMMODBUS_ReadHoldingRegister)
00087d68  local     $C$L316 (.text:_HMMODBUS_ReadHoldingRegister)
00087d7a  local     $C$L317 (.text:_HMMODBUS_ReadHoldingRegister)
00087d94  local     $C$L318 (.text:_HMMODBUS_ReadHoldingRegister)
00087da8  local     $C$L319 (.text:_HMMODBUS_ReadHoldingRegister)
0008aa3a  local     $C$L32 (.text:_u32BytesModbusToBytesMemory)
00087db8  local     $C$L320 (.text:_HMMODBUS_ReadHoldingRegister)
00087dba  local     $C$L321 (.text:_HMMODBUS_ReadHoldingRegister)
00082a00  local     $C$L322 (.text:_HMMODBUS_bDecoder_OPT)
00082a07  local     $C$L323 (.text:_HMMODBUS_bDecoder_OPT)
00082a12  local     $C$L324 (.text:_HMMODBUS_bDecoder_OPT)
00082a2b  local     $C$L325 (.text:_HMMODBUS_bDecoder_OPT)
00082a56  local     $C$L326 (.text:_HMMODBUS_bDecoder_OPT)
00082aa0  local     $C$L327 (.text:_HMMODBUS_bDecoder_OPT)
00082afd  local     $C$L328 (.text:_HMMODBUS_bDecoder_OPT)
00082b04  local     $C$L329 (.text:_HMMODBUS_bDecoder_OPT)
0008aa2a  local     $C$L33 (.text:_u32BytesMemoryToBytesModbus)
00082b0e  local     $C$L330 (.text:_HMMODBUS_bDecoder_OPT)
00082b2a  local     $C$L331 (.text:_HMMODBUS_bDecoder_OPT)
00082b66  local     $C$L332 (.text:_HMMODBUS_bDecoder_OPT)
00082b79  local     $C$L333 (.text:_HMMODBUS_bDecoder_OPT)
00082b87  local     $C$L334 (.text:_HMMODBUS_bDecoder_OPT)
00082bc3  local     $C$L335 (.text:_HMMODBUS_bDecoder_OPT)
00082bd6  local     $C$L336 (.text:_HMMODBUS_bDecoder_OPT)
00082be4  local     $C$L337 (.text:_HMMODBUS_bDecoder_OPT)
00082c20  local     $C$L338 (.text:_HMMODBUS_bDecoder_OPT)
00082c33  local     $C$L339 (.text:_HMMODBUS_bDecoder_OPT)
0008ab66  local     $C$L34 (.text:_bIsValidIndexFileTable)
00082c41  local     $C$L340 (.text:_HMMODBUS_bDecoder_OPT)
00082c7d  local     $C$L341 (.text:_HMMODBUS_bDecoder_OPT)
00082c90  local     $C$L342 (.text:_HMMODBUS_bDecoder_OPT)
00082c9e  local     $C$L343 (.text:_HMMODBUS_bDecoder_OPT)
00082cda  local     $C$L344 (.text:_HMMODBUS_bDecoder_OPT)
00082ced  local     $C$L345 (.text:_HMMODBUS_bDecoder_OPT)
00082cfb  local     $C$L346 (.text:_HMMODBUS_bDecoder_OPT)
00082d37  local     $C$L347 (.text:_HMMODBUS_bDecoder_OPT)
00082d4a  local     $C$L348 (.text:_HMMODBUS_bDecoder_OPT)
00082d58  local     $C$L349 (.text:_HMMODBUS_bDecoder_OPT)
0008a6bf  local     $C$L35 (.text:_bGetFileReadAccess)
00082d94  local     $C$L350 (.text:_HMMODBUS_bDecoder_OPT)
00082da7  local     $C$L351 (.text:_HMMODBUS_bDecoder_OPT)
00082db5  local     $C$L352 (.text:_HMMODBUS_bDecoder_OPT)
00082df1  local     $C$L353 (.text:_HMMODBUS_bDecoder_OPT)
00082e04  local     $C$L354 (.text:_HMMODBUS_bDecoder_OPT)
00082e12  local     $C$L355 (.text:_HMMODBUS_bDecoder_OPT)
00082e4e  local     $C$L356 (.text:_HMMODBUS_bDecoder_OPT)
00082e61  local     $C$L357 (.text:_HMMODBUS_bDecoder_OPT)
00082e6f  local     $C$L358 (.text:_HMMODBUS_bDecoder_OPT)
00082eab  local     $C$L359 (.text:_HMMODBUS_bDecoder_OPT)
000877a8  local     $C$L36 (.text:_HMMODBUS_vSetFreeRunTimerPrescaller)
00082ebe  local     $C$L360 (.text:_HMMODBUS_bDecoder_OPT)
00082ecc  local     $C$L361 (.text:_HMMODBUS_bDecoder_OPT)
00082f3c  local     $C$L362 (.text:_HMMODBUS_bDecoder_OPT)
00082f4f  local     $C$L363 (.text:_HMMODBUS_bDecoder_OPT)
00082f94  local     $C$L364 (.text:_HMMODBUS_bDecoder_OPT)
00082fa7  local     $C$L365 (.text:_HMMODBUS_bDecoder_OPT)
00082fec  local     $C$L366 (.text:_HMMODBUS_bDecoder_OPT)
00082fff  local     $C$L367 (.text:_HMMODBUS_bDecoder_OPT)
0008300d  local     $C$L368 (.text:_HMMODBUS_bDecoder_OPT)
0008307d  local     $C$L369 (.text:_HMMODBUS_bDecoder_OPT)
00089990  local     $C$L37 (.text:_HMMODBUS_vSendResponse)
00083090  local     $C$L370 (.text:_HMMODBUS_bDecoder_OPT)
000830d5  local     $C$L371 (.text:_HMMODBUS_bDecoder_OPT)
000830e8  local     $C$L372 (.text:_HMMODBUS_bDecoder_OPT)
0008312d  local     $C$L373 (.text:_HMMODBUS_bDecoder_OPT)
00083140  local     $C$L374 (.text:_HMMODBUS_bDecoder_OPT)
00083185  local     $C$L375 (.text:_HMMODBUS_bDecoder_OPT)
00083198  local     $C$L376 (.text:_HMMODBUS_bDecoder_OPT)
000831a6  local     $C$L377 (.text:_HMMODBUS_bDecoder_OPT)
00083215  local     $C$L378 (.text:_HMMODBUS_bDecoder_OPT)
00083228  local     $C$L379 (.text:_HMMODBUS_bDecoder_OPT)
00089999  local     $C$L38 (.text:_HMMODBUS_vSendResponse)
0008326d  local     $C$L380 (.text:_HMMODBUS_bDecoder_OPT)
00083280  local     $C$L381 (.text:_HMMODBUS_bDecoder_OPT)
000832c5  local     $C$L382 (.text:_HMMODBUS_bDecoder_OPT)
000832d8  local     $C$L383 (.text:_HMMODBUS_bDecoder_OPT)
000832e6  local     $C$L384 (.text:_HMMODBUS_bDecoder_OPT)
0008332d  local     $C$L385 (.text:_HMMODBUS_bDecoder_OPT)
00083334  local     $C$L386 (.text:_HMMODBUS_bDecoder_OPT)
0008334d  local     $C$L387 (.text:_HMMODBUS_bDecoder_OPT)
0008336d  local     $C$L388 (.text:_HMMODBUS_bDecoder_OPT)
00083370  local     $C$L389 (.text:_HMMODBUS_bDecoder_OPT)
000899a4  local     $C$L39 (.text:_HMMODBUS_vSendResponse)
000833b0  local     $C$L390 (.text:_HMMODBUS_bDecoder_OPT)
000833c7  local     $C$L391 (.text:_HMMODBUS_bDecoder_OPT)
000833e5  local     $C$L392 (.text:_HMMODBUS_bDecoder_OPT)
000833fa  local     $C$L393 (.text:_HMMODBUS_bDecoder_OPT)
0008341c  local     $C$L394 (.text:_HMMODBUS_bDecoder_OPT)
00083439  local     $C$L395 (.text:_HMMODBUS_bDecoder_OPT)
00083458  local     $C$L396 (.text:_HMMODBUS_bDecoder_OPT)
0008345f  local     $C$L397 (.text:_HMMODBUS_bDecoder_OPT)
00083461  local     $C$L398 (.text:_HMMODBUS_bDecoder_OPT)
0008349c  local     $C$L399 (.text:_HMMODBUS_bDecoder_OPT)
0008a4d1  local     $C$L4 (.text:_vSetSampleSize)
0008a771  local     $C$L40 (.text:_HMMODBUS_vProcessTxDelay)
000834b9  local     $C$L400 (.text:_HMMODBUS_bDecoder_OPT)
000834c2  local     $C$L401 (.text:_HMMODBUS_bDecoder_OPT)
000834cb  local     $C$L402 (.text:_HMMODBUS_bDecoder_OPT)
00083534  local     $C$L403 (.text:_HMMODBUS_bDecoder_OPT)
0008354e  local     $C$L404 (.text:_HMMODBUS_bDecoder_OPT)
00083580  local     $C$L405 (.text:_HMMODBUS_bDecoder_OPT)
00083599  local     $C$L406 (.text:_HMMODBUS_bDecoder_OPT)
000835d4  local     $C$L407 (.text:_HMMODBUS_bDecoder_OPT)
000835e4  local     $C$L408 (.text:_HMMODBUS_bDecoder_OPT)
00083621  local     $C$L409 (.text:_HMMODBUS_bDecoder_OPT)
0008a774  local     $C$L41 (.text:_HMMODBUS_vProcessTxDelay)
0008363e  local     $C$L410 (.text:_HMMODBUS_bDecoder_OPT)
0008366f  local     $C$L411 (.text:_HMMODBUS_bDecoder_OPT)
000836a7  local     $C$L412 (.text:_HMMODBUS_bDecoder_OPT)
000836d4  local     $C$L413 (.text:_HMMODBUS_bDecoder_OPT)
000836db  local     $C$L414 (.text:_HMMODBUS_bDecoder_OPT)
000836dd  local     $C$L415 (.text:_HMMODBUS_bDecoder_OPT)
000836e1  local     $C$L416 (.text:_HMMODBUS_bDecoder_OPT)
000836ef  local     $C$L417 (.text:_HMMODBUS_bDecoder_OPT)
00089f4f  local     $C$L418 (.text:_HMMODBUS_bDecoderInit_OPT)
00086e76  local     $C$L419 (.text:_HMMODBUS_Rx)
0008a776  local     $C$L42 (.text:_HMMODBUS_vProcessTxDelay)
00086e96  local     $C$L420 (.text:_HMMODBUS_Rx)
00086eaa  local     $C$L421 (.text:_HMMODBUS_Rx)
00086eae  local     $C$L422 (.text:_HMMODBUS_Rx)
00086eb2  local     $C$L423 (.text:_HMMODBUS_Rx)
00086ecc  local     $C$L424 (.text:_HMMODBUS_Rx)
00086ed2  local     $C$L425 (.text:_HMMODBUS_Rx)
00086edd  local     $C$L426 (.text:_HMMODBUS_Rx)
00086ee8  local     $C$L427 (.text:_HMMODBUS_Rx)
00086ef3  local     $C$L428 (.text:_HMMODBUS_Rx)
00086efe  local     $C$L429 (.text:_HMMODBUS_Rx)
0008a4e8  local     $C$L43 (.text:_HMMODBUS_Tx)
00086f09  local     $C$L430 (.text:_HMMODBUS_Rx)
00086f13  local     $C$L431 (.text:_HMMODBUS_Rx)
00086f1e  local     $C$L432 (.text:_HMMODBUS_Rx)
00086f26  local     $C$L433 (.text:_HMMODBUS_Rx)
00086f2b  local     $C$L434 (.text:_HMMODBUS_Rx)
00086f54  local     $C$L435 (.text:_HMMODBUS_Rx)
00086f75  local     $C$L436 (.text:_HMMODBUS_Rx)
00086f7a  local     $C$L437 (.text:_HMMODBUS_Rx)
00086f7f  local     $C$L438 (.text:_HMMODBUS_Rx)
00086f8a  local     $C$L439 (.text:_HMMODBUS_Rx)
0008a4f2  local     $C$L44 (.text:_HMMODBUS_Tx)
00086f94  local     $C$L440 (.text:_HMMODBUS_Rx)
00086f99  local     $C$L441 (.text:_HMMODBUS_Rx)
00086fa5  local     $C$L442 (.text:_HMMODBUS_Rx)
00086fb4  local     $C$L443 (.text:_HMMODBUS_Rx)
00086fcc  local     $C$L444 (.text:_HMMODBUS_Rx)
00086fcd  local     $C$L445 (.text:_HMMODBUS_Rx)
00089242  local     $C$L446 (.text:_HMMODBUS_vProcessSCI)
0008924d  local     $C$L447 (.text:_HMMODBUS_vProcessSCI)
0008927c  local     $C$L448 (.text:_HMMODBUS_vProcessSCI)
00089289  local     $C$L449 (.text:_HMMODBUS_vProcessSCI)
0008a661  local     $C$L45 (.text:_HMMODBUS_vProcessSCITXISR)
00089297  local     $C$L450 (.text:_HMMODBUS_vProcessSCI)
0008929e  local     $C$L451 (.text:_HMMODBUS_vProcessSCI)
000892a5  local     $C$L452 (.text:_HMMODBUS_vProcessSCI)
0008ab3b  local     $C$L453 (.text:_HMMODBUS_vProcessFastTD)
0000000b  local     $C$L454 (.text:_HMMODBUS_CopyToBufferSingleCoil)
00000023  local     $C$L455 (.text:_HMMODBUS_CopyToBufferSingleCoil)
00000010  local     $C$L456 (.text:_HMMODBUS_CopyToBufferCoil)
00000013  local     $C$L457 (.text:_HMMODBUS_CopyToBufferCoil)
0000002f  local     $C$L458 (.text:_HMMODBUS_CopyToBufferCoil)
00000037  local     $C$L459 (.text:_HMMODBUS_CopyToBufferCoil)
0008a666  local     $C$L46 (.text:_HMMODBUS_vProcessSCITXISR)
00000041  local     $C$L460 (.text:_HMMODBUS_CopyToBufferCoil)
00000059  local     $C$L461 (.text:_HMMODBUS_CopyToBufferCoil)
00000061  local     $C$L462 (.text:_HMMODBUS_CopyToBufferCoil)
0000006c  local     $C$L463 (.text:_HMMODBUS_CopyToBufferCoil)
00000075  local     $C$L464 (.text:_HMMODBUS_CopyToBufferCoil)
00000025  local     $C$L465 (.text:_HMMODBUS_CopyFromBufferSingleCoil)
0000002c  local     $C$L466 (.text:_HMMODBUS_CopyFromBufferSingleCoil)
0000000f  local     $C$L467 (.text:_HMMODBUS_CopyFromBufferCoil)
0000002e  local     $C$L468 (.text:_HMMODBUS_CopyFromBufferCoil)
00000042  local     $C$L469 (.text:_HMMODBUS_CopyFromBufferCoil)
0008abb5  local     $C$L47 (.text:_HMMODBUS_vProcessRxDelay)
00000046  local     $C$L470 (.text:_HMMODBUS_CopyFromBufferCoil)
0000005a  local     $C$L471 (.text:_HMMODBUS_CopyFromBufferCoil)
0000005e  local     $C$L472 (.text:_HMMODBUS_CopyFromBufferCoil)
00000061  local     $C$L473 (.text:_HMMODBUS_CopyFromBufferCoil)
00000069  local     $C$L474 (.text:_HMMODBUS_CopyFromBufferCoil)
00000004  local     $C$L475 (.text:_HMMODBUS_CopyFileRecordFromBuffer)
0000000e  local     $C$L476 (.text:_HMMODBUS_CopyFileRecordFromBuffer)
00000014  local     $C$L477 (.text:_HMMODBUS_CopyFileRecordFromBuffer)
0000001f  local     $C$L478 (.text:_HMMODBUS_CopyFileRecordFromBuffer)
00000025  local     $C$L479 (.text:_HMMODBUS_CopyFileRecordFromBuffer)
00089f88  local     $C$L48 (.text:_HMMODBUS_Listen)
00000030  local     $C$L480 (.text:_HMMODBUS_CopyFileRecordFromBuffer)
00000036  local     $C$L481 (.text:_HMMODBUS_CopyFileRecordFromBuffer)
0000003c  local     $C$L482 (.text:_HMMODBUS_CopyFileRecordFromBuffer)
0000003f  local     $C$L483 (.text:_HMMODBUS_CopyFileRecordFromBuffer)
00000044  local     $C$L484 (.text:_HMMODBUS_CopyFileRecordFromBuffer)
00089f8f  local     $C$L49 (.text:_HMMODBUS_Listen)
0008a4b0  local     $C$L5 (.text:_vSetSampleCountBuffer)
00089f95  local     $C$L50 (.text:_HMMODBUS_Listen)
00089fab  local     $C$L51 (.text:_HMMODBUS_Listen)
000877d0  local     $C$L52 (.text:_HMMODBUS_GetRealRegisterAddressAndSize)
000877e0  local     $C$L53 (.text:_HMMODBUS_GetRealRegisterAddressAndSize)
00087801  local     $C$L54 (.text:_HMMODBUS_GetRealRegisterAddressAndSize)
0008780f  local     $C$L55 (.text:_HMMODBUS_GetRealRegisterAddressAndSize)
00087812  local     $C$L56 (.text:_HMMODBUS_GetRealRegisterAddressAndSize)
00087818  local     $C$L57 (.text:_HMMODBUS_GetRealRegisterAddressAndSize)
00087820  local     $C$L58 (.text:_HMMODBUS_GetRealRegisterAddressAndSize)
00087839  local     $C$L59 (.text:_HMMODBUS_GetRealRegisterAddressAndSize)
0008a4b1  local     $C$L6 (.text:_vSetSampleCountBuffer)
00087845  local     $C$L60 (.text:_HMMODBUS_GetRealRegisterAddressAndSize)
0008784c  local     $C$L61 (.text:_HMMODBUS_GetRealRegisterAddressAndSize)
00087850  local     $C$L62 (.text:_HMMODBUS_GetRealRegisterAddressAndSize)
00087853  local     $C$L63 (.text:_HMMODBUS_GetRealRegisterAddressAndSize)
00087874  local     $C$L64 (.text:_HMMODBUS_GetRealRegisterAddressAndSize)
00087882  local     $C$L65 (.text:_HMMODBUS_GetRealRegisterAddressAndSize)
00087885  local     $C$L66 (.text:_HMMODBUS_GetRealRegisterAddressAndSize)
0008788b  local     $C$L67 (.text:_HMMODBUS_GetRealRegisterAddressAndSize)
00087893  local     $C$L68 (.text:_HMMODBUS_GetRealRegisterAddressAndSize)
000878ac  local     $C$L69 (.text:_HMMODBUS_GetRealRegisterAddressAndSize)
0008a3e1  local     $C$L7 (.text:_vSetSampleCountAvailable)
000878b6  local     $C$L70 (.text:_HMMODBUS_GetRealRegisterAddressAndSize)
000878c6  local     $C$L71 (.text:_HMMODBUS_GetRealRegisterAddressAndSize)
000893b4  local     $C$L72 (.text:_HMMODBUS_CopyFromBuffer)
000893c6  local     $C$L73 (.text:_HMMODBUS_CopyFromBuffer)
000893c9  local     $C$L74 (.text:_HMMODBUS_CopyFromBuffer)
000893da  local     $C$L75 (.text:_HMMODBUS_CopyFromBuffer)
000893dd  local     $C$L76 (.text:_HMMODBUS_CopyFromBuffer)
000893e5  local     $C$L77 (.text:_HMMODBUS_CopyFromBuffer)
00089a67  local     $C$L78 (.text:_HMMODBUS_CopyToBuffer)
00089a7f  local     $C$L79 (.text:_HMMODBUS_CopyToBuffer)
0008a3e8  local     $C$L8 (.text:_vSetSampleCountAvailable)
00089a82  local     $C$L80 (.text:_HMMODBUS_CopyToBuffer)
00089a94  local     $C$L81 (.text:_HMMODBUS_CopyToBuffer)
00089a9b  local     $C$L82 (.text:_HMMODBUS_CopyToBuffer)
00089a9c  local     $C$L83 (.text:_HMMODBUS_CopyToBuffer)
00089940  local     $C$L84 (.text:_HMMODBUS_GetRegisterFunction)
00089958  local     $C$L85 (.text:_HMMODBUS_GetRegisterFunction)
00089967  local     $C$L86 (.text:_HMMODBUS_GetRegisterFunction)
0008996b  local     $C$L87 (.text:_HMMODBUS_GetRegisterFunction)
0008996d  local     $C$L88 (.text:_HMMODBUS_GetRegisterFunction)
00089975  local     $C$L89 (.text:_HMMODBUS_GetRegisterFunction)
0008a3e9  local     $C$L9 (.text:_vSetSampleCountAvailable)
0008372d  local     $C$L90 (.text:_HMMODBUS_WriteFileRecord)
000837b1  local     $C$L91 (.text:_HMMODBUS_WriteFileRecord)
000837b9  local     $C$L92 (.text:_HMMODBUS_WriteFileRecord)
000837c2  local     $C$L93 (.text:_HMMODBUS_WriteFileRecord)
000837e7  local     $C$L94 (.text:_HMMODBUS_WriteFileRecord)
000837ee  local     $C$L95 (.text:_HMMODBUS_WriteFileRecord)
000837fd  local     $C$L96 (.text:_HMMODBUS_WriteFileRecord)
00083817  local     $C$L97 (.text:_HMMODBUS_WriteFileRecord)
00083824  local     $C$L98 (.text:_HMMODBUS_WriteFileRecord)
00083838  local     $C$L99 (.text:_HMMODBUS_WriteFileRecord)
00000000  local     .bss (.bss)
00082000  local     .cinit (.cinit)
00082928  local     .cinit:_HMMODBUS_u32RegisterAddressInRamDummy (.cinit:_HMMODBUS_u32RegisterAddressInRamDummy)
00000000  local     .data (.data)
0000e280  local     .ebss (.ebss)
0000e3c0  local     .ebss:_HMMODBUS_anTxCheckSum (.ebss:_HMMODBUS_anTxCheckSum)
0000ed8a  local     .ebss:_HMMODBUS_nFilePrimaryAddrWriteLast (.ebss:_HMMODBUS_nFilePrimaryAddrWriteLast)
0000e4c0  local     .ebss:_HMMODBUS_pCommBufferRx (.ebss:_HMMODBUS_pCommBufferRx)
0000e5c0  local     .ebss:_HMMODBUS_pCommBufferTx (.ebss:_HMMODBUS_pCommBufferTx)
0000ee3d  local     .ebss:_HMMODBUS_u32RegisterAddressDummy (.ebss:_HMMODBUS_u32RegisterAddressDummy)
0000ee06  local     .ebss:_HMMODBUS_u32RegisterAddressInRamDummy (.ebss:_HMMODBUS_u32RegisterAddressInRamDummy)
0000ee55  local     .ebss:_HMMODBUS_wFlags (.ebss:_HMMODBUS_wFlags)
0000ee56  local     .ebss:_HMMODBUS_wFlagsRxTx (.ebss:_HMMODBUS_wFlagsRxTx)
0000ed94  local     .ebss:_HMMOSBUS_nFileWriteAddrReadLast (.ebss:_HMMOSBUS_nFileWriteAddrReadLast)
0000cd80  local     .ebss:_u32ModbusTimeoutBuffer (.ebss:_u32ModbusTimeoutBuffer)
00090000  local     .econst:.string:_auchCRCHi (.econst:.string:_auchCRCHi)
00090100  local     .econst:.string:_auchCRCLo (.econst:.string:_auchCRCLo)
00000000  local     .text (.text)
0008aa5a  local     .text:_HMMODBUS_CalcCRC (.text:_HMMODBUS_CalcCRC)
00000000  local     .text:_HMMODBUS_CopyFileRecordFromBuffer (.text:_HMMODBUS_CopyFileRecordFromBuffer)
0008937f  local     .text:_HMMODBUS_CopyFromBuffer (.text:_HMMODBUS_CopyFromBuffer)
00000000  local     .text:_HMMODBUS_CopyFromBufferCoil (.text:_HMMODBUS_CopyFromBufferCoil)
00000000  local     .text:_HMMODBUS_CopyFromBufferSingleCoil (.text:_HMMODBUS_CopyFromBufferSingleCoil)
00089a58  local     .text:_HMMODBUS_CopyToBuffer (.text:_HMMODBUS_CopyToBuffer)
00000000  local     .text:_HMMODBUS_CopyToBufferCoil (.text:_HMMODBUS_CopyToBufferCoil)
00000000  local     .text:_HMMODBUS_CopyToBufferSingleCoil (.text:_HMMODBUS_CopyToBufferSingleCoil)
0008a826  local     .text:_HMMODBUS_DelayedTx (.text:_HMMODBUS_DelayedTx)
000877ad  local     .text:_HMMODBUS_GetRealRegisterAddressAndSize (.text:_HMMODBUS_GetRealRegisterAddressAndSize)
00089927  local     .text:_HMMODBUS_GetRegisterFunction (.text:_HMMODBUS_GetRegisterFunction)
00089f86  local     .text:_HMMODBUS_Listen (.text:_HMMODBUS_Listen)
00084a52  local     .text:_HMMODBUS_ReadFileRecord (.text:_HMMODBUS_ReadFileRecord)
00087cc8  local     .text:_HMMODBUS_ReadHoldingRegister (.text:_HMMODBUS_ReadHoldingRegister)
00086e62  local     .text:_HMMODBUS_Rx (.text:_HMMODBUS_Rx)
0008a4d5  local     .text:_HMMODBUS_Tx (.text:_HMMODBUS_Tx)
000836f4  local     .text:_HMMODBUS_WriteFileRecord (.text:_HMMODBUS_WriteFileRecord)
00087dbc  local     .text:_HMMODBUS_WriteHoldingRegister (.text:_HMMODBUS_WriteHoldingRegister)
00089f1a  local     .text:_HMMODBUS_bDecoderInit_OPT (.text:_HMMODBUS_bDecoderInit_OPT)
000829c4  local     .text:_HMMODBUS_bDecoder_OPT (.text:_HMMODBUS_bDecoder_OPT)
0008ad08  local     .text:_HMMODBUS_bGetReceivedMessage (.text:_HMMODBUS_bGetReceivedMessage)
0008ad56  local     .text:_HMMODBUS_u32GetAddressMessageCounterThisDevice (.text:_HMMODBUS_u32GetAddressMessageCounterThisDevice)
00000000  local     .text:_HMMODBUS_u32GetFreeRunTimerReceivedMessage (.text:_HMMODBUS_u32GetFreeRunTimerReceivedMessage)
0008ad0d  local     .text:_HMMODBUS_vFileTable (.text:_HMMODBUS_vFileTable)
00000000  local     .text:_HMMODBUS_vFileTableSetValidRecord (.text:_HMMODBUS_vFileTableSetValidRecord)
0008a4f4  local     .text:_HMMODBUS_vInit (.text:_HMMODBUS_vInit)
0008ab31  local     .text:_HMMODBUS_vProcessFastTD (.text:_HMMODBUS_vProcessFastTD)
0008ac44  local     .text:_HMMODBUS_vProcessFreeTimer (.text:_HMMODBUS_vProcessFreeTimer)
0008abae  local     .text:_HMMODBUS_vProcessRxDelay (.text:_HMMODBUS_vProcessRxDelay)
00089237  local     .text:_HMMODBUS_vProcessSCI (.text:_HMMODBUS_vProcessSCI)
0008a64e  local     .text:_HMMODBUS_vProcessSCITXISR (.text:_HMMODBUS_vProcessSCITXISR)
0008a760  local     .text:_HMMODBUS_vProcessTxDelay (.text:_HMMODBUS_vProcessTxDelay)
00089978  local     .text:_HMMODBUS_vSendResponse (.text:_HMMODBUS_vSendResponse)
0008ad5a  local     .text:_HMMODBUS_vSetAddressMessageCounterThisDevice (.text:_HMMODBUS_vSetAddressMessageCounterThisDevice)
0008ad5e  local     .text:_HMMODBUS_vSetDeviceIDMajorMinorRevision (.text:_HMMODBUS_vSetDeviceIDMajorMinorRevision)
0008ad62  local     .text:_HMMODBUS_vSetDeviceIDMajorMinorRevisionLength (.text:_HMMODBUS_vSetDeviceIDMajorMinorRevisionLength)
0008ad66  local     .text:_HMMODBUS_vSetDeviceIDModelName (.text:_HMMODBUS_vSetDeviceIDModelName)
0008ad6a  local     .text:_HMMODBUS_vSetDeviceIDModelNameLength (.text:_HMMODBUS_vSetDeviceIDModelNameLength)
0008ad6e  local     .text:_HMMODBUS_vSetDeviceIDProductCode (.text:_HMMODBUS_vSetDeviceIDProductCode)
0008ad72  local     .text:_HMMODBUS_vSetDeviceIDProductCodeLength (.text:_HMMODBUS_vSetDeviceIDProductCodeLength)
0008ad76  local     .text:_HMMODBUS_vSetDeviceIDProductName (.text:_HMMODBUS_vSetDeviceIDProductName)
0008ad7a  local     .text:_HMMODBUS_vSetDeviceIDProductNameLength (.text:_HMMODBUS_vSetDeviceIDProductNameLength)
0008ad7e  local     .text:_HMMODBUS_vSetDeviceIDUserApplicationName (.text:_HMMODBUS_vSetDeviceIDUserApplicationName)
0008ad82  local     .text:_HMMODBUS_vSetDeviceIDUserApplicationNameLength (.text:_HMMODBUS_vSetDeviceIDUserApplicationNameLength)
0008ad86  local     .text:_HMMODBUS_vSetDeviceIDUserReserve0 (.text:_HMMODBUS_vSetDeviceIDUserReserve0)
0008ad8a  local     .text:_HMMODBUS_vSetDeviceIDUserReserve0Length (.text:_HMMODBUS_vSetDeviceIDUserReserve0Length)
0008ad8e  local     .text:_HMMODBUS_vSetDeviceIDUserReserve1 (.text:_HMMODBUS_vSetDeviceIDUserReserve1)
0008ad92  local     .text:_HMMODBUS_vSetDeviceIDUserReserve1Length (.text:_HMMODBUS_vSetDeviceIDUserReserve1Length)
0008ad96  local     .text:_HMMODBUS_vSetDeviceIDUserReserve2 (.text:_HMMODBUS_vSetDeviceIDUserReserve2)
0008ad9a  local     .text:_HMMODBUS_vSetDeviceIDUserReserve2Length (.text:_HMMODBUS_vSetDeviceIDUserReserve2Length)
0008ad9e  local     .text:_HMMODBUS_vSetDeviceIDVendorName (.text:_HMMODBUS_vSetDeviceIDVendorName)
0008ada2  local     .text:_HMMODBUS_vSetDeviceIDVendorNameLength (.text:_HMMODBUS_vSetDeviceIDVendorNameLength)
0008ada6  local     .text:_HMMODBUS_vSetDeviceIDVendorUrl (.text:_HMMODBUS_vSetDeviceIDVendorUrl)
0008adaa  local     .text:_HMMODBUS_vSetDeviceIDVendorUrlLength (.text:_HMMODBUS_vSetDeviceIDVendorUrlLength)
00087685  local     .text:_HMMODBUS_vSetFreeRunTimerPrescaller (.text:_HMMODBUS_vSetFreeRunTimerPrescaller)
00000000  local     .text:_HMMODBUS_vSetPortIndex (.text:_HMMODBUS_vSetPortIndex)
0008adae  local     .text:_HMMODBUS_vSetServerIDDataAddress (.text:_HMMODBUS_vSetServerIDDataAddress)
0008adb2  local     .text:_HMMODBUS_vSetServerIDLength (.text:_HMMODBUS_vSetServerIDLength)
0008adb6  local     .text:_HMMODBUS_vSetServerIDNumber (.text:_HMMODBUS_vSetServerIDNumber)
0008adba  local     .text:_HMMODBUS_vSetServerOnStatus (.text:_HMMODBUS_vSetServerOnStatus)
0008adbe  local     .text:_HMMODBUS_vSetupHoldingRegistersAccessTableInRam (.text:_HMMODBUS_vSetupHoldingRegistersAccessTableInRam)
0008acb2  local     .text:_HMMODBUS_vSetupHoldingRegistersAddressTable (.text:_HMMODBUS_vSetupHoldingRegistersAddressTable)
0008acb8  local     .text:_HMMODBUS_vSetupHoldingRegistersAddressTableInRam (.text:_HMMODBUS_vSetupHoldingRegistersAddressTableInRam)
0008a94c  local     .text:_HMMODBUS_vSetupRegisterDummy (.text:_HMMODBUS_vSetupRegisterDummy)
0008adc2  local     .text:_HMMODBUS_vSetupWriteParElementCallbackFunction (.text:_HMMODBUS_vSetupWriteParElementCallbackFunction)
00000000  local     .text:_HMMODBUS_vSetupWriteParElementFixedArguments (.text:_HMMODBUS_vSetupWriteParElementFixedArguments)
0008ae2a  local     .text:_bGetElementsDifference (.text:_bGetElementsDifference)
0008a6b6  local     .text:_bGetFileReadAccess (.text:_bGetFileReadAccess)
0008aa87  local     .text:_bIsValidEndAddressInBuffer (.text:_bIsValidEndAddressInBuffer)
0008ab5d  local     .text:_bIsValidIndexFileTable (.text:_bIsValidIndexFileTable)
0008ae2e  local     .text:_u16GetIndexFileTable (.text:_u16GetIndexFileTable)
0008aa1c  local     .text:_u32BytesMemoryToBytesModbus (.text:_u32BytesMemoryToBytesModbus)
0008aa2c  local     .text:_u32BytesModbusToBytesMemory (.text:_u32BytesModbusToBytesMemory)
0008aaa4  local     .text:_u32FitAddressCircleBufferInside (.text:_u32FitAddressCircleBufferInside)
0008ab25  local     .text:_u32FixAddressCircleBufferOverflow (.text:_u32FixAddressCircleBufferOverflow)
0008ae32  local     .text:_u32GetBufferAddressStart (.text:_u32GetBufferAddressStart)
0008ae36  local     .text:_u32GetBufferSize (.text:_u32GetBufferSize)
00000000  local     .text:_u32GetElementsSizeMemory (.text:_u32GetElementsSizeMemory)
00000000  local     .text:_u32GetElementsSizeModbus (.text:_u32GetElementsSizeModbus)
0008ae3a  local     .text:_u32GetSampleCountAvailable (.text:_u32GetSampleCountAvailable)
0008ae3e  local     .text:_u32GetSampleCountBuffer (.text:_u32GetSampleCountBuffer)
0008ae42  local     .text:_u32GetStartSampleIndex (.text:_u32GetStartSampleIndex)
0008ae46  local     .text:_u8GetSampleSize (.text:_u8GetSampleSize)
0008a78e  local     .text:_vSetBufferAddressStart (.text:_vSetBufferAddressStart)
0008ae4a  local     .text:_vSetBufferAddressStartFromFunction (.text:_vSetBufferAddressStartFromFunction)
0008ae4e  local     .text:_vSetBufferSize (.text:_vSetBufferSize)
000896b3  local     .text:_vSetElementsSize (.text:_vSetElementsSize)
00089bbc  local     .text:_vSetIndexFileTable (.text:_vSetIndexFileTable)
0008a3c9  local     .text:_vSetSampleCountAvailable (.text:_vSetSampleCountAvailable)
0008a495  local     .text:_vSetSampleCountBuffer (.text:_vSetSampleCountBuffer)
0008a4b5  local     .text:_vSetSampleSize (.text:_vSetSampleSize)
00089e2c  local     .text:_vSetStartSampleIndex (.text:_vSetStartSampleIndex)
0008aa5a  global    _HMMODBUS_CalcCRC (.text:_HMMODBUS_CalcCRC)
00000000  global    _HMMODBUS_CopyFileRecordFromBuffer (.text:_HMMODBUS_CopyFileRecordFromBuffer)
0008937f  global    _HMMODBUS_CopyFromBuffer (.text:_HMMODBUS_CopyFromBuffer)
00000000  global    _HMMODBUS_CopyFromBufferCoil (.text:_HMMODBUS_CopyFromBufferCoil)
00000000  global    _HMMODBUS_CopyFromBufferSingleCoil (.text:_HMMODBUS_CopyFromBufferSingleCoil)
00089a58  global    _HMMODBUS_CopyToBuffer (.text:_HMMODBUS_CopyToBuffer)
00000000  global    _HMMODBUS_CopyToBufferCoil (.text:_HMMODBUS_CopyToBufferCoil)
00000000  global    _HMMODBUS_CopyToBufferSingleCoil (.text:_HMMODBUS_CopyToBufferSingleCoil)
0008a826  global    _HMMODBUS_DelayedTx (.text:_HMMODBUS_DelayedTx)
000877ad  global    _HMMODBUS_GetRealRegisterAddressAndSize (.text:_HMMODBUS_GetRealRegisterAddressAndSize)
00089927  global    _HMMODBUS_GetRegisterFunction (.text:_HMMODBUS_GetRegisterFunction)
00089f86  global    _HMMODBUS_Listen (.text:_HMMODBUS_Listen)
00084a52  global    _HMMODBUS_ReadFileRecord (.text:_HMMODBUS_ReadFileRecord)
00087cc8  global    _HMMODBUS_ReadHoldingRegister (.text:_HMMODBUS_ReadHoldingRegister)
00086e62  global    _HMMODBUS_Rx (.text:_HMMODBUS_Rx)
0008a4d5  global    _HMMODBUS_Tx (.text:_HMMODBUS_Tx)
000836f4  global    _HMMODBUS_WriteFileRecord (.text:_HMMODBUS_WriteFileRecord)
00087dbc  global    _HMMODBUS_WriteHoldingRegister (.text:_HMMODBUS_WriteHoldingRegister)
0000e3c0  global    _HMMODBUS_anTxCheckSum (.ebss:_HMMODBUS_anTxCheckSum)
00089f1a  global    _HMMODBUS_bDecoderInit_OPT (.text:_HMMODBUS_bDecoderInit_OPT)
000829c4  global    _HMMODBUS_bDecoder_OPT (.text:_HMMODBUS_bDecoder_OPT)
0008ad08  global    _HMMODBUS_bGetReceivedMessage (.text:_HMMODBUS_bGetReceivedMessage)
0000e287  global    _HMMODBUS_bOverflowReached (.ebss)
0000e28b  global    _HMMODBUS_bReceivedMessage (.ebss)
0000ed8a  global    _HMMODBUS_nFilePrimaryAddrWriteLast (.ebss:_HMMODBUS_nFilePrimaryAddrWriteLast)
0000e282  global    _HMMODBUS_nLastResponseCmd (.ebss)
0000e283  global    _HMMODBUS_nLastResponseCode (.ebss)
0000e285  global    _HMMODBUS_nRxCheckSum (.ebss)
0000e284  global    _HMMODBUS_nRxTodo (.ebss)
0000e281  global    _HMMODBUS_nRxTodoEcho (.ebss)
0000e348  global    _HMMODBUS_nSizeReadRequestLoopLeft (.ebss)
0000e286  global    _HMMODBUS_nTxCheckSum (.ebss)
0000e280  global    _HMMODBUS_nTxTodo (.ebss)
0000e4c0  global    _HMMODBUS_pCommBufferRx (.ebss:_HMMODBUS_pCommBufferRx)
0000e5c0  global    _HMMODBUS_pCommBufferTx (.ebss:_HMMODBUS_pCommBufferTx)
0000e2e0  global    _HMMODBUS_pRxBuff (.ebss)
0000e2de  global    _HMMODBUS_pTxBuff (.ebss)
0000e2f4  global    _HMMODBUS_pasFileAddressTable (.ebss)
0000e2e2  global    _HMMODBUS_pu32HoldingRegisterAccessTableInRam (.ebss)
0000e2e8  global    _HMMODBUS_pu32HoldingRegisterAddressTable (.ebss)
0000e2ea  global    _HMMODBUS_pu32HoldingRegisterAddressTableInRam (.ebss)
0000e31a  global    _HMMODBUS_pu8ReadDeviceIDMajorMinorRevision (.ebss)
0000e320  global    _HMMODBUS_pu8ReadDeviceIDModelName (.ebss)
0000e318  global    _HMMODBUS_pu8ReadDeviceIDProductCode (.ebss)
0000e31e  global    _HMMODBUS_pu8ReadDeviceIDProductName (.ebss)
0000e322  global    _HMMODBUS_pu8ReadDeviceIDUserApplicationName (.ebss)
0000e324  global    _HMMODBUS_pu8ReadDeviceIDUserReserve0 (.ebss)
0000e326  global    _HMMODBUS_pu8ReadDeviceIDUserReserve1 (.ebss)
0000e328  global    _HMMODBUS_pu8ReadDeviceIDUserReserve2 (.ebss)
0000e316  global    _HMMODBUS_pu8ReadDeviceIDVendorName (.ebss)
0000e31c  global    _HMMODBUS_pu8ReadDeviceIDVendorUrl (.ebss)
0000e314  global    _HMMODBUS_pu8ReadServerIDDatAdr (.ebss)
0000e342  global    _HMMODBUS_u32DebugAddrReadFileCircle (.ebss)
0000e340  global    _HMMODBUS_u32DebugAddrReadFileCircleTooFarAddress (.ebss)
0000e344  global    _HMMODBUS_u32DebugAddrReadFileForRead (.ebss)
0000e346  global    _HMMODBUS_u32DebugAddrReadFileForReadLooped (.ebss)
0000e33c  global    _HMMODBUS_u32DebugAddrReadFileFromAddress (.ebss)
0000e33a  global    _HMMODBUS_u32DebugAddrReadFileFromIndex (.ebss)
0000e338  global    _HMMODBUS_u32DebugAddrReadFileReal (.ebss)
0000e33e  global    _HMMODBUS_u32DebugAddrReadPlusOffset (.ebss)
0000e2f8  global    _HMMODBUS_u32DeviceSYSCLKFreq (.ebss)
0000e2f6  global    _HMMODBUS_u32FileCount (.ebss)
0000e2f2  global    _HMMODBUS_u32FreeRunTimerReceivedMessage (.ebss)
0008ad56  global    _HMMODBUS_u32GetAddressMessageCounterThisDevice (.text:_HMMODBUS_u32GetAddressMessageCounterThisDevice)
00000000  global    _HMMODBUS_u32GetFreeRunTimerReceivedMessage (.text:_HMMODBUS_u32GetFreeRunTimerReceivedMessage)
0000e2e6  global    _HMMODBUS_u32HoldingRegisterAddressTableInRamSize (.ebss)
0000e2e4  global    _HMMODBUS_u32HoldingRegisterAddressTableSize (.ebss)
0000ee3d  global    _HMMODBUS_u32RegisterAddressDummy (.ebss:_HMMODBUS_u32RegisterAddressDummy)
0000ee06  global    _HMMODBUS_u32RegisterAddressInRamDummy (.ebss:_HMMODBUS_u32RegisterAddressInRamDummy)
0000e2ec  global    _HMMODBUS_u32TxDelayCounter (.ebss)
0000e289  global    _HMMODBUS_u8DeviceAddress (.ebss)
0000e298  global    _HMMODBUS_u8ReadDeviceIDConfLvl (.ebss)
0000e297  global    _HMMODBUS_u8ReadDeviceIDConfLvlMask (.ebss)
0000e29b  global    _HMMODBUS_u8ReadDeviceIDMajorMinorRevisionLength (.ebss)
0000e29e  global    _HMMODBUS_u8ReadDeviceIDModelNameLength (.ebss)
0000e29a  global    _HMMODBUS_u8ReadDeviceIDProductCodeLength (.ebss)
0000e29d  global    _HMMODBUS_u8ReadDeviceIDProductNameLength (.ebss)
0000e29f  global    _HMMODBUS_u8ReadDeviceIDUserApplicationNameLength (.ebss)
0000e2a0  global    _HMMODBUS_u8ReadDeviceIDUserReserve0Length (.ebss)
0000e2a1  global    _HMMODBUS_u8ReadDeviceIDUserReserve1Length (.ebss)
0000e2a2  global    _HMMODBUS_u8ReadDeviceIDUserReserve2Length (.ebss)
0000e299  global    _HMMODBUS_u8ReadDeviceIDVendorNameLength (.ebss)
0000e29c  global    _HMMODBUS_u8ReadDeviceIDVendorUrlLength (.ebss)
0000e294  global    _HMMODBUS_u8ReadServerIDLength (.ebss)
0000e295  global    _HMMODBUS_u8ReadServerIDNumber (.ebss)
0000e296  global    _HMMODBUS_u8ReadServerOnStatus (.ebss)
0008ad0d  global    _HMMODBUS_vFileTable (.text:_HMMODBUS_vFileTable)
00000000  global    _HMMODBUS_vFileTableSetValidRecord (.text:_HMMODBUS_vFileTableSetValidRecord)
0008a4f4  global    _HMMODBUS_vInit (.text:_HMMODBUS_vInit)
0008ab31  global    _HMMODBUS_vProcessFastTD (.text:_HMMODBUS_vProcessFastTD)
0008ac44  global    _HMMODBUS_vProcessFreeTimer (.text:_HMMODBUS_vProcessFreeTimer)
0008abae  global    _HMMODBUS_vProcessRxDelay (.text:_HMMODBUS_vProcessRxDelay)
00089237  global    _HMMODBUS_vProcessSCI (.text:_HMMODBUS_vProcessSCI)
0008a64e  global    _HMMODBUS_vProcessSCITXISR (.text:_HMMODBUS_vProcessSCITXISR)
0008a760  global    _HMMODBUS_vProcessTxDelay (.text:_HMMODBUS_vProcessTxDelay)
00089978  global    _HMMODBUS_vSendResponse (.text:_HMMODBUS_vSendResponse)
0008ad5a  global    _HMMODBUS_vSetAddressMessageCounterThisDevice (.text:_HMMODBUS_vSetAddressMessageCounterThisDevice)
0008ad5e  global    _HMMODBUS_vSetDeviceIDMajorMinorRevision (.text:_HMMODBUS_vSetDeviceIDMajorMinorRevision)
0008ad62  global    _HMMODBUS_vSetDeviceIDMajorMinorRevisionLength (.text:_HMMODBUS_vSetDeviceIDMajorMinorRevisionLength)
0008ad66  global    _HMMODBUS_vSetDeviceIDModelName (.text:_HMMODBUS_vSetDeviceIDModelName)
0008ad6a  global    _HMMODBUS_vSetDeviceIDModelNameLength (.text:_HMMODBUS_vSetDeviceIDModelNameLength)
0008ad6e  global    _HMMODBUS_vSetDeviceIDProductCode (.text:_HMMODBUS_vSetDeviceIDProductCode)
0008ad72  global    _HMMODBUS_vSetDeviceIDProductCodeLength (.text:_HMMODBUS_vSetDeviceIDProductCodeLength)
0008ad76  global    _HMMODBUS_vSetDeviceIDProductName (.text:_HMMODBUS_vSetDeviceIDProductName)
0008ad7a  global    _HMMODBUS_vSetDeviceIDProductNameLength (.text:_HMMODBUS_vSetDeviceIDProductNameLength)
0008ad7e  global    _HMMODBUS_vSetDeviceIDUserApplicationName (.text:_HMMODBUS_vSetDeviceIDUserApplicationName)
0008ad82  global    _HMMODBUS_vSetDeviceIDUserApplicationNameLength (.text:_HMMODBUS_vSetDeviceIDUserApplicationNameLength)
0008ad86  global    _HMMODBUS_vSetDeviceIDUserReserve0 (.text:_HMMODBUS_vSetDeviceIDUserReserve0)
0008ad8a  global    _HMMODBUS_vSetDeviceIDUserReserve0Length (.text:_HMMODBUS_vSetDeviceIDUserReserve0Length)
0008ad8e  global    _HMMODBUS_vSetDeviceIDUserReserve1 (.text:_HMMODBUS_vSetDeviceIDUserReserve1)
0008ad92  global    _HMMODBUS_vSetDeviceIDUserReserve1Length (.text:_HMMODBUS_vSetDeviceIDUserReserve1Length)
0008ad96  global    _HMMODBUS_vSetDeviceIDUserReserve2 (.text:_HMMODBUS_vSetDeviceIDUserReserve2)
0008ad9a  global    _HMMODBUS_vSetDeviceIDUserReserve2Length (.text:_HMMODBUS_vSetDeviceIDUserReserve2Length)
0008ad9e  global    _HMMODBUS_vSetDeviceIDVendorName (.text:_HMMODBUS_vSetDeviceIDVendorName)
0008ada2  global    _HMMODBUS_vSetDeviceIDVendorNameLength (.text:_HMMODBUS_vSetDeviceIDVendorNameLength)
0008ada6  global    _HMMODBUS_vSetDeviceIDVendorUrl (.text:_HMMODBUS_vSetDeviceIDVendorUrl)
0008adaa  global    _HMMODBUS_vSetDeviceIDVendorUrlLength (.text:_HMMODBUS_vSetDeviceIDVendorUrlLength)
00087685  global    _HMMODBUS_vSetFreeRunTimerPrescaller (.text:_HMMODBUS_vSetFreeRunTimerPrescaller)
00000000  global    _HMMODBUS_vSetPortIndex (.text:_HMMODBUS_vSetPortIndex)
0008adae  global    _HMMODBUS_vSetServerIDDataAddress (.text:_HMMODBUS_vSetServerIDDataAddress)
0008adb2  global    _HMMODBUS_vSetServerIDLength (.text:_HMMODBUS_vSetServerIDLength)
0008adb6  global    _HMMODBUS_vSetServerIDNumber (.text:_HMMODBUS_vSetServerIDNumber)
0008adba  global    _HMMODBUS_vSetServerOnStatus (.text:_HMMODBUS_vSetServerOnStatus)
0008adbe  global    _HMMODBUS_vSetupHoldingRegistersAccessTableInRam (.text:_HMMODBUS_vSetupHoldingRegistersAccessTableInRam)
0008acb2  global    _HMMODBUS_vSetupHoldingRegistersAddressTable (.text:_HMMODBUS_vSetupHoldingRegistersAddressTable)
0008acb8  global    _HMMODBUS_vSetupHoldingRegistersAddressTableInRam (.text:_HMMODBUS_vSetupHoldingRegistersAddressTableInRam)
0008a94c  global    _HMMODBUS_vSetupRegisterDummy (.text:_HMMODBUS_vSetupRegisterDummy)
0008adc2  global    _HMMODBUS_vSetupWriteParElementCallbackFunction (.text:_HMMODBUS_vSetupWriteParElementCallbackFunction)
00000000  global    _HMMODBUS_vSetupWriteParElementFixedArguments (.text:_HMMODBUS_vSetupWriteParElementFixedArguments)
0000ee55  global    _HMMODBUS_wFlags (.ebss:_HMMODBUS_wFlags)
0000ee56  global    _HMMODBUS_wFlagsRxTx (.ebss:_HMMODBUS_wFlagsRxTx)
0000e2f0  global    _HMMOSBUS_nDummy (.ebss)
0000ed94  global    _HMMOSBUS_nFileWriteAddrReadLast (.ebss:_HMMOSBUS_nFileWriteAddrReadLast)
0000e2ee  global    _HMMOSBUS_nFileWritePrimaryAddrReadLast (.ebss)
00090000  global    _auchCRCHi (.econst:.string:_auchCRCHi)
00090100  global    _auchCRCLo (.econst:.string:_auchCRCLo)
0000e2b2  global    _bBadSizeCalculation (.ebss)
0000e28d  global    _bBareRamTable (.ebss)
0000e2b1  global    _bElementsDifference (.ebss)
0000e2b5  global    _bException (.ebss)
0000e2d8  global    _bFileFirstRequest (.ebss)
0008ae2a  global    _bGetElementsDifference (.text:_bGetElementsDifference)
0008a6b6  global    _bGetFileReadAccess (.text:_bGetFileReadAccess)
0000e291  global    _bHoldingRegTableBareRam (.ebss)
0000e290  global    _bHoldingRegTableSorted (.ebss)
0000e28c  global    _bInputRegsGlobal (.ebss)
0008aa87  global    _bIsValidEndAddressInBuffer (.text:_bIsValidEndAddressInBuffer)
0008ab5d  global    _bIsValidIndexFileTable (.text:_bIsValidIndexFileTable)
0000e28f  global    _bLengthException (.ebss)
0000e2a7  global    _bNeedResetBackup (.ebss)
0000e2b7  global    _bParameterTroughFile (.ebss)
0000e2c2  global    _bReadOnlyFile (.ebss)
0000e2b6  global    _bResult (.ebss)
0000e2b4  global    _bStringDataExpected (.ebss)
0000e2b3  global    _bStringNullTerminationPossible (.ebss)
0000e28e  global    _bUsedDummyDataAddressInResponseData (.ebss)
0000e2a3  global    _eElementFixedArgument (.ebss)
0000e2d6  global    _eException (.ebss)
0000e35e  global    _nAddrFuncExecute (.ebss)
0000e2b9  global    _nAddrQueue (.ebss)
0000e36c  global    _nAddrRead (.ebss)
0000e358  global    _nAddrWrite (.ebss)
0000e2c6  global    _nBytesRead (.ebss)
0000e2cb  global    _nBytesResponseTotal (.ebss)
0000e2d2  global    _nCmd (.ebss)
0000e366  global    _nCurrentElementTableIndex (.ebss)
0000e2b8  global    _nDeviceAddress (.ebss)
0000e2ba  global    _nFileNumber (.ebss)
0000e2d5  global    _nIDCode (.ebss)
0000e382  local     _nLastTimerValue$1 (.ebss)
0000e2c0  global    _nLoopCount (.ebss)
0000e2be  global    _nLoopIndex (.ebss)
0000e2bf  global    _nLoopIndex2 (.ebss)
0000e2db  global    _nLoopIndexedRequest (.ebss)
0000e2c4  global    _nRecordNumber (.ebss)
0000e2d9  global    _nRecordNumberRequest (.ebss)
0000e2cf  global    _nReferenceType (.ebss)
0000e2c3  global    _nResponseBytes (.ebss)
0000e362  global    _nSizeAllRecords (.ebss)
0000e2ca  global    _nSizeBytes (.ebss)
0000e2cc  global    _nSizeCurrentRecord (.ebss)
0000e360  global    _nSizeOffset (.ebss)
0000e368  global    _nSizeOffsetAdd (.ebss)
0000e364  global    _nSizeOffsetCurrentRecord (.ebss)
0000e378  global    _nSizeOffsetMultiplier (.ebss)
0000e37a  global    _nSizeOffsetRequestMultMode (.ebss)
0000e2c5  global    _nSizeRead (.ebss)
0000e2bb  global    _nSizeReadBits (.ebss)
0000e2d1  global    _nSizeReadBytes (.ebss)
0000e2c7  global    _nSizeReadCheck (.ebss)
0000e2c9  global    _nSizeReadCheckMemory (.ebss)
0000e2c8  global    _nSizeReadRequest (.ebss)
0000e2da  global    _nSizeReadRequestLoop (.ebss)
0000e2cd  global    _nSizeWrite (.ebss)
0000e2c1  global    _nSizeWriteBits (.ebss)
0000e2d0  global    _nSizeWriteBytes (.ebss)
0000e2ce  global    _nSizeWriteBytesAllParts (.ebss)
0000e2d3  global    _nSubCmd (.ebss)
0000e2d4  global    _nSubCmdDiag (.ebss)
0000e37c  global    _nTimeTickDelayModbus (.ebss)
0000e380  global    _nTimeTickDelayModbusMax (.ebss)
0000e37e  global    _nTimeTickDelayModbusMin (.ebss)
0000e372  global    _pMessageIn (.ebss)
0000e376  global    _pMessageInCopy (.ebss)
0000e374  global    _pMessageOut (.ebss)
0000e370  global    _pResponseEnd (.ebss)
0000e36e  global    _pResponseStart (.ebss)
0000e36a  global    _pfIndexGeneration (.ebss)
0000e32a  global    _pfWriteParElementCallbackFunction (.ebss)
0000e336  global    _pu16ModbusCompleteReceiveMessageCounterThisDevice (.ebss)
0000e35a  global    _pu8ElementSizeTable (.ebss)
0000e35c  global    _pu8ElementSizeTablePtr (.ebss)
0000e330  global    _realRxByteDelay (.ebss)
0000e332  global    _realRxByteDelayLastFail (.ebss)
0000e2a8  global    _realRxByteDelayLastFailBytesReceived (.ebss)
0000e2a5  global    _u16DataModeFixedArgument (.ebss)
0000e2bc  global    _u16ElementSize (.ebss)
0000e292  global    _u16FreeRunTimerPrescaller (.ebss)
0008ae2e  global    _u16GetIndexFileTable (.text:_u16GetIndexFileTable)
0000e2af  global    _u16IndexFileTable (.ebss)
0000e2d7  global    _u16LastFileNumberRequest (.ebss)
0000e2ad  global    _u16ModbusBadCSReceiveMessageCounter (.ebss)
0000e2ae  global    _u16ModbusBadTimeoutReceiveMessageCounter (.ebss)
0000e2ac  global    _u16ModbusBufferOverflowReceiveMessageCounter (.ebss)
0000e2aa  global    _u16ModbusCompleteReceiveMessageCounter (.ebss)
0000e2ab  global    _u16ModbusCompleteReceiveMessageCounterThisDevice (.ebss)
0000e293  global    _u16ModbusMinMessToMess_usec (.ebss)
0000e2a9  global    _u16ModbusStartedReceiveMessageCounter (.ebss)
0000e2a4  global    _u16NoStoreFixedArgument (.ebss)
0000e2a6  global    _u16PasswordFixedArgument (.ebss)
0000e28a  global    _u16RegisterAddressDummyValue (.ebss)
0000e34a  global    _u32BufferAddressStart (.ebss)
0000e34c  global    _u32BufferSize (.ebss)
0008aa1c  global    _u32BytesMemoryToBytesModbus (.text:_u32BytesMemoryToBytesModbus)
0008aa2c  global    _u32BytesModbusToBytesMemory (.text:_u32BytesModbusToBytesMemory)
0000e2dc  global    _u32Dummy (.ebss)
0000e30a  global    _u32ElementSizeTableB326_0 (.ebss)
0000e30e  global    _u32ElementSizeTableB326_1 (.ebss)
0000e312  global    _u32ElementSizeTableB326_2 (.ebss)
0000e308  global    _u32ElementSizeTableD384_0 (.ebss)
0000e30c  global    _u32ElementSizeTableD384_1 (.ebss)
0000e310  global    _u32ElementSizeTableD384_2 (.ebss)
0000e356  global    _u32ElementsSizeMemory (.ebss)
0000e354  global    _u32ElementsSizeModbus (.ebss)
0008aaa4  global    _u32FitAddressCircleBufferInside (.text:_u32FitAddressCircleBufferInside)
0008ab25  global    _u32FixAddressCircleBufferOverflow (.text:_u32FixAddressCircleBufferOverflow)
0008ae32  global    _u32GetBufferAddressStart (.text:_u32GetBufferAddressStart)
0008ae36  global    _u32GetBufferSize (.text:_u32GetBufferSize)
00000000  global    _u32GetElementsSizeMemory (.text:_u32GetElementsSizeMemory)
00000000  global    _u32GetElementsSizeModbus (.text:_u32GetElementsSizeModbus)
0008ae3a  global    _u32GetSampleCountAvailable (.text:_u32GetSampleCountAvailable)
0008ae3e  global    _u32GetSampleCountBuffer (.text:_u32GetSampleCountBuffer)
0008ae42  global    _u32GetStartSampleIndex (.text:_u32GetStartSampleIndex)
0000e2fa  global    _u32ModbusMaxByteToByte (.ebss)
0000e300  global    _u32ModbusMaxByteToByteExact (.ebss)
0000e2fc  global    _u32ModbusMaxMessToMess (.ebss)
0000e302  global    _u32ModbusMaxMessToMessExact (.ebss)
0000e2fe  global    _u32ModbusMinMessToMess (.ebss)
0000e304  global    _u32ModbusTimeout (.ebss)
0000cd80  global    _u32ModbusTimeoutBuffer (.ebss:_u32ModbusTimeoutBuffer)
0000e32c  global    _u32ModbusTimeoutBufferIndex (.ebss)
0000e32e  global    _u32RxTimeout (.ebss)
0000e334  global    _u32RxTimeoutLastFail (.ebss)
0000e350  global    _u32SampleCountAvailable (.ebss)
0000e34e  global    _u32SampleCountBuffer (.ebss)
0000e352  global    _u32StartSampleIndex (.ebss)
0000e306  global    _u32WrongElementSizeTable (.ebss)
0000e2bd  global    _u8ElementSize (.ebss)
0008ae46  global    _u8GetSampleSize (.text:_u8GetSampleSize)
0000e2b0  global    _u8SampleSize (.ebss)
0000e288  global    _u8UartModBusIndex (.ebss)
0008a78e  global    _vSetBufferAddressStart (.text:_vSetBufferAddressStart)
0008ae4a  global    _vSetBufferAddressStartFromFunction (.text:_vSetBufferAddressStartFromFunction)
0008ae4e  global    _vSetBufferSize (.text:_vSetBufferSize)
000896b3  global    _vSetElementsSize (.text:_vSetElementsSize)
00089bbc  global    _vSetIndexFileTable (.text:_vSetIndexFileTable)
0008a3c9  global    _vSetSampleCountAvailable (.text:_vSetSampleCountAvailable)
0008a495  global    _vSetSampleCountBuffer (.text:_vSetSampleCountBuffer)
0008a4b5  global    _vSetSampleSize (.text:_vSetSampleSize)
00089e2c  global    _vSetStartSampleIndex (.text:_vSetStartSampleIndex)


================================================================================

CSMON_C28xx.lib : hmprotocol.obj

Run/Load            
Value     Binding   Name (Section)
--------  --------  ---------------
0009028c  local     $C$FSL1 (.econst:.string)
0008947f  local     $C$L1 (.text:_HMPROTOCOL_GetBoardInfo)
00087b25  local     $C$L10 (.text:_HMPROTOCOL_bDecoder)
00087b32  local     $C$L11 (.text:_HMPROTOCOL_bDecoder)
00087b40  local     $C$L12 (.text:_HMPROTOCOL_bDecoder)
00087b45  local     $C$L13 (.text:_HMPROTOCOL_bDecoder)
00087b49  local     $C$L14 (.text:_HMPROTOCOL_bDecoder)
00087b51  local     $C$L15 (.text:_HMPROTOCOL_bDecoder)
00087b56  local     $C$L16 (.text:_HMPROTOCOL_bDecoder)
00087b5c  local     $C$L17 (.text:_HMPROTOCOL_bDecoder)
00087b61  local     $C$L18 (.text:_HMPROTOCOL_bDecoder)
00087b62  local     $C$L19 (.text:_HMPROTOCOL_bDecoder)
000894a6  local     $C$L2 (.text:_HMPROTOCOL_GetBoardInfo)
00087b66  local     $C$L20 (.text:_HMPROTOCOL_bDecoder)
00087b6c  local     $C$L21 (.text:_HMPROTOCOL_bDecoder)
00087b70  local     $C$L22 (.text:_HMPROTOCOL_bDecoder)
00087b76  local     $C$L23 (.text:_HMPROTOCOL_bDecoder)
00087b7a  local     $C$L24 (.text:_HMPROTOCOL_bDecoder)
00087b80  local     $C$L25 (.text:_HMPROTOCOL_bDecoder)
00087b84  local     $C$L26 (.text:_HMPROTOCOL_bDecoder)
00087b87  local     $C$L27 (.text:_HMPROTOCOL_bDecoder)
00087b8a  local     $C$L28 (.text:_HMPROTOCOL_bDecoder)
00087b93  local     $C$L29 (.text:_HMPROTOCOL_bDecoder)
000894af  local     $C$L3 (.text:_HMPROTOCOL_GetBoardInfo)
00087b9a  local     $C$L30 (.text:_HMPROTOCOL_bDecoder)
00087b9c  local     $C$L31 (.text:_HMPROTOCOL_bDecoder)
00087b9f  local     $C$L32 (.text:_HMPROTOCOL_bDecoder)
00087ba7  local     $C$L33 (.text:_HMPROTOCOL_bDecoder)
00087bac  local     $C$L34 (.text:_HMPROTOCOL_bDecoder)
00087bb0  local     $C$L35 (.text:_HMPROTOCOL_bDecoder)
00087bb4  local     $C$L36 (.text:_HMPROTOCOL_bDecoder)
00087bb8  local     $C$L37 (.text:_HMPROTOCOL_bDecoder)
00087bbc  local     $C$L38 (.text:_HMPROTOCOL_bDecoder)
00087bc0  local     $C$L39 (.text:_HMPROTOCOL_bDecoder)
000894b8  local     $C$L4 (.text:_HMPROTOCOL_GetBoardInfo)
00087bc3  local     $C$L40 (.text:_HMPROTOCOL_bDecoder)
00087bc4  local     $C$L41 (.text:_HMPROTOCOL_bDecoder)
00087bc7  local     $C$L42 (.text:_HMPROTOCOL_bDecoder)
00087bce  local     $C$L43 (.text:_HMPROTOCOL_bDecoder)
0008a395  local     $C$L5 (.text:_HMPROTOCOL_ReadMem)
0008a3a1  local     $C$L6 (.text:_HMPROTOCOL_ReadMem)
00087af7  local     $C$L7 (.text:_HMPROTOCOL_bDecoder)
00087aff  local     $C$L8 (.text:_HMPROTOCOL_bDecoder)
00087b1d  local     $C$L9 (.text:_HMPROTOCOL_bDecoder)
00000000  local     .bss (.bss)
00082773  local     .cinit (.cinit)
00000000  local     .data (.data)
0000eab9  local     .ebss (.ebss)
0009028c  local     .econst:.string (.econst:.string)
00000000  local     .text (.text)
00089454  local     .text:_HMPROTOCOL_GetBoardInfo (.text:_HMPROTOCOL_GetBoardInfo)
0008a381  local     .text:_HMPROTOCOL_ReadMem (.text:_HMPROTOCOL_ReadMem)
0008a701  local     .text:_HMPROTOCOL_WriteMem (.text:_HMPROTOCOL_WriteMem)
0008a719  local     .text:_HMPROTOCOL_WriteMemMask (.text:_HMPROTOCOL_WriteMemMask)
00087adb  local     .text:_HMPROTOCOL_bDecoder (.text:_HMPROTOCOL_bDecoder)
00083e4f  local     .text:_HMPROTOCOL_vInit (.text:_HMPROTOCOL_vInit)
00000000  local     .text:_HMPROTOCOL_vRecorderSetTimeBase (.text:_HMPROTOCOL_vRecorderSetTimeBase)
00089454  global    _HMPROTOCOL_GetBoardInfo (.text:_HMPROTOCOL_GetBoardInfo)
0008a381  global    _HMPROTOCOL_ReadMem (.text:_HMPROTOCOL_ReadMem)
0008a701  global    _HMPROTOCOL_WriteMem (.text:_HMPROTOCOL_WriteMem)
0008a719  global    _HMPROTOCOL_WriteMemMask (.text:_HMPROTOCOL_WriteMemMask)
00087adb  global    _HMPROTOCOL_bDecoder (.text:_HMPROTOCOL_bDecoder)
00083e4f  global    _HMPROTOCOL_vInit (.text:_HMPROTOCOL_vInit)
00000000  global    _HMPROTOCOL_vRecorderSetTimeBase (.text:_HMPROTOCOL_vRecorderSetTimeBase)
0000eabb  global    _bRecorderParameterUsage (.ebss)
0000eabc  global    _bScopeParameterUsage (.ebss)
0000eabe  global    _breakData (.ebss)
0000eab9  global    _nRecorderFreemasterIndex (.ebss)
0000eaba  global    _nScopePrmFreemasterIndex (.ebss)
0000eabd  global    _u16TimeBase (.ebss)


================================================================================

CSMON_C28xx.lib : hmrec.obj

Run/Load            
Value     Binding   Name (Section)
--------  --------  ---------------
0008ab23  local     $C$L1 (.text:_HMREC_TriggerRec)
0008944d  local     $C$L10 (.text:_HMREC_vProcess)
0008944e  local     $C$L11 (.text:_HMREC_vProcess)
0008944f  local     $C$L12 (.text:_HMREC_vProcess)
0008aae5  local     $C$L13 (.text:_HMREC_StopRec)
0008aae6  local     $C$L14 (.text:_HMREC_StopRec)
0008a78c  local     $C$L15 (.text:_HMREC_StartRec)
000885e0  local     $C$L16 (.text:_HMREC_SetUpRec)
000885fa  local     $C$L17 (.text:_HMREC_SetUpRec)
000885ff  local     $C$L18 (.text:_HMREC_SetUpRec)
0008861b  local     $C$L19 (.text:_HMREC_SetUpRec)
000893fb  local     $C$L2 (.text:_HMREC_vProcess)
0008861e  local     $C$L20 (.text:_HMREC_SetUpRec)
00088623  local     $C$L21 (.text:_HMREC_SetUpRec)
00088626  local     $C$L22 (.text:_HMREC_SetUpRec)
0008862b  local     $C$L23 (.text:_HMREC_SetUpRec)
0008862e  local     $C$L24 (.text:_HMREC_SetUpRec)
00088630  local     $C$L25 (.text:_HMREC_SetUpRec)
00088632  local     $C$L26 (.text:_HMREC_SetUpRec)
0008863b  local     $C$L27 (.text:_HMREC_SetUpRec)
0008863d  local     $C$L28 (.text:_HMREC_SetUpRec)
00088645  local     $C$L29 (.text:_HMREC_SetUpRec)
00089413  local     $C$L3 (.text:_HMREC_vProcess)
00088647  local     $C$L30 (.text:_HMREC_SetUpRec)
00088648  local     $C$L31 (.text:_HMREC_SetUpRec)
00000007  local     $C$L32 (.text:_HMREC_IsInRecBuffer)
0008a53a  local     $C$L33 (.text:_HMREC_GetRecBuffFreemaster)
0008a53e  local     $C$L34 (.text:_HMREC_GetRecBuffFreemaster)
0008a541  local     $C$L35 (.text:_HMREC_GetRecBuffFreemaster)
0008a54f  local     $C$L36 (.text:_HMREC_GetRecBuffFreemaster)
00000009  local     $C$L37 (.text:_HMREC_GetRecBuffCheckCode)
00089420  local     $C$L4 (.text:_HMREC_vProcess)
00089434  local     $C$L5 (.text:_HMREC_vProcess)
0008943f  local     $C$L6 (.text:_HMREC_vProcess)
00089443  local     $C$L7 (.text:_HMREC_vProcess)
00089445  local     $C$L8 (.text:_HMREC_vProcess)
0008944b  local     $C$L9 (.text:_HMREC_vProcess)
00000000  local     .bss (.bss)
00000000  local     .data (.data)
0000eabf  local     .ebss (.ebss)
0000c000  local     .ebss:_au8RecBuffer0 (.ebss:_au8RecBuffer0)
0000e140  local     .ebss:_sRecHandle (.ebss:_sRecHandle)
00000000  local     .text (.text)
0008ae80  local     .text:_HMREC_AbortRec (.text:_HMREC_AbortRec)
0008a9bc  local     .text:_HMREC_Compare16S (.text:_HMREC_Compare16S)
0008a9cc  local     .text:_HMREC_Compare16U (.text:_HMREC_Compare16U)
0008a9dc  local     .text:_HMREC_Compare32S (.text:_HMREC_Compare32S)
0008a9ec  local     .text:_HMREC_Compare32U (.text:_HMREC_Compare32U)
0008a9fc  local     .text:_HMREC_Compare8S (.text:_HMREC_Compare8S)
0008aa0c  local     .text:_HMREC_Compare8U (.text:_HMREC_Compare8U)
0008a89b  local     .text:_HMREC_Comparefloat (.text:_HMREC_Comparefloat)
00000000  local     .text:_HMREC_GetRecBuffAddress (.text:_HMREC_GetRecBuffAddress)
00000000  local     .text:_HMREC_GetRecBuffCheckCode (.text:_HMREC_GetRecBuffCheckCode)
0008a532  local     .text:_HMREC_GetRecBuffFreemaster (.text:_HMREC_GetRecBuffFreemaster)
00000000  local     .text:_HMREC_GetRecBuffIndex (.text:_HMREC_GetRecBuffIndex)
0008ae82  local     .text:_HMREC_GetRecBuffSize (.text:_HMREC_GetRecBuffSize)
00000000  local     .text:_HMREC_GetRecSampleSize (.text:_HMREC_GetRecSampleSize)
0008ab9b  local     .text:_HMREC_GetRecStatus (.text:_HMREC_GetRecStatus)
00000000  local     .text:_HMREC_IsInRecBuffer (.text:_HMREC_IsInRecBuffer)
00088591  local     .text:_HMREC_SetUpRec (.text:_HMREC_SetUpRec)
0008ad17  local     .text:_HMREC_SetUpRecBuff (.text:_HMREC_SetUpRecBuff)
0008a777  local     .text:_HMREC_StartRec (.text:_HMREC_StartRec)
0008aada  local     .text:_HMREC_StopRec (.text:_HMREC_StopRec)
0008ab19  local     .text:_HMREC_TriggerRec (.text:_HMREC_TriggerRec)
0008ac94  local     .text:_HMREC_vInit (.text:_HMREC_vInit)
000893ea  local     .text:_HMREC_vProcess (.text:_HMREC_vProcess)
0008ae80  global    _HMREC_AbortRec (.text:_HMREC_AbortRec)
0008a9bc  local     _HMREC_Compare16S (.text:_HMREC_Compare16S)
0008a9cc  local     _HMREC_Compare16U (.text:_HMREC_Compare16U)
0008a9dc  local     _HMREC_Compare32S (.text:_HMREC_Compare32S)
0008a9ec  local     _HMREC_Compare32U (.text:_HMREC_Compare32U)
0008a9fc  local     _HMREC_Compare8S (.text:_HMREC_Compare8S)
0008aa0c  local     _HMREC_Compare8U (.text:_HMREC_Compare8U)
0008a89b  local     _HMREC_Comparefloat (.text:_HMREC_Comparefloat)
00000000  global    _HMREC_GetRecBuffAddress (.text:_HMREC_GetRecBuffAddress)
00000000  global    _HMREC_GetRecBuffCheckCode (.text:_HMREC_GetRecBuffCheckCode)
0008a532  global    _HMREC_GetRecBuffFreemaster (.text:_HMREC_GetRecBuffFreemaster)
00000000  global    _HMREC_GetRecBuffIndex (.text:_HMREC_GetRecBuffIndex)
0008ae82  global    _HMREC_GetRecBuffSize (.text:_HMREC_GetRecBuffSize)
00000000  global    _HMREC_GetRecSampleSize (.text:_HMREC_GetRecSampleSize)
0008ab9b  global    _HMREC_GetRecStatus (.text:_HMREC_GetRecStatus)
00000000  global    _HMREC_IsInRecBuffer (.text:_HMREC_IsInRecBuffer)
00088591  global    _HMREC_SetUpRec (.text:_HMREC_SetUpRec)
0008ad17  global    _HMREC_SetUpRecBuff (.text:_HMREC_SetUpRecBuff)
0008a777  global    _HMREC_StartRec (.text:_HMREC_StartRec)
0008aada  global    _HMREC_StopRec (.text:_HMREC_StopRec)
0008ab19  global    _HMREC_TriggerRec (.text:_HMREC_TriggerRec)
0000eabf  global    _HMREC_u16FailSnapshotWrite (.ebss)
0008ac94  global    _HMREC_vInit (.text:_HMREC_vInit)
000893ea  global    _HMREC_vProcess (.text:_HMREC_vProcess)
0000c000  global    _au8RecBuffer0 (.ebss:_au8RecBuffer0)
0000e140  global    _sRecHandle (.ebss:_sRecHandle)


================================================================================

CSMON_C28xx.lib : hmrecparam.obj

Run/Load            
Value     Binding   Name (Section)
--------  --------  ---------------
00000024  local     $C$L1 (.text:_RecorderTimeFromRTCTime)
000890c6  local     $C$L10 (.text:_HMRECPRM_vTimeSync)
000890cc  local     $C$L11 (.text:_HMRECPRM_vTimeSync)
000890d1  local     $C$L12 (.text:_HMRECPRM_vTimeSync)
0008aad8  local     $C$L13 (.text:_HMRECPRM_TriggerRec)
00088101  local     $C$L14 (.text:_HMRECPRM_vProcess)
0008811c  local     $C$L15 (.text:_HMRECPRM_vProcess)
00088135  local     $C$L16 (.text:_HMRECPRM_vProcess)
00088149  local     $C$L17 (.text:_HMRECPRM_vProcess)
00088158  local     $C$L18 (.text:_HMRECPRM_vProcess)
0008815c  local     $C$L19 (.text:_HMRECPRM_vProcess)
0008a30f  local     $C$L2 (.text:_RecorderTimeFromLocalDateTime)
00088161  local     $C$L20 (.text:_HMRECPRM_vProcess)
0008816a  local     $C$L21 (.text:_HMRECPRM_vProcess)
00088177  local     $C$L22 (.text:_HMRECPRM_vProcess)
0008817c  local     $C$L23 (.text:_HMRECPRM_vProcess)
0008818a  local     $C$L24 (.text:_HMRECPRM_vProcess)
00088193  local     $C$L25 (.text:_HMRECPRM_vProcess)
0008819a  local     $C$L26 (.text:_HMRECPRM_vProcess)
000881a8  local     $C$L27 (.text:_HMRECPRM_vProcess)
000881aa  local     $C$L28 (.text:_HMRECPRM_vProcess)
0000000f  local     $C$L29 (.text:_HMRECPRM_vInitParam)
0000003b  local     $C$L3 (.text:_RecorderDateFromRTCDate)
00000012  local     $C$L30 (.text:_HMRECPRM_vInitParam)
0008a84c  local     $C$L31 (.text:_HMRECPRM_StopRecParam)
0008a84d  local     $C$L32 (.text:_HMRECPRM_StopRecParam)
0008aacb  local     $C$L33 (.text:_HMRECPRM_StopRec)
0008aacc  local     $C$L34 (.text:_HMRECPRM_StopRec)
00089ede  local     $C$L35 (.text:_HMRECPRM_StartRecParam)
0008a5e1  local     $C$L36 (.text:_HMRECPRM_StartRec)
000883a4  local     $C$L37 (.text:_HMRECPRM_SetUpRec)
000883be  local     $C$L38 (.text:_HMRECPRM_SetUpRec)
000883c3  local     $C$L39 (.text:_HMRECPRM_SetUpRec)
0008a21d  local     $C$L4 (.text:_RecorderDateFromLocalDateTime)
000883df  local     $C$L40 (.text:_HMRECPRM_SetUpRec)
000883e2  local     $C$L41 (.text:_HMRECPRM_SetUpRec)
000883e7  local     $C$L42 (.text:_HMRECPRM_SetUpRec)
000883ea  local     $C$L43 (.text:_HMRECPRM_SetUpRec)
000883ef  local     $C$L44 (.text:_HMRECPRM_SetUpRec)
000883f2  local     $C$L45 (.text:_HMRECPRM_SetUpRec)
000883f4  local     $C$L46 (.text:_HMRECPRM_SetUpRec)
000883f6  local     $C$L47 (.text:_HMRECPRM_SetUpRec)
00088401  local     $C$L48 (.text:_HMRECPRM_SetUpRec)
00088403  local     $C$L49 (.text:_HMRECPRM_SetUpRec)
00089061  local     $C$L5 (.text:_HMRECPRM_vTimeSync)
0008840b  local     $C$L50 (.text:_HMRECPRM_SetUpRec)
0008840d  local     $C$L51 (.text:_HMRECPRM_SetUpRec)
0008840e  local     $C$L52 (.text:_HMRECPRM_SetUpRec)
00000007  local     $C$L53 (.text:_HMRECPRM_IsInRecBuffer)
00000008  local     $C$L54 (.text:_HMRECPRM_GetRecBuffFreemasterParam)
0000000c  local     $C$L55 (.text:_HMRECPRM_GetRecBuffFreemasterParam)
0000000f  local     $C$L56 (.text:_HMRECPRM_GetRecBuffFreemasterParam)
0000001d  local     $C$L57 (.text:_HMRECPRM_GetRecBuffFreemasterParam)
0008a51b  local     $C$L58 (.text:_HMRECPRM_GetRecBuffFreemaster)
0008a51f  local     $C$L59 (.text:_HMRECPRM_GetRecBuffFreemaster)
0008907b  local     $C$L6 (.text:_HMRECPRM_vTimeSync)
0008a522  local     $C$L60 (.text:_HMRECPRM_GetRecBuffFreemaster)
0008a530  local     $C$L61 (.text:_HMRECPRM_GetRecBuffFreemaster)
00000009  local     $C$L62 (.text:_HMRECPRM_GetRecBuffCheckCodeParam)
00000009  local     $C$L63 (.text:_HMRECPRM_GetRecBuffCheckCode)
0008908e  local     $C$L7 (.text:_HMRECPRM_vTimeSync)
00089098  local     $C$L8 (.text:_HMRECPRM_vTimeSync)
000890bd  local     $C$L9 (.text:_HMRECPRM_vTimeSync)
00000000  local     .bss (.bss)
000828a1  local     .cinit:_HMRECPRM_sDateTime (.cinit:_HMRECPRM_sDateTime)
00082621  local     .cinit:_sRecStatusParam (.cinit:_sRecStatusParam)
0008272b  local     .cinit:_sRecStatusParamInternal (.cinit:_sRecStatusParamInternal)
00000000  local     .cinit:_sRecTimeBase (.cinit:_sRecTimeBase)
00000000  local     .data (.data)
0000eb3e  local     .ebss (.ebss)
0000e138  local     .ebss:_HMRECPRM_sDateTime (.ebss:_HMRECPRM_sDateTime)
0000ee4a  local     .ebss:_MAIN_sDate (.ebss:_MAIN_sDate)
00000000  local     .ebss:_MAIN_sDateI2C (.ebss:_MAIN_sDateI2C)
0000ee4c  local     .ebss:_MAIN_sTime (.ebss:_MAIN_sTime)
00000000  local     .ebss:_MAIN_sTimeI2C (.ebss:_MAIN_sTimeI2C)
0000ee40  local     .ebss:_abRecorderJustStopped (.ebss:_abRecorderJustStopped)
0000ee43  local     .ebss:_abRecorderRunning (.ebss:_abRecorderRunning)
00000000  local     .ebss:_au8RecParamBuffer0 (.ebss:_au8RecParamBuffer0)
00000000  local     .ebss:_au8RecParamBuffer1 (.ebss:_au8RecParamBuffer1)
00000000  local     .ebss:_au8RecParamBuffer2 (.ebss:_au8RecParamBuffer2)
0000eac0  local     .ebss:_sRecExternParam (.ebss:_sRecExternParam)
0000e000  local     .ebss:_sRecHandleParam (.ebss:_sRecHandleParam)
0000ebc0  local     .ebss:_sRecStatusParam (.ebss:_sRecStatusParam)
0000ec40  local     .ebss:_sRecStatusParamInternal (.ebss:_sRecStatusParamInternal)
00000000  local     .ebss:_sRecTimeBase (.ebss:_sRecTimeBase)
0000edf2  local     .ebss:_u32RecorderLastFreeCounter (.ebss:_u32RecorderLastFreeCounter)
0000edf8  local     .ebss:_u32RecorderMicroSec (.ebss:_u32RecorderMicroSec)
00000000  local     .text (.text)
0008a19c  local     .text:_FillTimeData (.text:_FillTimeData)
0008ae7c  local     .text:_HMRECPRM_AbortRec (.text:_HMRECPRM_AbortRec)
0008ab87  local     .text:_HMRECPRM_ClrLastStopDetectionToRecorderStopSamplesCounter (.text:_HMRECPRM_ClrLastStopDetectionToRecorderStopSamplesCounter)
0008a95c  local     .text:_HMRECPRM_Compare16S (.text:_HMRECPRM_Compare16S)
0008a96c  local     .text:_HMRECPRM_Compare16U (.text:_HMRECPRM_Compare16U)
0008a97c  local     .text:_HMRECPRM_Compare32S (.text:_HMRECPRM_Compare32S)
0008a98c  local     .text:_HMRECPRM_Compare32U (.text:_HMRECPRM_Compare32U)
0008a99c  local     .text:_HMRECPRM_Compare8S (.text:_HMRECPRM_Compare8S)
0008a9ac  local     .text:_HMRECPRM_Compare8U (.text:_HMRECPRM_Compare8U)
0008a91b  local     .text:_HMRECPRM_CompareBOOL (.text:_HMRECPRM_CompareBOOL)
0008a888  local     .text:_HMRECPRM_Comparefloat (.text:_HMRECPRM_Comparefloat)
00000000  local     .text:_HMRECPRM_GetBufferRecParamAddress (.text:_HMRECPRM_GetBufferRecParamAddress)
0008ab0d  local     .text:_HMRECPRM_GetBufferRecParamPtrAddress (.text:_HMRECPRM_GetBufferRecParamPtrAddress)
0008abb7  local     .text:_HMRECPRM_GetExternBufferRecParamLastPointedAddress (.text:_HMRECPRM_GetExternBufferRecParamLastPointedAddress)
0008abc0  local     .text:_HMRECPRM_GetExternBufferRecParamPtrAddress (.text:_HMRECPRM_GetExternBufferRecParamPtrAddress)
0008ac4c  local     .text:_HMRECPRM_GetExternRecParamAddress (.text:_HMRECPRM_GetExternRecParamAddress)
0008ac54  local     .text:_HMRECPRM_GetExternRecParamPtrMaximumUsedSampleCount (.text:_HMRECPRM_GetExternRecParamPtrMaximumUsedSampleCount)
0008ac5c  local     .text:_HMRECPRM_GetExternRecParamPtrSampleSize (.text:_HMRECPRM_GetExternRecParamPtrSampleSize)
00000000  local     .text:_HMRECPRM_GetRecBuffAddress (.text:_HMRECPRM_GetRecBuffAddress)
00000000  local     .text:_HMRECPRM_GetRecBuffCheckCode (.text:_HMRECPRM_GetRecBuffCheckCode)
00000000  local     .text:_HMRECPRM_GetRecBuffCheckCodeParam (.text:_HMRECPRM_GetRecBuffCheckCodeParam)
0008a513  local     .text:_HMRECPRM_GetRecBuffFreemaster (.text:_HMRECPRM_GetRecBuffFreemaster)
00000000  local     .text:_HMRECPRM_GetRecBuffFreemasterParam (.text:_HMRECPRM_GetRecBuffFreemasterParam)
00000000  local     .text:_HMRECPRM_GetRecBuffIndex (.text:_HMRECPRM_GetRecBuffIndex)
0008ae7e  local     .text:_HMRECPRM_GetRecBuffSize (.text:_HMRECPRM_GetRecBuffSize)
0008ac64  local     .text:_HMRECPRM_GetRecParamPtrAvailableSampleCount (.text:_HMRECPRM_GetRecParamPtrAvailableSampleCount)
0008ac6c  local     .text:_HMRECPRM_GetRecParamPtrLastSampleIndex (.text:_HMRECPRM_GetRecParamPtrLastSampleIndex)
0008ac74  local     .text:_HMRECPRM_GetRecParamPtrMaximumUsedSampleCount (.text:_HMRECPRM_GetRecParamPtrMaximumUsedSampleCount)
0008ac7c  local     .text:_HMRECPRM_GetRecParamPtrSampleSize (.text:_HMRECPRM_GetRecParamPtrSampleSize)
00000000  local     .text:_HMRECPRM_GetRecSampleSize (.text:_HMRECPRM_GetRecSampleSize)
0008ab91  local     .text:_HMRECPRM_GetRecStatus (.text:_HMRECPRM_GetRecStatus)
00000000  local     .text:_HMRECPRM_GetRecStatusParam (.text:_HMRECPRM_GetRecStatusParam)
0008ac84  local     .text:_HMRECPRM_GetStatusInternalRecParamAddress (.text:_HMRECPRM_GetStatusInternalRecParamAddress)
0008ac8c  local     .text:_HMRECPRM_GetStatusRecParamAddress (.text:_HMRECPRM_GetStatusRecParamAddress)
0008ae73  local     .text:_HMRECPRM_GetTimeBase (.text:_HMRECPRM_GetTimeBase)
00000000  local     .text:_HMRECPRM_IsInRecBuffer (.text:_HMRECPRM_IsInRecBuffer)
0008aa69  local     .text:_HMRECPRM_IsJustStopped (.text:_HMRECPRM_IsJustStopped)
0008ab3c  local     .text:_HMRECPRM_IsRunning (.text:_HMRECPRM_IsRunning)
00000000  local     .text:_HMRECPRM_SetTimeBase (.text:_HMRECPRM_SetTimeBase)
00088353  local     .text:_HMRECPRM_SetUpRec (.text:_HMRECPRM_SetUpRec)
0008ad12  local     .text:_HMRECPRM_SetUpRecBuff (.text:_HMRECPRM_SetUpRecBuff)
00085fb0  local     .text:_HMRECPRM_SetUpRecParamStatusDateTime (.text:_HMRECPRM_SetUpRecParamStatusDateTime)
0008a5c7  local     .text:_HMRECPRM_StartRec (.text:_HMRECPRM_StartRec)
00089ea5  local     .text:_HMRECPRM_StartRecParam (.text:_HMRECPRM_StartRecParam)
0008aac0  local     .text:_HMRECPRM_StopRec (.text:_HMRECPRM_StopRec)
0008a83a  local     .text:_HMRECPRM_StopRecParam (.text:_HMRECPRM_StopRecParam)
0008aacd  local     .text:_HMRECPRM_TriggerRec (.text:_HMRECPRM_TriggerRec)
0008aa96  local     .text:_HMRECPRM_vDisableAllStopDetections (.text:_HMRECPRM_vDisableAllStopDetections)
0008abc9  local     .text:_HMRECPRM_vInit (.text:_HMRECPRM_vInit)
00000000  local     .text:_HMRECPRM_vInitParam (.text:_HMRECPRM_vInitParam)
000880d8  local     .text:_HMRECPRM_vProcess (.text:_HMRECPRM_vProcess)
0008a7fd  local     .text:_HMRECPRM_vResetAllStopDetections (.text:_HMRECPRM_vResetAllStopDetections)
00089057  local     .text:_HMRECPRM_vTimeSync (.text:_HMRECPRM_vTimeSync)
0008a1f6  local     .text:_RecorderDateFromLocalDateTime (.text:_RecorderDateFromLocalDateTime)
00000000  local     .text:_RecorderDateFromRTCDate (.text:_RecorderDateFromRTCDate)
0008a2ea  local     .text:_RecorderTimeFromLocalDateTime (.text:_RecorderTimeFromLocalDateTime)
00000000  local     .text:_RecorderTimeFromRTCTime (.text:_RecorderTimeFromRTCTime)
0008a19c  global    _FillTimeData (.text:_FillTimeData)
0008ae7c  global    _HMRECPRM_AbortRec (.text:_HMRECPRM_AbortRec)
0008ab87  global    _HMRECPRM_ClrLastStopDetectionToRecorderStopSamplesCounter (.text:_HMRECPRM_ClrLastStopDetectionToRecorderStopSamplesCounter)
0008a95c  global    _HMRECPRM_Compare16S (.text:_HMRECPRM_Compare16S)
0008a96c  global    _HMRECPRM_Compare16U (.text:_HMRECPRM_Compare16U)
0008a97c  global    _HMRECPRM_Compare32S (.text:_HMRECPRM_Compare32S)
0008a98c  global    _HMRECPRM_Compare32U (.text:_HMRECPRM_Compare32U)
0008a99c  global    _HMRECPRM_Compare8S (.text:_HMRECPRM_Compare8S)
0008a9ac  global    _HMRECPRM_Compare8U (.text:_HMRECPRM_Compare8U)
0008a91b  global    _HMRECPRM_CompareBOOL (.text:_HMRECPRM_CompareBOOL)
0008a888  global    _HMRECPRM_Comparefloat (.text:_HMRECPRM_Comparefloat)
00000000  global    _HMRECPRM_GetBufferRecParamAddress (.text:_HMRECPRM_GetBufferRecParamAddress)
0008ab0d  global    _HMRECPRM_GetBufferRecParamPtrAddress (.text:_HMRECPRM_GetBufferRecParamPtrAddress)
0008abb7  global    _HMRECPRM_GetExternBufferRecParamLastPointedAddress (.text:_HMRECPRM_GetExternBufferRecParamLastPointedAddress)
0008abc0  global    _HMRECPRM_GetExternBufferRecParamPtrAddress (.text:_HMRECPRM_GetExternBufferRecParamPtrAddress)
0008ac4c  global    _HMRECPRM_GetExternRecParamAddress (.text:_HMRECPRM_GetExternRecParamAddress)
0008ac54  global    _HMRECPRM_GetExternRecParamPtrMaximumUsedSampleCount (.text:_HMRECPRM_GetExternRecParamPtrMaximumUsedSampleCount)
0008ac5c  global    _HMRECPRM_GetExternRecParamPtrSampleSize (.text:_HMRECPRM_GetExternRecParamPtrSampleSize)
00000000  global    _HMRECPRM_GetRecBuffAddress (.text:_HMRECPRM_GetRecBuffAddress)
00000000  global    _HMRECPRM_GetRecBuffCheckCode (.text:_HMRECPRM_GetRecBuffCheckCode)
00000000  global    _HMRECPRM_GetRecBuffCheckCodeParam (.text:_HMRECPRM_GetRecBuffCheckCodeParam)
0008a513  global    _HMRECPRM_GetRecBuffFreemaster (.text:_HMRECPRM_GetRecBuffFreemaster)
00000000  global    _HMRECPRM_GetRecBuffFreemasterParam (.text:_HMRECPRM_GetRecBuffFreemasterParam)
00000000  global    _HMRECPRM_GetRecBuffIndex (.text:_HMRECPRM_GetRecBuffIndex)
0008ae7e  global    _HMRECPRM_GetRecBuffSize (.text:_HMRECPRM_GetRecBuffSize)
0008ac64  global    _HMRECPRM_GetRecParamPtrAvailableSampleCount (.text:_HMRECPRM_GetRecParamPtrAvailableSampleCount)
0008ac6c  global    _HMRECPRM_GetRecParamPtrLastSampleIndex (.text:_HMRECPRM_GetRecParamPtrLastSampleIndex)
0008ac74  global    _HMRECPRM_GetRecParamPtrMaximumUsedSampleCount (.text:_HMRECPRM_GetRecParamPtrMaximumUsedSampleCount)
0008ac7c  global    _HMRECPRM_GetRecParamPtrSampleSize (.text:_HMRECPRM_GetRecParamPtrSampleSize)
00000000  global    _HMRECPRM_GetRecSampleSize (.text:_HMRECPRM_GetRecSampleSize)
0008ab91  global    _HMRECPRM_GetRecStatus (.text:_HMRECPRM_GetRecStatus)
00000000  global    _HMRECPRM_GetRecStatusParam (.text:_HMRECPRM_GetRecStatusParam)
0008ac84  global    _HMRECPRM_GetStatusInternalRecParamAddress (.text:_HMRECPRM_GetStatusInternalRecParamAddress)
0008ac8c  global    _HMRECPRM_GetStatusRecParamAddress (.text:_HMRECPRM_GetStatusRecParamAddress)
0008ae73  global    _HMRECPRM_GetTimeBase (.text:_HMRECPRM_GetTimeBase)
00000000  global    _HMRECPRM_IsInRecBuffer (.text:_HMRECPRM_IsInRecBuffer)
0008aa69  global    _HMRECPRM_IsJustStopped (.text:_HMRECPRM_IsJustStopped)
0008ab3c  global    _HMRECPRM_IsRunning (.text:_HMRECPRM_IsRunning)
00000000  global    _HMRECPRM_SetTimeBase (.text:_HMRECPRM_SetTimeBase)
00088353  global    _HMRECPRM_SetUpRec (.text:_HMRECPRM_SetUpRec)
0008ad12  global    _HMRECPRM_SetUpRecBuff (.text:_HMRECPRM_SetUpRecBuff)
00085fb0  global    _HMRECPRM_SetUpRecParamStatusDateTime (.text:_HMRECPRM_SetUpRecParamStatusDateTime)
0008a5c7  global    _HMRECPRM_StartRec (.text:_HMRECPRM_StartRec)
00089ea5  global    _HMRECPRM_StartRecParam (.text:_HMRECPRM_StartRecParam)
0008aac0  global    _HMRECPRM_StopRec (.text:_HMRECPRM_StopRec)
0008a83a  global    _HMRECPRM_StopRecParam (.text:_HMRECPRM_StopRecParam)
0008aacd  global    _HMRECPRM_TriggerRec (.text:_HMRECPRM_TriggerRec)
0000e138  global    _HMRECPRM_sDateTime (.ebss:_HMRECPRM_sDateTime)
0008aa96  global    _HMRECPRM_vDisableAllStopDetections (.text:_HMRECPRM_vDisableAllStopDetections)
0008abc9  global    _HMRECPRM_vInit (.text:_HMRECPRM_vInit)
00000000  global    _HMRECPRM_vInitParam (.text:_HMRECPRM_vInitParam)
000880d8  global    _HMRECPRM_vProcess (.text:_HMRECPRM_vProcess)
0008a7fd  global    _HMRECPRM_vResetAllStopDetections (.text:_HMRECPRM_vResetAllStopDetections)
00089057  global    _HMRECPRM_vTimeSync (.text:_HMRECPRM_vTimeSync)
0000ee4a  global    _MAIN_sDate (.ebss:_MAIN_sDate)
00000000  global    _MAIN_sDateI2C (.ebss:_MAIN_sDateI2C)
0000ee4c  global    _MAIN_sTime (.ebss:_MAIN_sTime)
00000000  global    _MAIN_sTimeI2C (.ebss:_MAIN_sTimeI2C)
0000eb3e  global    _MAIN_u32FreeCounter (.ebss)
0008a1f6  global    _RecorderDateFromLocalDateTime (.text:_RecorderDateFromLocalDateTime)
00000000  global    _RecorderDateFromRTCDate (.text:_RecorderDateFromRTCDate)
0008a2ea  global    _RecorderTimeFromLocalDateTime (.text:_RecorderTimeFromLocalDateTime)
00000000  global    _RecorderTimeFromRTCTime (.text:_RecorderTimeFromRTCTime)
0000ee40  global    _abRecorderJustStopped (.ebss:_abRecorderJustStopped)
0000ee43  global    _abRecorderRunning (.ebss:_abRecorderRunning)
00000000  global    _au8RecParamBuffer0 (.ebss:_au8RecParamBuffer0)
00000000  global    _au8RecParamBuffer1 (.ebss:_au8RecParamBuffer1)
00000000  global    _au8RecParamBuffer2 (.ebss:_au8RecParamBuffer2)
0000eac0  global    _sRecExternParam (.ebss:_sRecExternParam)
0000e000  global    _sRecHandleParam (.ebss:_sRecHandleParam)
0000ebc0  global    _sRecStatusParam (.ebss:_sRecStatusParam)
0000ec40  global    _sRecStatusParamInternal (.ebss:_sRecStatusParamInternal)
00000000  global    _sRecTimeBase (.ebss:_sRecTimeBase)
0000edf2  global    _u32RecorderLastFreeCounter (.ebss:_u32RecorderLastFreeCounter)
0000edf8  global    _u32RecorderMicroSec (.ebss:_u32RecorderMicroSec)


================================================================================

CSMON_C28xx.lib : hmscope.obj

Run/Load            
Value     Binding   Name (Section)
--------  --------  ---------------
00089e7a  local     $C$L1 (.text:_HMSCOPE_SetUpScope)
00089e84  local     $C$L2 (.text:_HMSCOPE_SetUpScope)
00089e98  local     $C$L3 (.text:_HMSCOPE_SetUpScope)
00089e9b  local     $C$L4 (.text:_HMSCOPE_SetUpScope)
00089ea0  local     $C$L5 (.text:_HMSCOPE_SetUpScope)
00089fc6  local     $C$L6 (.text:_HMSCOPE_ReadScope)
00089fd0  local     $C$L7 (.text:_HMSCOPE_ReadScope)
00089fe6  local     $C$L8 (.text:_HMSCOPE_ReadScope)
00089fe7  local     $C$L9 (.text:_HMSCOPE_ReadScope)
00000000  local     .bss (.bss)
00000000  local     .data (.data)
0000edbf  local     .ebss (.ebss)
0000eb80  local     .ebss:_sScopeHandle (.ebss:_sScopeHandle)
00000000  local     .text (.text)
00089fb9  local     .text:_HMSCOPE_ReadScope (.text:_HMSCOPE_ReadScope)
00089e69  local     .text:_HMSCOPE_SetUpScope (.text:_HMSCOPE_SetUpScope)
00000000  local     .text:_HMSCOPE_vInit (.text:_HMSCOPE_vInit)
00000000  local     .text:_HMSCOPE_vSetDataChangeFlag (.text:_HMSCOPE_vSetDataChangeFlag)
0000edbf  global    _DataChangedFlag (.ebss)
00089fb9  global    _HMSCOPE_ReadScope (.text:_HMSCOPE_ReadScope)
00089e69  global    _HMSCOPE_SetUpScope (.text:_HMSCOPE_SetUpScope)
00000000  global    _HMSCOPE_vInit (.text:_HMSCOPE_vInit)
00000000  global    _HMSCOPE_vSetDataChangeFlag (.text:_HMSCOPE_vSetDataChangeFlag)
0000eb80  local     _sScopeHandle (.ebss:_sScopeHandle)


================================================================================

CSMON_C28xx.lib : hmscopeparam.obj

Run/Load            
Value     Binding   Name (Section)
--------  --------  ---------------
00000022  local     $C$L1 (.text:_HMSCOPE_ReadScopeParam)
00089b24  local     $C$L10 (.text:_HMSCOPEPRM_SetUpScope)
00089b27  local     $C$L11 (.text:_HMSCOPEPRM_SetUpScope)
00089b2b  local     $C$L12 (.text:_HMSCOPEPRM_SetUpScope)
00089ab5  local     $C$L13 (.text:_HMSCOPEPRM_ReadScope)
00089abe  local     $C$L14 (.text:_HMSCOPEPRM_ReadScope)
00089ace  local     $C$L15 (.text:_HMSCOPEPRM_ReadScope)
00089ae3  local     $C$L16 (.text:_HMSCOPEPRM_ReadScope)
00089ae4  local     $C$L17 (.text:_HMSCOPEPRM_ReadScope)
0000002b  local     $C$L2 (.text:_HMSCOPE_ReadScopeParam)
00000045  local     $C$L3 (.text:_HMSCOPE_ReadScopeParam)
0000005e  local     $C$L4 (.text:_HMSCOPE_ReadScopeParam)
00000063  local     $C$L5 (.text:_HMSCOPE_ReadScopeParam)
00000065  local     $C$L6 (.text:_HMSCOPE_ReadScopeParam)
00000066  local     $C$L7 (.text:_HMSCOPE_ReadScopeParam)
00089b02  local     $C$L8 (.text:_HMSCOPEPRM_SetUpScope)
00089b0d  local     $C$L9 (.text:_HMSCOPEPRM_SetUpScope)
00000000  local     .bss (.bss)
00082981  local     .cinit (.cinit)
00000000  local     .cinit:_nSizeBytesScopeBuffer (.cinit:_nSizeBytesScopeBuffer)
00082909  local     .cinit:_pBufferScope (.cinit:_pBufferScope)
00000000  local     .data (.data)
0000ebbe  local     .ebss (.ebss)
00000000  local     .ebss:_HMSCOPEPRM_u8Buffer (.ebss:_HMSCOPEPRM_u8Buffer)
00000000  local     .ebss:_nSizeBytesScopeBuffer (.ebss:_nSizeBytesScopeBuffer)
0000edec  local     .ebss:_pBufferScope (.ebss:_pBufferScope)
0000e780  local     .ebss:_sScopeHandlePrm (.ebss:_sScopeHandlePrm)
0000ee46  local     .ebss:_sScopeStatusParam (.ebss:_sScopeStatusParam)
00000000  local     .text (.text)
0008abd2  local     .text:_HMSCOPEPRM_GetBufferScopeParamAddress (.text:_HMSCOPEPRM_GetBufferScopeParamAddress)
0008acab  local     .text:_HMSCOPEPRM_GetStatusScopeParamAddress (.text:_HMSCOPEPRM_GetStatusScopeParamAddress)
00089aa1  local     .text:_HMSCOPEPRM_ReadScope (.text:_HMSCOPEPRM_ReadScope)
00089ae9  local     .text:_HMSCOPEPRM_SetUpScope (.text:_HMSCOPEPRM_SetUpScope)
00000000  local     .text:_HMSCOPEPRM_vInit (.text:_HMSCOPEPRM_vInit)
00000000  local     .text:_HMSCOPEPRM_vInitBufferParam (.text:_HMSCOPEPRM_vInitBufferParam)
00000000  local     .text:_HMSCOPEPRM_vSetDataChangeFlag (.text:_HMSCOPEPRM_vSetDataChangeFlag)
00000000  local     .text:_HMSCOPE_ReadScopeParam (.text:_HMSCOPE_ReadScopeParam)
0000ebbe  global    _DataChangedParamFlag (.ebss)
0008abd2  global    _HMSCOPEPRM_GetBufferScopeParamAddress (.text:_HMSCOPEPRM_GetBufferScopeParamAddress)
0008acab  global    _HMSCOPEPRM_GetStatusScopeParamAddress (.text:_HMSCOPEPRM_GetStatusScopeParamAddress)
00089aa1  global    _HMSCOPEPRM_ReadScope (.text:_HMSCOPEPRM_ReadScope)
00089ae9  global    _HMSCOPEPRM_SetUpScope (.text:_HMSCOPEPRM_SetUpScope)
00000000  global    _HMSCOPEPRM_u8Buffer (.ebss:_HMSCOPEPRM_u8Buffer)
00000000  global    _HMSCOPEPRM_vInit (.text:_HMSCOPEPRM_vInit)
00000000  global    _HMSCOPEPRM_vInitBufferParam (.text:_HMSCOPEPRM_vInitBufferParam)
00000000  global    _HMSCOPEPRM_vSetDataChangeFlag (.text:_HMSCOPEPRM_vSetDataChangeFlag)
00000000  global    _HMSCOPE_ReadScopeParam (.text:_HMSCOPE_ReadScopeParam)
0000ebbf  global    _nScopeIndexFreemaster (.ebss)
00000000  global    _nSizeBytesScopeBuffer (.ebss:_nSizeBytesScopeBuffer)
0000edec  global    _pBufferScope (.ebss:_pBufferScope)
0000e780  global    _sScopeHandlePrm (.ebss:_sScopeHandlePrm)
0000ee46  global    _sScopeStatusParam (.ebss:_sScopeStatusParam)


================================================================================

CSMON_C28xx.lib : hmserial.obj

Run/Load            
Value     Binding   Name (Section)
--------  --------  ---------------
00089b86  local     $C$L1 (.text:_HMSERIAL_vSendResponse)
0008a324  local     $C$L10 (.text:_HMSERIAL_vProcessSCITXISR)
0008a32a  local     $C$L11 (.text:_HMSERIAL_vProcessSCITXISR)
0008a332  local     $C$L12 (.text:_HMSERIAL_vProcessSCITXISR)
0008a337  local     $C$L13 (.text:_HMSERIAL_vProcessSCITXISR)
0008a1cb  local     $C$L14 (.text:_HMSERIAL_Listen)
0008a1d2  local     $C$L15 (.text:_HMSERIAL_Listen)
0008a1d8  local     $C$L16 (.text:_HMSERIAL_Listen)
0008a1e8  local     $C$L17 (.text:_HMSERIAL_Listen)
000895aa  local     $C$L18 (.text:_HMSERIAL_Rx)
000895ae  local     $C$L19 (.text:_HMSERIAL_Rx)
00089b8f  local     $C$L2 (.text:_HMSERIAL_vSendResponse)
000895b3  local     $C$L20 (.text:_HMSERIAL_Rx)
000895c1  local     $C$L21 (.text:_HMSERIAL_Rx)
000895ca  local     $C$L22 (.text:_HMSERIAL_Rx)
000895dc  local     $C$L23 (.text:_HMSERIAL_Rx)
000895de  local     $C$L24 (.text:_HMSERIAL_Rx)
000895e8  local     $C$L25 (.text:_HMSERIAL_Rx)
000895eb  local     $C$L26 (.text:_HMSERIAL_Rx)
0008a151  local     $C$L27 (.text:_HMSERIAL_vProcessSCIFreemasterOnly)
0008a15f  local     $C$L28 (.text:_HMSERIAL_vProcessSCIFreemasterOnly)
0008a166  local     $C$L29 (.text:_HMSERIAL_vProcessSCIFreemasterOnly)
00089b95  local     $C$L3 (.text:_HMSERIAL_vSendResponse)
0008a16d  local     $C$L30 (.text:_HMSERIAL_vProcessSCIFreemasterOnly)
00087fb5  local     $C$L31 (.text:_HMSERIAL_vProcessSCI)
00087fc2  local     $C$L32 (.text:_HMSERIAL_vProcessSCI)
00087fd0  local     $C$L33 (.text:_HMSERIAL_vProcessSCI)
00087fe3  local     $C$L34 (.text:_HMSERIAL_vProcessSCI)
00087fef  local     $C$L35 (.text:_HMSERIAL_vProcessSCI)
00087ff5  local     $C$L36 (.text:_HMSERIAL_vProcessSCI)
00087ffc  local     $C$L37 (.text:_HMSERIAL_vProcessSCI)
0008ab51  local     $C$L38 (.text:_HMSERIAL_vProcessFastTD)
00089b99  local     $C$L4 (.text:_HMSERIAL_vSendResponse)
0008a2cf  local     $C$L5 (.text:_HMSERIAL_Tx)
0008a2e1  local     $C$L6 (.text:_HMSERIAL_Tx)
0008a2e8  local     $C$L7 (.text:_HMSERIAL_Tx)
0008a695  local     $C$L8 (.text:_HMSERIAL_vProcessSCITXISRFreemasterOnly)
0008a69a  local     $C$L9 (.text:_HMSERIAL_vProcessSCITXISRFreemasterOnly)
00000000  local     .bss (.bss)
000828ee  local     .cinit (.cinit)
00000000  local     .data (.data)
0000ed2e  local     .ebss (.ebss)
0000ea40  local     .ebss:_pcm_pCommBuffer (.ebss:_pcm_pCommBuffer)
0000ee57  local     .ebss:_pcm_wFlags (.ebss:_pcm_wFlags)
0000ee58  local     .ebss:_pcm_wFlagsRxTx (.ebss:_pcm_wFlagsRxTx)
00000000  local     .text (.text)
0008a84e  local     .text:_HMSERIAL_DelayedTx (.text:_HMSERIAL_DelayedTx)
0008a1c9  local     .text:_HMSERIAL_Listen (.text:_HMSERIAL_Listen)
00089588  local     .text:_HMSERIAL_Rx (.text:_HMSERIAL_Rx)
0008a2c2  local     .text:_HMSERIAL_Tx (.text:_HMSERIAL_Tx)
0008a8ae  local     .text:_HMSERIAL_vInit (.text:_HMSERIAL_vInit)
0008ab47  local     .text:_HMSERIAL_vProcessFastTD (.text:_HMSERIAL_vProcessFastTD)
0008ac9c  local     .text:_HMSERIAL_vProcessFreeTimer (.text:_HMSERIAL_vProcessFreeTimer)
00087f82  local     .text:_HMSERIAL_vProcessSCI (.text:_HMSERIAL_vProcessSCI)
0008a141  local     .text:_HMSERIAL_vProcessSCIFreemasterOnly (.text:_HMSERIAL_vProcessSCIFreemasterOnly)
0008a312  local     .text:_HMSERIAL_vProcessSCITXISR (.text:_HMSERIAL_vProcessSCITXISR)
0008a682  local     .text:_HMSERIAL_vProcessSCITXISRFreemasterOnly (.text:_HMSERIAL_vProcessSCITXISRFreemasterOnly)
00089b76  local     .text:_HMSERIAL_vSendResponse (.text:_HMSERIAL_vSendResponse)
00000000  local     .text:_HMSERIAL_vSetPortIndex (.text:_HMSERIAL_vSetPortIndex)
0008a84e  global    _HMSERIAL_DelayedTx (.text:_HMSERIAL_DelayedTx)
0008a1c9  local     _HMSERIAL_Listen (.text:_HMSERIAL_Listen)
00089588  global    _HMSERIAL_Rx (.text:_HMSERIAL_Rx)
0008a2c2  global    _HMSERIAL_Tx (.text:_HMSERIAL_Tx)
0008a8ae  global    _HMSERIAL_vInit (.text:_HMSERIAL_vInit)
0008ab47  global    _HMSERIAL_vProcessFastTD (.text:_HMSERIAL_vProcessFastTD)
0008ac9c  global    _HMSERIAL_vProcessFreeTimer (.text:_HMSERIAL_vProcessFreeTimer)
00087f82  global    _HMSERIAL_vProcessSCI (.text:_HMSERIAL_vProcessSCI)
0008a141  global    _HMSERIAL_vProcessSCIFreemasterOnly (.text:_HMSERIAL_vProcessSCIFreemasterOnly)
0008a312  global    _HMSERIAL_vProcessSCITXISR (.text:_HMSERIAL_vProcessSCITXISR)
0008a682  global    _HMSERIAL_vProcessSCITXISRFreemasterOnly (.text:_HMSERIAL_vProcessSCITXISRFreemasterOnly)
00089b76  global    _HMSERIAL_vSendResponse (.text:_HMSERIAL_vSendResponse)
00000000  global    _HMSERIAL_vSetPortIndex (.text:_HMSERIAL_vSetPortIndex)
0000ed38  local     _nLastTimerValue$1 (.ebss)
0000ed31  global    _pcm_nRxCheckSum (.ebss)
0000ed30  global    _pcm_nRxTodo (.ebss)
0000ed2f  global    _pcm_nRxTodoEcho (.ebss)
0000ed2e  global    _pcm_nTxTodo (.ebss)
0000ea40  global    _pcm_pCommBuffer (.ebss:_pcm_pCommBuffer)
0000ed36  global    _pcm_pRxBuff (.ebss)
0000ed34  global    _pcm_pTxBuff (.ebss)
0000ee57  global    _pcm_wFlags (.ebss:_pcm_wFlags)
0000ee58  global    _pcm_wFlagsRxTx (.ebss:_pcm_wFlagsRxTx)
0000ed32  global    _u8UartIndex (.ebss)


================================================================================

CSMON_C28xx.lib : Hash.obj

Run/Load            
Value     Binding   Name (Section)
--------  --------  ---------------
00000004  local     $C$L1 (.text:_InitPrimeInd)
000000e7  local     $C$L10 (.text:_Hash)
000000fb  local     $C$L11 (.text:_Hash)
00000102  local     $C$L12 (.text:_Hash)
0000010e  local     $C$L13 (.text:_Hash)
00000111  local     $C$L14 (.text:_Hash)
00000118  local     $C$L15 (.text:_Hash)
0000011a  local     $C$L16 (.text:_Hash)
00000126  local     $C$L17 (.text:_Hash)
00000127  local     $C$L18 (.text:_Hash)
00000131  local     $C$L19 (.text:_Hash)
00000016  local     $C$L2 (.text:_Hash)
00000133  local     $C$L20 (.text:_Hash)
0000013f  local     $C$L21 (.text:_Hash)
00000140  local     $C$L22 (.text:_Hash)
0000014a  local     $C$L23 (.text:_Hash)
0000014c  local     $C$L24 (.text:_Hash)
00000158  local     $C$L25 (.text:_Hash)
00000159  local     $C$L26 (.text:_Hash)
00000163  local     $C$L27 (.text:_Hash)
00000165  local     $C$L28 (.text:_Hash)
00000171  local     $C$L29 (.text:_Hash)
0000001d  local     $C$L3 (.text:_Hash)
00000172  local     $C$L30 (.text:_Hash)
0000017c  local     $C$L31 (.text:_Hash)
0000017e  local     $C$L32 (.text:_Hash)
0000018a  local     $C$L33 (.text:_Hash)
0000018b  local     $C$L34 (.text:_Hash)
000001d6  local     $C$L35 (.text:_Hash)
000001dd  local     $C$L36 (.text:_Hash)
000001e3  local     $C$L37 (.text:_Hash)
000001ef  local     $C$L38 (.text:_Hash)
00000024  local     $C$L4 (.text:_Hash)
0000002a  local     $C$L5 (.text:_Hash)
00000031  local     $C$L6 (.text:_Hash)
0000003a  local     $C$L7 (.text:_Hash)
0000003e  local     $C$L8 (.text:_Hash)
00000046  local     $C$L9 (.text:_Hash)
00000000  local     .bss (.bss)
00000000  local     .data (.data)
00000000  local     .ebss:_primeIndArr (.ebss:_primeIndArr)
00000000  local     .econst:.string:_noPrime8 (.econst:.string:_noPrime8)
00000000  local     .econst:.string:_prime8 (.econst:.string:_prime8)
00000000  local     .text (.text)
00000000  local     .text:_Hash (.text:_Hash)
00000000  local     .text:_InitPrimeInd (.text:_InitPrimeInd)
00000000  global    _Hash (.text:_Hash)
00000000  local     _InitPrimeInd (.text:_InitPrimeInd)
00000000  local     _noPrime8 (.econst:.string:_noPrime8)
00000000  local     _prime8 (.econst:.string:_prime8)
00000000  global    _primeIndArr (.ebss:_primeIndArr)


================================================================================

CSMON_C28xx.lib : fpga_sci.obj

Run/Load            
Value     Binding   Name (Section)
--------  --------  ---------------
00000017  local     $C$L1 (.text:_FPGA_SCI_vStartUartTx)
00000024  local     $C$L10 (.text:_FPGA_SCI_vProcessUartRx)
00000031  local     $C$L11 (.text:_FPGA_SCI_vProcessUartRx)
00000038  local     $C$L12 (.text:_FPGA_SCI_vProcessUartRx)
0000003d  local     $C$L13 (.text:_FPGA_SCI_vProcessUartRx)
00000046  local     $C$L14 (.text:_FPGA_SCI_vProcessUartRx)
00000050  local     $C$L15 (.text:_FPGA_SCI_vProcessUartRx)
0000005c  local     $C$L16 (.text:_FPGA_SCI_vProcessUartRx)
00000060  local     $C$L17 (.text:_FPGA_SCI_vProcessUartRx)
00000063  local     $C$L18 (.text:_FPGA_SCI_vProcessUartRx)
0000006e  local     $C$L19 (.text:_FPGA_SCI_vProcessUartRx)
00000029  local     $C$L2 (.text:_FPGA_SCI_vStartUartTx)
00000019  local     $C$L20 (.text:_FPGA_SCI_vProcessTest)
00000023  local     $C$L21 (.text:_FPGA_SCI_vProcessTest)
00000032  local     $C$L22 (.text:_FPGA_SCI_vProcessTest)
0008a8d2  local     $C$L23 (.text:_FPGA_SCI_vProcessFastTD)
0000001f  local     $C$L24 (.text:_FPGA_SCI_vProcess)
00000090  local     $C$L25 (.text:_FPGA_SCI_vProcess)
000000c3  local     $C$L26 (.text:_FPGA_SCI_vProcess)
000000f6  local     $C$L27 (.text:_FPGA_SCI_vProcess)
00000124  local     $C$L28 (.text:_FPGA_SCI_vProcess)
00000128  local     $C$L29 (.text:_FPGA_SCI_vProcess)
0008a234  local     $C$L3 (.text:_FPGA_SCI_vProcessUartTx)
00000140  local     $C$L30 (.text:_FPGA_SCI_vProcess)
00000146  local     $C$L31 (.text:_FPGA_SCI_vProcess)
00000149  local     $C$L32 (.text:_FPGA_SCI_vProcess)
0000014a  local     $C$L33 (.text:_FPGA_SCI_vProcess)
0000014c  local     $C$L34 (.text:_FPGA_SCI_vProcess)
000001cb  local     $C$L35 (.text:_FPGA_SCI_vProcess)
000001ce  local     $C$L36 (.text:_FPGA_SCI_vProcess)
0000020f  local     $C$L37 (.text:_FPGA_SCI_vProcess)
0000022a  local     $C$L38 (.text:_FPGA_SCI_vProcess)
0000022c  local     $C$L39 (.text:_FPGA_SCI_vProcess)
0008a23e  local     $C$L4 (.text:_FPGA_SCI_vProcessUartTx)
00000230  local     $C$L40 (.text:_FPGA_SCI_vProcess)
00000253  local     $C$L41 (.text:_FPGA_SCI_vProcess)
00000255  local     $C$L42 (.text:_FPGA_SCI_vProcess)
0000025a  local     $C$L43 (.text:_FPGA_SCI_vProcess)
00000265  local     $C$L44 (.text:_FPGA_SCI_vProcess)
00000268  local     $C$L45 (.text:_FPGA_SCI_vProcess)
0000032d  local     $C$L46 (.text:_FPGA_SCI_vProcess)
0000001f  local     $C$L47 (.text:_FPGA_SCI_vGetDateTime)
0000002e  local     $C$L48 (.text:_FPGA_SCI_vGetDateTime)
0000002f  local     $C$L49 (.text:_FPGA_SCI_vGetDateTime)
0008a247  local     $C$L5 (.text:_FPGA_SCI_vProcessUartTx)
00000016  local     $C$L50 (.text:_FPGA_SCI_vErrorMasksSetup)
0000001b  local     $C$L51 (.text:_FPGA_SCI_vErrorMasksSetup)
00000029  local     $C$L52 (.text:_FPGA_SCI_vErrorMasksSetup)
00000008  local     $C$L53 (.text:_FPGA_SCI_vClockSetup)
00000006  local     $C$L54 (.text:_FPGA_SCI_bIsErrorTemp)
00000006  local     $C$L55 (.text:_FPGA_SCI_bIsErrorOvt)
00000007  local     $C$L56 (.text:_FPGA_SCI_bIsErrorOvt)
00000006  local     $C$L57 (.text:_FPGA_SCI_bIsErrorOcp)
00000006  local     $C$L58 (.text:_FPGA_SCI_bIsErrorOcn)
00000006  local     $C$L59 (.text:_FPGA_SCI_bIsErrorGlb)
00000010  local     $C$L6 (.text:_FPGA_SCI_vProcessUartRxTimeout)
00000006  local     $C$L60 (.text:_FPGA_SCI_bIsErrorDrv)
00000006  local     $C$L61 (.text:_FPGA_SCI_bIsErrorDet)
00000006  local     $C$L62 (.text:_FPGA_SCI_bIsError)
00000007  local     $C$L63 (.text:_FPGA_SCI_bIsError)
0000001b  local     $C$L64 (.text:_FPGA_SCI_bIsError)
00000015  local     $C$L65 (.text:_FPGA_SCI_GetTime)
0000001f  local     $C$L66 (.text:_FPGA_SCI_GetTime)
00000021  local     $C$L67 (.text:_FPGA_SCI_GetTime)
00000029  local     $C$L68 (.text:_FPGA_SCI_GetTime)
00000014  local     $C$L69 (.text:_FPGA_SCI_GetDate)
00000012  local     $C$L7 (.text:_FPGA_SCI_vProcessUartRxTimeout)
0000001d  local     $C$L70 (.text:_FPGA_SCI_GetDate)
0000001e  local     $C$L71 (.text:_FPGA_SCI_GetDate)
00000026  local     $C$L72 (.text:_FPGA_SCI_GetDate)
00000003  local     $C$L8 (.text:_FPGA_SCI_vProcessUartRx)
0000001a  local     $C$L9 (.text:_FPGA_SCI_vProcessUartRx)
00000000  local     .bss (.bss)
00082371  local     .cinit (.cinit)
00000000  local     .cinit:_FPGA_SCI_nMessagesCounter (.cinit:_FPGA_SCI_nMessagesCounter)
00000000  local     .data (.data)
0000cf80  local     .ebss (.ebss)
00000000  local     .ebss:_FPGA_SCI_au8RxBuffer (.ebss:_FPGA_SCI_au8RxBuffer)
0000eb40  local     .ebss:_FPGA_SCI_au8TxBuffer (.ebss:_FPGA_SCI_au8TxBuffer)
00000000  local     .ebss:_FPGA_SCI_nMessagesCounter (.ebss:_FPGA_SCI_nMessagesCounter)
00000000  local     .econst:_$P$T0$1 (.econst:_$P$T0$1)
00000000  local     .text (.text)
00000000  local     .text:_FPGA_SCI_GetDate (.text:_FPGA_SCI_GetDate)
00000000  local     .text:_FPGA_SCI_GetTime (.text:_FPGA_SCI_GetTime)
00000000  local     .text:_FPGA_SCI_bGetRTCGet (.text:_FPGA_SCI_bGetRTCGet)
00000000  local     .text:_FPGA_SCI_bIsError (.text:_FPGA_SCI_bIsError)
00000000  local     .text:_FPGA_SCI_bIsErrorDet (.text:_FPGA_SCI_bIsErrorDet)
00000000  local     .text:_FPGA_SCI_bIsErrorDrv (.text:_FPGA_SCI_bIsErrorDrv)
00000000  local     .text:_FPGA_SCI_bIsErrorGlb (.text:_FPGA_SCI_bIsErrorGlb)
00000000  local     .text:_FPGA_SCI_bIsErrorOcn (.text:_FPGA_SCI_bIsErrorOcn)
00000000  local     .text:_FPGA_SCI_bIsErrorOcp (.text:_FPGA_SCI_bIsErrorOcp)
00000000  local     .text:_FPGA_SCI_bIsErrorOvt (.text:_FPGA_SCI_bIsErrorOvt)
00000000  local     .text:_FPGA_SCI_bIsErrorTemp (.text:_FPGA_SCI_bIsErrorTemp)
00000000  local     .text:_FPGA_SCI_bIsErrorVdc (.text:_FPGA_SCI_bIsErrorVdc)
00000000  local     .text:_FPGA_SCI_vClearTrippedErrors (.text:_FPGA_SCI_vClearTrippedErrors)
00000000  local     .text:_FPGA_SCI_vClockSetup (.text:_FPGA_SCI_vClockSetup)
00000000  local     .text:_FPGA_SCI_vErrorMasksSetup (.text:_FPGA_SCI_vErrorMasksSetup)
00000000  local     .text:_FPGA_SCI_vGetDateTime (.text:_FPGA_SCI_vGetDateTime)
00000000  local     .text:_FPGA_SCI_vProcess (.text:_FPGA_SCI_vProcess)
0008a8c1  local     .text:_FPGA_SCI_vProcessFastTD (.text:_FPGA_SCI_vProcessFastTD)
00000000  local     .text:_FPGA_SCI_vProcessTest (.text:_FPGA_SCI_vProcessTest)
00000000  local     .text:_FPGA_SCI_vProcessUartRx (.text:_FPGA_SCI_vProcessUartRx)
00000000  local     .text:_FPGA_SCI_vProcessUartRxTimeout (.text:_FPGA_SCI_vProcessUartRxTimeout)
0008a220  local     .text:_FPGA_SCI_vProcessUartTx (.text:_FPGA_SCI_vProcessUartTx)
00000000  local     .text:_FPGA_SCI_vSetDateTime (.text:_FPGA_SCI_vSetDateTime)
00000000  local     .text:_FPGA_SCI_vSetStackDeny (.text:_FPGA_SCI_vSetStackDeny)
00000000  local     .text:_FPGA_SCI_vSetStackUsed (.text:_FPGA_SCI_vSetStackUsed)
00000000  local     .text:_FPGA_SCI_vStartUartTx (.text:_FPGA_SCI_vStartUartTx)
00000000  local     .text:_FPGA_SCI_vUartOverflowDetection (.text:_FPGA_SCI_vUartOverflowDetection)
00000000  local     _$P$T0$1 (.econst:_$P$T0$1)
0000cf8e  global    _FPGA_SCI_Clock_Get_Days (.ebss)
0000cf8c  global    _FPGA_SCI_Clock_Get_Hours (.ebss)
0000cf95  global    _FPGA_SCI_Clock_Get_Last_Days (.ebss)
0000cf93  global    _FPGA_SCI_Clock_Get_Last_Hours (.ebss)
0000cf92  global    _FPGA_SCI_Clock_Get_Last_Minutes (.ebss)
0000cf96  global    _FPGA_SCI_Clock_Get_Last_Month (.ebss)
0000cf91  global    _FPGA_SCI_Clock_Get_Last_Seconds (.ebss)
0000cf94  global    _FPGA_SCI_Clock_Get_Last_Weekdays (.ebss)
0000cf97  global    _FPGA_SCI_Clock_Get_Last_Year (.ebss)
0000cf8b  global    _FPGA_SCI_Clock_Get_Minutes (.ebss)
0000cf8f  global    _FPGA_SCI_Clock_Get_Month (.ebss)
0000cf8a  global    _FPGA_SCI_Clock_Get_Seconds (.ebss)
0000cf8d  global    _FPGA_SCI_Clock_Get_Weekdays (.ebss)
0000cf90  global    _FPGA_SCI_Clock_Get_Year (.ebss)
0000cf9c  global    _FPGA_SCI_Clock_Set_Days (.ebss)
0000cf9a  global    _FPGA_SCI_Clock_Set_Hours (.ebss)
0000cf99  global    _FPGA_SCI_Clock_Set_Minutes (.ebss)
0000cf9d  global    _FPGA_SCI_Clock_Set_Month (.ebss)
0000cf98  global    _FPGA_SCI_Clock_Set_Seconds (.ebss)
0000cf9b  global    _FPGA_SCI_Clock_Set_Weekdays (.ebss)
0000cf9e  global    _FPGA_SCI_Clock_Set_Year (.ebss)
00000000  global    _FPGA_SCI_GetDate (.text:_FPGA_SCI_GetDate)
00000000  global    _FPGA_SCI_GetTime (.text:_FPGA_SCI_GetTime)
0000cfc9  global    _FPGA_SCI_HuTmp (.ebss)
0000cfd4  global    _FPGA_SCI_HuTmp_Trip (.ebss)
0000cfca  global    _FPGA_SCI_Humid (.ebss)
0000cfd5  global    _FPGA_SCI_Humid_Trip (.ebss)
0000cfc0  global    _FPGA_SCI_Temp1 (.ebss)
0000cfcb  global    _FPGA_SCI_Temp1_Trip (.ebss)
0000cfc1  global    _FPGA_SCI_Temp2 (.ebss)
0000cfcc  global    _FPGA_SCI_Temp2_Trip (.ebss)
0000cfc2  global    _FPGA_SCI_Temp3 (.ebss)
0000cfcd  global    _FPGA_SCI_Temp3_Trip (.ebss)
0000cfc3  global    _FPGA_SCI_Temp4 (.ebss)
0000cfce  global    _FPGA_SCI_Temp4_Trip (.ebss)
0000cfc4  global    _FPGA_SCI_Temp5 (.ebss)
0000cfcf  global    _FPGA_SCI_Temp5_Trip (.ebss)
0000cfc5  global    _FPGA_SCI_Temp6 (.ebss)
0000cfd0  global    _FPGA_SCI_Temp6_Trip (.ebss)
0000cfc6  global    _FPGA_SCI_Temp7 (.ebss)
0000cfd1  global    _FPGA_SCI_Temp7_Trip (.ebss)
0000cfc7  global    _FPGA_SCI_Temp8 (.ebss)
0000cfd2  global    _FPGA_SCI_Temp8_Trip (.ebss)
0000cfc8  global    _FPGA_SCI_Temp9 (.ebss)
0000cfd3  global    _FPGA_SCI_Temp9_Trip (.ebss)
00000000  global    _FPGA_SCI_au8RxBuffer (.ebss:_FPGA_SCI_au8RxBuffer)
0000eb40  global    _FPGA_SCI_au8TxBuffer (.ebss:_FPGA_SCI_au8TxBuffer)
0000cf83  global    _FPGA_SCI_bDataRecv (.ebss)
0000cf84  global    _FPGA_SCI_bDataRecvUse (.ebss)
00000000  global    _FPGA_SCI_bGetRTCGet (.text:_FPGA_SCI_bGetRTCGet)
00000000  global    _FPGA_SCI_bIsError (.text:_FPGA_SCI_bIsError)
00000000  global    _FPGA_SCI_bIsErrorDet (.text:_FPGA_SCI_bIsErrorDet)
00000000  global    _FPGA_SCI_bIsErrorDrv (.text:_FPGA_SCI_bIsErrorDrv)
00000000  global    _FPGA_SCI_bIsErrorGlb (.text:_FPGA_SCI_bIsErrorGlb)
00000000  global    _FPGA_SCI_bIsErrorOcn (.text:_FPGA_SCI_bIsErrorOcn)
00000000  global    _FPGA_SCI_bIsErrorOcp (.text:_FPGA_SCI_bIsErrorOcp)
00000000  global    _FPGA_SCI_bIsErrorOvt (.text:_FPGA_SCI_bIsErrorOvt)
00000000  global    _FPGA_SCI_bIsErrorTemp (.text:_FPGA_SCI_bIsErrorTemp)
00000000  global    _FPGA_SCI_bIsErrorVdc (.text:_FPGA_SCI_bIsErrorVdc)
0000cf89  global    _FPGA_SCI_bPeriodicSend (.ebss)
0000cf85  global    _FPGA_SCI_bResetUart (.ebss)
0000cff3  global    _FPGA_SCI_bTxCommandMaskAuto (.ebss)
0000cfef  global    _FPGA_SCI_bUseCheckSum (.ebss)
0000cfd6  global    _FPGA_SCI_eRxState (.ebss)
0000cfa4  global    _FPGA_SCI_err_glb (.ebss)
0000cfaa  global    _FPGA_SCI_err_glb_err (.ebss)
0000cfb1  global    _FPGA_SCI_err_glb_err_Trip (.ebss)
0000cf9f  global    _FPGA_SCI_gdi_det (.ebss)
0000cfa5  global    _FPGA_SCI_gdi_det_err (.ebss)
0000cfac  global    _FPGA_SCI_gdi_det_err_Trip (.ebss)
0000cfa0  global    _FPGA_SCI_gdi_err (.ebss)
0000cfa6  global    _FPGA_SCI_gdi_err_err (.ebss)
0000cfad  global    _FPGA_SCI_gdi_err_err_Trip (.ebss)
0000cfa1  global    _FPGA_SCI_gdi_ovt (.ebss)
0000cfa7  global    _FPGA_SCI_gdi_ovt_err (.ebss)
0000cfae  global    _FPGA_SCI_gdi_ovt_err_Trip (.ebss)
0000cfab  global    _FPGA_SCI_meas_temp_err (.ebss)
0000cfb2  global    _FPGA_SCI_meas_temp_err_Trip (.ebss)
0000cfb4  global    _FPGA_SCI_ms_det (.ebss)
0000cfba  global    _FPGA_SCI_ms_det_fbk (.ebss)
0000cfb5  global    _FPGA_SCI_ms_err (.ebss)
0000cfbb  global    _FPGA_SCI_ms_err_fbk (.ebss)
0000cfb9  global    _FPGA_SCI_ms_glb (.ebss)
0000cfbf  global    _FPGA_SCI_ms_glb_fbk (.ebss)
0000cfb3  global    _FPGA_SCI_ms_meas_temp_err (.ebss)
0000cfb7  global    _FPGA_SCI_ms_ocn (.ebss)
0000cfbd  global    _FPGA_SCI_ms_ocn_fbk (.ebss)
0000cfb8  global    _FPGA_SCI_ms_ocp (.ebss)
0000cfbe  global    _FPGA_SCI_ms_ocp_fbk (.ebss)
0000cfb6  global    _FPGA_SCI_ms_ovt (.ebss)
0000cfbc  global    _FPGA_SCI_ms_ovt_fbk (.ebss)
0000cfe5  global    _FPGA_SCI_nAddrMode (.ebss)
0000cf87  global    _FPGA_SCI_nAddressDSP (.ebss)
0000cf88  global    _FPGA_SCI_nAddressFPGA (.ebss)
0000cfe3  global    _FPGA_SCI_nBytesToSend (.ebss)
0000cfe4  global    _FPGA_SCI_nBytesToSendHardSet (.ebss)
00000000  global    _FPGA_SCI_nMessagesCounter (.ebss:_FPGA_SCI_nMessagesCounter)
0000cfe6  global    _FPGA_SCI_nParityMode (.ebss)
0000cfd8  global    _FPGA_SCI_nRecvTimeout (.ebss)
0000cfde  global    _FPGA_SCI_nRxByteCounter (.ebss)
0000cfdc  global    _FPGA_SCI_nRxChSum (.ebss)
0000cfdf  global    _FPGA_SCI_nRxCommand (.ebss)
0000cfe0  global    _FPGA_SCI_nRxCommand_Mask (.ebss)
0000cfdd  global    _FPGA_SCI_nRxData (.ebss)
0000cfda  global    _FPGA_SCI_nRxIndex (.ebss)
0000cfe1  global    _FPGA_SCI_nRxLength (.ebss)
0000cfd7  global    _FPGA_SCI_nRxTodoEcho (.ebss)
0000cfdb  global    _FPGA_SCI_nTxChSum (.ebss)
0000cff1  global    _FPGA_SCI_nTxCommand (.ebss)
0000cffa  global    _FPGA_SCI_nTxCommandMaskDenyTime (.ebss)
0000cff8  global    _FPGA_SCI_nTxCommandMaskDenyTimeDelay (.ebss)
0000cffe  global    _FPGA_SCI_nTxCommandMaskDenyTimeDiff (.ebss)
0000cffc  global    _FPGA_SCI_nTxCommandMaskDenyTimeLast (.ebss)
0000cff2  global    _FPGA_SCI_nTxCommandReq (.ebss)
0000cfd9  global    _FPGA_SCI_nTxIndex (.ebss)
0000cfe2  global    _FPGA_SCI_nTxTestLength (.ebss)
0000cfa2  global    _FPGA_SCI_trp_ocn (.ebss)
0000cfa8  global    _FPGA_SCI_trp_ocn_err (.ebss)
0000cfaf  global    _FPGA_SCI_trp_ocn_err_Trip (.ebss)
0000cfa3  global    _FPGA_SCI_trp_ocp (.ebss)
0000cfa9  global    _FPGA_SCI_trp_ocp_err (.ebss)
0000cfb0  global    _FPGA_SCI_trp_ocp_err_Trip (.ebss)
0000cf82  global    _FPGA_SCI_u16TimeCurr (.ebss)
0000cf80  global    _FPGA_SCI_u16TimeLast (.ebss)
0000cf81  global    _FPGA_SCI_u16TimePass (.ebss)
0000cff6  global    _FPGA_SCI_u32SendCount (.ebss)
0000cff4  global    _FPGA_SCI_u32SendCounter (.ebss)
0000cf86  global    _FPGA_SCI_u8UartIndex (.ebss)
00000000  global    _FPGA_SCI_vClearTrippedErrors (.text:_FPGA_SCI_vClearTrippedErrors)
00000000  global    _FPGA_SCI_vClockSetup (.text:_FPGA_SCI_vClockSetup)
00000000  global    _FPGA_SCI_vErrorMasksSetup (.text:_FPGA_SCI_vErrorMasksSetup)
00000000  global    _FPGA_SCI_vGetDateTime (.text:_FPGA_SCI_vGetDateTime)
00000000  global    _FPGA_SCI_vProcess (.text:_FPGA_SCI_vProcess)
0008a8c1  global    _FPGA_SCI_vProcessFastTD (.text:_FPGA_SCI_vProcessFastTD)
00000000  global    _FPGA_SCI_vProcessTest (.text:_FPGA_SCI_vProcessTest)
00000000  global    _FPGA_SCI_vProcessUartRx (.text:_FPGA_SCI_vProcessUartRx)
00000000  global    _FPGA_SCI_vProcessUartRxTimeout (.text:_FPGA_SCI_vProcessUartRxTimeout)
0008a220  global    _FPGA_SCI_vProcessUartTx (.text:_FPGA_SCI_vProcessUartTx)
00000000  global    _FPGA_SCI_vSetDateTime (.text:_FPGA_SCI_vSetDateTime)
00000000  global    _FPGA_SCI_vSetStackDeny (.text:_FPGA_SCI_vSetStackDeny)
00000000  global    _FPGA_SCI_vSetStackUsed (.text:_FPGA_SCI_vSetStackUsed)
00000000  global    _FPGA_SCI_vStartUartTx (.text:_FPGA_SCI_vStartUartTx)
00000000  global    _FPGA_SCI_vUartOverflowDetection (.text:_FPGA_SCI_vUartOverflowDetection)
0000cfe7  global    _bDataUpdate (.ebss)
0000cfe8  global    _bRTCGet (.ebss)
0000cfec  global    _bResponseRxCommand (.ebss)
0000cfed  global    _bResponseRxCommandLast (.ebss)
0000cff0  global    _bRxResponseIncrementData (.ebss)
0000cfee  global    _bSendRxResponse (.ebss)
0000cfeb  global    _bSendTxCommand (.ebss)
0000cfea  global    _bUpdateLastExecuting (.ebss)
0000cfe9  global    _bUpdateNonLastExecuting (.ebss)


================================================================================

CSMON_C28xx.lib : sci_drv.obj

Run/Load            
Value     Binding   Name (Section)
--------  --------  ---------------
00000013  local     $C$L1 (.text:_SCI_vErrorResetProcess)
0000002b  local     $C$L2 (.text:_SCI_vErrorResetProcess)
00000000  local     .bss (.bss)
00000000  local     .data (.data)
00000000  local     .ebss:_SCI_ErrorRx (.ebss:_SCI_ErrorRx)
00000000  local     .text (.text)
00089c02  local     .text:_SCIA_RXFIFOISR (.text:_SCIA_RXFIFOISR)
00089c40  local     .text:_SCIA_TXFIFOISR (.text:_SCIA_TXFIFOISR)
00089c7e  local     .text:_SCIB_RXFIFOISR (.text:_SCIB_RXFIFOISR)
00089cbc  local     .text:_SCIB_TXFIFOISR (.text:_SCIB_TXFIFOISR)
00089d38  local     .text:_SCIC_RXFIFOISR (.text:_SCIC_RXFIFOISR)
00089d75  local     .text:_SCIC_TXFIFOISR (.text:_SCIC_TXFIFOISR)
00089db2  local     .text:_SCID_RXFIFOISR (.text:_SCID_RXFIFOISR)
00089def  local     .text:_SCID_TXFIFOISR (.text:_SCID_TXFIFOISR)
0008ad1c  local     .text:_SCI_eGetModuleIndexFromBase (.text:_SCI_eGetModuleIndexFromBase)
0008acbe  local     .text:_SCI_u32GetBaseFromModuleIndex (.text:_SCI_u32GetBaseFromModuleIndex)
00000000  local     .text:_SCI_vErrorResetProcess (.text:_SCI_vErrorResetProcess)
00000000  local     .text:_SCI_vInitFIFO (.text:_SCI_vInitFIFO)
00000000  local     .text:_SCI_vInitFIFORegisters (.text:_SCI_vInitFIFORegisters)
00089c02  global    _SCIA_RXFIFOISR (.text:_SCIA_RXFIFOISR)
00089c40  global    _SCIA_TXFIFOISR (.text:_SCIA_TXFIFOISR)
00089c7e  global    _SCIB_RXFIFOISR (.text:_SCIB_RXFIFOISR)
00089cbc  global    _SCIB_TXFIFOISR (.text:_SCIB_TXFIFOISR)
00089d38  global    _SCIC_RXFIFOISR (.text:_SCIC_RXFIFOISR)
00089d75  global    _SCIC_TXFIFOISR (.text:_SCIC_TXFIFOISR)
00089db2  global    _SCID_RXFIFOISR (.text:_SCID_RXFIFOISR)
00089def  global    _SCID_TXFIFOISR (.text:_SCID_TXFIFOISR)
00000000  global    _SCI_ErrorRx (.ebss:_SCI_ErrorRx)
0008ad1c  global    _SCI_eGetModuleIndexFromBase (.text:_SCI_eGetModuleIndexFromBase)
0008acbe  global    _SCI_u32GetBaseFromModuleIndex (.text:_SCI_u32GetBaseFromModuleIndex)
00000000  global    _SCI_vErrorResetProcess (.text:_SCI_vErrorResetProcess)
00000000  global    _SCI_vInitFIFO (.text:_SCI_vInitFIFO)
00000000  global    _SCI_vInitFIFORegisters (.text:_SCI_vInitFIFORegisters)


================================================================================

PERIPHERAL_C28xx.lib : peripheral.obj

Run/Load            
Value     Binding   Name (Section)
--------  --------  ---------------
00000000  local     .bss (.bss)
00000000  local     .data (.data)
0008ab73  local     .text (.text)
0008ab78  global    _PERIPHERAL_vInit (.text)
0008ab73  global    _PERIPHERAL_vProcess (.text)


================================================================================

PERIPHERAL_C28xx.lib : ds3231mz.obj

Run/Load            
Value     Binding   Name (Section)
--------  --------  ---------------
0008a033  local     $C$L1 (.text)
0008a038  local     $C$L2 (.text)
0008a03d  local     $C$L3 (.text)
0008a041  local     $C$L4 (.text)
0008a042  local     $C$L5 (.text)
00000000  local     .bss (.bss)
0008284d  local     .cinit (.cinit)
0008299d  local     .cinit:_au8ReadBuffer (.cinit:_au8ReadBuffer)
00000000  local     .data (.data)
0000cd7d  local     .ebss (.ebss)
0000cd6a  local     .ebss:_au8ReadBuffer (.ebss:_au8ReadBuffer)
0008a01f  local     .text (.text)
0000cd7e  global    _DS3231MZ_bReadRequest (.ebss)
0008a044  global    _DS3231MZ_vInit (.text)
0008a01f  global    _DS3231MZ_vProcess (.text)
0000cd6a  global    _au8ReadBuffer (.ebss:_au8ReadBuffer)
0000cd7f  global    _bReadAnswerWait (.ebss)
0000cd7d  global    _u16ReadStatus (.ebss)


================================================================================

PERIPHERAL_C28xx.lib : i2c_driver.obj

Run/Load            
Value     Binding   Name (Section)
--------  --------  ---------------
00083e59  local     $C$L1 (.text)
00083ebc  local     $C$L10 (.text)
00083ec4  local     $C$L11 (.text)
00083ece  local     $C$L12 (.text)
00083ed9  local     $C$L13 (.text)
00083edc  local     $C$L14 (.text)
00083f36  local     $C$L15 (.text)
00083f42  local     $C$L16 (.text)
00083f4b  local     $C$L17 (.text)
00083f54  local     $C$L18 (.text)
00083f56  local     $C$L19 (.text)
00083e60  local     $C$L2 (.text)
00083f5e  local     $C$L20 (.text)
000878f5  local     $C$L21 (.text:retain)
000878ff  local     $C$L22 (.text:retain)
00087901  local     $C$L23 (.text:retain)
00087910  local     $C$L24 (.text:retain)
00087916  local     $C$L25 (.text:retain)
00087927  local     $C$L26 (.text:retain)
0008792d  local     $C$L27 (.text:retain)
00087933  local     $C$L28 (.text:retain)
00087939  local     $C$L29 (.text:retain)
00083e6b  local     $C$L3 (.text)
00087979  local     $C$L30 (.text:retain)
00087983  local     $C$L31 (.text:retain)
00087985  local     $C$L32 (.text:retain)
00087994  local     $C$L33 (.text:retain)
0008799a  local     $C$L34 (.text:retain)
000879ab  local     $C$L35 (.text:retain)
000879b1  local     $C$L36 (.text:retain)
000879b7  local     $C$L37 (.text:retain)
000879bd  local     $C$L38 (.text:retain)
00083f62  local     $C$L39 (.text)
00083e75  local     $C$L4 (.text)
00083f8c  local     $C$L40 (.text)
00083f90  local     $C$L41 (.text)
00083f9a  local     $C$L42 (.text)
00083f9c  local     $C$L43 (.text)
00083fb1  local     $C$L44 (.text)
00083e7c  local     $C$L5 (.text)
00083e85  local     $C$L6 (.text)
00083e95  local     $C$L7 (.text)
00083e9e  local     $C$L8 (.text)
00083eb7  local     $C$L9 (.text)
00000000  local     .bss (.bss)
00000000  local     .cinit:_failCount (.cinit:_failCount)
00082706  local     .cinit:_i2cMsgIn (.cinit:_i2cMsgIn)
00082684  local     .cinit:_i2cMsgOut (.cinit:_i2cMsgOut)
00000000  local     .cinit:_passCount (.cinit:_passCount)
00000000  local     .data (.data)
0000ee1a  local     .ebss:_currentMsgPtr (.ebss:_currentMsgPtr)
00000000  local     .ebss:_failCount (.ebss:_failCount)
0000e248  local     .ebss:_i2cMsgIn (.ebss:_i2cMsgIn)
0000e990  local     .ebss:_i2cMsgOut (.ebss:_i2cMsgOut)
00000000  local     .ebss:_passCount (.ebss:_passCount)
00083e50  local     .text (.text)
000878cc  local     .text:retain (.text:retain)
00083fc7  global    _I2C_DRIVER_vInit (.text)
00083fc3  global    _I2C_DRIVER_vProcess (.text)
00083fa3  global    _I2C_DRIVER_vReadData (.text)
00083f93  global    _I2C_DRIVER_vSetupMessageSlave (.text)
00083f63  global    _I2C_DRIVER_vWriteData (.text)
00083f18  global    _I2C_u32BaseFromIndex (.text)
0000ee1a  global    _currentMsgPtr (.ebss:_currentMsgPtr)
00083f61  global    _fail (.text)
00000000  global    _failCount (.ebss:_failCount)
00087950  global    _i2cAISR (.text:retain)
000878cc  global    _i2cBISR (.text:retain)
0000e248  global    _i2cMsgIn (.ebss:_i2cMsgIn)
0000e990  global    _i2cMsgOut (.ebss:_i2cMsgOut)
00083f20  global    _i2cRWProcess (.text)
00083edd  global    _initI2C (.text)
00083edb  global    _pass (.text)
00000000  global    _passCount (.ebss:_passCount)
00083e97  global    _readData (.text)
00083e50  global    _writeData (.text)


================================================================================

rts2800_fpu32.lib : s_sinf.c.obj

Run/Load            
Value     Binding   Name (Section)
--------  --------  ---------------
00089580  local     $C$L1 (.text)
00000000  local     .bss (.bss)
00000000  local     .data (.data)
00089522  local     .text (.text)
00089522  global    _sin (.text)
00089522  global    _sinf (.text)


================================================================================

rts2800_fpu32.lib : boot28.asm.obj

Run/Load            
Value     Binding   Name (Section)
--------  --------  ---------------
00000000  local     .bss (.bss)
00000000  local     .data (.data)
003fffc0  local     .reset (.reset)
00000400  local     .stack (.stack)
000898d1  local     .text (.text)
00089923  local     BYPASS_AUTO_INIT (.text)
00089923  local     DONE_INIT (.text)
00089903  local     DO_BINIT (.text)
0008990d  local     DO_PINIT (.text)
000898ff  local     GET_ADDR (.text)
000898f4  local     GET_DATA (.text)
000898ed  local     LOOP (.text)
00089919  local     LOOP_PINIT (.text)
000898fb  local     START (.text)
0008991e  local     START_PINIT (.text)
00000400  global    __stack (.stack)
000898d1  global    _c_int00 (.text)


================================================================================

rts2800_fpu32.lib : fd_mpy28.asm.obj

Run/Load            
Value     Binding   Name (Section)
--------  --------  ---------------
00000000  local     .bss (.bss)
00000000  local     .data (.data)
00088fd4  local     .text (.text)
00088fd4  global    FD$$MPY (.text)
0008904f  local     OVERFLOW (.text)
0008904a  local     RETURN (.text)
00089048  local     RETURN_VALUE (.text)
0008903a  local     RND64_SET_MANT$3$ (.text)
0008902f  local     ROUND (.text)
00089055  local     UNDERFLOW (.text)


================================================================================

rts2800_fpu32.lib : fd_sub28.asm.obj

Run/Load            
Value     Binding   Name (Section)
--------  --------  ---------------
00000000  local     .bss (.bss)
00000000  local     .data (.data)
0008aab2  local     .text (.text)
0008aab2  global    FD$$SUB (.text)


================================================================================

rts2800_fpu32.lib : fd_toul28.asm.obj

Run/Load            
Value     Binding   Name (Section)
--------  --------  ---------------
00000000  local     .bss (.bss)
00000000  local     .data (.data)
0008a619  local     .text (.text)
0008a619  global    FD$$TOUL (.text)
0008a62f  local     OVERFLOW (.text)
0008a62e  local     RETURN_VALUE (.text)
0008a632  local     UNDERFLOW (.text)


================================================================================

rts2800_fpu32.lib : fs_div28.asm.obj

Run/Load            
Value     Binding   Name (Section)
--------  --------  ---------------
00000000  local     .bss (.bss)
00000000  local     .data (.data)
00088ec9  local     .text (.text)
00088ec9  global    FS$$DIV (.text)
00088f2d  local     OP1_ZERO (.text)
00088f44  local     OP2_ZERO (.text)
00088f35  local     OVERFLOW (.text)
00088f2d  local     RETURN_VALUE (.text)
00088f41  local     UNDERFLOW (.text)


================================================================================

rts2800_fpu32.lib : ll_div28.asm.obj

Run/Load            
Value     Binding   Name (Section)
--------  --------  ---------------
000879e2  local     $10 (.text)
000879ee  local     $15 (.text)
00087a23  local     $20 (.text)
00087a1d  local     $25 (.text)
00087a29  local     $30 (.text)
00087a57  local     $35 (.text)
00087a86  local     $40 (.text)
000879e8  local     $5_$2 (.text)
00000000  local     .bss (.bss)
00000000  local     .data (.data)
000879d4  local     .text (.text)
000879f8  local     CHECK_SIGN1 (.text)
00087a33  local     CHECK_SIGN2 (.text)
00087a6b  local     DGT3 (.text)
00087a6d  local     DIVUDenHighZero (.text)
00087a02  local     EQ0 (.text)
000879fd  local     EQ1 (.text)
00087a3b  local     EQ2 (.text)
00087a66  local     EQ3 (.text)
00087a97  local     EQ4 (.text)
000879d4  global    LL$$DIV (.text)
00087a10  global    LL$$MOD (.text)
00087ab6  local     LOOP (.text)
00087aa5  local     MAINDIV (.text)
00087ac4  local     MD_NEQ (.text)
00087a99  local     MODUDenHighZero (.text)
000879fb  local     RET1 (.text)
00087a36  local     RET2 (.text)
00087a64  local     RET3 (.text)
00087a93  local     RET4 (.text)
00087a38  local     RET_NUM1 (.text)
00087a95  local     RET_NUM2 (.text)
00087a04  local     SDIVUDenHighZero (.text)
00087ace  local     SKIP (.text)
00087ad0  local     SKIP1 (.text)
00087a3e  local     SMODUDenHighZero (.text)
00087a4a  global    ULL$$DIV (.text)
00087a79  global    ULL$$MOD (.text)


================================================================================

rts2800_fpu32.lib : u_div28.asm.obj

Run/Load            
Value     Binding   Name (Section)
--------  --------  ---------------
00000000  local     .bss (.bss)
00000000  local     .data (.data)
0008ab68  local     .text (.text)
0008ab68  global    U$$DIV (.text)
0008ab6d  global    U$$MOD (.text)


================================================================================

rts2800_fpu32.lib : u_tofd28.asm.obj

Run/Load            
Value     Binding   Name (Section)
--------  --------  ---------------
00000000  local     .bss (.bss)
00000000  local     .data (.data)
0008a7a5  local     .text (.text)
0008a7b2  local     NORMALIZE (.text)
0008a7ba  local     OP_ZERO (.text)
0008a7b4  local     PACK (.text)
0008a7b9  local     RETURN (.text)
0008a7b7  local     RETURN_VALUE (.text)
0008a7a5  global    U$$TOFD (.text)


================================================================================

rts2800_fpu32.lib : fd_div28.asm.obj

Run/Load            
Value     Binding   Name (Section)
--------  --------  ---------------
00088e7a  local     $1_$3 (.text)
00088e85  local     $2_$3 (.text)
00000000  local     .bss (.bss)
00000000  local     .data (.data)
00088e3e  local     .text (.text)
00088e94  local     DIV_END (.text)
00088e75  local     DIV_START (.text)
00088e3e  global    FD$$DIV (.text)
00088e97  local     NORMALIZE (.text)
00088ec1  local     OVERFLOW (.text)
00088ebc  local     RETURN (.text)
00088eba  local     RETURN_VALUE (.text)
00088eac  local     RND64_SET_MANT$3$ (.text)
00088ea0  local     ROUND (.text)
00088ec7  local     UNDERFLOW (.text)


================================================================================

rts2800_fpu32.lib : cpy_tbl.c.obj

Run/Load            
Value     Binding   Name (Section)
--------  --------  ---------------
0008a3f5  local     $C$L1 (.text)
0008a408  local     $C$L2 (.text)
0008a409  local     $C$L3 (.text)
00000000  local     .bss (.bss)
00000000  local     .data (.data)
0008a3ed  local     .text (.text)
0008a3ed  global    _copy_in (.text)


================================================================================

rts2800_fpu32.lib : memcpy.c.obj

Run/Load            
Value     Binding   Name (Section)
--------  --------  ---------------
0008a5b0  local     $C$L1 (.text)
0008a5b4  local     $C$L2 (.text)
0008a5bb  local     $C$L3 (.text)
0008a5bd  local     $C$L4 (.text)
0008a5c5  local     $C$L5 (.text)
00000000  local     .bss (.bss)
00000000  local     .data (.data)
0008a5aa  local     .text (.text)
0008a5aa  global    _memcpy (.text)


================================================================================

rts2800_fpu32.lib : pre_init.c.obj

Run/Load            
Value     Binding   Name (Section)
--------  --------  ---------------
00000000  local     .bss (.bss)
00000000  local     .data (.data)
0008ae90  local     .text (.text)
0008ae90  global    __system_pre_init (.text)


================================================================================

rts2800_fpu32.lib : startup.c.obj

Run/Load            
Value     Binding   Name (Section)
--------  --------  ---------------
00000000  local     .bss (.bss)
00000000  local     .data (.data)
00085fff  local     .text (.text)
00085fff  global    __system_post_cinit (.text)


================================================================================

rts2800_fpu32.lib : exit.c.obj

Run/Load            
Value     Binding   Name (Section)
--------  --------  ---------------
0008a24a  local     $C$L1 (.text)
0008a25d  local     $C$L2 (.text)
0008a268  local     $C$L3 (.text)
0008a26e  local     $C$L4 (.text)
00000000  local     .bss (.bss)
0008280b  local     .cinit (.cinit)
00000000  local     .data (.data)
0000ee00  local     .ebss (.ebss)
0008a249  local     .text (.text)
0008a249  global    C$$EXIT (.text)
0000ee02  global    ___TI_cleanup_ptr (.ebss)
0000ee04  global    ___TI_dtors_ptr (.ebss)
0000ee00  global    ___TI_enable_exit_profile_output (.ebss)
0008a249  global    _abort (.text)
0008a24b  global    _exit (.text)


================================================================================

rts2800_fpu32.lib : _lock.c.obj

Run/Load            
Value     Binding   Name (Section)
--------  --------  ---------------
00000000  local     .bss (.bss)
00082977  local     .cinit:__lock (.cinit:__lock)
0008297c  local     .cinit:__unlock (.cinit:__unlock)
00000000  local     .data (.data)
0000ee4e  local     .ebss:__lock (.ebss:__lock)
0000ee50  local     .ebss:__unlock (.ebss:__unlock)
0008ac23  local     .text (.text)
0000ee4e  global    __lock (.ebss:__lock)
0008ac2b  global    __nop (.text)
0008ac27  global    __register_lock (.text)
0008ac23  global    __register_unlock (.text)
0000ee50  global    __unlock (.ebss:__unlock)


================================================================================

rts2800_fpu32.lib : args_main.c.obj

Run/Load            
Value     Binding   Name (Section)
--------  --------  ---------------
0008a914  local     $C$L1 (.text)
0008a918  local     $C$L2 (.text)
00000000  local     .bss (.bss)
00000000  local     .data (.data)
0008a909  local     .text (.text)
0008a909  global    __args_main (.text)


================================================================================

rts2800_fpu32.lib : fd_add28.asm.obj

Run/Load            
Value     Binding   Name (Section)
--------  --------  ---------------
00000000  local     .bss (.bss)
00000000  local     .data (.data)
0008899b  local     .text (.text)
000889f2  local     ADD_OP (.text)
000889b9  local     EXP1_NZ (.text)
000889d3  local     EXP2_NZ (.text)
0008899b  global    FD$$ADD (.text)
000889fe  local     NORMALIZE (.text)
000889f6  local     NO_ADD (.text)
00088a29  local     OP1_ZERO (.text)
00088a2c  local     OP2_ZERO (.text)
00088a2f  local     OVERFLOW (.text)
000889e2  local     PREP_ADD (.text)
00088a24  local     RETURN (.text)
00088a22  local     RETURN_VALUE (.text)
00088a15  local     RND64_SET_MANT$4$ (.text)
000889b1  local     SAVE_MN1 (.text)
000889cb  local     SAVE_MN2 (.text)
00088a35  local     UNDERFLOW (.text)


================================================================================

